
D:\BaiduSyncdisk\02_icdc_workspace\.worktrees\coremark7-dmips5-20260508\YH_rv_cpu\build\sw\h22_custom_crc_only_no_skip_20260514.elf:     file format elf32-littleriscv


Disassembly of section .text:

00000000 <_start>:
       0:	00014117          	auipc	sp,0x14
       4:	00010113          	mv	sp,sp
       8:	0000d517          	auipc	a0,0xd
       c:	0a050513          	addi	a0,a0,160 # d0a8 <_data_load_start>
      10:	00010597          	auipc	a1,0x10
      14:	ff058593          	addi	a1,a1,-16 # 10000 <default_num_contexts>
      18:	00010617          	auipc	a2,0x10
      1c:	ff460613          	addi	a2,a2,-12 # 1000c <core_cached_prev_head>
      20:	00c5fc63          	bgeu	a1,a2,38 <_start+0x38>
      24:	00054283          	lbu	t0,0(a0)
      28:	00558023          	sb	t0,0(a1)
      2c:	00150513          	addi	a0,a0,1
      30:	00158593          	addi	a1,a1,1
      34:	fedff06f          	j	20 <_start+0x20>
      38:	00010517          	auipc	a0,0x10
      3c:	fd450513          	addi	a0,a0,-44 # 1000c <core_cached_prev_head>
      40:	00010597          	auipc	a1,0x10
      44:	7b858593          	addi	a1,a1,1976 # 107f8 <_bss_end>
      48:	00b57863          	bgeu	a0,a1,58 <_start+0x58>
      4c:	00050023          	sb	zero,0(a0)
      50:	00150513          	addi	a0,a0,1
      54:	ff5ff06f          	j	48 <_start+0x48>
      58:	3a4030ef          	jal	33fc <main>
      5c:	0000006f          	j	5c <_start+0x5c>

00000060 <calc_func>:
      60:	fe010113          	addi	sp,sp,-32 # 13fe0 <_bss_end+0x37e8>
      64:	00812c23          	sw	s0,24(sp)
      68:	00051403          	lh	s0,0(a0)
      6c:	00112e23          	sw	ra,28(sp)
      70:	48745793          	bexti	a5,s0,0x7
      74:	00078c63          	beqz	a5,8c <calc_func+0x2c>
      78:	01c12083          	lw	ra,28(sp)
      7c:	07f47513          	andi	a0,s0,127
      80:	01812403          	lw	s0,24(sp)
      84:	02010113          	addi	sp,sp,32
      88:	00008067          	ret
      8c:	1834370b          	th.extu	a4,s0,6,3
      90:	00471293          	slli	t0,a4,0x4
      94:	00912a23          	sw	s1,20(sp)
      98:	01212823          	sw	s2,16(sp)
      9c:	00570633          	add	a2,a4,t0
      a0:	01312623          	sw	s3,12(sp)
      a4:	00747693          	andi	a3,s0,7
      a8:	0385d783          	lhu	a5,56(a1)
      ac:	00058493          	mv	s1,a1
      b0:	00050913          	mv	s2,a0
      b4:	00060713          	mv	a4,a2
      b8:	06068c63          	beqz	a3,130 <calc_func+0xd0>
      bc:	00100513          	li	a0,1
      c0:	06a69263          	bne	a3,a0,124 <calc_func+0xc4>
      c4:	00070593          	mv	a1,a4
      c8:	00078613          	mv	a2,a5
      cc:	02848513          	addi	a0,s1,40
      d0:	3dc040ef          	jal	44ac <core_bench_matrix>
      d4:	03c4d583          	lhu	a1,60(s1)
      d8:	00050993          	mv	s3,a0
      dc:	08058463          	beqz	a1,164 <calc_func+0x104>
      e0:	0384d783          	lhu	a5,56(s1)
      e4:	00078593          	mv	a1,a5
      e8:	634090ef          	jal	971c <crcu16>
      ec:	00050813          	mv	a6,a0
      f0:	f0047893          	andi	a7,s0,-256
      f4:	07f9f513          	andi	a0,s3,127
      f8:	01c12083          	lw	ra,28(sp)
      fc:	01812403          	lw	s0,24(sp)
     100:	01156e33          	or	t3,a0,a7
     104:	03049c23          	sh	a6,56(s1)
     108:	080e6e93          	ori	t4,t3,128
     10c:	01d91023          	sh	t4,0(s2)
     110:	01412483          	lw	s1,20(sp)
     114:	01012903          	lw	s2,16(sp)
     118:	00c12983          	lw	s3,12(sp)
     11c:	02010113          	addi	sp,sp,32
     120:	00008067          	ret
     124:	3c04350b          	th.extu	a0,s0,15,0
     128:	00040993          	mv	s3,s0
     12c:	fb9ff06f          	j	e4 <calc_func+0x84>
     130:	02100313          	li	t1,33
     134:	00c36463          	bltu	t1,a2,13c <calc_func+0xdc>
     138:	02200713          	li	a4,34
     13c:	00249683          	lh	a3,2(s1)
     140:	00049603          	lh	a2,0(s1)
     144:	0144a583          	lw	a1,20(s1)
     148:	0184a503          	lw	a0,24(s1)
     14c:	658080ef          	jal	87a4 <core_bench_state>
     150:	03e4d383          	lhu	t2,62(s1)
     154:	00050993          	mv	s3,a0
     158:	00038c63          	beqz	t2,170 <calc_func+0x110>
     15c:	0384d783          	lhu	a5,56(s1)
     160:	f85ff06f          	j	e4 <calc_func+0x84>
     164:	0384d783          	lhu	a5,56(s1)
     168:	02a49e23          	sh	a0,60(s1)
     16c:	f79ff06f          	j	e4 <calc_func+0x84>
     170:	0384d783          	lhu	a5,56(s1)
     174:	02a49f23          	sh	a0,62(s1)
     178:	f6dff06f          	j	e4 <calc_func+0x84>

0000017c <cmp_complex>:
     17c:	fe010113          	addi	sp,sp,-32
     180:	00812c23          	sw	s0,24(sp)
     184:	00051403          	lh	s0,0(a0)
     188:	00912a23          	sw	s1,20(sp)
     18c:	01312623          	sw	s3,12(sp)
     190:	00112e23          	sw	ra,28(sp)
     194:	01212823          	sw	s2,16(sp)
     198:	48745793          	bexti	a5,s0,0x7
     19c:	00058993          	mv	s3,a1
     1a0:	00060493          	mv	s1,a2
     1a4:	02078c63          	beqz	a5,1dc <cmp_complex+0x60>
     1a8:	07f47913          	andi	s2,s0,127
     1ac:	00099403          	lh	s0,0(s3)
     1b0:	48745e93          	bexti	t4,s0,0x7
     1b4:	0a0e8263          	beqz	t4,258 <cmp_complex+0xdc>
     1b8:	01c12083          	lw	ra,28(sp)
     1bc:	07f47313          	andi	t1,s0,127
     1c0:	01812403          	lw	s0,24(sp)
     1c4:	01412483          	lw	s1,20(sp)
     1c8:	00c12983          	lw	s3,12(sp)
     1cc:	40690533          	sub	a0,s2,t1
     1d0:	01012903          	lw	s2,16(sp)
     1d4:	02010113          	addi	sp,sp,32
     1d8:	00008067          	ret
     1dc:	1834370b          	th.extu	a4,s0,6,3
     1e0:	00471293          	slli	t0,a4,0x4
     1e4:	01412423          	sw	s4,8(sp)
     1e8:	00570633          	add	a2,a4,t0
     1ec:	00747693          	andi	a3,s0,7
     1f0:	0384d783          	lhu	a5,56(s1)
     1f4:	00050a13          	mv	s4,a0
     1f8:	00060713          	mv	a4,a2
     1fc:	12068a63          	beqz	a3,330 <cmp_complex+0x1b4>
     200:	00100513          	li	a0,1
     204:	0ea69063          	bne	a3,a0,2e4 <cmp_complex+0x168>
     208:	00070593          	mv	a1,a4
     20c:	00078613          	mv	a2,a5
     210:	02848513          	addi	a0,s1,40
     214:	298040ef          	jal	44ac <core_bench_matrix>
     218:	03c4d583          	lhu	a1,60(s1)
     21c:	00050913          	mv	s2,a0
     220:	14058e63          	beqz	a1,37c <cmp_complex+0x200>
     224:	0384d783          	lhu	a5,56(s1)
     228:	00078593          	mv	a1,a5
     22c:	4f0090ef          	jal	971c <crcu16>
     230:	f0047813          	andi	a6,s0,-256
     234:	07f97913          	andi	s2,s2,127
     238:	010968b3          	or	a7,s2,a6
     23c:	02a49c23          	sh	a0,56(s1)
     240:	0808ee13          	ori	t3,a7,128
     244:	01ca1023          	sh	t3,0(s4)
     248:	00099403          	lh	s0,0(s3)
     24c:	00812a03          	lw	s4,8(sp)
     250:	48745e93          	bexti	t4,s0,0x7
     254:	f60e92e3          	bnez	t4,1b8 <cmp_complex+0x3c>
     258:	18343f0b          	th.extu	t5,s0,6,3
     25c:	004f1f93          	slli	t6,t5,0x4
     260:	01412423          	sw	s4,8(sp)
     264:	01ff02b3          	add	t0,t5,t6
     268:	00747a13          	andi	s4,s0,7
     26c:	0384d783          	lhu	a5,56(s1)
     270:	00028713          	mv	a4,t0
     274:	080a0463          	beqz	s4,2fc <cmp_complex+0x180>
     278:	00100613          	li	a2,1
     27c:	06ca1a63          	bne	s4,a2,2f0 <cmp_complex+0x174>
     280:	00078613          	mv	a2,a5
     284:	00028593          	mv	a1,t0
     288:	02848513          	addi	a0,s1,40
     28c:	220040ef          	jal	44ac <core_bench_matrix>
     290:	03c4d703          	lhu	a4,60(s1)
     294:	00050a13          	mv	s4,a0
     298:	0e070863          	beqz	a4,388 <cmp_complex+0x20c>
     29c:	0384d783          	lhu	a5,56(s1)
     2a0:	00078593          	mv	a1,a5
     2a4:	478090ef          	jal	971c <crcu16>
     2a8:	07fa7313          	andi	t1,s4,127
     2ac:	f0047393          	andi	t2,s0,-256
     2b0:	01c12083          	lw	ra,28(sp)
     2b4:	01812403          	lw	s0,24(sp)
     2b8:	007365b3          	or	a1,t1,t2
     2bc:	02a49c23          	sh	a0,56(s1)
     2c0:	0805e813          	ori	a6,a1,128
     2c4:	01099023          	sh	a6,0(s3)
     2c8:	00812a03          	lw	s4,8(sp)
     2cc:	01412483          	lw	s1,20(sp)
     2d0:	00c12983          	lw	s3,12(sp)
     2d4:	40690533          	sub	a0,s2,t1
     2d8:	01012903          	lw	s2,16(sp)
     2dc:	02010113          	addi	sp,sp,32
     2e0:	00008067          	ret
     2e4:	3c04350b          	th.extu	a0,s0,15,0
     2e8:	00040913          	mv	s2,s0
     2ec:	f3dff06f          	j	228 <cmp_complex+0xac>
     2f0:	3c04350b          	th.extu	a0,s0,15,0
     2f4:	00040a13          	mv	s4,s0
     2f8:	fa9ff06f          	j	2a0 <cmp_complex+0x124>
     2fc:	02100693          	li	a3,33
     300:	0056e463          	bltu	a3,t0,308 <cmp_complex+0x18c>
     304:	02200713          	li	a4,34
     308:	00249683          	lh	a3,2(s1)
     30c:	00049603          	lh	a2,0(s1)
     310:	0144a583          	lw	a1,20(s1)
     314:	0184a503          	lw	a0,24(s1)
     318:	48c080ef          	jal	87a4 <core_bench_state>
     31c:	03e4d783          	lhu	a5,62(s1)
     320:	00050a13          	mv	s4,a0
     324:	04078063          	beqz	a5,364 <cmp_complex+0x1e8>
     328:	0384d783          	lhu	a5,56(s1)
     32c:	f75ff06f          	j	2a0 <cmp_complex+0x124>
     330:	02100313          	li	t1,33
     334:	00c36463          	bltu	t1,a2,33c <cmp_complex+0x1c0>
     338:	02200713          	li	a4,34
     33c:	00249683          	lh	a3,2(s1)
     340:	00049603          	lh	a2,0(s1)
     344:	0144a583          	lw	a1,20(s1)
     348:	0184a503          	lw	a0,24(s1)
     34c:	458080ef          	jal	87a4 <core_bench_state>
     350:	03e4d383          	lhu	t2,62(s1)
     354:	00050913          	mv	s2,a0
     358:	00038c63          	beqz	t2,370 <cmp_complex+0x1f4>
     35c:	0384d783          	lhu	a5,56(s1)
     360:	ec9ff06f          	j	228 <cmp_complex+0xac>
     364:	0384d783          	lhu	a5,56(s1)
     368:	02a49f23          	sh	a0,62(s1)
     36c:	f35ff06f          	j	2a0 <cmp_complex+0x124>
     370:	0384d783          	lhu	a5,56(s1)
     374:	02a49f23          	sh	a0,62(s1)
     378:	eb1ff06f          	j	228 <cmp_complex+0xac>
     37c:	0384d783          	lhu	a5,56(s1)
     380:	02a49e23          	sh	a0,60(s1)
     384:	ea5ff06f          	j	228 <cmp_complex+0xac>
     388:	0384d783          	lhu	a5,56(s1)
     38c:	02a49e23          	sh	a0,60(s1)
     390:	f11ff06f          	j	2a0 <cmp_complex+0x124>

00000394 <cmp_idx>:
     394:	00060a63          	beqz	a2,3a8 <cmp_idx+0x14>
     398:	00251503          	lh	a0,2(a0)
     39c:	00259583          	lh	a1,2(a1)
     3a0:	40b50533          	sub	a0,a0,a1
     3a4:	00008067          	ret
     3a8:	00051783          	lh	a5,0(a0)
     3ac:	f007f713          	andi	a4,a5,-256
     3b0:	3c87b28b          	th.extu	t0,a5,15,8
     3b4:	00576333          	or	t1,a4,t0
     3b8:	00651023          	sh	t1,0(a0)
     3bc:	00059383          	lh	t2,0(a1)
     3c0:	00251503          	lh	a0,2(a0)
     3c4:	f003f613          	andi	a2,t2,-256
     3c8:	3c83b68b          	th.extu	a3,t2,15,8
     3cc:	00d66833          	or	a6,a2,a3
     3d0:	01059023          	sh	a6,0(a1)
     3d4:	00259583          	lh	a1,2(a1)
     3d8:	40b50533          	sub	a0,a0,a1
     3dc:	00008067          	ret

000003e0 <copy_info>:
     3e0:	00059703          	lh	a4,0(a1)
     3e4:	00259783          	lh	a5,2(a1)
     3e8:	00e51023          	sh	a4,0(a0)
     3ec:	00f51123          	sh	a5,2(a0)
     3f0:	00008067          	ret

000003f4 <core_bench_list>:
     3f4:	000107b7          	lui	a5,0x10
     3f8:	fa010113          	addi	sp,sp,-96
     3fc:	00c78293          	addi	t0,a5,12 # 1000c <core_cached_prev_head>
     400:	04812c23          	sw	s0,88(sp)
     404:	0002a303          	lw	t1,0(t0)
     408:	02452403          	lw	s0,36(a0)
     40c:	04112e23          	sw	ra,92(sp)
     410:	00512c23          	sw	t0,24(sp)
     414:	00451e83          	lh	t4,4(a0)
     418:	72830e63          	beq	t1,s0,b54 <core_bench_list+0x760>
     41c:	00041463          	bnez	s0,424 <core_bench_list+0x30>
     420:	4100106f          	j	1830 <core_bench_list+0x143c>
     424:	00040793          	mv	a5,s0
     428:	00000693          	li	a3,0
     42c:	0007a703          	lw	a4,0(a5)
     430:	00d7a223          	sw	a3,4(a5)
     434:	00078693          	mv	a3,a5
     438:	06070a63          	beqz	a4,4ac <core_bench_list+0xb8>
     43c:	00072803          	lw	a6,0(a4)
     440:	00f72223          	sw	a5,4(a4)
     444:	00070693          	mv	a3,a4
     448:	06080263          	beqz	a6,4ac <core_bench_list+0xb8>
     44c:	00082883          	lw	a7,0(a6)
     450:	00e82223          	sw	a4,4(a6)
     454:	00080693          	mv	a3,a6
     458:	04088a63          	beqz	a7,4ac <core_bench_list+0xb8>
     45c:	0008ae03          	lw	t3,0(a7)
     460:	0108a223          	sw	a6,4(a7)
     464:	00088693          	mv	a3,a7
     468:	040e0263          	beqz	t3,4ac <core_bench_list+0xb8>
     46c:	000e2f03          	lw	t5,0(t3)
     470:	011e2223          	sw	a7,4(t3)
     474:	000e0693          	mv	a3,t3
     478:	020f0a63          	beqz	t5,4ac <core_bench_list+0xb8>
     47c:	000f2f83          	lw	t6,0(t5)
     480:	01cf2223          	sw	t3,4(t5)
     484:	000f0693          	mv	a3,t5
     488:	020f8263          	beqz	t6,4ac <core_bench_list+0xb8>
     48c:	000fa283          	lw	t0,0(t6)
     490:	01efa223          	sw	t5,4(t6)
     494:	000f8693          	mv	a3,t6
     498:	00028a63          	beqz	t0,4ac <core_bench_list+0xb8>
     49c:	0002a783          	lw	a5,0(t0)
     4a0:	01f2a223          	sw	t6,4(t0)
     4a4:	00028693          	mv	a3,t0
     4a8:	f80792e3          	bnez	a5,42c <core_bench_list+0x38>
     4ac:	01812303          	lw	t1,24(sp)
     4b0:	00832023          	sw	s0,0(t1)
     4b4:	00d32223          	sw	a3,4(t1)
     4b8:	0805c863          	bltz	a1,548 <core_bench_list+0x154>
     4bc:	fffe8313          	addi	t1,t4,-1
     4c0:	0ff37613          	zext.b	a2,t1
     4c4:	00c12a23          	sw	a2,20(sp)
     4c8:	01d04463          	bgtz	t4,4d0 <core_bench_list+0xdc>
     4cc:	4080106f          	j	18d4 <core_bench_list+0x14e0>
     4d0:	00be8eb3          	add	t4,t4,a1
     4d4:	3c0eaf0b          	th.ext	t5,t4,15,0
     4d8:	01e12e23          	sw	t5,28(sp)
     4dc:	00041463          	bnez	s0,4e4 <core_bench_list+0xf0>
     4e0:	3180106f          	j	17f8 <core_bench_list+0x1404>
     4e4:	00058713          	mv	a4,a1
     4e8:	00000813          	li	a6,0
     4ec:	00000313          	li	t1,0
     4f0:	00000613          	li	a2,0
     4f4:	00000e13          	li	t3,0
     4f8:	00100e93          	li	t4,1
     4fc:	00a41783          	lh	a5,10(s0)
     500:	6ee78a63          	beq	a5,a4,bf4 <core_bench_list+0x800>
     504:	66081c63          	bnez	a6,b7c <core_bench_list+0x788>
     508:	00042283          	lw	t0,0(s0)
     50c:	02028463          	beqz	t0,534 <core_bench_list+0x140>
     510:	00a29383          	lh	t2,10(t0)
     514:	06e38ee3          	beq	t2,a4,d90 <core_bench_list+0x99c>
     518:	0002a283          	lw	t0,0(t0)
     51c:	00029463          	bnez	t0,524 <core_bench_list+0x130>
     520:	2ec0106f          	j	180c <core_bench_list+0x1418>
     524:	00a29883          	lh	a7,10(t0)
     528:	6ce88863          	beq	a7,a4,bf8 <core_bench_list+0x804>
     52c:	0002a283          	lw	t0,0(t0)
     530:	fe0290e3          	bnez	t0,510 <core_bench_list+0x11c>
     534:	00068813          	mv	a6,a3
     538:	00130313          	addi	t1,t1,1
     53c:	00040693          	mv	a3,s0
     540:	00080413          	mv	s0,a6
     544:	2e00106f          	j	1824 <core_bench_list+0x1430>
     548:	63d05263          	blez	t4,b6c <core_bench_list+0x778>
     54c:	00040893          	mv	a7,s0
     550:	00068413          	mv	s0,a3
     554:	00000693          	li	a3,0
     558:	0ff6f393          	zext.b	t2,a3
     55c:	00712a23          	sw	t2,20(sp)
     560:	00000813          	li	a6,0
     564:	00000313          	li	t1,0
     568:	00000613          	li	a2,0
     56c:	00000e13          	li	t3,0
     570:	00100f13          	li	t5,1
     574:	00088793          	mv	a5,a7
     578:	00089c63          	bnez	a7,590 <core_bench_list+0x19c>
     57c:	0700006f          	j	5ec <core_bench_list+0x1f8>
     580:	0007af83          	lw	t6,0(a5)
     584:	0047a783          	lw	a5,4(a5)
     588:	410f978b          	th.mveqz	a5,t6,a6
     58c:	06078063          	beqz	a5,5ec <core_bench_list+0x1f8>
     590:	0087c703          	lbu	a4,8(a5)
     594:	01412f83          	lw	t6,20(sp)
     598:	feef94e3          	bne	t6,a4,580 <core_bench_list+0x18c>
     59c:	00879283          	lh	t0,8(a5)
     5a0:	00160613          	addi	a2,a2,1
     5a4:	0012f393          	andi	t2,t0,1
     5a8:	00038663          	beqz	t2,5b4 <core_bench_list+0x1c0>
     5ac:	4892d713          	bexti	a4,t0,0x9
     5b0:	00ee0e33          	add	t3,t3,a4
     5b4:	03e802e3          	beq	a6,t5,dd8 <core_bench_list+0x9e4>
     5b8:	0047a283          	lw	t0,4(a5)
     5bc:	7e029463          	bnez	t0,da4 <core_bench_list+0x9b0>
     5c0:	00088793          	mv	a5,a7
     5c4:	00100813          	li	a6,1
     5c8:	00168693          	addi	a3,a3,1
     5cc:	3c06a68b          	th.ext	a3,a3,15,0
     5d0:	00040893          	mv	a7,s0
     5d4:	04de8a63          	beq	t4,a3,628 <core_bench_list+0x234>
     5d8:	0ff6f393          	zext.b	t2,a3
     5dc:	00712a23          	sw	t2,20(sp)
     5e0:	00078413          	mv	s0,a5
     5e4:	00088793          	mv	a5,a7
     5e8:	fa0894e3          	bnez	a7,590 <core_bench_list+0x19c>
     5ec:	00042383          	lw	t2,0(s0)
     5f0:	00442703          	lw	a4,4(s0)
     5f4:	00130313          	addi	t1,t1,1
     5f8:	00184293          	xori	t0,a6,1
     5fc:	01e81463          	bne	a6,t5,604 <core_bench_list+0x210>
     600:	00038713          	mv	a4,t2
     604:	00970f83          	lb	t6,9(a4)
     608:	00168693          	addi	a3,a3,1
     60c:	00088793          	mv	a5,a7
     610:	3c06a68b          	th.ext	a3,a3,15,0
     614:	001ff893          	andi	a7,t6,1
     618:	011e0e33          	add	t3,t3,a7
     61c:	00028813          	mv	a6,t0
     620:	00040893          	mv	a7,s0
     624:	fade9ae3          	bne	t4,a3,5d8 <core_bench_list+0x1e4>
     628:	00261693          	slli	a3,a2,0x2
     62c:	40668633          	sub	a2,a3,t1
     630:	00ce0e33          	add	t3,t3,a2
     634:	3c0e330b          	th.extu	t1,t3,15,0
     638:	00b12e23          	sw	a1,28(sp)
     63c:	00612623          	sw	t1,12(sp)
     640:	60081e63          	bnez	a6,c5c <core_bench_list+0x868>
     644:	00041463          	bnez	s0,64c <core_bench_list+0x258>
     648:	2340106f          	j	187c <core_bench_list+0x1488>
     64c:	00040e13          	mv	t3,s0
     650:	00000793          	li	a5,0
     654:	000e2f83          	lw	t6,0(t3)
     658:	00fe2223          	sw	a5,4(t3)
     65c:	000e0793          	mv	a5,t3
     660:	060f8a63          	beqz	t6,6d4 <core_bench_list+0x2e0>
     664:	000fae83          	lw	t4,0(t6)
     668:	01cfa223          	sw	t3,4(t6)
     66c:	000f8793          	mv	a5,t6
     670:	060e8263          	beqz	t4,6d4 <core_bench_list+0x2e0>
     674:	000eaf03          	lw	t5,0(t4)
     678:	01fea223          	sw	t6,4(t4)
     67c:	000e8793          	mv	a5,t4
     680:	040f0a63          	beqz	t5,6d4 <core_bench_list+0x2e0>
     684:	000f2383          	lw	t2,0(t5)
     688:	01df2223          	sw	t4,4(t5)
     68c:	000f0793          	mv	a5,t5
     690:	04038263          	beqz	t2,6d4 <core_bench_list+0x2e0>
     694:	0003a283          	lw	t0,0(t2)
     698:	01e3a223          	sw	t5,4(t2)
     69c:	00038793          	mv	a5,t2
     6a0:	02028a63          	beqz	t0,6d4 <core_bench_list+0x2e0>
     6a4:	0002a603          	lw	a2,0(t0)
     6a8:	0072a223          	sw	t2,4(t0)
     6ac:	00028793          	mv	a5,t0
     6b0:	02060263          	beqz	a2,6d4 <core_bench_list+0x2e0>
     6b4:	00062683          	lw	a3,0(a2)
     6b8:	00562223          	sw	t0,4(a2)
     6bc:	00060793          	mv	a5,a2
     6c0:	00068a63          	beqz	a3,6d4 <core_bench_list+0x2e0>
     6c4:	0006ae03          	lw	t3,0(a3)
     6c8:	00c6a223          	sw	a2,4(a3)
     6cc:	00068793          	mv	a5,a3
     6d0:	f80e12e3          	bnez	t3,654 <core_bench_list+0x260>
     6d4:	01812303          	lw	t1,24(sp)
     6d8:	00832023          	sw	s0,0(t1)
     6dc:	00f32223          	sw	a5,4(t1)
     6e0:	22b046e3          	bgtz	a1,110c <core_bench_list+0xd18>
     6e4:	00042803          	lw	a6,0(s0)
     6e8:	01c12e83          	lw	t4,28(sp)
     6ec:	00082283          	lw	t0,0(a6)
     6f0:	00882503          	lw	a0,8(a6)
     6f4:	0082a883          	lw	a7,8(t0)
     6f8:	01182423          	sw	a7,8(a6)
     6fc:	00a2a423          	sw	a0,8(t0)
     700:	00082703          	lw	a4,0(a6)
     704:	00072f83          	lw	t6,0(a4)
     708:	01f82023          	sw	t6,0(a6)
     70c:	0002a023          	sw	zero,0(t0)
     710:	000ed463          	bgez	t4,718 <core_bench_list+0x324>
     714:	0c00106f          	j	17d4 <core_bench_list+0x13e0>
     718:	00040513          	mv	a0,s0
     71c:	0100006f          	j	72c <core_bench_list+0x338>
     720:	00052503          	lw	a0,0(a0)
     724:	00051463          	bnez	a0,72c <core_bench_list+0x338>
     728:	0540106f          	j	177c <core_bench_list+0x1388>
     72c:	00a51603          	lh	a2,10(a0)
     730:	01c12e03          	lw	t3,28(sp)
     734:	ffc616e3          	bne	a2,t3,720 <core_bench_list+0x32c>
     738:	00042303          	lw	t1,0(s0)
     73c:	00845683          	lhu	a3,8(s0)
     740:	00c12583          	lw	a1,12(sp)
     744:	50b6880b          	.insn	4, 0x50b6880b
     748:	00052783          	lw	a5,0(a0)
     74c:	3c08350b          	th.extu	a0,a6,15,0
     750:	00a12623          	sw	a0,12(sp)
     754:	08078a63          	beqz	a5,7e8 <core_bench_list+0x3f4>
     758:	00c12883          	lw	a7,12(sp)
     75c:	5116870b          	.insn	4, 0x5116870b
     760:	0007af83          	lw	t6,0(a5)
     764:	3c073e8b          	th.extu	t4,a4,15,0
     768:	01d12623          	sw	t4,12(sp)
     76c:	060f8e63          	beqz	t6,7e8 <core_bench_list+0x3f4>
     770:	51d68f0b          	.insn	4, 0x51d68f0b
     774:	000fa383          	lw	t2,0(t6)
     778:	3c0f360b          	th.extu	a2,t5,15,0
     77c:	00c12623          	sw	a2,12(sp)
     780:	06038463          	beqz	t2,7e8 <core_bench_list+0x3f4>
     784:	50c68e0b          	.insn	4, 0x50c68e0b
     788:	0003a803          	lw	a6,0(t2)
     78c:	3c0e358b          	th.extu	a1,t3,15,0
     790:	00b12623          	sw	a1,12(sp)
     794:	04080a63          	beqz	a6,7e8 <core_bench_list+0x3f4>
     798:	50b6850b          	.insn	4, 0x50b6850b
     79c:	00082783          	lw	a5,0(a6)
     7a0:	3c05388b          	th.extu	a7,a0,15,0
     7a4:	01112623          	sw	a7,12(sp)
     7a8:	04078063          	beqz	a5,7e8 <core_bench_list+0x3f4>
     7ac:	5116870b          	.insn	4, 0x5116870b
     7b0:	0007af83          	lw	t6,0(a5)
     7b4:	3c073e8b          	th.extu	t4,a4,15,0
     7b8:	01d12623          	sw	t4,12(sp)
     7bc:	020f8663          	beqz	t6,7e8 <core_bench_list+0x3f4>
     7c0:	51d68f0b          	.insn	4, 0x51d68f0b
     7c4:	000fa383          	lw	t2,0(t6)
     7c8:	3c0f360b          	th.extu	a2,t5,15,0
     7cc:	00c12623          	sw	a2,12(sp)
     7d0:	00038c63          	beqz	t2,7e8 <core_bench_list+0x3f4>
     7d4:	50c68e0b          	.insn	4, 0x50c68e0b
     7d8:	0003a503          	lw	a0,0(t2)
     7dc:	3c0e380b          	th.extu	a6,t3,15,0
     7e0:	01012623          	sw	a6,12(sp)
     7e4:	f4051ee3          	bnez	a0,740 <core_bench_list+0x34c>
     7e8:	00832583          	lw	a1,8(t1)
     7ec:	0082a683          	lw	a3,8(t0)
     7f0:	00032783          	lw	a5,0(t1)
     7f4:	00b2a423          	sw	a1,8(t0)
     7f8:	00d32423          	sw	a3,8(t1)
     7fc:	00f2a023          	sw	a5,0(t0)
     800:	00100e13          	li	t3,1
     804:	00532023          	sw	t0,0(t1)
     808:	000e0f13          	mv	t5,t3
     80c:	00041463          	bnez	s0,814 <core_bench_list+0x420>
     810:	1380106f          	j	1948 <core_bench_list+0x1554>
     814:	00000313          	li	t1,0
     818:	00000713          	li	a4,0
     81c:	00000e93          	li	t4,0
     820:	007e7293          	andi	t0,t3,7
     824:	001e8e93          	addi	t4,t4,1
     828:	00040613          	mv	a2,s0
     82c:	00000793          	li	a5,0
     830:	08028463          	beqz	t0,8b8 <core_bench_list+0x4c4>
     834:	0fc7d663          	bge	a5,t3,920 <core_bench_list+0x52c>
     838:	00042603          	lw	a2,0(s0)
     83c:	00100793          	li	a5,1
     840:	0e060063          	beqz	a2,920 <core_bench_list+0x52c>
     844:	06f28a63          	beq	t0,a5,8b8 <core_bench_list+0x4c4>
     848:	00200893          	li	a7,2
     84c:	07128063          	beq	t0,a7,8ac <core_bench_list+0x4b8>
     850:	00300f93          	li	t6,3
     854:	05f28663          	beq	t0,t6,8a0 <core_bench_list+0x4ac>
     858:	00400393          	li	t2,4
     85c:	02728c63          	beq	t0,t2,894 <core_bench_list+0x4a0>
     860:	00500513          	li	a0,5
     864:	02a28263          	beq	t0,a0,888 <core_bench_list+0x494>
     868:	00600813          	li	a6,6
     86c:	01028863          	beq	t0,a6,87c <core_bench_list+0x488>
     870:	00062603          	lw	a2,0(a2)
     874:	00088793          	mv	a5,a7
     878:	0a060463          	beqz	a2,920 <core_bench_list+0x52c>
     87c:	00062603          	lw	a2,0(a2)
     880:	00178793          	addi	a5,a5,1
     884:	08060e63          	beqz	a2,920 <core_bench_list+0x52c>
     888:	00062603          	lw	a2,0(a2)
     88c:	00178793          	addi	a5,a5,1
     890:	08060863          	beqz	a2,920 <core_bench_list+0x52c>
     894:	00062603          	lw	a2,0(a2)
     898:	00178793          	addi	a5,a5,1
     89c:	08060263          	beqz	a2,920 <core_bench_list+0x52c>
     8a0:	00062603          	lw	a2,0(a2)
     8a4:	00178793          	addi	a5,a5,1
     8a8:	06060c63          	beqz	a2,920 <core_bench_list+0x52c>
     8ac:	00062603          	lw	a2,0(a2)
     8b0:	00178793          	addi	a5,a5,1
     8b4:	06060663          	beqz	a2,920 <core_bench_list+0x52c>
     8b8:	07c7d463          	bge	a5,t3,920 <core_bench_list+0x52c>
     8bc:	00062603          	lw	a2,0(a2)
     8c0:	00178793          	addi	a5,a5,1
     8c4:	00078593          	mv	a1,a5
     8c8:	04060c63          	beqz	a2,920 <core_bench_list+0x52c>
     8cc:	00062603          	lw	a2,0(a2)
     8d0:	00178793          	addi	a5,a5,1
     8d4:	04060663          	beqz	a2,920 <core_bench_list+0x52c>
     8d8:	00062603          	lw	a2,0(a2)
     8dc:	00258793          	addi	a5,a1,2
     8e0:	04060063          	beqz	a2,920 <core_bench_list+0x52c>
     8e4:	00062603          	lw	a2,0(a2)
     8e8:	00358793          	addi	a5,a1,3
     8ec:	02060a63          	beqz	a2,920 <core_bench_list+0x52c>
     8f0:	00062603          	lw	a2,0(a2)
     8f4:	00458793          	addi	a5,a1,4
     8f8:	02060463          	beqz	a2,920 <core_bench_list+0x52c>
     8fc:	00062603          	lw	a2,0(a2)
     900:	00558793          	addi	a5,a1,5
     904:	00060e63          	beqz	a2,920 <core_bench_list+0x52c>
     908:	00062603          	lw	a2,0(a2)
     90c:	00658793          	addi	a5,a1,6
     910:	00060863          	beqz	a2,920 <core_bench_list+0x52c>
     914:	00062603          	lw	a2,0(a2)
     918:	00758793          	addi	a5,a1,7
     91c:	f8061ee3          	bnez	a2,8b8 <core_bench_list+0x4c4>
     920:	00070693          	mv	a3,a4
     924:	000e0513          	mv	a0,t3
     928:	00040713          	mv	a4,s0
     92c:	00060413          	mv	s0,a2
     930:	04f05e63          	blez	a5,98c <core_bench_list+0x598>
     934:	4a050c63          	beqz	a0,dec <core_bench_list+0x9f8>
     938:	4e040463          	beqz	s0,e20 <core_bench_list+0xa2c>
     93c:	00a41803          	lh	a6,10(s0)
     940:	00871f83          	lh	t6,8(a4)
     944:	00a71883          	lh	a7,10(a4)
     948:	f00ff393          	andi	t2,t6,-256
     94c:	3c8fb58b          	th.extu	a1,t6,15,8
     950:	00b3e633          	or	a2,t2,a1
     954:	00c71423          	sh	a2,8(a4)
     958:	00841283          	lh	t0,8(s0)
     95c:	f002ff93          	andi	t6,t0,-256
     960:	3c82b38b          	th.extu	t2,t0,15,8
     964:	007fe5b3          	or	a1,t6,t2
     968:	00b41423          	sh	a1,8(s0)
     96c:	4f185863          	bge	a6,a7,e5c <core_bench_list+0xa68>
     970:	00042803          	lw	a6,0(s0)
     974:	fff50513          	addi	a0,a0,-1
     978:	50068263          	beqz	a3,e7c <core_bench_list+0xa88>
     97c:	0086a023          	sw	s0,0(a3)
     980:	00040693          	mv	a3,s0
     984:	00080413          	mv	s0,a6
     988:	faf046e3          	bgtz	a5,934 <core_bench_list+0x540>
     98c:	52a05063          	blez	a0,eac <core_bench_list+0xab8>
     990:	1a040863          	beqz	s0,b40 <core_bench_list+0x74c>
     994:	fa0794e3          	bnez	a5,93c <core_bench_list+0x548>
     998:	fff50713          	addi	a4,a0,-1
     99c:	00777793          	andi	a5,a4,7
     9a0:	0e078a63          	beqz	a5,a94 <core_bench_list+0x6a0>
     9a4:	00042283          	lw	t0,0(s0)
     9a8:	00070513          	mv	a0,a4
     9ac:	56068c63          	beqz	a3,f24 <core_bench_list+0xb30>
     9b0:	0086a023          	sw	s0,0(a3)
     9b4:	00040693          	mv	a3,s0
     9b8:	18028463          	beqz	t0,b40 <core_bench_list+0x74c>
     9bc:	00100613          	li	a2,1
     9c0:	00028413          	mv	s0,t0
     9c4:	0cc78863          	beq	a5,a2,a94 <core_bench_list+0x6a0>
     9c8:	00200f93          	li	t6,2
     9cc:	0bf78663          	beq	a5,t6,a78 <core_bench_list+0x684>
     9d0:	00300393          	li	t2,3
     9d4:	08778463          	beq	a5,t2,a5c <core_bench_list+0x668>
     9d8:	00400593          	li	a1,4
     9dc:	06b78263          	beq	a5,a1,a40 <core_bench_list+0x64c>
     9e0:	00500893          	li	a7,5
     9e4:	05178063          	beq	a5,a7,a24 <core_bench_list+0x630>
     9e8:	00600813          	li	a6,6
     9ec:	01078e63          	beq	a5,a6,a08 <core_bench_list+0x614>
     9f0:	0002a403          	lw	s0,0(t0)
     9f4:	fff50513          	addi	a0,a0,-1
     9f8:	6a068e63          	beqz	a3,10b4 <core_bench_list+0xcc0>
     9fc:	0056a023          	sw	t0,0(a3)
     a00:	00028693          	mv	a3,t0
     a04:	12040e63          	beqz	s0,b40 <core_bench_list+0x74c>
     a08:	00042703          	lw	a4,0(s0)
     a0c:	fff50513          	addi	a0,a0,-1
     a10:	52068e63          	beqz	a3,f4c <core_bench_list+0xb58>
     a14:	0086a023          	sw	s0,0(a3)
     a18:	00040693          	mv	a3,s0
     a1c:	12070263          	beqz	a4,b40 <core_bench_list+0x74c>
     a20:	00070413          	mv	s0,a4
     a24:	00042783          	lw	a5,0(s0)
     a28:	fff50513          	addi	a0,a0,-1
     a2c:	50068c63          	beqz	a3,f44 <core_bench_list+0xb50>
     a30:	0086a023          	sw	s0,0(a3)
     a34:	00040693          	mv	a3,s0
     a38:	10078463          	beqz	a5,b40 <core_bench_list+0x74c>
     a3c:	00078413          	mv	s0,a5
     a40:	00042283          	lw	t0,0(s0)
     a44:	fff50513          	addi	a0,a0,-1
     a48:	4e068a63          	beqz	a3,f3c <core_bench_list+0xb48>
     a4c:	0086a023          	sw	s0,0(a3)
     a50:	00040693          	mv	a3,s0
     a54:	0e028663          	beqz	t0,b40 <core_bench_list+0x74c>
     a58:	00028413          	mv	s0,t0
     a5c:	00042603          	lw	a2,0(s0)
     a60:	fff50513          	addi	a0,a0,-1
     a64:	4c068863          	beqz	a3,f34 <core_bench_list+0xb40>
     a68:	0086a023          	sw	s0,0(a3)
     a6c:	00040693          	mv	a3,s0
     a70:	0c060863          	beqz	a2,b40 <core_bench_list+0x74c>
     a74:	00060413          	mv	s0,a2
     a78:	00042f83          	lw	t6,0(s0)
     a7c:	fff50513          	addi	a0,a0,-1
     a80:	4a068663          	beqz	a3,f2c <core_bench_list+0xb38>
     a84:	0086a023          	sw	s0,0(a3)
     a88:	00040693          	mv	a3,s0
     a8c:	0a0f8a63          	beqz	t6,b40 <core_bench_list+0x74c>
     a90:	000f8413          	mv	s0,t6
     a94:	00042383          	lw	t2,0(s0)
     a98:	fff50513          	addi	a0,a0,-1
     a9c:	42068c63          	beqz	a3,ed4 <core_bench_list+0xae0>
     aa0:	0086a023          	sw	s0,0(a3)
     aa4:	42050c63          	beqz	a0,edc <core_bench_list+0xae8>
     aa8:	00040693          	mv	a3,s0
     aac:	08038a63          	beqz	t2,b40 <core_bench_list+0x74c>
     ab0:	0003a583          	lw	a1,0(t2)
     ab4:	42040c63          	beqz	s0,eec <core_bench_list+0xaf8>
     ab8:	00742023          	sw	t2,0(s0)
     abc:	00038693          	mv	a3,t2
     ac0:	08058063          	beqz	a1,b40 <core_bench_list+0x74c>
     ac4:	0005a403          	lw	s0,0(a1)
     ac8:	42038663          	beqz	t2,ef4 <core_bench_list+0xb00>
     acc:	00b3a023          	sw	a1,0(t2)
     ad0:	00058693          	mv	a3,a1
     ad4:	06040663          	beqz	s0,b40 <core_bench_list+0x74c>
     ad8:	00042883          	lw	a7,0(s0)
     adc:	42058063          	beqz	a1,efc <core_bench_list+0xb08>
     ae0:	0085a023          	sw	s0,0(a1)
     ae4:	00040693          	mv	a3,s0
     ae8:	04088c63          	beqz	a7,b40 <core_bench_list+0x74c>
     aec:	0008a803          	lw	a6,0(a7)
     af0:	40040a63          	beqz	s0,f04 <core_bench_list+0xb10>
     af4:	01142023          	sw	a7,0(s0)
     af8:	00088693          	mv	a3,a7
     afc:	04080263          	beqz	a6,b40 <core_bench_list+0x74c>
     b00:	00082283          	lw	t0,0(a6)
     b04:	40088463          	beqz	a7,f0c <core_bench_list+0xb18>
     b08:	0108a023          	sw	a6,0(a7)
     b0c:	00080693          	mv	a3,a6
     b10:	02028863          	beqz	t0,b40 <core_bench_list+0x74c>
     b14:	0002a783          	lw	a5,0(t0)
     b18:	3e080e63          	beqz	a6,f14 <core_bench_list+0xb20>
     b1c:	00582023          	sw	t0,0(a6)
     b20:	00028693          	mv	a3,t0
     b24:	00078e63          	beqz	a5,b40 <core_bench_list+0x74c>
     b28:	0007a403          	lw	s0,0(a5)
     b2c:	ff950513          	addi	a0,a0,-7
     b30:	3e028663          	beqz	t0,f1c <core_bench_list+0xb28>
     b34:	00f2a023          	sw	a5,0(t0)
     b38:	00078693          	mv	a3,a5
     b3c:	f4041ce3          	bnez	s0,a94 <core_bench_list+0x6a0>
     b40:	0006a023          	sw	zero,0(a3)
     b44:	41ee8863          	beq	t4,t5,f54 <core_bench_list+0xb60>
     b48:	001e1e13          	slli	t3,t3,0x1
     b4c:	00030413          	mv	s0,t1
     b50:	cbdff06f          	j	80c <core_bench_list+0x418>
     b54:	01812383          	lw	t2,24(sp)
     b58:	0043a683          	lw	a3,4(t2)
     b5c:	8c0680e3          	beqz	a3,41c <core_bench_list+0x28>
     b60:	9405dee3          	bgez	a1,4bc <core_bench_list+0xc8>
     b64:	9fd044e3          	bgtz	t4,54c <core_bench_list+0x158>
     b68:	5a040ce3          	beqz	s0,1920 <core_bench_list+0x152c>
     b6c:	00b12e23          	sw	a1,28(sp)
     b70:	00012623          	sw	zero,12(sp)
     b74:	00012a23          	sw	zero,20(sp)
     b78:	ad5ff06f          	j	64c <core_bench_list+0x258>
     b7c:	00442283          	lw	t0,4(s0)
     b80:	02028263          	beqz	t0,ba4 <core_bench_list+0x7b0>
     b84:	00a29f03          	lh	t5,10(t0)
     b88:	1aef0863          	beq	t5,a4,d38 <core_bench_list+0x944>
     b8c:	0042a283          	lw	t0,4(t0)
     b90:	46028ee3          	beqz	t0,180c <core_bench_list+0x1418>
     b94:	00a29383          	lh	t2,10(t0)
     b98:	06e38063          	beq	t2,a4,bf8 <core_bench_list+0x804>
     b9c:	0042a283          	lw	t0,4(t0)
     ba0:	fe0292e3          	bnez	t0,b84 <core_bench_list+0x790>
     ba4:	00130313          	addi	t1,t1,1
     ba8:	00068f93          	mv	t6,a3
     bac:	0006ae83          	lw	t4,0(a3)
     bb0:	00000813          	li	a6,0
     bb4:	00040693          	mv	a3,s0
     bb8:	000f8413          	mv	s0,t6
     bbc:	009e8f03          	lb	t5,9(t4)
     bc0:	01c12283          	lw	t0,28(sp)
     bc4:	00170793          	addi	a5,a4,1
     bc8:	001f7393          	andi	t2,t5,1
     bcc:	3c07a70b          	th.ext	a4,a5,15,0
     bd0:	007e0e33          	add	t3,t3,t2
     bd4:	92e292e3          	bne	t0,a4,4f8 <core_bench_list+0x104>
     bd8:	00261693          	slli	a3,a2,0x2
     bdc:	40668633          	sub	a2,a3,t1
     be0:	00ce0e33          	add	t3,t3,a2
     be4:	3c0e330b          	th.extu	t1,t3,15,0
     be8:	00612623          	sw	t1,12(sp)
     bec:	a4080ce3          	beqz	a6,644 <core_bench_list+0x250>
     bf0:	06c0006f          	j	c5c <core_bench_list+0x868>
     bf4:	00040293          	mv	t0,s0
     bf8:	00829883          	lh	a7,8(t0)
     bfc:	00160613          	addi	a2,a2,1
     c00:	0018ff93          	andi	t6,a7,1
     c04:	000f8663          	beqz	t6,c10 <core_bench_list+0x81c>
     c08:	4898df13          	bexti	t5,a7,0x9
     c0c:	01ee0e33          	add	t3,t3,t5
     c10:	13d80c63          	beq	a6,t4,d48 <core_bench_list+0x954>
     c14:	0042af03          	lw	t5,4(t0)
     c18:	0e0f1063          	bnez	t5,cf8 <core_bench_list+0x904>
     c1c:	01c12783          	lw	a5,28(sp)
     c20:	00170813          	addi	a6,a4,1
     c24:	3c08270b          	th.ext	a4,a6,15,0
     c28:	00f70e63          	beq	a4,a5,c44 <core_bench_list+0x850>
     c2c:	48068ce3          	beqz	a3,18c4 <core_bench_list+0x14d0>
     c30:	00100813          	li	a6,1
     c34:	00040893          	mv	a7,s0
     c38:	00068413          	mv	s0,a3
     c3c:	00088693          	mv	a3,a7
     c40:	8bdff06f          	j	4fc <core_bench_list+0x108>
     c44:	00261393          	slli	t2,a2,0x2
     c48:	406382b3          	sub	t0,t2,t1
     c4c:	005e08b3          	add	a7,t3,t0
     c50:	3c08b70b          	th.extu	a4,a7,15,0
     c54:	00e12623          	sw	a4,12(sp)
     c58:	00068413          	mv	s0,a3
     c5c:	420400e3          	beqz	s0,187c <core_bench_list+0x1488>
     c60:	00042383          	lw	t2,0(s0)
     c64:	00000713          	li	a4,0
     c68:	00e42023          	sw	a4,0(s0)
     c6c:	9e0380e3          	beqz	t2,64c <core_bench_list+0x258>
     c70:	0003a283          	lw	t0,0(t2)
     c74:	0083a023          	sw	s0,0(t2)
     c78:	00038413          	mv	s0,t2
     c7c:	9c0288e3          	beqz	t0,64c <core_bench_list+0x258>
     c80:	0002a603          	lw	a2,0(t0)
     c84:	0072a023          	sw	t2,0(t0)
     c88:	00028413          	mv	s0,t0
     c8c:	9c0600e3          	beqz	a2,64c <core_bench_list+0x258>
     c90:	00062683          	lw	a3,0(a2)
     c94:	00562023          	sw	t0,0(a2)
     c98:	00060413          	mv	s0,a2
     c9c:	9a0688e3          	beqz	a3,64c <core_bench_list+0x258>
     ca0:	0006ae03          	lw	t3,0(a3)
     ca4:	00c6a023          	sw	a2,0(a3)
     ca8:	00068413          	mv	s0,a3
     cac:	9a0e00e3          	beqz	t3,64c <core_bench_list+0x258>
     cb0:	000e2303          	lw	t1,0(t3)
     cb4:	00de2023          	sw	a3,0(t3)
     cb8:	000e0413          	mv	s0,t3
     cbc:	980308e3          	beqz	t1,64c <core_bench_list+0x258>
     cc0:	00032803          	lw	a6,0(t1)
     cc4:	01c32023          	sw	t3,0(t1)
     cc8:	00030413          	mv	s0,t1
     ccc:	980800e3          	beqz	a6,64c <core_bench_list+0x258>
     cd0:	00082883          	lw	a7,0(a6)
     cd4:	00682023          	sw	t1,0(a6)
     cd8:	00080413          	mv	s0,a6
     cdc:	00080713          	mv	a4,a6
     ce0:	960886e3          	beqz	a7,64c <core_bench_list+0x258>
     ce4:	00088413          	mv	s0,a7
     ce8:	00042383          	lw	t2,0(s0)
     cec:	00e42023          	sw	a4,0(s0)
     cf0:	f80390e3          	bnez	t2,c70 <core_bench_list+0x87c>
     cf4:	959ff06f          	j	64c <core_bench_list+0x258>
     cf8:	004f2803          	lw	a6,4(t5)
     cfc:	0102a223          	sw	a6,4(t0)
     d00:	2c0802e3          	beqz	a6,17c4 <core_bench_list+0x13d0>
     d04:	00582023          	sw	t0,0(a6)
     d08:	0046a883          	lw	a7,4(a3)
     d0c:	00df2023          	sw	a3,0(t5)
     d10:	011f2223          	sw	a7,4(t5)
     d14:	26088ee3          	beqz	a7,1790 <core_bench_list+0x139c>
     d18:	01c12f83          	lw	t6,28(sp)
     d1c:	01e8a023          	sw	t5,0(a7)
     d20:	00170713          	addi	a4,a4,1
     d24:	3c07270b          	th.ext	a4,a4,15,0
     d28:	01e6a223          	sw	t5,4(a3)
     d2c:	27f70ee3          	beq	a4,t6,17a8 <core_bench_list+0x13b4>
     d30:	00100813          	li	a6,1
     d34:	f01ff06f          	j	c34 <core_bench_list+0x840>
     d38:	00829883          	lh	a7,8(t0)
     d3c:	00160613          	addi	a2,a2,1
     d40:	0018f793          	andi	a5,a7,1
     d44:	ec0792e3          	bnez	a5,c08 <core_bench_list+0x814>
     d48:	0002a803          	lw	a6,0(t0)
     d4c:	36080863          	beqz	a6,10bc <core_bench_list+0xcc8>
     d50:	00082383          	lw	t2,0(a6)
     d54:	0072a023          	sw	t2,0(t0)
     d58:	30038ee3          	beqz	t2,1874 <core_bench_list+0x1480>
     d5c:	0053a223          	sw	t0,4(t2)
     d60:	0006a283          	lw	t0,0(a3)
     d64:	00d82223          	sw	a3,4(a6)
     d68:	00582023          	sw	t0,0(a6)
     d6c:	300280e3          	beqz	t0,186c <core_bench_list+0x1478>
     d70:	0102a223          	sw	a6,4(t0)
     d74:	01c12f83          	lw	t6,28(sp)
     d78:	00170893          	addi	a7,a4,1
     d7c:	3c08a70b          	th.ext	a4,a7,15,0
     d80:	0106a023          	sw	a6,0(a3)
     d84:	2cef86e3          	beq	t6,a4,1850 <core_bench_list+0x145c>
     d88:	00000813          	li	a6,0
     d8c:	ea9ff06f          	j	c34 <core_bench_list+0x840>
     d90:	00829883          	lh	a7,8(t0)
     d94:	00160613          	addi	a2,a2,1
     d98:	0018ff93          	andi	t6,a7,1
     d9c:	e60f96e3          	bnez	t6,c08 <core_bench_list+0x814>
     da0:	e75ff06f          	j	c14 <core_bench_list+0x820>
     da4:	0042a383          	lw	t2,4(t0)
     da8:	0077a223          	sw	t2,4(a5)
     dac:	00038663          	beqz	t2,db8 <core_bench_list+0x9c4>
     db0:	00f3a023          	sw	a5,0(t2)
     db4:	00088793          	mv	a5,a7
     db8:	00442703          	lw	a4,4(s0)
     dbc:	0082a023          	sw	s0,0(t0)
     dc0:	00e2a223          	sw	a4,4(t0)
     dc4:	200704e3          	beqz	a4,17cc <core_bench_list+0x13d8>
     dc8:	00572023          	sw	t0,0(a4)
     dcc:	00542223          	sw	t0,4(s0)
     dd0:	00100813          	li	a6,1
     dd4:	ff4ff06f          	j	5c8 <core_bench_list+0x1d4>
     dd8:	0007af83          	lw	t6,0(a5)
     ddc:	2e0f9e63          	bnez	t6,10d8 <core_bench_list+0xce4>
     de0:	00088793          	mv	a5,a7
     de4:	00000813          	li	a6,0
     de8:	fe0ff06f          	j	5c8 <core_bench_list+0x1d4>
     dec:	00072603          	lw	a2,0(a4)
     df0:	fff78793          	addi	a5,a5,-1
     df4:	02068063          	beqz	a3,e14 <core_bench_list+0xa20>
     df8:	00e6a023          	sw	a4,0(a3)
     dfc:	08078663          	beqz	a5,e88 <core_bench_list+0xa94>
     e00:	00070693          	mv	a3,a4
     e04:	00060713          	mv	a4,a2
     e08:	00072603          	lw	a2,0(a4)
     e0c:	fff78793          	addi	a5,a5,-1
     e10:	fe0694e3          	bnez	a3,df8 <core_bench_list+0xa04>
     e14:	06078863          	beqz	a5,e84 <core_bench_list+0xa90>
     e18:	00070313          	mv	t1,a4
     e1c:	fe5ff06f          	j	e00 <core_bench_list+0xa0c>
     e20:	00068293          	mv	t0,a3
     e24:	fff78793          	addi	a5,a5,-1
     e28:	00070693          	mv	a3,a4
     e2c:	00072703          	lw	a4,0(a4)
     e30:	02028063          	beqz	t0,e50 <core_bench_list+0xa5c>
     e34:	00d2a023          	sw	a3,0(t0)
     e38:	b4078ae3          	beqz	a5,98c <core_bench_list+0x598>
     e3c:	00068293          	mv	t0,a3
     e40:	fff78793          	addi	a5,a5,-1
     e44:	00070693          	mv	a3,a4
     e48:	00072703          	lw	a4,0(a4)
     e4c:	fe0294e3          	bnez	t0,e34 <core_bench_list+0xa40>
     e50:	06078463          	beqz	a5,eb8 <core_bench_list+0xac4>
     e54:	00068313          	mv	t1,a3
     e58:	fe5ff06f          	j	e3c <core_bench_list+0xa48>
     e5c:	00072883          	lw	a7,0(a4)
     e60:	fff78793          	addi	a5,a5,-1
     e64:	02068863          	beqz	a3,e94 <core_bench_list+0xaa0>
     e68:	00e6a023          	sw	a4,0(a3)
     e6c:	02f05a63          	blez	a5,ea0 <core_bench_list+0xaac>
     e70:	00070693          	mv	a3,a4
     e74:	00088713          	mv	a4,a7
     e78:	ac9ff06f          	j	940 <core_bench_list+0x54c>
     e7c:	00040313          	mv	t1,s0
     e80:	b01ff06f          	j	980 <core_bench_list+0x58c>
     e84:	00070313          	mv	t1,a4
     e88:	98041ce3          	bnez	s0,820 <core_bench_list+0x42c>
     e8c:	00070693          	mv	a3,a4
     e90:	cb1ff06f          	j	b40 <core_bench_list+0x74c>
     e94:	02f05863          	blez	a5,ec4 <core_bench_list+0xad0>
     e98:	00070313          	mv	t1,a4
     e9c:	fd5ff06f          	j	e70 <core_bench_list+0xa7c>
     ea0:	00070693          	mv	a3,a4
     ea4:	00088713          	mv	a4,a7
     ea8:	aea044e3          	bgtz	a0,990 <core_bench_list+0x59c>
     eac:	00068713          	mv	a4,a3
     eb0:	960418e3          	bnez	s0,820 <core_bench_list+0x42c>
     eb4:	fd9ff06f          	j	e8c <core_bench_list+0xa98>
     eb8:	00068313          	mv	t1,a3
     ebc:	00000413          	li	s0,0
     ec0:	acdff06f          	j	98c <core_bench_list+0x598>
     ec4:	00070313          	mv	t1,a4
     ec8:	00070693          	mv	a3,a4
     ecc:	00088713          	mv	a4,a7
     ed0:	abdff06f          	j	98c <core_bench_list+0x598>
     ed4:	00040313          	mv	t1,s0
     ed8:	bc0518e3          	bnez	a0,aa8 <core_bench_list+0x6b4>
     edc:	00040713          	mv	a4,s0
     ee0:	00038413          	mv	s0,t2
     ee4:	92041ee3          	bnez	s0,820 <core_bench_list+0x42c>
     ee8:	fa5ff06f          	j	e8c <core_bench_list+0xa98>
     eec:	00038313          	mv	t1,t2
     ef0:	bcdff06f          	j	abc <core_bench_list+0x6c8>
     ef4:	00058313          	mv	t1,a1
     ef8:	bd9ff06f          	j	ad0 <core_bench_list+0x6dc>
     efc:	00040313          	mv	t1,s0
     f00:	be5ff06f          	j	ae4 <core_bench_list+0x6f0>
     f04:	00088313          	mv	t1,a7
     f08:	bf1ff06f          	j	af8 <core_bench_list+0x704>
     f0c:	00080313          	mv	t1,a6
     f10:	bfdff06f          	j	b0c <core_bench_list+0x718>
     f14:	00028313          	mv	t1,t0
     f18:	c09ff06f          	j	b20 <core_bench_list+0x72c>
     f1c:	00078313          	mv	t1,a5
     f20:	c19ff06f          	j	b38 <core_bench_list+0x744>
     f24:	00040313          	mv	t1,s0
     f28:	a8dff06f          	j	9b4 <core_bench_list+0x5c0>
     f2c:	00040313          	mv	t1,s0
     f30:	b59ff06f          	j	a88 <core_bench_list+0x694>
     f34:	00040313          	mv	t1,s0
     f38:	b35ff06f          	j	a6c <core_bench_list+0x678>
     f3c:	00040313          	mv	t1,s0
     f40:	b11ff06f          	j	a50 <core_bench_list+0x65c>
     f44:	00040313          	mv	t1,s0
     f48:	aedff06f          	j	a34 <core_bench_list+0x640>
     f4c:	00040313          	mv	t1,s0
     f50:	ac9ff06f          	j	a18 <core_bench_list+0x624>
     f54:	00030893          	mv	a7,t1
     f58:	00000813          	li	a6,0
     f5c:	08030263          	beqz	t1,fe0 <core_bench_list+0xbec>
     f60:	0008ae83          	lw	t4,0(a7)
     f64:	0108a223          	sw	a6,4(a7)
     f68:	00088813          	mv	a6,a7
     f6c:	060e8a63          	beqz	t4,fe0 <core_bench_list+0xbec>
     f70:	000eaf03          	lw	t5,0(t4)
     f74:	011ea223          	sw	a7,4(t4)
     f78:	000e8813          	mv	a6,t4
     f7c:	060f0263          	beqz	t5,fe0 <core_bench_list+0xbec>
     f80:	000f2f83          	lw	t6,0(t5)
     f84:	01df2223          	sw	t4,4(t5)
     f88:	000f0813          	mv	a6,t5
     f8c:	040f8a63          	beqz	t6,fe0 <core_bench_list+0xbec>
     f90:	000fa383          	lw	t2,0(t6)
     f94:	01efa223          	sw	t5,4(t6)
     f98:	000f8813          	mv	a6,t6
     f9c:	04038263          	beqz	t2,fe0 <core_bench_list+0xbec>
     fa0:	0003a583          	lw	a1,0(t2)
     fa4:	01f3a223          	sw	t6,4(t2)
     fa8:	00038813          	mv	a6,t2
     fac:	02058a63          	beqz	a1,fe0 <core_bench_list+0xbec>
     fb0:	0005a703          	lw	a4,0(a1)
     fb4:	0075a223          	sw	t2,4(a1)
     fb8:	00058813          	mv	a6,a1
     fbc:	02070263          	beqz	a4,fe0 <core_bench_list+0xbec>
     fc0:	00072403          	lw	s0,0(a4)
     fc4:	00b72223          	sw	a1,4(a4)
     fc8:	00070813          	mv	a6,a4
     fcc:	00040a63          	beqz	s0,fe0 <core_bench_list+0xbec>
     fd0:	00042883          	lw	a7,0(s0)
     fd4:	00e42223          	sw	a4,4(s0)
     fd8:	00040813          	mv	a6,s0
     fdc:	f80892e3          	bnez	a7,f60 <core_bench_list+0xb6c>
     fe0:	01812283          	lw	t0,24(sp)
     fe4:	00032583          	lw	a1,0(t1)
     fe8:	0062a023          	sw	t1,0(t0)
     fec:	0102a223          	sw	a6,4(t0)
     ff0:	0a058863          	beqz	a1,10a0 <core_bench_list+0xcac>
     ff4:	00835303          	lhu	t1,8(t1)
     ff8:	00c12783          	lw	a5,12(sp)
     ffc:	50f3050b          	.insn	4, 0x50f3050b
    1000:	0005a603          	lw	a2,0(a1)
    1004:	3c05368b          	th.extu	a3,a0,15,0
    1008:	00d12623          	sw	a3,12(sp)
    100c:	08060a63          	beqz	a2,10a0 <core_bench_list+0xcac>
    1010:	00c12e03          	lw	t3,12(sp)
    1014:	51c30e8b          	.insn	4, 0x51c30e8b
    1018:	00062f03          	lw	t5,0(a2)
    101c:	3c0ebf8b          	th.extu	t6,t4,15,0
    1020:	01f12623          	sw	t6,12(sp)
    1024:	060f0e63          	beqz	t5,10a0 <core_bench_list+0xcac>
    1028:	51f3038b          	.insn	4, 0x51f3038b
    102c:	000f2583          	lw	a1,0(t5)
    1030:	3c03b70b          	th.extu	a4,t2,15,0
    1034:	00e12623          	sw	a4,12(sp)
    1038:	06058463          	beqz	a1,10a0 <core_bench_list+0xcac>
    103c:	50e3040b          	.insn	4, 0x50e3040b
    1040:	0005a883          	lw	a7,0(a1)
    1044:	3c04380b          	th.extu	a6,s0,15,0
    1048:	01012623          	sw	a6,12(sp)
    104c:	04088a63          	beqz	a7,10a0 <core_bench_list+0xcac>
    1050:	5103028b          	.insn	4, 0x5103028b
    1054:	0008a783          	lw	a5,0(a7)
    1058:	3c02b50b          	th.extu	a0,t0,15,0
    105c:	00a12623          	sw	a0,12(sp)
    1060:	04078063          	beqz	a5,10a0 <core_bench_list+0xcac>
    1064:	50a3060b          	.insn	4, 0x50a3060b
    1068:	0007ae03          	lw	t3,0(a5)
    106c:	3c06368b          	th.extu	a3,a2,15,0
    1070:	00d12623          	sw	a3,12(sp)
    1074:	020e0663          	beqz	t3,10a0 <core_bench_list+0xcac>
    1078:	50d30e8b          	.insn	4, 0x50d30e8b
    107c:	000e2f03          	lw	t5,0(t3)
    1080:	3c0ebf8b          	th.extu	t6,t4,15,0
    1084:	01f12623          	sw	t6,12(sp)
    1088:	000f0c63          	beqz	t5,10a0 <core_bench_list+0xcac>
    108c:	51f3038b          	.insn	4, 0x51f3038b
    1090:	000f2583          	lw	a1,0(t5)
    1094:	3c03b70b          	th.extu	a4,t2,15,0
    1098:	00e12623          	sw	a4,12(sp)
    109c:	f4059ee3          	bnez	a1,ff8 <core_bench_list+0xc04>
    10a0:	05c12083          	lw	ra,92(sp)
    10a4:	05812403          	lw	s0,88(sp)
    10a8:	00c12503          	lw	a0,12(sp)
    10ac:	06010113          	addi	sp,sp,96
    10b0:	00008067          	ret
    10b4:	00028313          	mv	t1,t0
    10b8:	949ff06f          	j	a00 <core_bench_list+0x60c>
    10bc:	01c12783          	lw	a5,28(sp)
    10c0:	00170713          	addi	a4,a4,1
    10c4:	3c07270b          	th.ext	a4,a4,15,0
    10c8:	78e78463          	beq	a5,a4,1850 <core_bench_list+0x145c>
    10cc:	06068ae3          	beqz	a3,1940 <core_bench_list+0x154c>
    10d0:	00000813          	li	a6,0
    10d4:	b61ff06f          	j	c34 <core_bench_list+0x840>
    10d8:	000fa803          	lw	a6,0(t6)
    10dc:	0107a023          	sw	a6,0(a5)
    10e0:	00080663          	beqz	a6,10ec <core_bench_list+0xcf8>
    10e4:	00f82223          	sw	a5,4(a6)
    10e8:	00088793          	mv	a5,a7
    10ec:	00042883          	lw	a7,0(s0)
    10f0:	008fa223          	sw	s0,4(t6)
    10f4:	011fa023          	sw	a7,0(t6)
    10f8:	74088863          	beqz	a7,1848 <core_bench_list+0x1454>
    10fc:	01f8a223          	sw	t6,4(a7)
    1100:	01f42023          	sw	t6,0(s0)
    1104:	00000813          	li	a6,0
    1108:	cc0ff06f          	j	5c8 <core_bench_list+0x1d4>
    110c:	04912a23          	sw	s1,84(sp)
    1110:	03b12623          	sw	s11,44(sp)
    1114:	02850493          	addi	s1,a0,40
    1118:	00100d93          	li	s11,1
    111c:	05512223          	sw	s5,68(sp)
    1120:	03a12823          	sw	s10,48(sp)
    1124:	05212823          	sw	s2,80(sp)
    1128:	05312623          	sw	s3,76(sp)
    112c:	05412423          	sw	s4,72(sp)
    1130:	05612023          	sw	s6,64(sp)
    1134:	03712e23          	sw	s7,60(sp)
    1138:	03812c23          	sw	s8,56(sp)
    113c:	03912a23          	sw	s9,52(sp)
    1140:	00050a93          	mv	s5,a0
    1144:	000d8d13          	mv	s10,s11
    1148:	00912823          	sw	s1,16(sp)
    114c:	76040863          	beqz	s0,18bc <core_bench_list+0x14c8>
    1150:	00000c93          	li	s9,0
    1154:	00000913          	li	s2,0
    1158:	00012423          	sw	zero,8(sp)
    115c:	00812983          	lw	s3,8(sp)
    1160:	007df593          	andi	a1,s11,7
    1164:	00040713          	mv	a4,s0
    1168:	00198a13          	addi	s4,s3,1
    116c:	01412423          	sw	s4,8(sp)
    1170:	00000493          	li	s1,0
    1174:	08058463          	beqz	a1,11fc <core_bench_list+0xe08>
    1178:	0fb4d663          	bge	s1,s11,1264 <core_bench_list+0xe70>
    117c:	00042703          	lw	a4,0(s0)
    1180:	00100493          	li	s1,1
    1184:	0e070063          	beqz	a4,1264 <core_bench_list+0xe70>
    1188:	06958a63          	beq	a1,s1,11fc <core_bench_list+0xe08>
    118c:	00200b13          	li	s6,2
    1190:	07658063          	beq	a1,s6,11f0 <core_bench_list+0xdfc>
    1194:	00300b93          	li	s7,3
    1198:	05758663          	beq	a1,s7,11e4 <core_bench_list+0xdf0>
    119c:	00400c13          	li	s8,4
    11a0:	03858c63          	beq	a1,s8,11d8 <core_bench_list+0xde4>
    11a4:	00500513          	li	a0,5
    11a8:	02a58263          	beq	a1,a0,11cc <core_bench_list+0xdd8>
    11ac:	00600813          	li	a6,6
    11b0:	01058863          	beq	a1,a6,11c0 <core_bench_list+0xdcc>
    11b4:	00072703          	lw	a4,0(a4)
    11b8:	000b0493          	mv	s1,s6
    11bc:	0a070463          	beqz	a4,1264 <core_bench_list+0xe70>
    11c0:	00072703          	lw	a4,0(a4)
    11c4:	00148493          	addi	s1,s1,1
    11c8:	08070e63          	beqz	a4,1264 <core_bench_list+0xe70>
    11cc:	00072703          	lw	a4,0(a4)
    11d0:	00148493          	addi	s1,s1,1
    11d4:	08070863          	beqz	a4,1264 <core_bench_list+0xe70>
    11d8:	00072703          	lw	a4,0(a4)
    11dc:	00148493          	addi	s1,s1,1
    11e0:	08070263          	beqz	a4,1264 <core_bench_list+0xe70>
    11e4:	00072703          	lw	a4,0(a4)
    11e8:	00148493          	addi	s1,s1,1
    11ec:	06070c63          	beqz	a4,1264 <core_bench_list+0xe70>
    11f0:	00072703          	lw	a4,0(a4)
    11f4:	00148493          	addi	s1,s1,1
    11f8:	06070663          	beqz	a4,1264 <core_bench_list+0xe70>
    11fc:	07b4d463          	bge	s1,s11,1264 <core_bench_list+0xe70>
    1200:	00072703          	lw	a4,0(a4)
    1204:	00148493          	addi	s1,s1,1
    1208:	00048893          	mv	a7,s1
    120c:	04070c63          	beqz	a4,1264 <core_bench_list+0xe70>
    1210:	00072703          	lw	a4,0(a4)
    1214:	00148493          	addi	s1,s1,1
    1218:	04070663          	beqz	a4,1264 <core_bench_list+0xe70>
    121c:	00072703          	lw	a4,0(a4)
    1220:	00288493          	addi	s1,a7,2
    1224:	04070063          	beqz	a4,1264 <core_bench_list+0xe70>
    1228:	00072703          	lw	a4,0(a4)
    122c:	00388493          	addi	s1,a7,3
    1230:	02070a63          	beqz	a4,1264 <core_bench_list+0xe70>
    1234:	00072703          	lw	a4,0(a4)
    1238:	00488493          	addi	s1,a7,4
    123c:	02070463          	beqz	a4,1264 <core_bench_list+0xe70>
    1240:	00072703          	lw	a4,0(a4)
    1244:	00588493          	addi	s1,a7,5
    1248:	00070e63          	beqz	a4,1264 <core_bench_list+0xe70>
    124c:	00072703          	lw	a4,0(a4)
    1250:	00688493          	addi	s1,a7,6
    1254:	00070863          	beqz	a4,1264 <core_bench_list+0xe70>
    1258:	00072703          	lw	a4,0(a4)
    125c:	00788493          	addi	s1,a7,7
    1260:	f8071ee3          	bnez	a4,11fc <core_bench_list+0xe08>
    1264:	00090993          	mv	s3,s2
    1268:	000d8c13          	mv	s8,s11
    126c:	00040913          	mv	s2,s0
    1270:	00070413          	mv	s0,a4
    1274:	04905663          	blez	s1,12c0 <core_bench_list+0xecc>
    1278:	200c0a63          	beqz	s8,148c <core_bench_list+0x1098>
    127c:	42040063          	beqz	s0,169c <core_bench_list+0x12a8>
    1280:	00891a03          	lh	s4,8(s2)
    1284:	080a7e93          	andi	t4,s4,128
    1288:	2a0e8663          	beqz	t4,1534 <core_bench_list+0x1140>
    128c:	07fa7b93          	andi	s7,s4,127
    1290:	00841a03          	lh	s4,8(s0)
    1294:	080a7513          	andi	a0,s4,128
    1298:	22050463          	beqz	a0,14c0 <core_bench_list+0x10cc>
    129c:	07fa7613          	andi	a2,s4,127
    12a0:	27765663          	bge	a2,s7,150c <core_bench_list+0x1118>
    12a4:	00042b83          	lw	s7,0(s0)
    12a8:	fffc0c13          	addi	s8,s8,-1
    12ac:	2c098a63          	beqz	s3,1580 <core_bench_list+0x118c>
    12b0:	0089a023          	sw	s0,0(s3)
    12b4:	00040993          	mv	s3,s0
    12b8:	000b8413          	mv	s0,s7
    12bc:	fa904ee3          	bgtz	s1,1278 <core_bench_list+0xe84>
    12c0:	3d805863          	blez	s8,1690 <core_bench_list+0x129c>
    12c4:	1a040863          	beqz	s0,1474 <core_bench_list+0x1080>
    12c8:	fa049ce3          	bnez	s1,1280 <core_bench_list+0xe8c>
    12cc:	fffc0913          	addi	s2,s8,-1
    12d0:	00797493          	andi	s1,s2,7
    12d4:	0e048a63          	beqz	s1,13c8 <core_bench_list+0xfd4>
    12d8:	00042583          	lw	a1,0(s0)
    12dc:	00090c13          	mv	s8,s2
    12e0:	44098a63          	beqz	s3,1734 <core_bench_list+0x1340>
    12e4:	0089a023          	sw	s0,0(s3)
    12e8:	00040993          	mv	s3,s0
    12ec:	18058463          	beqz	a1,1474 <core_bench_list+0x1080>
    12f0:	00100813          	li	a6,1
    12f4:	00058413          	mv	s0,a1
    12f8:	0d048863          	beq	s1,a6,13c8 <core_bench_list+0xfd4>
    12fc:	00200a13          	li	s4,2
    1300:	0b448663          	beq	s1,s4,13ac <core_bench_list+0xfb8>
    1304:	00300513          	li	a0,3
    1308:	08a48463          	beq	s1,a0,1390 <core_bench_list+0xf9c>
    130c:	00400893          	li	a7,4
    1310:	07148263          	beq	s1,a7,1374 <core_bench_list+0xf80>
    1314:	00500713          	li	a4,5
    1318:	04e48063          	beq	s1,a4,1358 <core_bench_list+0xf64>
    131c:	00600f93          	li	t6,6
    1320:	01f48e63          	beq	s1,t6,133c <core_bench_list+0xf48>
    1324:	0005a403          	lw	s0,0(a1)
    1328:	fffc0c13          	addi	s8,s8,-1
    132c:	44098463          	beqz	s3,1774 <core_bench_list+0x1380>
    1330:	00b9a023          	sw	a1,0(s3)
    1334:	00058993          	mv	s3,a1
    1338:	12040e63          	beqz	s0,1474 <core_bench_list+0x1080>
    133c:	00042e83          	lw	t4,0(s0)
    1340:	fffc0c13          	addi	s8,s8,-1
    1344:	42098463          	beqz	s3,176c <core_bench_list+0x1378>
    1348:	0089a023          	sw	s0,0(s3)
    134c:	00040993          	mv	s3,s0
    1350:	120e8263          	beqz	t4,1474 <core_bench_list+0x1080>
    1354:	000e8413          	mv	s0,t4
    1358:	00042f03          	lw	t5,0(s0)
    135c:	fffc0c13          	addi	s8,s8,-1
    1360:	3e098a63          	beqz	s3,1754 <core_bench_list+0x1360>
    1364:	0089a023          	sw	s0,0(s3)
    1368:	00040993          	mv	s3,s0
    136c:	100f0463          	beqz	t5,1474 <core_bench_list+0x1080>
    1370:	000f0413          	mv	s0,t5
    1374:	00042383          	lw	t2,0(s0)
    1378:	fffc0c13          	addi	s8,s8,-1
    137c:	3c098863          	beqz	s3,174c <core_bench_list+0x1358>
    1380:	0089a023          	sw	s0,0(s3)
    1384:	00040993          	mv	s3,s0
    1388:	0e038663          	beqz	t2,1474 <core_bench_list+0x1080>
    138c:	00038413          	mv	s0,t2
    1390:	00042283          	lw	t0,0(s0)
    1394:	fffc0c13          	addi	s8,s8,-1
    1398:	3a098663          	beqz	s3,1744 <core_bench_list+0x1350>
    139c:	0089a023          	sw	s0,0(s3)
    13a0:	00040993          	mv	s3,s0
    13a4:	0c028863          	beqz	t0,1474 <core_bench_list+0x1080>
    13a8:	00028413          	mv	s0,t0
    13ac:	00042b03          	lw	s6,0(s0)
    13b0:	fffc0c13          	addi	s8,s8,-1
    13b4:	38098463          	beqz	s3,173c <core_bench_list+0x1348>
    13b8:	0089a023          	sw	s0,0(s3)
    13bc:	00040993          	mv	s3,s0
    13c0:	0a0b0a63          	beqz	s6,1474 <core_bench_list+0x1080>
    13c4:	000b0413          	mv	s0,s6
    13c8:	00042603          	lw	a2,0(s0)
    13cc:	fffc0c13          	addi	s8,s8,-1
    13d0:	32098263          	beqz	s3,16f4 <core_bench_list+0x1300>
    13d4:	0089a023          	sw	s0,0(s3)
    13d8:	380c0263          	beqz	s8,175c <core_bench_list+0x1368>
    13dc:	00040993          	mv	s3,s0
    13e0:	08060a63          	beqz	a2,1474 <core_bench_list+0x1080>
    13e4:	00062e03          	lw	t3,0(a2)
    13e8:	30040a63          	beqz	s0,16fc <core_bench_list+0x1308>
    13ec:	00c42023          	sw	a2,0(s0)
    13f0:	00060993          	mv	s3,a2
    13f4:	080e0063          	beqz	t3,1474 <core_bench_list+0x1080>
    13f8:	000e2403          	lw	s0,0(t3)
    13fc:	30060463          	beqz	a2,1704 <core_bench_list+0x1310>
    1400:	01c62023          	sw	t3,0(a2)
    1404:	000e0993          	mv	s3,t3
    1408:	06040663          	beqz	s0,1474 <core_bench_list+0x1080>
    140c:	00042783          	lw	a5,0(s0)
    1410:	2e0e0e63          	beqz	t3,170c <core_bench_list+0x1318>
    1414:	008e2023          	sw	s0,0(t3)
    1418:	00040993          	mv	s3,s0
    141c:	04078c63          	beqz	a5,1474 <core_bench_list+0x1080>
    1420:	0007ab83          	lw	s7,0(a5)
    1424:	2e040863          	beqz	s0,1714 <core_bench_list+0x1320>
    1428:	00f42023          	sw	a5,0(s0)
    142c:	00078993          	mv	s3,a5
    1430:	040b8263          	beqz	s7,1474 <core_bench_list+0x1080>
    1434:	000ba683          	lw	a3,0(s7)
    1438:	2e078263          	beqz	a5,171c <core_bench_list+0x1328>
    143c:	0177a023          	sw	s7,0(a5)
    1440:	000b8993          	mv	s3,s7
    1444:	02068863          	beqz	a3,1474 <core_bench_list+0x1080>
    1448:	0006a303          	lw	t1,0(a3)
    144c:	2e0b8063          	beqz	s7,172c <core_bench_list+0x1338>
    1450:	00dba023          	sw	a3,0(s7)
    1454:	00068993          	mv	s3,a3
    1458:	00030e63          	beqz	t1,1474 <core_bench_list+0x1080>
    145c:	00032403          	lw	s0,0(t1)
    1460:	ff9c0c13          	addi	s8,s8,-7
    1464:	2c068063          	beqz	a3,1724 <core_bench_list+0x1330>
    1468:	0066a023          	sw	t1,0(a3)
    146c:	00030993          	mv	s3,t1
    1470:	f4041ce3          	bnez	s0,13c8 <core_bench_list+0xfd4>
    1474:	00812483          	lw	s1,8(sp)
    1478:	0009a023          	sw	zero,0(s3)
    147c:	47a48263          	beq	s1,s10,18e0 <core_bench_list+0x14ec>
    1480:	001d9d93          	slli	s11,s11,0x1
    1484:	000c8413          	mv	s0,s9
    1488:	cc5ff06f          	j	114c <core_bench_list+0xd58>
    148c:	00092583          	lw	a1,0(s2)
    1490:	fff48493          	addi	s1,s1,-1
    1494:	02098063          	beqz	s3,14b4 <core_bench_list+0x10c0>
    1498:	0129a023          	sw	s2,0(s3)
    149c:	1a048063          	beqz	s1,163c <core_bench_list+0x1248>
    14a0:	00090993          	mv	s3,s2
    14a4:	00058913          	mv	s2,a1
    14a8:	00092583          	lw	a1,0(s2)
    14ac:	fff48493          	addi	s1,s1,-1
    14b0:	fe0994e3          	bnez	s3,1498 <core_bench_list+0x10a4>
    14b4:	18048263          	beqz	s1,1638 <core_bench_list+0x1244>
    14b8:	00090c93          	mv	s9,s2
    14bc:	fe5ff06f          	j	14a0 <core_bench_list+0x10ac>
    14c0:	183a388b          	th.extu	a7,s4,6,3
    14c4:	00489713          	slli	a4,a7,0x4
    14c8:	00e88eb3          	add	t4,a7,a4
    14cc:	007a7f93          	andi	t6,s4,7
    14d0:	038ad783          	lhu	a5,56(s5)
    14d4:	000e8713          	mv	a4,t4
    14d8:	0c0f8a63          	beqz	t6,15ac <core_bench_list+0x11b8>
    14dc:	0baf8663          	beq	t6,s10,1588 <core_bench_list+0x1194>
    14e0:	3c0a350b          	th.extu	a0,s4,15,0
    14e4:	000a0b13          	mv	s6,s4
    14e8:	00078593          	mv	a1,a5
    14ec:	230080ef          	jal	971c <crcu16>
    14f0:	07fb7613          	andi	a2,s6,127
    14f4:	f00a7693          	andi	a3,s4,-256
    14f8:	00d66e33          	or	t3,a2,a3
    14fc:	080e6793          	ori	a5,t3,128
    1500:	02aa9c23          	sh	a0,56(s5)
    1504:	00f41423          	sh	a5,8(s0)
    1508:	d9764ee3          	blt	a2,s7,12a4 <core_bench_list+0xeb0>
    150c:	00092303          	lw	t1,0(s2)
    1510:	fff48493          	addi	s1,s1,-1
    1514:	12098a63          	beqz	s3,1648 <core_bench_list+0x1254>
    1518:	0129a023          	sw	s2,0(s3)
    151c:	16905463          	blez	s1,1684 <core_bench_list+0x1290>
    1520:	00090993          	mv	s3,s2
    1524:	00030913          	mv	s2,t1
    1528:	00891a03          	lh	s4,8(s2)
    152c:	080a7e93          	andi	t4,s4,128
    1530:	d40e9ee3          	bnez	t4,128c <core_bench_list+0xe98>
    1534:	183a3f0b          	th.extu	t5,s4,6,3
    1538:	004f1393          	slli	t2,t5,0x4
    153c:	007f0633          	add	a2,t5,t2
    1540:	007a7293          	andi	t0,s4,7
    1544:	038ad783          	lhu	a5,56(s5)
    1548:	00060713          	mv	a4,a2
    154c:	0a028c63          	beqz	t0,1604 <core_bench_list+0x1210>
    1550:	09a28863          	beq	t0,s10,15e0 <core_bench_list+0x11ec>
    1554:	3c0a350b          	th.extu	a0,s4,15,0
    1558:	000a0b13          	mv	s6,s4
    155c:	00078593          	mv	a1,a5
    1560:	1bc080ef          	jal	971c <crcu16>
    1564:	07fb7b93          	andi	s7,s6,127
    1568:	f00a7313          	andi	t1,s4,-256
    156c:	006be5b3          	or	a1,s7,t1
    1570:	0805e813          	ori	a6,a1,128
    1574:	02aa9c23          	sh	a0,56(s5)
    1578:	01091423          	sh	a6,8(s2)
    157c:	d15ff06f          	j	1290 <core_bench_list+0xe9c>
    1580:	00040c93          	mv	s9,s0
    1584:	d31ff06f          	j	12b4 <core_bench_list+0xec0>
    1588:	01012503          	lw	a0,16(sp)
    158c:	00078613          	mv	a2,a5
    1590:	000e8593          	mv	a1,t4
    1594:	719020ef          	jal	44ac <core_bench_matrix>
    1598:	03cad283          	lhu	t0,60(s5)
    159c:	00050b13          	mv	s6,a0
    15a0:	0c028663          	beqz	t0,166c <core_bench_list+0x1278>
    15a4:	038ad783          	lhu	a5,56(s5)
    15a8:	f41ff06f          	j	14e8 <core_bench_list+0x10f4>
    15ac:	02100f13          	li	t5,33
    15b0:	01df6463          	bltu	t5,t4,15b8 <core_bench_list+0x11c4>
    15b4:	02200713          	li	a4,34
    15b8:	002a9683          	lh	a3,2(s5)
    15bc:	000a9603          	lh	a2,0(s5)
    15c0:	014aa583          	lw	a1,20(s5)
    15c4:	018aa503          	lw	a0,24(s5)
    15c8:	1dc070ef          	jal	87a4 <core_bench_state>
    15cc:	03ead383          	lhu	t2,62(s5)
    15d0:	00050b13          	mv	s6,a0
    15d4:	08038063          	beqz	t2,1654 <core_bench_list+0x1260>
    15d8:	038ad783          	lhu	a5,56(s5)
    15dc:	f0dff06f          	j	14e8 <core_bench_list+0x10f4>
    15e0:	01012503          	lw	a0,16(sp)
    15e4:	00078613          	mv	a2,a5
    15e8:	00070593          	mv	a1,a4
    15ec:	6c1020ef          	jal	44ac <core_bench_matrix>
    15f0:	03cad783          	lhu	a5,60(s5)
    15f4:	00050b13          	mv	s6,a0
    15f8:	06078463          	beqz	a5,1660 <core_bench_list+0x126c>
    15fc:	038ad783          	lhu	a5,56(s5)
    1600:	f5dff06f          	j	155c <core_bench_list+0x1168>
    1604:	02100693          	li	a3,33
    1608:	00c6e463          	bltu	a3,a2,1610 <core_bench_list+0x121c>
    160c:	02200713          	li	a4,34
    1610:	002a9683          	lh	a3,2(s5)
    1614:	000a9603          	lh	a2,0(s5)
    1618:	014aa583          	lw	a1,20(s5)
    161c:	018aa503          	lw	a0,24(s5)
    1620:	184070ef          	jal	87a4 <core_bench_state>
    1624:	03eade03          	lhu	t3,62(s5)
    1628:	00050b13          	mv	s6,a0
    162c:	040e0663          	beqz	t3,1678 <core_bench_list+0x1284>
    1630:	038ad783          	lhu	a5,56(s5)
    1634:	f29ff06f          	j	155c <core_bench_list+0x1168>
    1638:	00090c93          	mv	s9,s2
    163c:	b20410e3          	bnez	s0,115c <core_bench_list+0xd68>
    1640:	00090993          	mv	s3,s2
    1644:	e31ff06f          	j	1474 <core_bench_list+0x1080>
    1648:	08905e63          	blez	s1,16e4 <core_bench_list+0x12f0>
    164c:	00090c93          	mv	s9,s2
    1650:	ed1ff06f          	j	1520 <core_bench_list+0x112c>
    1654:	038ad783          	lhu	a5,56(s5)
    1658:	02aa9f23          	sh	a0,62(s5)
    165c:	e8dff06f          	j	14e8 <core_bench_list+0x10f4>
    1660:	038ad783          	lhu	a5,56(s5)
    1664:	02aa9e23          	sh	a0,60(s5)
    1668:	ef5ff06f          	j	155c <core_bench_list+0x1168>
    166c:	038ad783          	lhu	a5,56(s5)
    1670:	02aa9e23          	sh	a0,60(s5)
    1674:	e75ff06f          	j	14e8 <core_bench_list+0x10f4>
    1678:	038ad783          	lhu	a5,56(s5)
    167c:	02aa9f23          	sh	a0,62(s5)
    1680:	eddff06f          	j	155c <core_bench_list+0x1168>
    1684:	00090993          	mv	s3,s2
    1688:	00030913          	mv	s2,t1
    168c:	c3804ce3          	bgtz	s8,12c4 <core_bench_list+0xed0>
    1690:	00098913          	mv	s2,s3
    1694:	ac0414e3          	bnez	s0,115c <core_bench_list+0xd68>
    1698:	fa9ff06f          	j	1640 <core_bench_list+0x124c>
    169c:	00098f93          	mv	t6,s3
    16a0:	fff48493          	addi	s1,s1,-1
    16a4:	00090993          	mv	s3,s2
    16a8:	00092903          	lw	s2,0(s2)
    16ac:	020f8063          	beqz	t6,16cc <core_bench_list+0x12d8>
    16b0:	013fa023          	sw	s3,0(t6)
    16b4:	c00486e3          	beqz	s1,12c0 <core_bench_list+0xecc>
    16b8:	00098f93          	mv	t6,s3
    16bc:	fff48493          	addi	s1,s1,-1
    16c0:	00090993          	mv	s3,s2
    16c4:	00092903          	lw	s2,0(s2)
    16c8:	fe0f94e3          	bnez	t6,16b0 <core_bench_list+0x12bc>
    16cc:	00048663          	beqz	s1,16d8 <core_bench_list+0x12e4>
    16d0:	00098c93          	mv	s9,s3
    16d4:	fe5ff06f          	j	16b8 <core_bench_list+0x12c4>
    16d8:	00098c93          	mv	s9,s3
    16dc:	00000413          	li	s0,0
    16e0:	be1ff06f          	j	12c0 <core_bench_list+0xecc>
    16e4:	00090c93          	mv	s9,s2
    16e8:	00090993          	mv	s3,s2
    16ec:	00030913          	mv	s2,t1
    16f0:	bd1ff06f          	j	12c0 <core_bench_list+0xecc>
    16f4:	00040c93          	mv	s9,s0
    16f8:	ce1ff06f          	j	13d8 <core_bench_list+0xfe4>
    16fc:	00060c93          	mv	s9,a2
    1700:	cf1ff06f          	j	13f0 <core_bench_list+0xffc>
    1704:	000e0c93          	mv	s9,t3
    1708:	cfdff06f          	j	1404 <core_bench_list+0x1010>
    170c:	00040c93          	mv	s9,s0
    1710:	d09ff06f          	j	1418 <core_bench_list+0x1024>
    1714:	00078c93          	mv	s9,a5
    1718:	d15ff06f          	j	142c <core_bench_list+0x1038>
    171c:	000b8c93          	mv	s9,s7
    1720:	d21ff06f          	j	1440 <core_bench_list+0x104c>
    1724:	00030c93          	mv	s9,t1
    1728:	d45ff06f          	j	146c <core_bench_list+0x1078>
    172c:	00068c93          	mv	s9,a3
    1730:	d25ff06f          	j	1454 <core_bench_list+0x1060>
    1734:	00040c93          	mv	s9,s0
    1738:	bb1ff06f          	j	12e8 <core_bench_list+0xef4>
    173c:	00040c93          	mv	s9,s0
    1740:	c7dff06f          	j	13bc <core_bench_list+0xfc8>
    1744:	00040c93          	mv	s9,s0
    1748:	c59ff06f          	j	13a0 <core_bench_list+0xfac>
    174c:	00040c93          	mv	s9,s0
    1750:	c35ff06f          	j	1384 <core_bench_list+0xf90>
    1754:	00040c93          	mv	s9,s0
    1758:	c11ff06f          	j	1368 <core_bench_list+0xf74>
    175c:	00040913          	mv	s2,s0
    1760:	00060413          	mv	s0,a2
    1764:	9e041ce3          	bnez	s0,115c <core_bench_list+0xd68>
    1768:	ed9ff06f          	j	1640 <core_bench_list+0x124c>
    176c:	00040c93          	mv	s9,s0
    1770:	bddff06f          	j	134c <core_bench_list+0xf58>
    1774:	00058c93          	mv	s9,a1
    1778:	bbdff06f          	j	1334 <core_bench_list+0xf40>
    177c:	00042303          	lw	t1,0(s0)
    1780:	00030513          	mv	a0,t1
    1784:	00030463          	beqz	t1,178c <core_bench_list+0x1398>
    1788:	fb5fe06f          	j	73c <core_bench_list+0x348>
    178c:	85cff06f          	j	7e8 <core_bench_list+0x3f4>
    1790:	01c12f83          	lw	t6,28(sp)
    1794:	00170713          	addi	a4,a4,1
    1798:	3c07270b          	th.ext	a4,a4,15,0
    179c:	01e6a223          	sw	t5,4(a3)
    17a0:	000f0413          	mv	s0,t5
    17a4:	d9f71663          	bne	a4,t6,d30 <core_bench_list+0x93c>
    17a8:	00261413          	slli	s0,a2,0x2
    17ac:	40640eb3          	sub	t4,s0,t1
    17b0:	01de0f33          	add	t5,t3,t4
    17b4:	3c0f378b          	th.extu	a5,t5,15,0
    17b8:	00f12623          	sw	a5,12(sp)
    17bc:	00068413          	mv	s0,a3
    17c0:	ca0ff06f          	j	c60 <core_bench_list+0x86c>
    17c4:	00028413          	mv	s0,t0
    17c8:	d40ff06f          	j	d08 <core_bench_list+0x914>
    17cc:	00028793          	mv	a5,t0
    17d0:	dfcff06f          	j	dcc <core_bench_list+0x9d8>
    17d4:	00040513          	mv	a0,s0
    17d8:	00c0006f          	j	17e4 <core_bench_list+0x13f0>
    17dc:	00052503          	lw	a0,0(a0)
    17e0:	f8050ee3          	beqz	a0,177c <core_bench_list+0x1388>
    17e4:	00854f03          	lbu	t5,8(a0)
    17e8:	01412383          	lw	t2,20(sp)
    17ec:	fe7f18e3          	bne	t5,t2,17dc <core_bench_list+0x13e8>
    17f0:	00042303          	lw	t1,0(s0)
    17f4:	f49fe06f          	j	73c <core_bench_list+0x348>
    17f8:	00058713          	mv	a4,a1
    17fc:	00000813          	li	a6,0
    1800:	00000313          	li	t1,0
    1804:	00000613          	li	a2,0
    1808:	00000e13          	li	t3,0
    180c:	00100e93          	li	t4,1
    1810:	01d30333          	add	t1,t1,t4
    1814:	b9d80a63          	beq	a6,t4,ba8 <core_bench_list+0x7b4>
    1818:	00068293          	mv	t0,a3
    181c:	00040693          	mv	a3,s0
    1820:	00028413          	mv	s0,t0
    1824:	00442e83          	lw	t4,4(s0)
    1828:	00100813          	li	a6,1
    182c:	b90ff06f          	j	bbc <core_bench_list+0x7c8>
    1830:	01812603          	lw	a2,24(sp)
    1834:	00062023          	sw	zero,0(a2)
    1838:	00062223          	sw	zero,4(a2)
    183c:	0c05cc63          	bltz	a1,1914 <core_bench_list+0x1520>
    1840:	00000693          	li	a3,0
    1844:	c79fe06f          	j	4bc <core_bench_list+0xc8>
    1848:	000f8793          	mv	a5,t6
    184c:	8b5ff06f          	j	1100 <core_bench_list+0xd0c>
    1850:	00261413          	slli	s0,a2,0x2
    1854:	40640633          	sub	a2,s0,t1
    1858:	00ce0e33          	add	t3,t3,a2
    185c:	3c0e330b          	th.extu	t1,t3,15,0
    1860:	00612623          	sw	t1,12(sp)
    1864:	00068413          	mv	s0,a3
    1868:	dddfe06f          	j	644 <core_bench_list+0x250>
    186c:	00080413          	mv	s0,a6
    1870:	d04ff06f          	j	d74 <core_bench_list+0x980>
    1874:	00028413          	mv	s0,t0
    1878:	ce8ff06f          	j	d60 <core_bench_list+0x96c>
    187c:	01812503          	lw	a0,24(sp)
    1880:	00052023          	sw	zero,0(a0)
    1884:	00052223          	sw	zero,4(a0)
    1888:	00b04463          	bgtz	a1,1890 <core_bench_list+0x149c>
    188c:	e59fe06f          	j	6e4 <core_bench_list+0x2f0>
    1890:	04912a23          	sw	s1,84(sp)
    1894:	05212823          	sw	s2,80(sp)
    1898:	05312623          	sw	s3,76(sp)
    189c:	05412423          	sw	s4,72(sp)
    18a0:	05512223          	sw	s5,68(sp)
    18a4:	05612023          	sw	s6,64(sp)
    18a8:	03712e23          	sw	s7,60(sp)
    18ac:	03812c23          	sw	s8,56(sp)
    18b0:	03912a23          	sw	s9,52(sp)
    18b4:	03a12823          	sw	s10,48(sp)
    18b8:	03b12623          	sw	s11,44(sp)
    18bc:	00002023          	sw	zero,0(zero) # 0 <_start>
    18c0:	00100073          	ebreak
    18c4:	00040693          	mv	a3,s0
    18c8:	00130313          	addi	t1,t1,1
    18cc:	00000413          	li	s0,0
    18d0:	ad8ff06f          	j	ba8 <core_bench_list+0x7b4>
    18d4:	00b12e23          	sw	a1,28(sp)
    18d8:	00012623          	sw	zero,12(sp)
    18dc:	d69fe06f          	j	644 <core_bench_list+0x250>
    18e0:	000c8413          	mv	s0,s9
    18e4:	05412483          	lw	s1,84(sp)
    18e8:	05012903          	lw	s2,80(sp)
    18ec:	04c12983          	lw	s3,76(sp)
    18f0:	04812a03          	lw	s4,72(sp)
    18f4:	04412a83          	lw	s5,68(sp)
    18f8:	04012b03          	lw	s6,64(sp)
    18fc:	03c12b83          	lw	s7,60(sp)
    1900:	03812c03          	lw	s8,56(sp)
    1904:	03412c83          	lw	s9,52(sp)
    1908:	03012d03          	lw	s10,48(sp)
    190c:	02c12d83          	lw	s11,44(sp)
    1910:	dd5fe06f          	j	6e4 <core_bench_list+0x2f0>
    1914:	00000693          	li	a3,0
    1918:	01d05463          	blez	t4,1920 <core_bench_list+0x152c>
    191c:	c31fe06f          	j	54c <core_bench_list+0x158>
    1920:	01812403          	lw	s0,24(sp)
    1924:	00b12e23          	sw	a1,28(sp)
    1928:	00012a23          	sw	zero,20(sp)
    192c:	00042023          	sw	zero,0(s0)
    1930:	00042223          	sw	zero,4(s0)
    1934:	00012623          	sw	zero,12(sp)
    1938:	00000413          	li	s0,0
    193c:	da9fe06f          	j	6e4 <core_bench_list+0x2f0>
    1940:	00130313          	addi	t1,t1,1
    1944:	ee1ff06f          	j	1824 <core_bench_list+0x1430>
    1948:	04912a23          	sw	s1,84(sp)
    194c:	05212823          	sw	s2,80(sp)
    1950:	05312623          	sw	s3,76(sp)
    1954:	05412423          	sw	s4,72(sp)
    1958:	05512223          	sw	s5,68(sp)
    195c:	05612023          	sw	s6,64(sp)
    1960:	03712e23          	sw	s7,60(sp)
    1964:	03812c23          	sw	s8,56(sp)
    1968:	03912a23          	sw	s9,52(sp)
    196c:	03a12823          	sw	s10,48(sp)
    1970:	03b12623          	sw	s11,44(sp)
    1974:	00002023          	sw	zero,0(zero) # 0 <_start>
    1978:	00100073          	ebreak

0000197c <core_list_init>:
    197c:	ccccd7b7          	lui	a5,0xccccd
    1980:	ccd78293          	addi	t0,a5,-819 # cccccccd <_stack_top+0xcccb8ccd>
    1984:	025536b3          	mulhu	a3,a0,t0
    1988:	00008337          	lui	t1,0x8
    198c:	08030393          	addi	t2,t1,128 # 8080 <matrix_mul_vect+0xec>
    1990:	00058713          	mv	a4,a1
    1994:	0075a423          	sw	t2,8(a1)
    1998:	0005a023          	sw	zero,0(a1)
    199c:	0005a223          	sw	zero,4(a1)
    19a0:	01858793          	addi	a5,a1,24
    19a4:	00c70e13          	addi	t3,a4,12
    19a8:	0046d513          	srli	a0,a3,0x4
    19ac:	ffe50293          	addi	t0,a0,-2
    19b0:	2052a5b3          	sh1add	a1,t0,t0
    19b4:	20e5c333          	sh2add	t1,a1,a4
    19b8:	2062c8b3          	sh2add	a7,t0,t1
    19bc:	5467fae3          	bgeu	a5,t1,2710 <core_list_init+0xd94>
    19c0:	00830593          	addi	a1,t1,8
    19c4:	5515fce3          	bgeu	a1,a7,271c <core_list_init+0xda0>
    19c8:	80000837          	lui	a6,0x80000
    19cc:	fff80e93          	addi	t4,a6,-1 # 7fffffff <_stack_top+0x7ffebfff>
    19d0:	00072623          	sw	zero,12(a4)
    19d4:	00e72823          	sw	a4,16(a4)
    19d8:	01c72023          	sw	t3,0(a4)
    19dc:	01d72a23          	sw	t4,20(a4)
    19e0:	56028663          	beqz	t0,1f4c <core_list_init+0x5d0>
    19e4:	ffff8f37          	lui	t5,0xffff8
    19e8:	0072ff93          	andi	t6,t0,7
    19ec:	ffff4393          	not	t2,t5
    19f0:	00000693          	li	a3,0
    19f4:	280f8a63          	beqz	t6,1c88 <core_list_init+0x30c>
    19f8:	00100513          	li	a0,1
    19fc:	22af8863          	beq	t6,a0,1c2c <core_list_init+0x2b0>
    1a00:	00200e13          	li	t3,2
    1a04:	1dcf8863          	beq	t6,t3,1bd4 <core_list_init+0x258>
    1a08:	00300813          	li	a6,3
    1a0c:	170f8863          	beq	t6,a6,1b7c <core_list_init+0x200>
    1a10:	00400e93          	li	t4,4
    1a14:	11df8863          	beq	t6,t4,1b24 <core_list_init+0x1a8>
    1a18:	00500f13          	li	t5,5
    1a1c:	0bef8863          	beq	t6,t5,1acc <core_list_init+0x150>
    1a20:	00600513          	li	a0,6
    1a24:	04af8863          	beq	t6,a0,1a74 <core_list_init+0xf8>
    1a28:	00c78f93          	addi	t6,a5,12
    1a2c:	046ff263          	bgeu	t6,t1,1a70 <core_list_init+0xf4>
    1a30:	00458e13          	addi	t3,a1,4
    1a34:	031e7e63          	bgeu	t3,a7,1a70 <core_list_init+0xf4>
    1a38:	00072583          	lw	a1,0(a4)
    1a3c:	00361693          	slli	a3,a2,0x3
    1a40:	0786f813          	andi	a6,a3,120
    1a44:	00881e93          	slli	t4,a6,0x8
    1a48:	00b7a023          	sw	a1,0(a5)
    1a4c:	00e7a223          	sw	a4,4(a5)
    1a50:	01d80f33          	add	t5,a6,t4
    1a54:	00058463          	beqz	a1,1a5c <core_list_init+0xe0>
    1a58:	00f5a223          	sw	a5,4(a1)
    1a5c:	00f72023          	sw	a5,0(a4)
    1a60:	01e79423          	sh	t5,8(a5)
    1a64:	00779523          	sh	t2,10(a5)
    1a68:	000e0593          	mv	a1,t3
    1a6c:	000f8793          	mv	a5,t6
    1a70:	00100693          	li	a3,1
    1a74:	00c78513          	addi	a0,a5,12
    1a78:	04657863          	bgeu	a0,t1,1ac8 <core_list_init+0x14c>
    1a7c:	00458813          	addi	a6,a1,4
    1a80:	05187463          	bgeu	a6,a7,1ac8 <core_list_init+0x14c>
    1a84:	00c6cfb3          	xor	t6,a3,a2
    1a88:	003f9593          	slli	a1,t6,0x3
    1a8c:	00072e03          	lw	t3,0(a4)
    1a90:	0785fe93          	andi	t4,a1,120
    1a94:	0076ff13          	andi	t5,a3,7
    1a98:	01eee5b3          	or	a1,t4,t5
    1a9c:	00859f93          	slli	t6,a1,0x8
    1aa0:	01c7a023          	sw	t3,0(a5)
    1aa4:	00e7a223          	sw	a4,4(a5)
    1aa8:	01f58eb3          	add	t4,a1,t6
    1aac:	000e0463          	beqz	t3,1ab4 <core_list_init+0x138>
    1ab0:	00fe2223          	sw	a5,4(t3)
    1ab4:	00f72023          	sw	a5,0(a4)
    1ab8:	01d79423          	sh	t4,8(a5)
    1abc:	00779523          	sh	t2,10(a5)
    1ac0:	00080593          	mv	a1,a6
    1ac4:	00050793          	mv	a5,a0
    1ac8:	00168693          	addi	a3,a3,1
    1acc:	00c78513          	addi	a0,a5,12
    1ad0:	04657863          	bgeu	a0,t1,1b20 <core_list_init+0x1a4>
    1ad4:	00458813          	addi	a6,a1,4
    1ad8:	05187463          	bgeu	a6,a7,1b20 <core_list_init+0x1a4>
    1adc:	00c6ce33          	xor	t3,a3,a2
    1ae0:	003e1f13          	slli	t5,t3,0x3
    1ae4:	00072e83          	lw	t4,0(a4)
    1ae8:	078f7593          	andi	a1,t5,120
    1aec:	0076ff93          	andi	t6,a3,7
    1af0:	01f5ee33          	or	t3,a1,t6
    1af4:	008e1f13          	slli	t5,t3,0x8
    1af8:	01d7a023          	sw	t4,0(a5)
    1afc:	00e7a223          	sw	a4,4(a5)
    1b00:	01ee05b3          	add	a1,t3,t5
    1b04:	000e8463          	beqz	t4,1b0c <core_list_init+0x190>
    1b08:	00fea223          	sw	a5,4(t4)
    1b0c:	00f72023          	sw	a5,0(a4)
    1b10:	00b79423          	sh	a1,8(a5)
    1b14:	00779523          	sh	t2,10(a5)
    1b18:	00080593          	mv	a1,a6
    1b1c:	00050793          	mv	a5,a0
    1b20:	00168693          	addi	a3,a3,1
    1b24:	00c78513          	addi	a0,a5,12
    1b28:	04657863          	bgeu	a0,t1,1b78 <core_list_init+0x1fc>
    1b2c:	00458813          	addi	a6,a1,4
    1b30:	05187463          	bgeu	a6,a7,1b78 <core_list_init+0x1fc>
    1b34:	00c6ceb3          	xor	t4,a3,a2
    1b38:	003e9f93          	slli	t6,t4,0x3
    1b3c:	00072e03          	lw	t3,0(a4)
    1b40:	078fff13          	andi	t5,t6,120
    1b44:	0076f593          	andi	a1,a3,7
    1b48:	00bf6eb3          	or	t4,t5,a1
    1b4c:	008e9f93          	slli	t6,t4,0x8
    1b50:	01c7a023          	sw	t3,0(a5)
    1b54:	00e7a223          	sw	a4,4(a5)
    1b58:	01fe8f33          	add	t5,t4,t6
    1b5c:	000e0463          	beqz	t3,1b64 <core_list_init+0x1e8>
    1b60:	00fe2223          	sw	a5,4(t3)
    1b64:	00f72023          	sw	a5,0(a4)
    1b68:	01e79423          	sh	t5,8(a5)
    1b6c:	00779523          	sh	t2,10(a5)
    1b70:	00080593          	mv	a1,a6
    1b74:	00050793          	mv	a5,a0
    1b78:	00168693          	addi	a3,a3,1
    1b7c:	00c78513          	addi	a0,a5,12
    1b80:	04657863          	bgeu	a0,t1,1bd0 <core_list_init+0x254>
    1b84:	00458813          	addi	a6,a1,4
    1b88:	05187463          	bgeu	a6,a7,1bd0 <core_list_init+0x254>
    1b8c:	00c6ce33          	xor	t3,a3,a2
    1b90:	003e1593          	slli	a1,t3,0x3
    1b94:	00072e83          	lw	t4,0(a4)
    1b98:	0785ff13          	andi	t5,a1,120
    1b9c:	0076ff93          	andi	t6,a3,7
    1ba0:	01ff6e33          	or	t3,t5,t6
    1ba4:	008e1593          	slli	a1,t3,0x8
    1ba8:	01d7a023          	sw	t4,0(a5)
    1bac:	00e7a223          	sw	a4,4(a5)
    1bb0:	00be0f33          	add	t5,t3,a1
    1bb4:	000e8463          	beqz	t4,1bbc <core_list_init+0x240>
    1bb8:	00fea223          	sw	a5,4(t4)
    1bbc:	00f72023          	sw	a5,0(a4)
    1bc0:	01e79423          	sh	t5,8(a5)
    1bc4:	00779523          	sh	t2,10(a5)
    1bc8:	00080593          	mv	a1,a6
    1bcc:	00050793          	mv	a5,a0
    1bd0:	00168693          	addi	a3,a3,1
    1bd4:	00c78513          	addi	a0,a5,12
    1bd8:	04657863          	bgeu	a0,t1,1c28 <core_list_init+0x2ac>
    1bdc:	00458813          	addi	a6,a1,4
    1be0:	05187463          	bgeu	a6,a7,1c28 <core_list_init+0x2ac>
    1be4:	00c6ceb3          	xor	t4,a3,a2
    1be8:	003e9f93          	slli	t6,t4,0x3
    1bec:	00072e03          	lw	t3,0(a4)
    1bf0:	078ff593          	andi	a1,t6,120
    1bf4:	0076ff13          	andi	t5,a3,7
    1bf8:	01e5eeb3          	or	t4,a1,t5
    1bfc:	008e9f93          	slli	t6,t4,0x8
    1c00:	01c7a023          	sw	t3,0(a5)
    1c04:	00e7a223          	sw	a4,4(a5)
    1c08:	01fe85b3          	add	a1,t4,t6
    1c0c:	000e0463          	beqz	t3,1c14 <core_list_init+0x298>
    1c10:	00fe2223          	sw	a5,4(t3)
    1c14:	00f72023          	sw	a5,0(a4)
    1c18:	00b79423          	sh	a1,8(a5)
    1c1c:	00779523          	sh	t2,10(a5)
    1c20:	00080593          	mv	a1,a6
    1c24:	00050793          	mv	a5,a0
    1c28:	00168693          	addi	a3,a3,1
    1c2c:	00c78513          	addi	a0,a5,12
    1c30:	04657863          	bgeu	a0,t1,1c80 <core_list_init+0x304>
    1c34:	00458813          	addi	a6,a1,4
    1c38:	05187463          	bgeu	a6,a7,1c80 <core_list_init+0x304>
    1c3c:	00c6ce33          	xor	t3,a3,a2
    1c40:	003e1f13          	slli	t5,t3,0x3
    1c44:	00072e83          	lw	t4,0(a4)
    1c48:	078f7593          	andi	a1,t5,120
    1c4c:	0076ff93          	andi	t6,a3,7
    1c50:	01f5ee33          	or	t3,a1,t6
    1c54:	008e1f13          	slli	t5,t3,0x8
    1c58:	01d7a023          	sw	t4,0(a5)
    1c5c:	00e7a223          	sw	a4,4(a5)
    1c60:	01ee05b3          	add	a1,t3,t5
    1c64:	000e8463          	beqz	t4,1c6c <core_list_init+0x2f0>
    1c68:	00fea223          	sw	a5,4(t4)
    1c6c:	00f72023          	sw	a5,0(a4)
    1c70:	00b79423          	sh	a1,8(a5)
    1c74:	00779523          	sh	t2,10(a5)
    1c78:	00080593          	mv	a1,a6
    1c7c:	00050793          	mv	a5,a0
    1c80:	00168693          	addi	a3,a3,1
    1c84:	2cd28463          	beq	t0,a3,1f4c <core_list_init+0x5d0>
    1c88:	00c78513          	addi	a0,a5,12
    1c8c:	04657863          	bgeu	a0,t1,1cdc <core_list_init+0x360>
    1c90:	00458813          	addi	a6,a1,4
    1c94:	05187463          	bgeu	a6,a7,1cdc <core_list_init+0x360>
    1c98:	00c6ceb3          	xor	t4,a3,a2
    1c9c:	003e9f93          	slli	t6,t4,0x3
    1ca0:	00072e03          	lw	t3,0(a4)
    1ca4:	078fff13          	andi	t5,t6,120
    1ca8:	0076f593          	andi	a1,a3,7
    1cac:	00bf6eb3          	or	t4,t5,a1
    1cb0:	008e9f93          	slli	t6,t4,0x8
    1cb4:	01c7a023          	sw	t3,0(a5)
    1cb8:	00e7a223          	sw	a4,4(a5)
    1cbc:	01fe8f33          	add	t5,t4,t6
    1cc0:	000e0463          	beqz	t3,1cc8 <core_list_init+0x34c>
    1cc4:	00fe2223          	sw	a5,4(t3)
    1cc8:	00f72023          	sw	a5,0(a4)
    1ccc:	01e79423          	sh	t5,8(a5)
    1cd0:	00779523          	sh	t2,10(a5)
    1cd4:	00080593          	mv	a1,a6
    1cd8:	00050793          	mv	a5,a0
    1cdc:	00c78513          	addi	a0,a5,12
    1ce0:	00168693          	addi	a3,a3,1
    1ce4:	04657863          	bgeu	a0,t1,1d34 <core_list_init+0x3b8>
    1ce8:	00458813          	addi	a6,a1,4
    1cec:	05187463          	bgeu	a6,a7,1d34 <core_list_init+0x3b8>
    1cf0:	00c6ce33          	xor	t3,a3,a2
    1cf4:	003e1593          	slli	a1,t3,0x3
    1cf8:	00072e83          	lw	t4,0(a4)
    1cfc:	0785ff13          	andi	t5,a1,120
    1d00:	0076ff93          	andi	t6,a3,7
    1d04:	01ff6e33          	or	t3,t5,t6
    1d08:	008e1593          	slli	a1,t3,0x8
    1d0c:	01d7a023          	sw	t4,0(a5)
    1d10:	00e7a223          	sw	a4,4(a5)
    1d14:	00be0f33          	add	t5,t3,a1
    1d18:	000e8463          	beqz	t4,1d20 <core_list_init+0x3a4>
    1d1c:	00fea223          	sw	a5,4(t4)
    1d20:	00f72023          	sw	a5,0(a4)
    1d24:	01e79423          	sh	t5,8(a5)
    1d28:	00779523          	sh	t2,10(a5)
    1d2c:	00080593          	mv	a1,a6
    1d30:	00050793          	mv	a5,a0
    1d34:	00c78513          	addi	a0,a5,12
    1d38:	04657a63          	bgeu	a0,t1,1d8c <core_list_init+0x410>
    1d3c:	00458813          	addi	a6,a1,4
    1d40:	05187663          	bgeu	a6,a7,1d8c <core_list_init+0x410>
    1d44:	00168f93          	addi	t6,a3,1
    1d48:	00cfceb3          	xor	t4,t6,a2
    1d4c:	003e9e13          	slli	t3,t4,0x3
    1d50:	00072f03          	lw	t5,0(a4)
    1d54:	078e7593          	andi	a1,t3,120
    1d58:	007fff93          	andi	t6,t6,7
    1d5c:	01f5eeb3          	or	t4,a1,t6
    1d60:	008e9e13          	slli	t3,t4,0x8
    1d64:	01e7a023          	sw	t5,0(a5)
    1d68:	00e7a223          	sw	a4,4(a5)
    1d6c:	01ce85b3          	add	a1,t4,t3
    1d70:	000f0463          	beqz	t5,1d78 <core_list_init+0x3fc>
    1d74:	00ff2223          	sw	a5,4(t5) # ffff8004 <_stack_top+0xfffe4004>
    1d78:	00f72023          	sw	a5,0(a4)
    1d7c:	00b79423          	sh	a1,8(a5)
    1d80:	00779523          	sh	t2,10(a5)
    1d84:	00080593          	mv	a1,a6
    1d88:	00050793          	mv	a5,a0
    1d8c:	00c78513          	addi	a0,a5,12
    1d90:	04657a63          	bgeu	a0,t1,1de4 <core_list_init+0x468>
    1d94:	00458813          	addi	a6,a1,4
    1d98:	05187663          	bgeu	a6,a7,1de4 <core_list_init+0x468>
    1d9c:	00268f13          	addi	t5,a3,2
    1da0:	00cf4fb3          	xor	t6,t5,a2
    1da4:	003f9e13          	slli	t3,t6,0x3
    1da8:	00072e83          	lw	t4,0(a4)
    1dac:	078e7593          	andi	a1,t3,120
    1db0:	007f7f13          	andi	t5,t5,7
    1db4:	01e5efb3          	or	t6,a1,t5
    1db8:	008f9e13          	slli	t3,t6,0x8
    1dbc:	01d7a023          	sw	t4,0(a5)
    1dc0:	00e7a223          	sw	a4,4(a5)
    1dc4:	01cf85b3          	add	a1,t6,t3
    1dc8:	000e8463          	beqz	t4,1dd0 <core_list_init+0x454>
    1dcc:	00fea223          	sw	a5,4(t4)
    1dd0:	00f72023          	sw	a5,0(a4)
    1dd4:	00b79423          	sh	a1,8(a5)
    1dd8:	00779523          	sh	t2,10(a5)
    1ddc:	00080593          	mv	a1,a6
    1de0:	00050793          	mv	a5,a0
    1de4:	00c78513          	addi	a0,a5,12
    1de8:	04657a63          	bgeu	a0,t1,1e3c <core_list_init+0x4c0>
    1dec:	00458813          	addi	a6,a1,4
    1df0:	05187663          	bgeu	a6,a7,1e3c <core_list_init+0x4c0>
    1df4:	00368f13          	addi	t5,a3,3
    1df8:	00cf4eb3          	xor	t4,t5,a2
    1dfc:	003e9f93          	slli	t6,t4,0x3
    1e00:	00072e83          	lw	t4,0(a4)
    1e04:	078ff593          	andi	a1,t6,120
    1e08:	007f7e13          	andi	t3,t5,7
    1e0c:	01c5ef33          	or	t5,a1,t3
    1e10:	008f1f93          	slli	t6,t5,0x8
    1e14:	01d7a023          	sw	t4,0(a5)
    1e18:	00e7a223          	sw	a4,4(a5)
    1e1c:	01ff05b3          	add	a1,t5,t6
    1e20:	000e8463          	beqz	t4,1e28 <core_list_init+0x4ac>
    1e24:	00fea223          	sw	a5,4(t4)
    1e28:	00f72023          	sw	a5,0(a4)
    1e2c:	00b79423          	sh	a1,8(a5)
    1e30:	00779523          	sh	t2,10(a5)
    1e34:	00080593          	mv	a1,a6
    1e38:	00050793          	mv	a5,a0
    1e3c:	00c78513          	addi	a0,a5,12
    1e40:	04657a63          	bgeu	a0,t1,1e94 <core_list_init+0x518>
    1e44:	00458813          	addi	a6,a1,4
    1e48:	05187663          	bgeu	a6,a7,1e94 <core_list_init+0x518>
    1e4c:	00468e13          	addi	t3,a3,4
    1e50:	00ce4eb3          	xor	t4,t3,a2
    1e54:	003e9f13          	slli	t5,t4,0x3
    1e58:	00072f83          	lw	t6,0(a4)
    1e5c:	078f7593          	andi	a1,t5,120
    1e60:	007e7e13          	andi	t3,t3,7
    1e64:	01c5eeb3          	or	t4,a1,t3
    1e68:	008e9f13          	slli	t5,t4,0x8
    1e6c:	01f7a023          	sw	t6,0(a5)
    1e70:	00e7a223          	sw	a4,4(a5)
    1e74:	01ee85b3          	add	a1,t4,t5
    1e78:	000f8463          	beqz	t6,1e80 <core_list_init+0x504>
    1e7c:	00ffa223          	sw	a5,4(t6)
    1e80:	00f72023          	sw	a5,0(a4)
    1e84:	00b79423          	sh	a1,8(a5)
    1e88:	00779523          	sh	t2,10(a5)
    1e8c:	00080593          	mv	a1,a6
    1e90:	00050793          	mv	a5,a0
    1e94:	00c78513          	addi	a0,a5,12
    1e98:	04657a63          	bgeu	a0,t1,1eec <core_list_init+0x570>
    1e9c:	00458813          	addi	a6,a1,4
    1ea0:	05187663          	bgeu	a6,a7,1eec <core_list_init+0x570>
    1ea4:	00568f93          	addi	t6,a3,5
    1ea8:	00cfce33          	xor	t3,t6,a2
    1eac:	003e1f13          	slli	t5,t3,0x3
    1eb0:	00072e83          	lw	t4,0(a4)
    1eb4:	078f7593          	andi	a1,t5,120
    1eb8:	007fff93          	andi	t6,t6,7
    1ebc:	01f5ef33          	or	t5,a1,t6
    1ec0:	008f1e13          	slli	t3,t5,0x8
    1ec4:	01d7a023          	sw	t4,0(a5)
    1ec8:	00e7a223          	sw	a4,4(a5)
    1ecc:	01cf05b3          	add	a1,t5,t3
    1ed0:	000e8463          	beqz	t4,1ed8 <core_list_init+0x55c>
    1ed4:	00fea223          	sw	a5,4(t4)
    1ed8:	00f72023          	sw	a5,0(a4)
    1edc:	00b79423          	sh	a1,8(a5)
    1ee0:	00779523          	sh	t2,10(a5)
    1ee4:	00080593          	mv	a1,a6
    1ee8:	00050793          	mv	a5,a0
    1eec:	00c78513          	addi	a0,a5,12
    1ef0:	04657a63          	bgeu	a0,t1,1f44 <core_list_init+0x5c8>
    1ef4:	00458813          	addi	a6,a1,4
    1ef8:	05187663          	bgeu	a6,a7,1f44 <core_list_init+0x5c8>
    1efc:	00668f93          	addi	t6,a3,6
    1f00:	00cfceb3          	xor	t4,t6,a2
    1f04:	003e9f13          	slli	t5,t4,0x3
    1f08:	00072e83          	lw	t4,0(a4)
    1f0c:	078f7593          	andi	a1,t5,120
    1f10:	007ffe13          	andi	t3,t6,7
    1f14:	01c5efb3          	or	t6,a1,t3
    1f18:	008f9f13          	slli	t5,t6,0x8
    1f1c:	01d7a023          	sw	t4,0(a5)
    1f20:	00e7a223          	sw	a4,4(a5)
    1f24:	01ef85b3          	add	a1,t6,t5
    1f28:	000e8463          	beqz	t4,1f30 <core_list_init+0x5b4>
    1f2c:	00fea223          	sw	a5,4(t4)
    1f30:	00f72023          	sw	a5,0(a4)
    1f34:	00b79423          	sh	a1,8(a5)
    1f38:	00779523          	sh	t2,10(a5)
    1f3c:	00080593          	mv	a1,a6
    1f40:	00050793          	mv	a5,a0
    1f44:	00768693          	addi	a3,a3,7
    1f48:	d4d290e3          	bne	t0,a3,1c88 <core_list_init+0x30c>
    1f4c:	00072e03          	lw	t3,0(a4)
    1f50:	000e2803          	lw	a6,0(t3)
    1f54:	06080a63          	beqz	a6,1fc8 <core_list_init+0x64c>
    1f58:	ccccd337          	lui	t1,0xccccd
    1f5c:	ccd30893          	addi	a7,t1,-819 # cccccccd <_stack_top+0xcccb8ccd>
    1f60:	0312b2b3          	mulhu	t0,t0,a7
    1f64:	000043b7          	lui	t2,0x4
    1f68:	fff38313          	addi	t1,t2,-1 # 3fff <main+0xc03>
    1f6c:	00100693          	li	a3,1
    1f70:	20000893          	li	a7,512
    1f74:	0022d393          	srli	t2,t0,0x2
    1f78:	0276f463          	bgeu	a3,t2,1fa0 <core_list_init+0x624>
    1f7c:	00082783          	lw	a5,0(a6)
    1f80:	00068f13          	mv	t5,a3
    1f84:	01ee1523          	sh	t5,10(t3)
    1f88:	00168693          	addi	a3,a3,1
    1f8c:	10088893          	addi	a7,a7,256
    1f90:	00080e13          	mv	t3,a6
    1f94:	02078a63          	beqz	a5,1fc8 <core_list_init+0x64c>
    1f98:	00078813          	mv	a6,a5
    1f9c:	fe76e0e3          	bltu	a3,t2,1f7c <core_list_init+0x600>
    1fa0:	00c6ceb3          	xor	t4,a3,a2
    1fa4:	7008f513          	andi	a0,a7,1792
    1fa8:	00082783          	lw	a5,0(a6)
    1fac:	00aeefb3          	or	t6,t4,a0
    1fb0:	006fff33          	and	t5,t6,t1
    1fb4:	01ee1523          	sh	t5,10(t3)
    1fb8:	00168693          	addi	a3,a3,1
    1fbc:	10088893          	addi	a7,a7,256
    1fc0:	00080e13          	mv	t3,a6
    1fc4:	fc079ae3          	bnez	a5,1f98 <core_list_init+0x61c>
    1fc8:	00100e93          	li	t4,1
    1fcc:	000e8f93          	mv	t6,t4
    1fd0:	00000513          	li	a0,0
    1fd4:	00000793          	li	a5,0
    1fd8:	00000f13          	li	t5,0
    1fdc:	007ef593          	andi	a1,t4,7
    1fe0:	001f0f13          	addi	t5,t5,1
    1fe4:	00070613          	mv	a2,a4
    1fe8:	00000693          	li	a3,0
    1fec:	08058463          	beqz	a1,2074 <core_list_init+0x6f8>
    1ff0:	0fd6d663          	bge	a3,t4,20dc <core_list_init+0x760>
    1ff4:	00072603          	lw	a2,0(a4)
    1ff8:	00100693          	li	a3,1
    1ffc:	0e060063          	beqz	a2,20dc <core_list_init+0x760>
    2000:	06d58a63          	beq	a1,a3,2074 <core_list_init+0x6f8>
    2004:	00200813          	li	a6,2
    2008:	07058063          	beq	a1,a6,2068 <core_list_init+0x6ec>
    200c:	00300313          	li	t1,3
    2010:	04658663          	beq	a1,t1,205c <core_list_init+0x6e0>
    2014:	00400293          	li	t0,4
    2018:	02558c63          	beq	a1,t0,2050 <core_list_init+0x6d4>
    201c:	00500393          	li	t2,5
    2020:	02758263          	beq	a1,t2,2044 <core_list_init+0x6c8>
    2024:	00600893          	li	a7,6
    2028:	01158863          	beq	a1,a7,2038 <core_list_init+0x6bc>
    202c:	00062603          	lw	a2,0(a2)
    2030:	00080693          	mv	a3,a6
    2034:	0a060463          	beqz	a2,20dc <core_list_init+0x760>
    2038:	00062603          	lw	a2,0(a2)
    203c:	00168693          	addi	a3,a3,1
    2040:	08060e63          	beqz	a2,20dc <core_list_init+0x760>
    2044:	00062603          	lw	a2,0(a2)
    2048:	00168693          	addi	a3,a3,1
    204c:	08060863          	beqz	a2,20dc <core_list_init+0x760>
    2050:	00062603          	lw	a2,0(a2)
    2054:	00168693          	addi	a3,a3,1
    2058:	08060263          	beqz	a2,20dc <core_list_init+0x760>
    205c:	00062603          	lw	a2,0(a2)
    2060:	00168693          	addi	a3,a3,1
    2064:	06060c63          	beqz	a2,20dc <core_list_init+0x760>
    2068:	00062603          	lw	a2,0(a2)
    206c:	00168693          	addi	a3,a3,1
    2070:	06060663          	beqz	a2,20dc <core_list_init+0x760>
    2074:	07d6d463          	bge	a3,t4,20dc <core_list_init+0x760>
    2078:	00062603          	lw	a2,0(a2)
    207c:	00168693          	addi	a3,a3,1
    2080:	00068e13          	mv	t3,a3
    2084:	04060c63          	beqz	a2,20dc <core_list_init+0x760>
    2088:	00062603          	lw	a2,0(a2)
    208c:	00168693          	addi	a3,a3,1
    2090:	04060663          	beqz	a2,20dc <core_list_init+0x760>
    2094:	00062603          	lw	a2,0(a2)
    2098:	002e0693          	addi	a3,t3,2
    209c:	04060063          	beqz	a2,20dc <core_list_init+0x760>
    20a0:	00062603          	lw	a2,0(a2)
    20a4:	003e0693          	addi	a3,t3,3
    20a8:	02060a63          	beqz	a2,20dc <core_list_init+0x760>
    20ac:	00062603          	lw	a2,0(a2)
    20b0:	004e0693          	addi	a3,t3,4
    20b4:	02060463          	beqz	a2,20dc <core_list_init+0x760>
    20b8:	00062603          	lw	a2,0(a2)
    20bc:	005e0693          	addi	a3,t3,5
    20c0:	00060e63          	beqz	a2,20dc <core_list_init+0x760>
    20c4:	00062603          	lw	a2,0(a2)
    20c8:	006e0693          	addi	a3,t3,6
    20cc:	00060863          	beqz	a2,20dc <core_list_init+0x760>
    20d0:	00062603          	lw	a2,0(a2)
    20d4:	007e0693          	addi	a3,t3,7
    20d8:	f8061ee3          	bnez	a2,2074 <core_list_init+0x6f8>
    20dc:	000e8893          	mv	a7,t4
    20e0:	20d05c63          	blez	a3,22f8 <core_list_init+0x97c>
    20e4:	26089863          	bnez	a7,2354 <core_list_init+0x9d8>
    20e8:	fff68593          	addi	a1,a3,-1
    20ec:	0075f393          	andi	t2,a1,7
    20f0:	0e038a63          	beqz	t2,21e4 <core_list_init+0x868>
    20f4:	00072303          	lw	t1,0(a4)
    20f8:	1e078063          	beqz	a5,22d8 <core_list_init+0x95c>
    20fc:	00e7a023          	sw	a4,0(a5)
    2100:	00100e13          	li	t3,1
    2104:	00070793          	mv	a5,a4
    2108:	00058693          	mv	a3,a1
    210c:	00030713          	mv	a4,t1
    2110:	0dc38a63          	beq	t2,t3,21e4 <core_list_init+0x868>
    2114:	00200293          	li	t0,2
    2118:	0a538863          	beq	t2,t0,21c8 <core_list_init+0x84c>
    211c:	00300813          	li	a6,3
    2120:	09038663          	beq	t2,a6,21ac <core_list_init+0x830>
    2124:	00400e13          	li	t3,4
    2128:	07c38463          	beq	t2,t3,2190 <core_list_init+0x814>
    212c:	00500293          	li	t0,5
    2130:	04538263          	beq	t2,t0,2174 <core_list_init+0x7f8>
    2134:	00600813          	li	a6,6
    2138:	03038063          	beq	t2,a6,2158 <core_list_init+0x7dc>
    213c:	00032303          	lw	t1,0(t1)
    2140:	fff58593          	addi	a1,a1,-1
    2144:	18078a63          	beqz	a5,22d8 <core_list_init+0x95c>
    2148:	00e7a023          	sw	a4,0(a5)
    214c:	00058693          	mv	a3,a1
    2150:	00070793          	mv	a5,a4
    2154:	00030713          	mv	a4,t1
    2158:	00032303          	lw	t1,0(t1)
    215c:	fff58593          	addi	a1,a1,-1
    2160:	16078c63          	beqz	a5,22d8 <core_list_init+0x95c>
    2164:	00e7a023          	sw	a4,0(a5)
    2168:	00058693          	mv	a3,a1
    216c:	00070793          	mv	a5,a4
    2170:	00030713          	mv	a4,t1
    2174:	00032303          	lw	t1,0(t1)
    2178:	fff58593          	addi	a1,a1,-1
    217c:	14078e63          	beqz	a5,22d8 <core_list_init+0x95c>
    2180:	00e7a023          	sw	a4,0(a5)
    2184:	00058693          	mv	a3,a1
    2188:	00070793          	mv	a5,a4
    218c:	00030713          	mv	a4,t1
    2190:	00032303          	lw	t1,0(t1)
    2194:	fff58593          	addi	a1,a1,-1
    2198:	14078063          	beqz	a5,22d8 <core_list_init+0x95c>
    219c:	00e7a023          	sw	a4,0(a5)
    21a0:	00058693          	mv	a3,a1
    21a4:	00070793          	mv	a5,a4
    21a8:	00030713          	mv	a4,t1
    21ac:	00032303          	lw	t1,0(t1)
    21b0:	fff58593          	addi	a1,a1,-1
    21b4:	12078263          	beqz	a5,22d8 <core_list_init+0x95c>
    21b8:	00e7a023          	sw	a4,0(a5)
    21bc:	00058693          	mv	a3,a1
    21c0:	00070793          	mv	a5,a4
    21c4:	00030713          	mv	a4,t1
    21c8:	00032303          	lw	t1,0(t1)
    21cc:	fff58593          	addi	a1,a1,-1
    21d0:	10078463          	beqz	a5,22d8 <core_list_init+0x95c>
    21d4:	00e7a023          	sw	a4,0(a5)
    21d8:	00058693          	mv	a3,a1
    21dc:	00070793          	mv	a5,a4
    21e0:	00030713          	mv	a4,t1
    21e4:	00072303          	lw	t1,0(a4)
    21e8:	fff68593          	addi	a1,a3,-1
    21ec:	0e078663          	beqz	a5,22d8 <core_list_init+0x95c>
    21f0:	00e7a023          	sw	a4,0(a5)
    21f4:	00070793          	mv	a5,a4
    21f8:	18058863          	beqz	a1,2388 <core_list_init+0xa0c>
    21fc:	00058693          	mv	a3,a1
    2200:	00058393          	mv	t2,a1
    2204:	00030713          	mv	a4,t1
    2208:	fff58593          	addi	a1,a1,-1
    220c:	00032303          	lw	t1,0(t1)
    2210:	0c078463          	beqz	a5,22d8 <core_list_init+0x95c>
    2214:	00e7a023          	sw	a4,0(a5)
    2218:	00070e13          	mv	t3,a4
    221c:	00058693          	mv	a3,a1
    2220:	00030713          	mv	a4,t1
    2224:	fff58593          	addi	a1,a1,-1
    2228:	00032303          	lw	t1,0(t1)
    222c:	0a0e0663          	beqz	t3,22d8 <core_list_init+0x95c>
    2230:	00ee2023          	sw	a4,0(t3)
    2234:	00070293          	mv	t0,a4
    2238:	ffe38693          	addi	a3,t2,-2
    223c:	00030713          	mv	a4,t1
    2240:	ffd38593          	addi	a1,t2,-3
    2244:	00032303          	lw	t1,0(t1)
    2248:	08028863          	beqz	t0,22d8 <core_list_init+0x95c>
    224c:	00e2a023          	sw	a4,0(t0)
    2250:	00070813          	mv	a6,a4
    2254:	00058693          	mv	a3,a1
    2258:	00030713          	mv	a4,t1
    225c:	ffc38593          	addi	a1,t2,-4
    2260:	00032303          	lw	t1,0(t1)
    2264:	06080a63          	beqz	a6,22d8 <core_list_init+0x95c>
    2268:	00e82023          	sw	a4,0(a6)
    226c:	00070793          	mv	a5,a4
    2270:	00058693          	mv	a3,a1
    2274:	00030713          	mv	a4,t1
    2278:	ffb38593          	addi	a1,t2,-5
    227c:	00032303          	lw	t1,0(t1)
    2280:	04078c63          	beqz	a5,22d8 <core_list_init+0x95c>
    2284:	00e7a023          	sw	a4,0(a5)
    2288:	00070e13          	mv	t3,a4
    228c:	00058693          	mv	a3,a1
    2290:	00030713          	mv	a4,t1
    2294:	ffa38593          	addi	a1,t2,-6
    2298:	00032303          	lw	t1,0(t1)
    229c:	020e0e63          	beqz	t3,22d8 <core_list_init+0x95c>
    22a0:	00ee2023          	sw	a4,0(t3)
    22a4:	00070293          	mv	t0,a4
    22a8:	00058693          	mv	a3,a1
    22ac:	00030713          	mv	a4,t1
    22b0:	ff938593          	addi	a1,t2,-7
    22b4:	00032303          	lw	t1,0(t1)
    22b8:	02028063          	beqz	t0,22d8 <core_list_init+0x95c>
    22bc:	00e2a023          	sw	a4,0(t0)
    22c0:	00070793          	mv	a5,a4
    22c4:	00058693          	mv	a3,a1
    22c8:	00030713          	mv	a4,t1
    22cc:	00072303          	lw	t1,0(a4)
    22d0:	fff68593          	addi	a1,a3,-1
    22d4:	f0079ee3          	bnez	a5,21f0 <core_list_init+0x874>
    22d8:	0a058663          	beqz	a1,2384 <core_list_init+0xa08>
    22dc:	00070513          	mv	a0,a4
    22e0:	00070813          	mv	a6,a4
    22e4:	00032703          	lw	a4,0(t1)
    22e8:	ffe68693          	addi	a3,a3,-2
    22ec:	00030793          	mv	a5,t1
    22f0:	00f82023          	sw	a5,0(a6)
    22f4:	ded048e3          	bgtz	a3,20e4 <core_list_init+0x768>
    22f8:	00078813          	mv	a6,a5
    22fc:	00060793          	mv	a5,a2
    2300:	2b105663          	blez	a7,25ac <core_list_init+0xc30>
    2304:	24078063          	beqz	a5,2544 <core_list_init+0xbc8>
    2308:	08068a63          	beqz	a3,239c <core_list_init+0xa20>
    230c:	00a79e03          	lh	t3,10(a5)
    2310:	00871283          	lh	t0,8(a4)
    2314:	00a71303          	lh	t1,10(a4)
    2318:	f002f393          	andi	t2,t0,-256
    231c:	3c82b60b          	th.extu	a2,t0,15,8
    2320:	00c3e5b3          	or	a1,t2,a2
    2324:	00b71423          	sh	a1,8(a4)
    2328:	00879283          	lh	t0,8(a5)
    232c:	f002f393          	andi	t2,t0,-256
    2330:	3c82b60b          	th.extu	a2,t0,15,8
    2334:	00c3e5b3          	or	a1,t2,a2
    2338:	00b79423          	sh	a1,8(a5)
    233c:	226e5663          	bge	t3,t1,2568 <core_list_init+0xbec>
    2340:	0007a603          	lw	a2,0(a5)
    2344:	fff88893          	addi	a7,a7,-1
    2348:	fa0814e3          	bnez	a6,22f0 <core_list_init+0x974>
    234c:	00078513          	mv	a0,a5
    2350:	d91ff06f          	j	20e0 <core_list_init+0x764>
    2354:	00060c63          	beqz	a2,236c <core_list_init+0x9f0>
    2358:	23c0006f          	j	2594 <core_list_init+0xc18>
    235c:	00e7a023          	sw	a4,0(a5)
    2360:	28068463          	beqz	a3,25e8 <core_list_init+0xc6c>
    2364:	00070793          	mv	a5,a4
    2368:	00058713          	mv	a4,a1
    236c:	00072583          	lw	a1,0(a4)
    2370:	fff68693          	addi	a3,a3,-1
    2374:	fe0794e3          	bnez	a5,235c <core_list_init+0x9e0>
    2378:	2a068863          	beqz	a3,2628 <core_list_init+0xcac>
    237c:	00070513          	mv	a0,a4
    2380:	fe5ff06f          	j	2364 <core_list_init+0x9e8>
    2384:	00070513          	mv	a0,a4
    2388:	00070813          	mv	a6,a4
    238c:	1a060c63          	beqz	a2,2544 <core_list_init+0xbc8>
    2390:	00070793          	mv	a5,a4
    2394:	00060713          	mv	a4,a2
    2398:	c45ff06f          	j	1fdc <core_list_init+0x660>
    239c:	fff88693          	addi	a3,a7,-1
    23a0:	0076f713          	andi	a4,a3,7
    23a4:	0e070a63          	beqz	a4,2498 <core_list_init+0xb1c>
    23a8:	0007a283          	lw	t0,0(a5)
    23ac:	00068893          	mv	a7,a3
    23b0:	26080863          	beqz	a6,2620 <core_list_init+0xca4>
    23b4:	00f82023          	sw	a5,0(a6)
    23b8:	00078813          	mv	a6,a5
    23bc:	18028463          	beqz	t0,2544 <core_list_init+0xbc8>
    23c0:	00100393          	li	t2,1
    23c4:	00028793          	mv	a5,t0
    23c8:	0c770863          	beq	a4,t2,2498 <core_list_init+0xb1c>
    23cc:	00200613          	li	a2,2
    23d0:	0ac70663          	beq	a4,a2,247c <core_list_init+0xb00>
    23d4:	00300593          	li	a1,3
    23d8:	08b70463          	beq	a4,a1,2460 <core_list_init+0xae4>
    23dc:	00400313          	li	t1,4
    23e0:	06670263          	beq	a4,t1,2444 <core_list_init+0xac8>
    23e4:	00500e13          	li	t3,5
    23e8:	05c70063          	beq	a4,t3,2428 <core_list_init+0xaac>
    23ec:	00600693          	li	a3,6
    23f0:	00d70e63          	beq	a4,a3,240c <core_list_init+0xa90>
    23f4:	0002a783          	lw	a5,0(t0)
    23f8:	fff88893          	addi	a7,a7,-1
    23fc:	30080663          	beqz	a6,2708 <core_list_init+0xd8c>
    2400:	00582023          	sw	t0,0(a6)
    2404:	00028813          	mv	a6,t0
    2408:	12078e63          	beqz	a5,2544 <core_list_init+0xbc8>
    240c:	0007a703          	lw	a4,0(a5)
    2410:	fff88893          	addi	a7,a7,-1
    2414:	24080263          	beqz	a6,2658 <core_list_init+0xcdc>
    2418:	00f82023          	sw	a5,0(a6)
    241c:	00078813          	mv	a6,a5
    2420:	00070793          	mv	a5,a4
    2424:	12070063          	beqz	a4,2544 <core_list_init+0xbc8>
    2428:	0007a283          	lw	t0,0(a5)
    242c:	fff88893          	addi	a7,a7,-1
    2430:	22080063          	beqz	a6,2650 <core_list_init+0xcd4>
    2434:	00f82023          	sw	a5,0(a6)
    2438:	00078813          	mv	a6,a5
    243c:	00028793          	mv	a5,t0
    2440:	10028263          	beqz	t0,2544 <core_list_init+0xbc8>
    2444:	0007a383          	lw	t2,0(a5)
    2448:	fff88893          	addi	a7,a7,-1
    244c:	1e080e63          	beqz	a6,2648 <core_list_init+0xccc>
    2450:	00f82023          	sw	a5,0(a6)
    2454:	00078813          	mv	a6,a5
    2458:	00038793          	mv	a5,t2
    245c:	0e038463          	beqz	t2,2544 <core_list_init+0xbc8>
    2460:	0007a603          	lw	a2,0(a5)
    2464:	fff88893          	addi	a7,a7,-1
    2468:	1c080c63          	beqz	a6,2640 <core_list_init+0xcc4>
    246c:	00f82023          	sw	a5,0(a6)
    2470:	00078813          	mv	a6,a5
    2474:	00060793          	mv	a5,a2
    2478:	0c060663          	beqz	a2,2544 <core_list_init+0xbc8>
    247c:	0007a583          	lw	a1,0(a5)
    2480:	fff88893          	addi	a7,a7,-1
    2484:	1a080a63          	beqz	a6,2638 <core_list_init+0xcbc>
    2488:	00f82023          	sw	a5,0(a6)
    248c:	00078813          	mv	a6,a5
    2490:	00058793          	mv	a5,a1
    2494:	0a058863          	beqz	a1,2544 <core_list_init+0xbc8>
    2498:	0007a603          	lw	a2,0(a5)
    249c:	fff88893          	addi	a7,a7,-1
    24a0:	12080463          	beqz	a6,25c8 <core_list_init+0xc4c>
    24a4:	00f82023          	sw	a5,0(a6)
    24a8:	12088463          	beqz	a7,25d0 <core_list_init+0xc54>
    24ac:	00078813          	mv	a6,a5
    24b0:	08060a63          	beqz	a2,2544 <core_list_init+0xbc8>
    24b4:	00062303          	lw	t1,0(a2)
    24b8:	12078063          	beqz	a5,25d8 <core_list_init+0xc5c>
    24bc:	00c7a023          	sw	a2,0(a5)
    24c0:	00060813          	mv	a6,a2
    24c4:	08030063          	beqz	t1,2544 <core_list_init+0xbc8>
    24c8:	00032783          	lw	a5,0(t1)
    24cc:	10060a63          	beqz	a2,25e0 <core_list_init+0xc64>
    24d0:	00662023          	sw	t1,0(a2)
    24d4:	00030813          	mv	a6,t1
    24d8:	06078663          	beqz	a5,2544 <core_list_init+0xbc8>
    24dc:	0007ae03          	lw	t3,0(a5)
    24e0:	10030c63          	beqz	t1,25f8 <core_list_init+0xc7c>
    24e4:	00f32023          	sw	a5,0(t1)
    24e8:	00078813          	mv	a6,a5
    24ec:	040e0c63          	beqz	t3,2544 <core_list_init+0xbc8>
    24f0:	000e2703          	lw	a4,0(t3)
    24f4:	10078663          	beqz	a5,2600 <core_list_init+0xc84>
    24f8:	01c7a023          	sw	t3,0(a5)
    24fc:	000e0813          	mv	a6,t3
    2500:	04070263          	beqz	a4,2544 <core_list_init+0xbc8>
    2504:	00072283          	lw	t0,0(a4)
    2508:	100e0063          	beqz	t3,2608 <core_list_init+0xc8c>
    250c:	00ee2023          	sw	a4,0(t3)
    2510:	00070813          	mv	a6,a4
    2514:	02028863          	beqz	t0,2544 <core_list_init+0xbc8>
    2518:	0002a683          	lw	a3,0(t0)
    251c:	0e070a63          	beqz	a4,2610 <core_list_init+0xc94>
    2520:	00572023          	sw	t0,0(a4)
    2524:	00028813          	mv	a6,t0
    2528:	00068e63          	beqz	a3,2544 <core_list_init+0xbc8>
    252c:	0006a783          	lw	a5,0(a3)
    2530:	ff988893          	addi	a7,a7,-7
    2534:	0e028263          	beqz	t0,2618 <core_list_init+0xc9c>
    2538:	00d2a023          	sw	a3,0(t0)
    253c:	00068813          	mv	a6,a3
    2540:	f4079ce3          	bnez	a5,2498 <core_list_init+0xb1c>
    2544:	00082023          	sw	zero,0(a6)
    2548:	13ff0063          	beq	t5,t6,2668 <core_list_init+0xcec>
    254c:	10050a63          	beqz	a0,2660 <core_list_init+0xce4>
    2550:	00050613          	mv	a2,a0
    2554:	001e9e93          	slli	t4,t4,0x1
    2558:	00000513          	li	a0,0
    255c:	00000713          	li	a4,0
    2560:	00000f13          	li	t5,0
    2564:	e2dff06f          	j	2390 <core_list_init+0xa14>
    2568:	00072303          	lw	t1,0(a4)
    256c:	fff68693          	addi	a3,a3,-1
    2570:	00080c63          	beqz	a6,2588 <core_list_init+0xc0c>
    2574:	00e82023          	sw	a4,0(a6)
    2578:	02d05463          	blez	a3,25a0 <core_list_init+0xc24>
    257c:	00070813          	mv	a6,a4
    2580:	00030713          	mv	a4,t1
    2584:	d8dff06f          	j	2310 <core_list_init+0x994>
    2588:	02d05863          	blez	a3,25b8 <core_list_init+0xc3c>
    258c:	00070513          	mv	a0,a4
    2590:	fedff06f          	j	257c <core_list_init+0xc00>
    2594:	00078813          	mv	a6,a5
    2598:	00060793          	mv	a5,a2
    259c:	d71ff06f          	j	230c <core_list_init+0x990>
    25a0:	00070813          	mv	a6,a4
    25a4:	00030713          	mv	a4,t1
    25a8:	d5104ee3          	bgtz	a7,2304 <core_list_init+0x988>
    25ac:	00080713          	mv	a4,a6
    25b0:	00078613          	mv	a2,a5
    25b4:	dd5ff06f          	j	2388 <core_list_init+0xa0c>
    25b8:	00070513          	mv	a0,a4
    25bc:	00070813          	mv	a6,a4
    25c0:	00030713          	mv	a4,t1
    25c4:	d3dff06f          	j	2300 <core_list_init+0x984>
    25c8:	00078513          	mv	a0,a5
    25cc:	ee0890e3          	bnez	a7,24ac <core_list_init+0xb30>
    25d0:	00078713          	mv	a4,a5
    25d4:	db5ff06f          	j	2388 <core_list_init+0xa0c>
    25d8:	00060513          	mv	a0,a2
    25dc:	ee5ff06f          	j	24c0 <core_list_init+0xb44>
    25e0:	00030513          	mv	a0,t1
    25e4:	ef1ff06f          	j	24d4 <core_list_init+0xb58>
    25e8:	00070813          	mv	a6,a4
    25ec:	00000793          	li	a5,0
    25f0:	00058713          	mv	a4,a1
    25f4:	d0dff06f          	j	2300 <core_list_init+0x984>
    25f8:	00078513          	mv	a0,a5
    25fc:	eedff06f          	j	24e8 <core_list_init+0xb6c>
    2600:	000e0513          	mv	a0,t3
    2604:	ef9ff06f          	j	24fc <core_list_init+0xb80>
    2608:	00070513          	mv	a0,a4
    260c:	f05ff06f          	j	2510 <core_list_init+0xb94>
    2610:	00028513          	mv	a0,t0
    2614:	f11ff06f          	j	2524 <core_list_init+0xba8>
    2618:	00068513          	mv	a0,a3
    261c:	f21ff06f          	j	253c <core_list_init+0xbc0>
    2620:	00078513          	mv	a0,a5
    2624:	d95ff06f          	j	23b8 <core_list_init+0xa3c>
    2628:	00070513          	mv	a0,a4
    262c:	00070813          	mv	a6,a4
    2630:	00058713          	mv	a4,a1
    2634:	ccdff06f          	j	2300 <core_list_init+0x984>
    2638:	00078513          	mv	a0,a5
    263c:	e51ff06f          	j	248c <core_list_init+0xb10>
    2640:	00078513          	mv	a0,a5
    2644:	e2dff06f          	j	2470 <core_list_init+0xaf4>
    2648:	00078513          	mv	a0,a5
    264c:	e09ff06f          	j	2454 <core_list_init+0xad8>
    2650:	00078513          	mv	a0,a5
    2654:	de5ff06f          	j	2438 <core_list_init+0xabc>
    2658:	00078513          	mv	a0,a5
    265c:	dc1ff06f          	j	241c <core_list_init+0xaa0>
    2660:	00002023          	sw	zero,0(zero) # 0 <_start>
    2664:	00100073          	ebreak
    2668:	00050e13          	mv	t3,a0
    266c:	00000793          	li	a5,0
    2670:	08050263          	beqz	a0,26f4 <core_list_init+0xd78>
    2674:	000e2f83          	lw	t6,0(t3)
    2678:	00fe2223          	sw	a5,4(t3)
    267c:	000e0793          	mv	a5,t3
    2680:	060f8a63          	beqz	t6,26f4 <core_list_init+0xd78>
    2684:	000fa603          	lw	a2,0(t6)
    2688:	01cfa223          	sw	t3,4(t6)
    268c:	000f8793          	mv	a5,t6
    2690:	06060263          	beqz	a2,26f4 <core_list_init+0xd78>
    2694:	00062683          	lw	a3,0(a2)
    2698:	01f62223          	sw	t6,4(a2)
    269c:	00060793          	mv	a5,a2
    26a0:	04068a63          	beqz	a3,26f4 <core_list_init+0xd78>
    26a4:	0006a703          	lw	a4,0(a3)
    26a8:	00c6a223          	sw	a2,4(a3)
    26ac:	00068793          	mv	a5,a3
    26b0:	04070263          	beqz	a4,26f4 <core_list_init+0xd78>
    26b4:	00072883          	lw	a7,0(a4)
    26b8:	00d72223          	sw	a3,4(a4)
    26bc:	00070793          	mv	a5,a4
    26c0:	02088a63          	beqz	a7,26f4 <core_list_init+0xd78>
    26c4:	0008a383          	lw	t2,0(a7)
    26c8:	00e8a223          	sw	a4,4(a7)
    26cc:	00088793          	mv	a5,a7
    26d0:	02038263          	beqz	t2,26f4 <core_list_init+0xd78>
    26d4:	0003a803          	lw	a6,0(t2)
    26d8:	0113a223          	sw	a7,4(t2)
    26dc:	00038793          	mv	a5,t2
    26e0:	00080a63          	beqz	a6,26f4 <core_list_init+0xd78>
    26e4:	00082e03          	lw	t3,0(a6)
    26e8:	00782223          	sw	t2,4(a6)
    26ec:	00080793          	mv	a5,a6
    26f0:	f80e12e3          	bnez	t3,2674 <core_list_init+0xcf8>
    26f4:	000102b7          	lui	t0,0x10
    26f8:	00c28593          	addi	a1,t0,12 # 1000c <core_cached_prev_head>
    26fc:	00a5a023          	sw	a0,0(a1)
    2700:	00f5a223          	sw	a5,4(a1)
    2704:	00008067          	ret
    2708:	00028513          	mv	a0,t0
    270c:	cf9ff06f          	j	2404 <core_list_init+0xa88>
    2710:	000e0793          	mv	a5,t3
    2714:	00430593          	addi	a1,t1,4
    2718:	ac8ff06f          	j	19e0 <core_list_init+0x64>
    271c:	000e0793          	mv	a5,t3
    2720:	00430593          	addi	a1,t1,4
    2724:	abcff06f          	j	19e0 <core_list_init+0x64>

00002728 <core_list_insert_new>:
    2728:	00062803          	lw	a6,0(a2)
    272c:	00c80893          	addi	a7,a6,12
    2730:	04e8f463          	bgeu	a7,a4,2778 <core_list_insert_new+0x50>
    2734:	0006a703          	lw	a4,0(a3)
    2738:	00470293          	addi	t0,a4,4
    273c:	04f2f463          	bgeu	t0,a5,2784 <core_list_insert_new+0x5c>
    2740:	01162023          	sw	a7,0(a2)
    2744:	00052783          	lw	a5,0(a0)
    2748:	00a82223          	sw	a0,4(a6)
    274c:	00f82023          	sw	a5,0(a6)
    2750:	00078463          	beqz	a5,2758 <core_list_insert_new+0x30>
    2754:	0107a223          	sw	a6,4(a5)
    2758:	00059603          	lh	a2,0(a1)
    275c:	00259303          	lh	t1,2(a1)
    2760:	01052023          	sw	a6,0(a0)
    2764:	0056a023          	sw	t0,0(a3)
    2768:	00c81423          	sh	a2,8(a6)
    276c:	00681523          	sh	t1,10(a6)
    2770:	00080513          	mv	a0,a6
    2774:	00008067          	ret
    2778:	00000813          	li	a6,0
    277c:	00080513          	mv	a0,a6
    2780:	00008067          	ret
    2784:	00000813          	li	a6,0
    2788:	00080513          	mv	a0,a6
    278c:	00008067          	ret

00002790 <core_list_remove>:
    2790:	00050793          	mv	a5,a0
    2794:	00052503          	lw	a0,0(a0)
    2798:	0087a703          	lw	a4,8(a5)
    279c:	00852683          	lw	a3,8(a0)
    27a0:	00d7a423          	sw	a3,8(a5)
    27a4:	00e52423          	sw	a4,8(a0)
    27a8:	0007a283          	lw	t0,0(a5)
    27ac:	0002a303          	lw	t1,0(t0)
    27b0:	0067a023          	sw	t1,0(a5)
    27b4:	00052023          	sw	zero,0(a0)
    27b8:	00008067          	ret

000027bc <core_list_undo_remove>:
    27bc:	0085a683          	lw	a3,8(a1)
    27c0:	00852703          	lw	a4,8(a0)
    27c4:	0005a783          	lw	a5,0(a1)
    27c8:	00d52423          	sw	a3,8(a0)
    27cc:	00e5a423          	sw	a4,8(a1)
    27d0:	00f52023          	sw	a5,0(a0)
    27d4:	00a5a023          	sw	a0,0(a1)
    27d8:	00008067          	ret

000027dc <core_list_find>:
    27dc:	00259303          	lh	t1,2(a1)
    27e0:	02034063          	bltz	t1,2800 <core_list_find+0x24>
    27e4:	00051863          	bnez	a0,27f4 <core_list_find+0x18>
    27e8:	00008067          	ret
    27ec:	00052503          	lw	a0,0(a0)
    27f0:	02050663          	beqz	a0,281c <core_list_find+0x40>
    27f4:	00a51283          	lh	t0,10(a0)
    27f8:	fe629ae3          	bne	t0,t1,27ec <core_list_find+0x10>
    27fc:	00008067          	ret
    2800:	00050e63          	beqz	a0,281c <core_list_find+0x40>
    2804:	00059703          	lh	a4,0(a1)
    2808:	00c0006f          	j	2814 <core_list_find+0x38>
    280c:	00052503          	lw	a0,0(a0)
    2810:	00050663          	beqz	a0,281c <core_list_find+0x40>
    2814:	00854783          	lbu	a5,8(a0)
    2818:	fee79ae3          	bne	a5,a4,280c <core_list_find+0x30>
    281c:	00008067          	ret

00002820 <core_list_reverse>:
    2820:	08050c63          	beqz	a0,28b8 <core_list_reverse+0x98>
    2824:	00052783          	lw	a5,0(a0)
    2828:	00000813          	li	a6,0
    282c:	01052023          	sw	a6,0(a0)
    2830:	08078463          	beqz	a5,28b8 <core_list_reverse+0x98>
    2834:	0007a703          	lw	a4,0(a5)
    2838:	00a7a023          	sw	a0,0(a5)
    283c:	00078513          	mv	a0,a5
    2840:	06070e63          	beqz	a4,28bc <core_list_reverse+0x9c>
    2844:	00072683          	lw	a3,0(a4)
    2848:	00f72023          	sw	a5,0(a4)
    284c:	00070513          	mv	a0,a4
    2850:	06068463          	beqz	a3,28b8 <core_list_reverse+0x98>
    2854:	0006a283          	lw	t0,0(a3)
    2858:	00e6a023          	sw	a4,0(a3)
    285c:	00068513          	mv	a0,a3
    2860:	04028c63          	beqz	t0,28b8 <core_list_reverse+0x98>
    2864:	0002a303          	lw	t1,0(t0)
    2868:	00d2a023          	sw	a3,0(t0)
    286c:	00028513          	mv	a0,t0
    2870:	04030463          	beqz	t1,28b8 <core_list_reverse+0x98>
    2874:	00032383          	lw	t2,0(t1)
    2878:	00532023          	sw	t0,0(t1)
    287c:	00030513          	mv	a0,t1
    2880:	02038c63          	beqz	t2,28b8 <core_list_reverse+0x98>
    2884:	0003a583          	lw	a1,0(t2)
    2888:	0063a023          	sw	t1,0(t2)
    288c:	00038513          	mv	a0,t2
    2890:	02058463          	beqz	a1,28b8 <core_list_reverse+0x98>
    2894:	0005a603          	lw	a2,0(a1)
    2898:	0075a023          	sw	t2,0(a1)
    289c:	00058513          	mv	a0,a1
    28a0:	00058813          	mv	a6,a1
    28a4:	00060a63          	beqz	a2,28b8 <core_list_reverse+0x98>
    28a8:	00060513          	mv	a0,a2
    28ac:	00052783          	lw	a5,0(a0)
    28b0:	01052023          	sw	a6,0(a0)
    28b4:	f80790e3          	bnez	a5,2834 <core_list_reverse+0x14>
    28b8:	00008067          	ret
    28bc:	00008067          	ret

000028c0 <core_list_mergesort>:
    28c0:	fc010113          	addi	sp,sp,-64
    28c4:	03612023          	sw	s6,32(sp)
    28c8:	01712e23          	sw	s7,28(sp)
    28cc:	01812c23          	sw	s8,24(sp)
    28d0:	01a12823          	sw	s10,16(sp)
    28d4:	00100c13          	li	s8,1
    28d8:	02112e23          	sw	ra,60(sp)
    28dc:	02812c23          	sw	s0,56(sp)
    28e0:	02912a23          	sw	s1,52(sp)
    28e4:	03212823          	sw	s2,48(sp)
    28e8:	03312623          	sw	s3,44(sp)
    28ec:	03412423          	sw	s4,40(sp)
    28f0:	03512223          	sw	s5,36(sp)
    28f4:	01912a23          	sw	s9,20(sp)
    28f8:	01b12623          	sw	s11,12(sp)
    28fc:	00058b93          	mv	s7,a1
    2900:	00060b13          	mv	s6,a2
    2904:	000c0d13          	mv	s10,s8
    2908:	1a050a63          	beqz	a0,2abc <core_list_mergesort+0x1fc>
    290c:	00000c93          	li	s9,0
    2910:	00000913          	li	s2,0
    2914:	00000a93          	li	s5,0
    2918:	007c7693          	andi	a3,s8,7
    291c:	001c8c93          	addi	s9,s9,1
    2920:	00050793          	mv	a5,a0
    2924:	00000493          	li	s1,0
    2928:	08068463          	beqz	a3,29b0 <core_list_mergesort+0xf0>
    292c:	0f805663          	blez	s8,2a18 <core_list_mergesort+0x158>
    2930:	00052783          	lw	a5,0(a0)
    2934:	00100493          	li	s1,1
    2938:	0e078063          	beqz	a5,2a18 <core_list_mergesort+0x158>
    293c:	06968a63          	beq	a3,s1,29b0 <core_list_mergesort+0xf0>
    2940:	00200613          	li	a2,2
    2944:	06c68063          	beq	a3,a2,29a4 <core_list_mergesort+0xe4>
    2948:	00300593          	li	a1,3
    294c:	04b68663          	beq	a3,a1,2998 <core_list_mergesort+0xd8>
    2950:	00400293          	li	t0,4
    2954:	02568c63          	beq	a3,t0,298c <core_list_mergesort+0xcc>
    2958:	00500313          	li	t1,5
    295c:	02668263          	beq	a3,t1,2980 <core_list_mergesort+0xc0>
    2960:	00600393          	li	t2,6
    2964:	00768863          	beq	a3,t2,2974 <core_list_mergesort+0xb4>
    2968:	0007a783          	lw	a5,0(a5)
    296c:	00060493          	mv	s1,a2
    2970:	0a078463          	beqz	a5,2a18 <core_list_mergesort+0x158>
    2974:	0007a783          	lw	a5,0(a5)
    2978:	00148493          	addi	s1,s1,1
    297c:	08078e63          	beqz	a5,2a18 <core_list_mergesort+0x158>
    2980:	0007a783          	lw	a5,0(a5)
    2984:	00148493          	addi	s1,s1,1
    2988:	08078863          	beqz	a5,2a18 <core_list_mergesort+0x158>
    298c:	0007a783          	lw	a5,0(a5)
    2990:	00148493          	addi	s1,s1,1
    2994:	08078263          	beqz	a5,2a18 <core_list_mergesort+0x158>
    2998:	0007a783          	lw	a5,0(a5)
    299c:	00148493          	addi	s1,s1,1
    29a0:	06078c63          	beqz	a5,2a18 <core_list_mergesort+0x158>
    29a4:	0007a783          	lw	a5,0(a5)
    29a8:	00148493          	addi	s1,s1,1
    29ac:	06078663          	beqz	a5,2a18 <core_list_mergesort+0x158>
    29b0:	0784d463          	bge	s1,s8,2a18 <core_list_mergesort+0x158>
    29b4:	0007a783          	lw	a5,0(a5)
    29b8:	00148493          	addi	s1,s1,1
    29bc:	00048413          	mv	s0,s1
    29c0:	04078c63          	beqz	a5,2a18 <core_list_mergesort+0x158>
    29c4:	0007a783          	lw	a5,0(a5)
    29c8:	00148493          	addi	s1,s1,1
    29cc:	04078663          	beqz	a5,2a18 <core_list_mergesort+0x158>
    29d0:	0007a783          	lw	a5,0(a5)
    29d4:	00240493          	addi	s1,s0,2
    29d8:	04078063          	beqz	a5,2a18 <core_list_mergesort+0x158>
    29dc:	0007a783          	lw	a5,0(a5)
    29e0:	00340493          	addi	s1,s0,3
    29e4:	02078a63          	beqz	a5,2a18 <core_list_mergesort+0x158>
    29e8:	0007a783          	lw	a5,0(a5)
    29ec:	00440493          	addi	s1,s0,4
    29f0:	02078463          	beqz	a5,2a18 <core_list_mergesort+0x158>
    29f4:	0007a783          	lw	a5,0(a5)
    29f8:	00540493          	addi	s1,s0,5
    29fc:	00078e63          	beqz	a5,2a18 <core_list_mergesort+0x158>
    2a00:	0007a783          	lw	a5,0(a5)
    2a04:	00640493          	addi	s1,s0,6
    2a08:	00078863          	beqz	a5,2a18 <core_list_mergesort+0x158>
    2a0c:	0007a783          	lw	a5,0(a5)
    2a10:	00740493          	addi	s1,s0,7
    2a14:	f8079ee3          	bnez	a5,29b0 <core_list_mergesort+0xf0>
    2a18:	00090413          	mv	s0,s2
    2a1c:	000c0a13          	mv	s4,s8
    2a20:	00050913          	mv	s2,a0
    2a24:	00078513          	mv	a0,a5
    2a28:	06905263          	blez	s1,2a8c <core_list_mergesort+0x1cc>
    2a2c:	080a0c63          	beqz	s4,2ac4 <core_list_mergesort+0x204>
    2a30:	48051863          	bnez	a0,2ec0 <core_list_mergesort+0x600>
    2a34:	00092503          	lw	a0,0(s2)
    2a38:	fff48493          	addi	s1,s1,-1
    2a3c:	54040e63          	beqz	s0,2f98 <core_list_mergesort+0x6d8>
    2a40:	01242023          	sw	s2,0(s0)
    2a44:	54049e63          	bnez	s1,2fa0 <core_list_mergesort+0x6e0>
    2a48:	00090993          	mv	s3,s2
    2a4c:	00000413          	li	s0,0
    2a50:	00050913          	mv	s2,a0
    2a54:	05405263          	blez	s4,2a98 <core_list_mergesort+0x1d8>
    2a58:	04040863          	beqz	s0,2aa8 <core_list_mergesort+0x1e8>
    2a5c:	08048e63          	beqz	s1,2af8 <core_list_mergesort+0x238>
    2a60:	00840d93          	addi	s11,s0,8
    2a64:	000b0613          	mv	a2,s6
    2a68:	000d8593          	mv	a1,s11
    2a6c:	00890513          	addi	a0,s2,8
    2a70:	000b80e7          	jalr	s7
    2a74:	24a05663          	blez	a0,2cc0 <core_list_mergesort+0x400>
    2a78:	00042503          	lw	a0,0(s0)
    2a7c:	fffa0a13          	addi	s4,s4,-1
    2a80:	06099863          	bnez	s3,2af0 <core_list_mergesort+0x230>
    2a84:	00040a93          	mv	s5,s0
    2a88:	fa9042e3          	bgtz	s1,2a2c <core_list_mergesort+0x16c>
    2a8c:	00040993          	mv	s3,s0
    2a90:	00050413          	mv	s0,a0
    2a94:	fd4042e3          	bgtz	s4,2a58 <core_list_mergesort+0x198>
    2a98:	00098913          	mv	s2,s3
    2a9c:	00040513          	mv	a0,s0
    2aa0:	e6051ce3          	bnez	a0,2918 <core_list_mergesort+0x58>
    2aa4:	00090993          	mv	s3,s2
    2aa8:	0009a023          	sw	zero,0(s3)
    2aac:	4bac8263          	beq	s9,s10,2f50 <core_list_mergesort+0x690>
    2ab0:	000a8513          	mv	a0,s5
    2ab4:	001c1c13          	slli	s8,s8,0x1
    2ab8:	e4051ae3          	bnez	a0,290c <core_list_mergesort+0x4c>
    2abc:	00002023          	sw	zero,0(zero) # 0 <_start>
    2ac0:	00100073          	ebreak
    2ac4:	fff48313          	addi	t1,s1,-1
    2ac8:	00737893          	andi	a7,t1,7
    2acc:	30088463          	beqz	a7,2dd4 <core_list_mergesort+0x514>
    2ad0:	00092603          	lw	a2,0(s2)
    2ad4:	20040c63          	beqz	s0,2cec <core_list_mergesort+0x42c>
    2ad8:	01242023          	sw	s2,0(s0)
    2adc:	fc0302e3          	beqz	t1,2aa0 <core_list_mergesort+0x1e0>
    2ae0:	00090993          	mv	s3,s2
    2ae4:	00062903          	lw	s2,0(a2)
    2ae8:	ffe48493          	addi	s1,s1,-2
    2aec:	00060413          	mv	s0,a2
    2af0:	0089a023          	sw	s0,0(s3)
    2af4:	f35ff06f          	j	2a28 <core_list_mergesort+0x168>
    2af8:	fffa0813          	addi	a6,s4,-1
    2afc:	00787893          	andi	a7,a6,7
    2b00:	0e088a63          	beqz	a7,2bf4 <core_list_mergesort+0x334>
    2b04:	00042903          	lw	s2,0(s0)
    2b08:	00080a13          	mv	s4,a6
    2b0c:	40098a63          	beqz	s3,2f20 <core_list_mergesort+0x660>
    2b10:	0089a023          	sw	s0,0(s3)
    2b14:	00040993          	mv	s3,s0
    2b18:	f80908e3          	beqz	s2,2aa8 <core_list_mergesort+0x1e8>
    2b1c:	00100e13          	li	t3,1
    2b20:	00090413          	mv	s0,s2
    2b24:	0dc88863          	beq	a7,t3,2bf4 <core_list_mergesort+0x334>
    2b28:	00200e93          	li	t4,2
    2b2c:	0bd88663          	beq	a7,t4,2bd8 <core_list_mergesort+0x318>
    2b30:	00300f13          	li	t5,3
    2b34:	09e88463          	beq	a7,t5,2bbc <core_list_mergesort+0x2fc>
    2b38:	00400f93          	li	t6,4
    2b3c:	07f88263          	beq	a7,t6,2ba0 <core_list_mergesort+0x2e0>
    2b40:	00500693          	li	a3,5
    2b44:	04d88063          	beq	a7,a3,2b84 <core_list_mergesort+0x2c4>
    2b48:	00600613          	li	a2,6
    2b4c:	00c88e63          	beq	a7,a2,2b68 <core_list_mergesort+0x2a8>
    2b50:	00092403          	lw	s0,0(s2)
    2b54:	fffa0a13          	addi	s4,s4,-1
    2b58:	42098c63          	beqz	s3,2f90 <core_list_mergesort+0x6d0>
    2b5c:	0129a023          	sw	s2,0(s3)
    2b60:	00090993          	mv	s3,s2
    2b64:	f40402e3          	beqz	s0,2aa8 <core_list_mergesort+0x1e8>
    2b68:	00042583          	lw	a1,0(s0)
    2b6c:	fffa0a13          	addi	s4,s4,-1
    2b70:	3c098c63          	beqz	s3,2f48 <core_list_mergesort+0x688>
    2b74:	0089a023          	sw	s0,0(s3)
    2b78:	00040993          	mv	s3,s0
    2b7c:	f20586e3          	beqz	a1,2aa8 <core_list_mergesort+0x1e8>
    2b80:	00058413          	mv	s0,a1
    2b84:	00042283          	lw	t0,0(s0)
    2b88:	fffa0a13          	addi	s4,s4,-1
    2b8c:	3a098a63          	beqz	s3,2f40 <core_list_mergesort+0x680>
    2b90:	0089a023          	sw	s0,0(s3)
    2b94:	00040993          	mv	s3,s0
    2b98:	f00288e3          	beqz	t0,2aa8 <core_list_mergesort+0x1e8>
    2b9c:	00028413          	mv	s0,t0
    2ba0:	00042303          	lw	t1,0(s0)
    2ba4:	fffa0a13          	addi	s4,s4,-1
    2ba8:	38098863          	beqz	s3,2f38 <core_list_mergesort+0x678>
    2bac:	0089a023          	sw	s0,0(s3)
    2bb0:	00040993          	mv	s3,s0
    2bb4:	ee030ae3          	beqz	t1,2aa8 <core_list_mergesort+0x1e8>
    2bb8:	00030413          	mv	s0,t1
    2bbc:	00042383          	lw	t2,0(s0)
    2bc0:	fffa0a13          	addi	s4,s4,-1
    2bc4:	36098663          	beqz	s3,2f30 <core_list_mergesort+0x670>
    2bc8:	0089a023          	sw	s0,0(s3)
    2bcc:	00040993          	mv	s3,s0
    2bd0:	ec038ce3          	beqz	t2,2aa8 <core_list_mergesort+0x1e8>
    2bd4:	00038413          	mv	s0,t2
    2bd8:	00042783          	lw	a5,0(s0)
    2bdc:	fffa0a13          	addi	s4,s4,-1
    2be0:	34098463          	beqz	s3,2f28 <core_list_mergesort+0x668>
    2be4:	0089a023          	sw	s0,0(s3)
    2be8:	00040993          	mv	s3,s0
    2bec:	ea078ee3          	beqz	a5,2aa8 <core_list_mergesort+0x1e8>
    2bf0:	00078413          	mv	s0,a5
    2bf4:	00042503          	lw	a0,0(s0)
    2bf8:	fffa0a13          	addi	s4,s4,-1
    2bfc:	0a098863          	beqz	s3,2cac <core_list_mergesort+0x3ec>
    2c00:	0089a023          	sw	s0,0(s3)
    2c04:	0a0a0863          	beqz	s4,2cb4 <core_list_mergesort+0x3f4>
    2c08:	00040993          	mv	s3,s0
    2c0c:	e8050ee3          	beqz	a0,2aa8 <core_list_mergesort+0x1e8>
    2c10:	00052483          	lw	s1,0(a0)
    2c14:	2c040a63          	beqz	s0,2ee8 <core_list_mergesort+0x628>
    2c18:	00a42023          	sw	a0,0(s0)
    2c1c:	00050993          	mv	s3,a0
    2c20:	e80484e3          	beqz	s1,2aa8 <core_list_mergesort+0x1e8>
    2c24:	0004a403          	lw	s0,0(s1)
    2c28:	2c050463          	beqz	a0,2ef0 <core_list_mergesort+0x630>
    2c2c:	00952023          	sw	s1,0(a0)
    2c30:	00048993          	mv	s3,s1
    2c34:	e6040ae3          	beqz	s0,2aa8 <core_list_mergesort+0x1e8>
    2c38:	00042503          	lw	a0,0(s0)
    2c3c:	2a048e63          	beqz	s1,2ef8 <core_list_mergesort+0x638>
    2c40:	0084a023          	sw	s0,0(s1)
    2c44:	00040993          	mv	s3,s0
    2c48:	e60500e3          	beqz	a0,2aa8 <core_list_mergesort+0x1e8>
    2c4c:	00052d83          	lw	s11,0(a0)
    2c50:	2a040863          	beqz	s0,2f00 <core_list_mergesort+0x640>
    2c54:	00a42023          	sw	a0,0(s0)
    2c58:	00050993          	mv	s3,a0
    2c5c:	e40d86e3          	beqz	s11,2aa8 <core_list_mergesort+0x1e8>
    2c60:	000da803          	lw	a6,0(s11)
    2c64:	2a050263          	beqz	a0,2f08 <core_list_mergesort+0x648>
    2c68:	01b52023          	sw	s11,0(a0)
    2c6c:	000d8993          	mv	s3,s11
    2c70:	e2080ce3          	beqz	a6,2aa8 <core_list_mergesort+0x1e8>
    2c74:	00082703          	lw	a4,0(a6)
    2c78:	280d8c63          	beqz	s11,2f10 <core_list_mergesort+0x650>
    2c7c:	010da023          	sw	a6,0(s11)
    2c80:	00080993          	mv	s3,a6
    2c84:	e20702e3          	beqz	a4,2aa8 <core_list_mergesort+0x1e8>
    2c88:	00072403          	lw	s0,0(a4)
    2c8c:	ff9a0a13          	addi	s4,s4,-7
    2c90:	28080463          	beqz	a6,2f18 <core_list_mergesort+0x658>
    2c94:	00e82023          	sw	a4,0(a6)
    2c98:	00070993          	mv	s3,a4
    2c9c:	e00406e3          	beqz	s0,2aa8 <core_list_mergesort+0x1e8>
    2ca0:	00042503          	lw	a0,0(s0)
    2ca4:	fffa0a13          	addi	s4,s4,-1
    2ca8:	f4099ce3          	bnez	s3,2c00 <core_list_mergesort+0x340>
    2cac:	00040a93          	mv	s5,s0
    2cb0:	f40a1ce3          	bnez	s4,2c08 <core_list_mergesort+0x348>
    2cb4:	00040913          	mv	s2,s0
    2cb8:	c60510e3          	bnez	a0,2918 <core_list_mergesort+0x58>
    2cbc:	de9ff06f          	j	2aa4 <core_list_mergesort+0x1e4>
    2cc0:	00092703          	lw	a4,0(s2)
    2cc4:	fff48493          	addi	s1,s1,-1
    2cc8:	00098c63          	beqz	s3,2ce0 <core_list_mergesort+0x420>
    2ccc:	0129a023          	sw	s2,0(s3)
    2cd0:	1e905e63          	blez	s1,2ecc <core_list_mergesort+0x60c>
    2cd4:	00090993          	mv	s3,s2
    2cd8:	00070913          	mv	s2,a4
    2cdc:	d89ff06f          	j	2a64 <core_list_mergesort+0x1a4>
    2ce0:	1e905c63          	blez	s1,2ed8 <core_list_mergesort+0x618>
    2ce4:	00090a93          	mv	s5,s2
    2ce8:	fedff06f          	j	2cd4 <core_list_mergesort+0x414>
    2cec:	00100e13          	li	t3,1
    2cf0:	00090a93          	mv	s5,s2
    2cf4:	00090413          	mv	s0,s2
    2cf8:	00030493          	mv	s1,t1
    2cfc:	00060913          	mv	s2,a2
    2d00:	0dc88a63          	beq	a7,t3,2dd4 <core_list_mergesort+0x514>
    2d04:	00200e93          	li	t4,2
    2d08:	0bd88863          	beq	a7,t4,2db8 <core_list_mergesort+0x4f8>
    2d0c:	00300f13          	li	t5,3
    2d10:	09e88663          	beq	a7,t5,2d9c <core_list_mergesort+0x4dc>
    2d14:	00400f93          	li	t6,4
    2d18:	07f88463          	beq	a7,t6,2d80 <core_list_mergesort+0x4c0>
    2d1c:	00500693          	li	a3,5
    2d20:	04d88263          	beq	a7,a3,2d64 <core_list_mergesort+0x4a4>
    2d24:	00600593          	li	a1,6
    2d28:	02b88063          	beq	a7,a1,2d48 <core_list_mergesort+0x488>
    2d2c:	00062603          	lw	a2,0(a2)
    2d30:	fff30313          	addi	t1,t1,-1
    2d34:	da0a92e3          	bnez	s5,2ad8 <core_list_mergesort+0x218>
    2d38:	00090a93          	mv	s5,s2
    2d3c:	00090413          	mv	s0,s2
    2d40:	00030493          	mv	s1,t1
    2d44:	00060913          	mv	s2,a2
    2d48:	00062603          	lw	a2,0(a2)
    2d4c:	fff30313          	addi	t1,t1,-1
    2d50:	d80414e3          	bnez	s0,2ad8 <core_list_mergesort+0x218>
    2d54:	00090a93          	mv	s5,s2
    2d58:	00090413          	mv	s0,s2
    2d5c:	00030493          	mv	s1,t1
    2d60:	00060913          	mv	s2,a2
    2d64:	00062603          	lw	a2,0(a2)
    2d68:	fff30313          	addi	t1,t1,-1
    2d6c:	d60416e3          	bnez	s0,2ad8 <core_list_mergesort+0x218>
    2d70:	00090a93          	mv	s5,s2
    2d74:	00090413          	mv	s0,s2
    2d78:	00030493          	mv	s1,t1
    2d7c:	00060913          	mv	s2,a2
    2d80:	00062603          	lw	a2,0(a2)
    2d84:	fff30313          	addi	t1,t1,-1
    2d88:	d40418e3          	bnez	s0,2ad8 <core_list_mergesort+0x218>
    2d8c:	00090a93          	mv	s5,s2
    2d90:	00090413          	mv	s0,s2
    2d94:	00030493          	mv	s1,t1
    2d98:	00060913          	mv	s2,a2
    2d9c:	00062603          	lw	a2,0(a2)
    2da0:	fff30313          	addi	t1,t1,-1
    2da4:	d2041ae3          	bnez	s0,2ad8 <core_list_mergesort+0x218>
    2da8:	00090a93          	mv	s5,s2
    2dac:	00090413          	mv	s0,s2
    2db0:	00030493          	mv	s1,t1
    2db4:	00060913          	mv	s2,a2
    2db8:	00062603          	lw	a2,0(a2)
    2dbc:	fff30313          	addi	t1,t1,-1
    2dc0:	d0041ce3          	bnez	s0,2ad8 <core_list_mergesort+0x218>
    2dc4:	00090a93          	mv	s5,s2
    2dc8:	00090413          	mv	s0,s2
    2dcc:	00030493          	mv	s1,t1
    2dd0:	00060913          	mv	s2,a2
    2dd4:	00092603          	lw	a2,0(s2)
    2dd8:	fff48313          	addi	t1,s1,-1
    2ddc:	ce041ee3          	bnez	s0,2ad8 <core_list_mergesort+0x218>
    2de0:	00090a93          	mv	s5,s2
    2de4:	00090413          	mv	s0,s2
    2de8:	ca030ce3          	beqz	t1,2aa0 <core_list_mergesort+0x1e0>
    2dec:	00030493          	mv	s1,t1
    2df0:	00030293          	mv	t0,t1
    2df4:	00060913          	mv	s2,a2
    2df8:	fff30313          	addi	t1,t1,-1
    2dfc:	00062603          	lw	a2,0(a2)
    2e00:	cc0a9ce3          	bnez	s5,2ad8 <core_list_mergesort+0x218>
    2e04:	00090a93          	mv	s5,s2
    2e08:	00030493          	mv	s1,t1
    2e0c:	00090413          	mv	s0,s2
    2e10:	fff30313          	addi	t1,t1,-1
    2e14:	00060913          	mv	s2,a2
    2e18:	00062603          	lw	a2,0(a2)
    2e1c:	ca0a9ee3          	bnez	s5,2ad8 <core_list_mergesort+0x218>
    2e20:	00090a93          	mv	s5,s2
    2e24:	00090413          	mv	s0,s2
    2e28:	ffe28493          	addi	s1,t0,-2
    2e2c:	00060913          	mv	s2,a2
    2e30:	ffd28313          	addi	t1,t0,-3
    2e34:	00062603          	lw	a2,0(a2)
    2e38:	ca0a90e3          	bnez	s5,2ad8 <core_list_mergesort+0x218>
    2e3c:	00090a93          	mv	s5,s2
    2e40:	00030493          	mv	s1,t1
    2e44:	00090413          	mv	s0,s2
    2e48:	ffc28313          	addi	t1,t0,-4
    2e4c:	00060913          	mv	s2,a2
    2e50:	00062603          	lw	a2,0(a2)
    2e54:	c80a92e3          	bnez	s5,2ad8 <core_list_mergesort+0x218>
    2e58:	00090a93          	mv	s5,s2
    2e5c:	00030493          	mv	s1,t1
    2e60:	00090413          	mv	s0,s2
    2e64:	ffb28313          	addi	t1,t0,-5
    2e68:	00060913          	mv	s2,a2
    2e6c:	00062603          	lw	a2,0(a2)
    2e70:	c60a94e3          	bnez	s5,2ad8 <core_list_mergesort+0x218>
    2e74:	00090a93          	mv	s5,s2
    2e78:	00030493          	mv	s1,t1
    2e7c:	00090413          	mv	s0,s2
    2e80:	ffa28313          	addi	t1,t0,-6
    2e84:	00060913          	mv	s2,a2
    2e88:	00062603          	lw	a2,0(a2)
    2e8c:	c40a96e3          	bnez	s5,2ad8 <core_list_mergesort+0x218>
    2e90:	00090a93          	mv	s5,s2
    2e94:	00030493          	mv	s1,t1
    2e98:	00090413          	mv	s0,s2
    2e9c:	ff928313          	addi	t1,t0,-7
    2ea0:	00060913          	mv	s2,a2
    2ea4:	00062603          	lw	a2,0(a2)
    2ea8:	c20a98e3          	bnez	s5,2ad8 <core_list_mergesort+0x218>
    2eac:	00090a93          	mv	s5,s2
    2eb0:	00090413          	mv	s0,s2
    2eb4:	00030493          	mv	s1,t1
    2eb8:	00060913          	mv	s2,a2
    2ebc:	f19ff06f          	j	2dd4 <core_list_mergesort+0x514>
    2ec0:	00040993          	mv	s3,s0
    2ec4:	00050413          	mv	s0,a0
    2ec8:	b99ff06f          	j	2a60 <core_list_mergesort+0x1a0>
    2ecc:	00090993          	mv	s3,s2
    2ed0:	00070913          	mv	s2,a4
    2ed4:	b81ff06f          	j	2a54 <core_list_mergesort+0x194>
    2ed8:	00090993          	mv	s3,s2
    2edc:	00090a93          	mv	s5,s2
    2ee0:	00070913          	mv	s2,a4
    2ee4:	b71ff06f          	j	2a54 <core_list_mergesort+0x194>
    2ee8:	00050a93          	mv	s5,a0
    2eec:	d31ff06f          	j	2c1c <core_list_mergesort+0x35c>
    2ef0:	00048a93          	mv	s5,s1
    2ef4:	d3dff06f          	j	2c30 <core_list_mergesort+0x370>
    2ef8:	00040a93          	mv	s5,s0
    2efc:	d49ff06f          	j	2c44 <core_list_mergesort+0x384>
    2f00:	00050a93          	mv	s5,a0
    2f04:	d55ff06f          	j	2c58 <core_list_mergesort+0x398>
    2f08:	000d8a93          	mv	s5,s11
    2f0c:	d61ff06f          	j	2c6c <core_list_mergesort+0x3ac>
    2f10:	00080a93          	mv	s5,a6
    2f14:	d6dff06f          	j	2c80 <core_list_mergesort+0x3c0>
    2f18:	00070a93          	mv	s5,a4
    2f1c:	d7dff06f          	j	2c98 <core_list_mergesort+0x3d8>
    2f20:	00040a93          	mv	s5,s0
    2f24:	bf1ff06f          	j	2b14 <core_list_mergesort+0x254>
    2f28:	00040a93          	mv	s5,s0
    2f2c:	cbdff06f          	j	2be8 <core_list_mergesort+0x328>
    2f30:	00040a93          	mv	s5,s0
    2f34:	c99ff06f          	j	2bcc <core_list_mergesort+0x30c>
    2f38:	00040a93          	mv	s5,s0
    2f3c:	c75ff06f          	j	2bb0 <core_list_mergesort+0x2f0>
    2f40:	00040a93          	mv	s5,s0
    2f44:	c51ff06f          	j	2b94 <core_list_mergesort+0x2d4>
    2f48:	00040a93          	mv	s5,s0
    2f4c:	c2dff06f          	j	2b78 <core_list_mergesort+0x2b8>
    2f50:	03c12083          	lw	ra,60(sp)
    2f54:	03812403          	lw	s0,56(sp)
    2f58:	03412483          	lw	s1,52(sp)
    2f5c:	03012903          	lw	s2,48(sp)
    2f60:	02c12983          	lw	s3,44(sp)
    2f64:	02812a03          	lw	s4,40(sp)
    2f68:	02012b03          	lw	s6,32(sp)
    2f6c:	01c12b83          	lw	s7,28(sp)
    2f70:	01812c03          	lw	s8,24(sp)
    2f74:	01412c83          	lw	s9,20(sp)
    2f78:	01012d03          	lw	s10,16(sp)
    2f7c:	00c12d83          	lw	s11,12(sp)
    2f80:	000a8513          	mv	a0,s5
    2f84:	02412a83          	lw	s5,36(sp)
    2f88:	04010113          	addi	sp,sp,64
    2f8c:	00008067          	ret
    2f90:	00090a93          	mv	s5,s2
    2f94:	bcdff06f          	j	2b60 <core_list_mergesort+0x2a0>
    2f98:	00048a63          	beqz	s1,2fac <core_list_mergesort+0x6ec>
    2f9c:	00090a93          	mv	s5,s2
    2fa0:	00090413          	mv	s0,s2
    2fa4:	00050913          	mv	s2,a0
    2fa8:	a8dff06f          	j	2a34 <core_list_mergesort+0x174>
    2fac:	00090993          	mv	s3,s2
    2fb0:	00090a93          	mv	s5,s2
    2fb4:	00050913          	mv	s2,a0
    2fb8:	a9dff06f          	j	2a54 <core_list_mergesort+0x194>

00002fbc <iterate>:
    2fbc:	fe010113          	addi	sp,sp,-32
    2fc0:	01212823          	sw	s2,16(sp)
    2fc4:	01c52903          	lw	s2,28(a0)
    2fc8:	00112e23          	sw	ra,28(sp)
    2fcc:	02052c23          	sw	zero,56(a0)
    2fd0:	02052e23          	sw	zero,60(a0)
    2fd4:	3c090463          	beqz	s2,339c <iterate+0x3e0>
    2fd8:	00812c23          	sw	s0,24(sp)
    2fdc:	00912a23          	sw	s1,20(sp)
    2fe0:	01312623          	sw	s3,12(sp)
    2fe4:	00797793          	andi	a5,s2,7
    2fe8:	00050413          	mv	s0,a0
    2fec:	00000493          	li	s1,0
    2ff0:	1a078e63          	beqz	a5,31ac <iterate+0x1f0>
    2ff4:	00100993          	li	s3,1
    2ff8:	17378c63          	beq	a5,s3,3170 <iterate+0x1b4>
    2ffc:	00200713          	li	a4,2
    3000:	12e78c63          	beq	a5,a4,3138 <iterate+0x17c>
    3004:	00300293          	li	t0,3
    3008:	0e578c63          	beq	a5,t0,3100 <iterate+0x144>
    300c:	00400313          	li	t1,4
    3010:	0a678c63          	beq	a5,t1,30c8 <iterate+0x10c>
    3014:	00500393          	li	t2,5
    3018:	06778c63          	beq	a5,t2,3090 <iterate+0xd4>
    301c:	00600593          	li	a1,6
    3020:	02b78c63          	beq	a5,a1,3058 <iterate+0x9c>
    3024:	00098593          	mv	a1,s3
    3028:	bccfd0ef          	jal	3f4 <core_bench_list>
    302c:	03845483          	lhu	s1,56(s0)
    3030:	5095050b          	.insn	4, 0x5095050b
    3034:	fff00593          	li	a1,-1
    3038:	02a41c23          	sh	a0,56(s0)
    303c:	00040513          	mv	a0,s0
    3040:	bb4fd0ef          	jal	3f4 <core_bench_list>
    3044:	03845603          	lhu	a2,56(s0)
    3048:	50c5068b          	.insn	4, 0x50c5068b
    304c:	02d41c23          	sh	a3,56(s0)
    3050:	02d41d23          	sh	a3,58(s0)
    3054:	00098493          	mv	s1,s3
    3058:	00100593          	li	a1,1
    305c:	00040513          	mv	a0,s0
    3060:	b94fd0ef          	jal	3f4 <core_bench_list>
    3064:	03845803          	lhu	a6,56(s0)
    3068:	5105088b          	.insn	4, 0x5105088b
    306c:	fff00593          	li	a1,-1
    3070:	03141c23          	sh	a7,56(s0)
    3074:	00040513          	mv	a0,s0
    3078:	b7cfd0ef          	jal	3f4 <core_bench_list>
    307c:	03845e03          	lhu	t3,56(s0)
    3080:	51c50e8b          	.insn	4, 0x51c50e8b
    3084:	03d41c23          	sh	t4,56(s0)
    3088:	36048663          	beqz	s1,33f4 <iterate+0x438>
    308c:	00148493          	addi	s1,s1,1
    3090:	00100593          	li	a1,1
    3094:	00040513          	mv	a0,s0
    3098:	b5cfd0ef          	jal	3f4 <core_bench_list>
    309c:	03845f03          	lhu	t5,56(s0)
    30a0:	51e50f8b          	.insn	4, 0x51e50f8b
    30a4:	fff00593          	li	a1,-1
    30a8:	03f41c23          	sh	t6,56(s0)
    30ac:	00040513          	mv	a0,s0
    30b0:	b44fd0ef          	jal	3f4 <core_bench_list>
    30b4:	03845783          	lhu	a5,56(s0)
    30b8:	50f5098b          	.insn	4, 0x50f5098b
    30bc:	03341c23          	sh	s3,56(s0)
    30c0:	30048e63          	beqz	s1,33dc <iterate+0x420>
    30c4:	00148493          	addi	s1,s1,1
    30c8:	00100593          	li	a1,1
    30cc:	00040513          	mv	a0,s0
    30d0:	b24fd0ef          	jal	3f4 <core_bench_list>
    30d4:	03845703          	lhu	a4,56(s0)
    30d8:	50e5028b          	.insn	4, 0x50e5028b
    30dc:	fff00593          	li	a1,-1
    30e0:	02541c23          	sh	t0,56(s0)
    30e4:	00040513          	mv	a0,s0
    30e8:	b0cfd0ef          	jal	3f4 <core_bench_list>
    30ec:	03845303          	lhu	t1,56(s0)
    30f0:	5065038b          	.insn	4, 0x5065038b
    30f4:	02741c23          	sh	t2,56(s0)
    30f8:	2c048c63          	beqz	s1,33d0 <iterate+0x414>
    30fc:	00148493          	addi	s1,s1,1
    3100:	00100593          	li	a1,1
    3104:	00040513          	mv	a0,s0
    3108:	aecfd0ef          	jal	3f4 <core_bench_list>
    310c:	03845583          	lhu	a1,56(s0)
    3110:	50b5050b          	.insn	4, 0x50b5050b
    3114:	fff00593          	li	a1,-1
    3118:	02a41c23          	sh	a0,56(s0)
    311c:	00040513          	mv	a0,s0
    3120:	ad4fd0ef          	jal	3f4 <core_bench_list>
    3124:	03845603          	lhu	a2,56(s0)
    3128:	50c5068b          	.insn	4, 0x50c5068b
    312c:	02d41c23          	sh	a3,56(s0)
    3130:	28048c63          	beqz	s1,33c8 <iterate+0x40c>
    3134:	00148493          	addi	s1,s1,1
    3138:	00100593          	li	a1,1
    313c:	00040513          	mv	a0,s0
    3140:	ab4fd0ef          	jal	3f4 <core_bench_list>
    3144:	03845803          	lhu	a6,56(s0)
    3148:	5105088b          	.insn	4, 0x5105088b
    314c:	fff00593          	li	a1,-1
    3150:	03141c23          	sh	a7,56(s0)
    3154:	00040513          	mv	a0,s0
    3158:	a9cfd0ef          	jal	3f4 <core_bench_list>
    315c:	03845e03          	lhu	t3,56(s0)
    3160:	51c50e8b          	.insn	4, 0x51c50e8b
    3164:	03d41c23          	sh	t4,56(s0)
    3168:	24048c63          	beqz	s1,33c0 <iterate+0x404>
    316c:	00148493          	addi	s1,s1,1
    3170:	00100593          	li	a1,1
    3174:	00040513          	mv	a0,s0
    3178:	a7cfd0ef          	jal	3f4 <core_bench_list>
    317c:	03845f03          	lhu	t5,56(s0)
    3180:	51e50f8b          	.insn	4, 0x51e50f8b
    3184:	fff00593          	li	a1,-1
    3188:	03f41c23          	sh	t6,56(s0)
    318c:	00040513          	mv	a0,s0
    3190:	a64fd0ef          	jal	3f4 <core_bench_list>
    3194:	03845783          	lhu	a5,56(s0)
    3198:	50f5098b          	.insn	4, 0x50f5098b
    319c:	03341c23          	sh	s3,56(s0)
    31a0:	20048863          	beqz	s1,33b0 <iterate+0x3f4>
    31a4:	00148493          	addi	s1,s1,1
    31a8:	22990e63          	beq	s2,s1,33e4 <iterate+0x428>
    31ac:	00100593          	li	a1,1
    31b0:	00040513          	mv	a0,s0
    31b4:	a40fd0ef          	jal	3f4 <core_bench_list>
    31b8:	03845703          	lhu	a4,56(s0)
    31bc:	50e5028b          	.insn	4, 0x50e5028b
    31c0:	fff00593          	li	a1,-1
    31c4:	02541c23          	sh	t0,56(s0)
    31c8:	00040513          	mv	a0,s0
    31cc:	a28fd0ef          	jal	3f4 <core_bench_list>
    31d0:	03845303          	lhu	t1,56(s0)
    31d4:	5065038b          	.insn	4, 0x5065038b
    31d8:	02741c23          	sh	t2,56(s0)
    31dc:	00049463          	bnez	s1,31e4 <iterate+0x228>
    31e0:	02741d23          	sh	t2,58(s0)
    31e4:	00100593          	li	a1,1
    31e8:	00040513          	mv	a0,s0
    31ec:	00b484b3          	add	s1,s1,a1
    31f0:	a04fd0ef          	jal	3f4 <core_bench_list>
    31f4:	03845583          	lhu	a1,56(s0)
    31f8:	50b5050b          	.insn	4, 0x50b5050b
    31fc:	fff00593          	li	a1,-1
    3200:	02a41c23          	sh	a0,56(s0)
    3204:	00040513          	mv	a0,s0
    3208:	9ecfd0ef          	jal	3f4 <core_bench_list>
    320c:	03845603          	lhu	a2,56(s0)
    3210:	50c5068b          	.insn	4, 0x50c5068b
    3214:	02d41c23          	sh	a3,56(s0)
    3218:	00049463          	bnez	s1,3220 <iterate+0x264>
    321c:	02d41d23          	sh	a3,58(s0)
    3220:	00100593          	li	a1,1
    3224:	00040513          	mv	a0,s0
    3228:	00b489b3          	add	s3,s1,a1
    322c:	9c8fd0ef          	jal	3f4 <core_bench_list>
    3230:	03845803          	lhu	a6,56(s0)
    3234:	5105088b          	.insn	4, 0x5105088b
    3238:	fff00593          	li	a1,-1
    323c:	03141c23          	sh	a7,56(s0)
    3240:	00040513          	mv	a0,s0
    3244:	9b0fd0ef          	jal	3f4 <core_bench_list>
    3248:	03845e03          	lhu	t3,56(s0)
    324c:	51c50e8b          	.insn	4, 0x51c50e8b
    3250:	03d41c23          	sh	t4,56(s0)
    3254:	00099463          	bnez	s3,325c <iterate+0x2a0>
    3258:	03d41d23          	sh	t4,58(s0)
    325c:	00100593          	li	a1,1
    3260:	00040513          	mv	a0,s0
    3264:	990fd0ef          	jal	3f4 <core_bench_list>
    3268:	03845f03          	lhu	t5,56(s0)
    326c:	00248993          	addi	s3,s1,2
    3270:	51e50f8b          	.insn	4, 0x51e50f8b
    3274:	fff00593          	li	a1,-1
    3278:	03f41c23          	sh	t6,56(s0)
    327c:	00040513          	mv	a0,s0
    3280:	974fd0ef          	jal	3f4 <core_bench_list>
    3284:	03845783          	lhu	a5,56(s0)
    3288:	50f5070b          	.insn	4, 0x50f5070b
    328c:	02e41c23          	sh	a4,56(s0)
    3290:	00099463          	bnez	s3,3298 <iterate+0x2dc>
    3294:	02e41d23          	sh	a4,58(s0)
    3298:	00100593          	li	a1,1
    329c:	00040513          	mv	a0,s0
    32a0:	954fd0ef          	jal	3f4 <core_bench_list>
    32a4:	03845283          	lhu	t0,56(s0)
    32a8:	00348993          	addi	s3,s1,3
    32ac:	5055030b          	.insn	4, 0x5055030b
    32b0:	fff00593          	li	a1,-1
    32b4:	02641c23          	sh	t1,56(s0)
    32b8:	00040513          	mv	a0,s0
    32bc:	938fd0ef          	jal	3f4 <core_bench_list>
    32c0:	03845383          	lhu	t2,56(s0)
    32c4:	5075058b          	.insn	4, 0x5075058b
    32c8:	02b41c23          	sh	a1,56(s0)
    32cc:	00099463          	bnez	s3,32d4 <iterate+0x318>
    32d0:	02b41d23          	sh	a1,58(s0)
    32d4:	00100593          	li	a1,1
    32d8:	00040513          	mv	a0,s0
    32dc:	918fd0ef          	jal	3f4 <core_bench_list>
    32e0:	03845603          	lhu	a2,56(s0)
    32e4:	00448993          	addi	s3,s1,4
    32e8:	50c5050b          	.insn	4, 0x50c5050b
    32ec:	fff00593          	li	a1,-1
    32f0:	02a41c23          	sh	a0,56(s0)
    32f4:	00040513          	mv	a0,s0
    32f8:	8fcfd0ef          	jal	3f4 <core_bench_list>
    32fc:	03845683          	lhu	a3,56(s0)
    3300:	50d5080b          	.insn	4, 0x50d5080b
    3304:	03041c23          	sh	a6,56(s0)
    3308:	00099463          	bnez	s3,3310 <iterate+0x354>
    330c:	03041d23          	sh	a6,58(s0)
    3310:	00100593          	li	a1,1
    3314:	00040513          	mv	a0,s0
    3318:	8dcfd0ef          	jal	3f4 <core_bench_list>
    331c:	03845883          	lhu	a7,56(s0)
    3320:	00548993          	addi	s3,s1,5
    3324:	51150e0b          	.insn	4, 0x51150e0b
    3328:	fff00593          	li	a1,-1
    332c:	03c41c23          	sh	t3,56(s0)
    3330:	00040513          	mv	a0,s0
    3334:	8c0fd0ef          	jal	3f4 <core_bench_list>
    3338:	03845e83          	lhu	t4,56(s0)
    333c:	51d50f0b          	.insn	4, 0x51d50f0b
    3340:	03e41c23          	sh	t5,56(s0)
    3344:	00099463          	bnez	s3,334c <iterate+0x390>
    3348:	03e41d23          	sh	t5,58(s0)
    334c:	00100593          	li	a1,1
    3350:	00040513          	mv	a0,s0
    3354:	8a0fd0ef          	jal	3f4 <core_bench_list>
    3358:	03845f83          	lhu	t6,56(s0)
    335c:	00648993          	addi	s3,s1,6
    3360:	51f5078b          	.insn	4, 0x51f5078b
    3364:	fff00593          	li	a1,-1
    3368:	02f41c23          	sh	a5,56(s0)
    336c:	00040513          	mv	a0,s0
    3370:	884fd0ef          	jal	3f4 <core_bench_list>
    3374:	03845703          	lhu	a4,56(s0)
    3378:	50e5028b          	.insn	4, 0x50e5028b
    337c:	02541c23          	sh	t0,56(s0)
    3380:	00099463          	bnez	s3,3388 <iterate+0x3cc>
    3384:	02541d23          	sh	t0,58(s0)
    3388:	00748493          	addi	s1,s1,7
    338c:	e29910e3          	bne	s2,s1,31ac <iterate+0x1f0>
    3390:	01812403          	lw	s0,24(sp)
    3394:	01412483          	lw	s1,20(sp)
    3398:	00c12983          	lw	s3,12(sp)
    339c:	01c12083          	lw	ra,28(sp)
    33a0:	01012903          	lw	s2,16(sp)
    33a4:	00000513          	li	a0,0
    33a8:	02010113          	addi	sp,sp,32
    33ac:	00008067          	ret
    33b0:	03341d23          	sh	s3,58(s0)
    33b4:	00148493          	addi	s1,s1,1
    33b8:	de991ae3          	bne	s2,s1,31ac <iterate+0x1f0>
    33bc:	0280006f          	j	33e4 <iterate+0x428>
    33c0:	03d41d23          	sh	t4,58(s0)
    33c4:	da9ff06f          	j	316c <iterate+0x1b0>
    33c8:	02d41d23          	sh	a3,58(s0)
    33cc:	d69ff06f          	j	3134 <iterate+0x178>
    33d0:	02741d23          	sh	t2,58(s0)
    33d4:	00148493          	addi	s1,s1,1
    33d8:	d29ff06f          	j	3100 <iterate+0x144>
    33dc:	03341d23          	sh	s3,58(s0)
    33e0:	ce5ff06f          	j	30c4 <iterate+0x108>
    33e4:	01812403          	lw	s0,24(sp)
    33e8:	01412483          	lw	s1,20(sp)
    33ec:	00c12983          	lw	s3,12(sp)
    33f0:	fadff06f          	j	339c <iterate+0x3e0>
    33f4:	03d41d23          	sh	t4,58(s0)
    33f8:	c95ff06f          	j	308c <iterate+0xd0>

000033fc <main>:
    33fc:	f7010113          	addi	sp,sp,-144
    3400:	00810613          	addi	a2,sp,8
    3404:	00410593          	addi	a1,sp,4
    3408:	04e10513          	addi	a0,sp,78
    340c:	08112623          	sw	ra,140(sp)
    3410:	08812423          	sw	s0,136(sp)
    3414:	08912223          	sw	s1,132(sp)
    3418:	09212023          	sw	s2,128(sp)
    341c:	07312e23          	sw	s3,124(sp)
    3420:	07412c23          	sw	s4,120(sp)
    3424:	07512a23          	sw	s5,116(sp)
    3428:	07812423          	sw	s8,104(sp)
    342c:	07912223          	sw	s9,100(sp)
    3430:	00012223          	sw	zero,4(sp)
    3434:	514060ef          	jal	9948 <portable_init>
    3438:	00100513          	li	a0,1
    343c:	160060ef          	jal	959c <get_seed_32>
    3440:	00a11623          	sh	a0,12(sp)
    3444:	00200513          	li	a0,2
    3448:	154060ef          	jal	959c <get_seed_32>
    344c:	00a11723          	sh	a0,14(sp)
    3450:	00300513          	li	a0,3
    3454:	148060ef          	jal	959c <get_seed_32>
    3458:	00a11823          	sh	a0,16(sp)
    345c:	00400513          	li	a0,4
    3460:	13c060ef          	jal	959c <get_seed_32>
    3464:	02a12423          	sw	a0,40(sp)
    3468:	00500513          	li	a0,5
    346c:	130060ef          	jal	959c <get_seed_32>
    3470:	00051463          	bnez	a0,3478 <main+0x7c>
    3474:	00700513          	li	a0,7
    3478:	00c12783          	lw	a5,12(sp)
    347c:	02a12623          	sw	a0,44(sp)
    3480:	76078a63          	beqz	a5,3bf4 <main+0x7f8>
    3484:	00100713          	li	a4,1
    3488:	00e79463          	bne	a5,a4,3490 <main+0x94>
    348c:	7e90006f          	j	4474 <main+0x1078>
    3490:	00010637          	lui	a2,0x10
    3494:	01460a93          	addi	s5,a2,20 # 10014 <static_memblk>
    3498:	00157993          	andi	s3,a0,1
    349c:	04011623          	sh	zero,76(sp)
    34a0:	01512a23          	sw	s5,20(sp)
    34a4:	00257693          	andi	a3,a0,2
    34a8:	00098913          	mv	s2,s3
    34ac:	10069a63          	bnez	a3,35c0 <main+0x1c4>
    34b0:	00457513          	andi	a0,a0,4
    34b4:	16050663          	beqz	a0,3620 <main+0x224>
    34b8:	00198893          	addi	a7,s3,1
    34bc:	3c08b58b          	th.extu	a1,a7,15,0
    34c0:	7d000513          	li	a0,2000
    34c4:	7c5080ef          	jal	c488 <__hidden___udivsi3>
    34c8:	02a12223          	sw	a0,36(sp)
    34cc:	00098463          	beqz	s3,34d4 <main+0xd8>
    34d0:	6d50006f          	j	43a4 <main+0xfa8>
    34d4:	02a90f33          	mul	t5,s2,a0
    34d8:	01ea8fb3          	add	t6,s5,t5
    34dc:	03f12023          	sw	t6,32(sp)
    34e0:	02c12483          	lw	s1,44(sp)
    34e4:	0014f713          	andi	a4,s1,1
    34e8:	00070e63          	beqz	a4,3504 <main+0x108>
    34ec:	00c11603          	lh	a2,12(sp)
    34f0:	01812583          	lw	a1,24(sp)
    34f4:	02412503          	lw	a0,36(sp)
    34f8:	c84fe0ef          	jal	197c <core_list_init>
    34fc:	02c12483          	lw	s1,44(sp)
    3500:	02a12823          	sw	a0,48(sp)
    3504:	0024f293          	andi	t0,s1,2
    3508:	12029663          	bnez	t0,3634 <main+0x238>
    350c:	0044f593          	andi	a1,s1,4
    3510:	00058a63          	beqz	a1,3524 <main+0x128>
    3514:	02012603          	lw	a2,32(sp)
    3518:	00c11583          	lh	a1,12(sp)
    351c:	02412503          	lw	a0,36(sp)
    3520:	2d5050ef          	jal	8ff4 <core_init_state>
    3524:	02812603          	lw	a2,40(sp)
    3528:	12060a63          	beqz	a2,365c <main+0x260>
    352c:	00c10a13          	addi	s4,sp,12
    3530:	2b4060ef          	jal	97e4 <start_time>
    3534:	000a0513          	mv	a0,s4
    3538:	a85ff0ef          	jal	2fbc <iterate>
    353c:	344060ef          	jal	9880 <stop_time>
    3540:	3dc060ef          	jal	991c <get_time>
    3544:	00050c13          	mv	s8,a0
    3548:	00c15a03          	lhu	s4,12(sp)
    354c:	00000393          	li	t2,0
    3550:	507a058b          	.insn	4, 0x507a058b
    3554:	00e15983          	lhu	s3,14(sp)
    3558:	3c05b60b          	th.extu	a2,a1,15,0
    355c:	50c9868b          	.insn	4, 0x50c9868b
    3560:	01015803          	lhu	a6,16(sp)
    3564:	3c06b50b          	th.extu	a0,a3,15,0
    3568:	50a80c8b          	.insn	4, 0x50a80c8b
    356c:	02415883          	lhu	a7,36(sp)
    3570:	3c0cb90b          	th.extu	s2,s9,15,0
    3574:	51288e0b          	.insn	4, 0x51288e0b
    3578:	00008eb7          	lui	t4,0x8
    357c:	3c0e3a8b          	th.extu	s5,t3,15,0
    3580:	b05e8f13          	addi	t5,t4,-1275 # 7b05 <matrix_sum+0x215>
    3584:	01ea9463          	bne	s5,t5,358c <main+0x190>
    3588:	6c50006f          	j	444c <main+0x1050>
    358c:	515f6463          	bltu	t5,s5,3a94 <main+0x698>
    3590:	000023b7          	lui	t2,0x2
    3594:	8f238593          	addi	a1,t2,-1806 # 18f2 <core_bench_list+0x14fe>
    3598:	00ba9463          	bne	s5,a1,35a0 <main+0x1a4>
    359c:	69d0006f          	j	4438 <main+0x103c>
    35a0:	000059b7          	lui	s3,0x5
    35a4:	eaf98693          	addi	a3,s3,-337 # 4eaf <core_bench_matrix+0xa03>
    35a8:	5eda90e3          	bne	s5,a3,4388 <main+0xf8c>
    35ac:	0000c537          	lui	a0,0xc
    35b0:	59050513          	addi	a0,a0,1424 # c590 <__modsi3+0x8c>
    35b4:	3e0060ef          	jal	9994 <ee_printf>
    35b8:	00200c93          	li	s9,2
    35bc:	5000006f          	j	3abc <main+0x6c0>
    35c0:	00198a13          	addi	s4,s3,1
    35c4:	00457413          	andi	s0,a0,4
    35c8:	3c0a3c0b          	th.extu	s8,s4,15,0
    35cc:	02040c63          	beqz	s0,3604 <main+0x208>
    35d0:	00298c93          	addi	s9,s3,2
    35d4:	3c0cb58b          	th.extu	a1,s9,15,0
    35d8:	7d000513          	li	a0,2000
    35dc:	6ad080ef          	jal	c488 <__hidden___udivsi3>
    35e0:	02a12223          	sw	a0,36(sp)
    35e4:	5a099ae3          	bnez	s3,4398 <main+0xf9c>
    35e8:	00400413          	li	s0,4
    35ec:	02a90e33          	mul	t3,s2,a0
    35f0:	000c0913          	mv	s2,s8
    35f4:	01ca8eb3          	add	t4,s5,t3
    35f8:	01d12e23          	sw	t4,28(sp)
    35fc:	ee0402e3          	beqz	s0,34e0 <main+0xe4>
    3600:	ed5ff06f          	j	34d4 <main+0xd8>
    3604:	000c0593          	mv	a1,s8
    3608:	7d000513          	li	a0,2000
    360c:	67d080ef          	jal	c488 <__hidden___udivsi3>
    3610:	02a12223          	sw	a0,36(sp)
    3614:	fc098ce3          	beqz	s3,35ec <main+0x1f0>
    3618:	01512c23          	sw	s5,24(sp)
    361c:	fd1ff06f          	j	35ec <main+0x1f0>
    3620:	7d000813          	li	a6,2000
    3624:	03012223          	sw	a6,36(sp)
    3628:	ea098ce3          	beqz	s3,34e0 <main+0xe4>
    362c:	01512c23          	sw	s5,24(sp)
    3630:	eb1ff06f          	j	34e0 <main+0xe4>
    3634:	00e11783          	lh	a5,14(sp)
    3638:	00c11303          	lh	t1,12(sp)
    363c:	01c12583          	lw	a1,28(sp)
    3640:	02412503          	lw	a0,36(sp)
    3644:	01079393          	slli	t2,a5,0x10
    3648:	0063e633          	or	a2,t2,t1
    364c:	03410693          	addi	a3,sp,52
    3650:	5a9030ef          	jal	73f8 <core_init_matrix>
    3654:	02c12483          	lw	s1,44(sp)
    3658:	eb5ff06f          	j	350c <main+0x110>
    365c:	00100a93          	li	s5,1
    3660:	03512423          	sw	s5,40(sp)
    3664:	00c10a13          	addi	s4,sp,12
    3668:	02812683          	lw	a3,40(sp)
    366c:	00000413          	li	s0,0
    3670:	20d6c9b3          	sh2add	s3,a3,a3
    3674:	00199513          	slli	a0,s3,0x1
    3678:	02a12423          	sw	a0,40(sp)
    367c:	168060ef          	jal	97e4 <start_time>
    3680:	02812c03          	lw	s8,40(sp)
    3684:	04012223          	sw	zero,68(sp)
    3688:	04012423          	sw	zero,72(sp)
    368c:	3a0c0863          	beqz	s8,3a3c <main+0x640>
    3690:	007c7813          	andi	a6,s8,7
    3694:	1c080263          	beqz	a6,3858 <main+0x45c>
    3698:	00100c93          	li	s9,1
    369c:	17980e63          	beq	a6,s9,3818 <main+0x41c>
    36a0:	00200893          	li	a7,2
    36a4:	13180e63          	beq	a6,a7,37e0 <main+0x3e4>
    36a8:	00300e13          	li	t3,3
    36ac:	0fc80e63          	beq	a6,t3,37a8 <main+0x3ac>
    36b0:	00400913          	li	s2,4
    36b4:	0b280e63          	beq	a6,s2,3770 <main+0x374>
    36b8:	00500e93          	li	t4,5
    36bc:	07d80e63          	beq	a6,t4,3738 <main+0x33c>
    36c0:	00600f13          	li	t5,6
    36c4:	03e80e63          	beq	a6,t5,3700 <main+0x304>
    36c8:	000c8593          	mv	a1,s9
    36cc:	000a0513          	mv	a0,s4
    36d0:	d25fc0ef          	jal	3f4 <core_bench_list>
    36d4:	04415403          	lhu	s0,68(sp)
    36d8:	50850f8b          	.insn	4, 0x50850f8b
    36dc:	fff00593          	li	a1,-1
    36e0:	000a0513          	mv	a0,s4
    36e4:	05f11223          	sh	t6,68(sp)
    36e8:	d0dfc0ef          	jal	3f4 <core_bench_list>
    36ec:	04415703          	lhu	a4,68(sp)
    36f0:	50e5028b          	.insn	4, 0x50e5028b
    36f4:	04511223          	sh	t0,68(sp)
    36f8:	04511323          	sh	t0,70(sp)
    36fc:	000c8413          	mv	s0,s9
    3700:	00100593          	li	a1,1
    3704:	000a0513          	mv	a0,s4
    3708:	cedfc0ef          	jal	3f4 <core_bench_list>
    370c:	04415783          	lhu	a5,68(sp)
    3710:	50f5030b          	.insn	4, 0x50f5030b
    3714:	fff00593          	li	a1,-1
    3718:	000a0513          	mv	a0,s4
    371c:	04611223          	sh	t1,68(sp)
    3720:	cd5fc0ef          	jal	3f4 <core_bench_list>
    3724:	04415383          	lhu	t2,68(sp)
    3728:	5075048b          	.insn	4, 0x5075048b
    372c:	04911223          	sh	s1,68(sp)
    3730:	34040e63          	beqz	s0,3a8c <main+0x690>
    3734:	00140413          	addi	s0,s0,1
    3738:	00100593          	li	a1,1
    373c:	000a0513          	mv	a0,s4
    3740:	cb5fc0ef          	jal	3f4 <core_bench_list>
    3744:	04415583          	lhu	a1,68(sp)
    3748:	50b5060b          	.insn	4, 0x50b5060b
    374c:	fff00593          	li	a1,-1
    3750:	000a0513          	mv	a0,s4
    3754:	04c11223          	sh	a2,68(sp)
    3758:	c9dfc0ef          	jal	3f4 <core_bench_list>
    375c:	04415a83          	lhu	s5,68(sp)
    3760:	5155068b          	.insn	4, 0x5155068b
    3764:	04d11223          	sh	a3,68(sp)
    3768:	30040e63          	beqz	s0,3a84 <main+0x688>
    376c:	00140413          	addi	s0,s0,1
    3770:	00100593          	li	a1,1
    3774:	000a0513          	mv	a0,s4
    3778:	c7dfc0ef          	jal	3f4 <core_bench_list>
    377c:	04415983          	lhu	s3,68(sp)
    3780:	5135050b          	.insn	4, 0x5135050b
    3784:	fff00593          	li	a1,-1
    3788:	04a11223          	sh	a0,68(sp)
    378c:	000a0513          	mv	a0,s4
    3790:	c65fc0ef          	jal	3f4 <core_bench_list>
    3794:	04415803          	lhu	a6,68(sp)
    3798:	51050c8b          	.insn	4, 0x51050c8b
    379c:	05911223          	sh	s9,68(sp)
    37a0:	2c040e63          	beqz	s0,3a7c <main+0x680>
    37a4:	00140413          	addi	s0,s0,1
    37a8:	00100593          	li	a1,1
    37ac:	000a0513          	mv	a0,s4
    37b0:	c45fc0ef          	jal	3f4 <core_bench_list>
    37b4:	04415883          	lhu	a7,68(sp)
    37b8:	51150e0b          	.insn	4, 0x51150e0b
    37bc:	fff00593          	li	a1,-1
    37c0:	000a0513          	mv	a0,s4
    37c4:	05c11223          	sh	t3,68(sp)
    37c8:	c2dfc0ef          	jal	3f4 <core_bench_list>
    37cc:	04415903          	lhu	s2,68(sp)
    37d0:	51250e8b          	.insn	4, 0x51250e8b
    37d4:	05d11223          	sh	t4,68(sp)
    37d8:	28040e63          	beqz	s0,3a74 <main+0x678>
    37dc:	00140413          	addi	s0,s0,1
    37e0:	00100593          	li	a1,1
    37e4:	000a0513          	mv	a0,s4
    37e8:	c0dfc0ef          	jal	3f4 <core_bench_list>
    37ec:	04415f03          	lhu	t5,68(sp)
    37f0:	51e50f8b          	.insn	4, 0x51e50f8b
    37f4:	fff00593          	li	a1,-1
    37f8:	000a0513          	mv	a0,s4
    37fc:	05f11223          	sh	t6,68(sp)
    3800:	bf5fc0ef          	jal	3f4 <core_bench_list>
    3804:	04415703          	lhu	a4,68(sp)
    3808:	50e5028b          	.insn	4, 0x50e5028b
    380c:	04511223          	sh	t0,68(sp)
    3810:	24040e63          	beqz	s0,3a6c <main+0x670>
    3814:	00140413          	addi	s0,s0,1
    3818:	00100593          	li	a1,1
    381c:	000a0513          	mv	a0,s4
    3820:	bd5fc0ef          	jal	3f4 <core_bench_list>
    3824:	04415783          	lhu	a5,68(sp)
    3828:	50f5030b          	.insn	4, 0x50f5030b
    382c:	fff00593          	li	a1,-1
    3830:	000a0513          	mv	a0,s4
    3834:	04611223          	sh	t1,68(sp)
    3838:	bbdfc0ef          	jal	3f4 <core_bench_list>
    383c:	04415383          	lhu	t2,68(sp)
    3840:	5075048b          	.insn	4, 0x5075048b
    3844:	04911223          	sh	s1,68(sp)
    3848:	00041463          	bnez	s0,3850 <main+0x454>
    384c:	04911323          	sh	s1,70(sp)
    3850:	00140413          	addi	s0,s0,1
    3854:	1e8c0463          	beq	s8,s0,3a3c <main+0x640>
    3858:	00100593          	li	a1,1
    385c:	000a0513          	mv	a0,s4
    3860:	b95fc0ef          	jal	3f4 <core_bench_list>
    3864:	04415583          	lhu	a1,68(sp)
    3868:	50b5060b          	.insn	4, 0x50b5060b
    386c:	fff00593          	li	a1,-1
    3870:	000a0513          	mv	a0,s4
    3874:	04c11223          	sh	a2,68(sp)
    3878:	b7dfc0ef          	jal	3f4 <core_bench_list>
    387c:	04415a83          	lhu	s5,68(sp)
    3880:	5155068b          	.insn	4, 0x5155068b
    3884:	04d11223          	sh	a3,68(sp)
    3888:	00041463          	bnez	s0,3890 <main+0x494>
    388c:	04d11323          	sh	a3,70(sp)
    3890:	00100593          	li	a1,1
    3894:	000a0513          	mv	a0,s4
    3898:	00b40433          	add	s0,s0,a1
    389c:	b59fc0ef          	jal	3f4 <core_bench_list>
    38a0:	04415983          	lhu	s3,68(sp)
    38a4:	5135050b          	.insn	4, 0x5135050b
    38a8:	fff00593          	li	a1,-1
    38ac:	04a11223          	sh	a0,68(sp)
    38b0:	000a0513          	mv	a0,s4
    38b4:	b41fc0ef          	jal	3f4 <core_bench_list>
    38b8:	04415803          	lhu	a6,68(sp)
    38bc:	51050c8b          	.insn	4, 0x51050c8b
    38c0:	05911223          	sh	s9,68(sp)
    38c4:	00041463          	bnez	s0,38cc <main+0x4d0>
    38c8:	05911323          	sh	s9,70(sp)
    38cc:	00100593          	li	a1,1
    38d0:	000a0513          	mv	a0,s4
    38d4:	00b40933          	add	s2,s0,a1
    38d8:	b1dfc0ef          	jal	3f4 <core_bench_list>
    38dc:	04415883          	lhu	a7,68(sp)
    38e0:	51150e0b          	.insn	4, 0x51150e0b
    38e4:	fff00593          	li	a1,-1
    38e8:	000a0513          	mv	a0,s4
    38ec:	05c11223          	sh	t3,68(sp)
    38f0:	b05fc0ef          	jal	3f4 <core_bench_list>
    38f4:	04415e83          	lhu	t4,68(sp)
    38f8:	51d50f0b          	.insn	4, 0x51d50f0b
    38fc:	05e11223          	sh	t5,68(sp)
    3900:	00091463          	bnez	s2,3908 <main+0x50c>
    3904:	05e11323          	sh	t5,70(sp)
    3908:	00100593          	li	a1,1
    390c:	000a0513          	mv	a0,s4
    3910:	ae5fc0ef          	jal	3f4 <core_bench_list>
    3914:	04415f83          	lhu	t6,68(sp)
    3918:	00240493          	addi	s1,s0,2
    391c:	51f5070b          	.insn	4, 0x51f5070b
    3920:	fff00593          	li	a1,-1
    3924:	000a0513          	mv	a0,s4
    3928:	04e11223          	sh	a4,68(sp)
    392c:	ac9fc0ef          	jal	3f4 <core_bench_list>
    3930:	04415283          	lhu	t0,68(sp)
    3934:	5055078b          	.insn	4, 0x5055078b
    3938:	04f11223          	sh	a5,68(sp)
    393c:	00049463          	bnez	s1,3944 <main+0x548>
    3940:	04f11323          	sh	a5,70(sp)
    3944:	00100593          	li	a1,1
    3948:	000a0513          	mv	a0,s4
    394c:	aa9fc0ef          	jal	3f4 <core_bench_list>
    3950:	04415303          	lhu	t1,68(sp)
    3954:	00340a93          	addi	s5,s0,3
    3958:	5065038b          	.insn	4, 0x5065038b
    395c:	fff00593          	li	a1,-1
    3960:	000a0513          	mv	a0,s4
    3964:	04711223          	sh	t2,68(sp)
    3968:	a8dfc0ef          	jal	3f4 <core_bench_list>
    396c:	04415583          	lhu	a1,68(sp)
    3970:	50b5060b          	.insn	4, 0x50b5060b
    3974:	04c11223          	sh	a2,68(sp)
    3978:	000a9463          	bnez	s5,3980 <main+0x584>
    397c:	04c11323          	sh	a2,70(sp)
    3980:	00100593          	li	a1,1
    3984:	000a0513          	mv	a0,s4
    3988:	a6dfc0ef          	jal	3f4 <core_bench_list>
    398c:	04415683          	lhu	a3,68(sp)
    3990:	00440993          	addi	s3,s0,4
    3994:	50d5050b          	.insn	4, 0x50d5050b
    3998:	fff00593          	li	a1,-1
    399c:	04a11223          	sh	a0,68(sp)
    39a0:	000a0513          	mv	a0,s4
    39a4:	a51fc0ef          	jal	3f4 <core_bench_list>
    39a8:	04415803          	lhu	a6,68(sp)
    39ac:	51050c8b          	.insn	4, 0x51050c8b
    39b0:	05911223          	sh	s9,68(sp)
    39b4:	00099463          	bnez	s3,39bc <main+0x5c0>
    39b8:	05911323          	sh	s9,70(sp)
    39bc:	00100593          	li	a1,1
    39c0:	000a0513          	mv	a0,s4
    39c4:	a31fc0ef          	jal	3f4 <core_bench_list>
    39c8:	04415883          	lhu	a7,68(sp)
    39cc:	00540913          	addi	s2,s0,5
    39d0:	51150e0b          	.insn	4, 0x51150e0b
    39d4:	fff00593          	li	a1,-1
    39d8:	000a0513          	mv	a0,s4
    39dc:	05c11223          	sh	t3,68(sp)
    39e0:	a15fc0ef          	jal	3f4 <core_bench_list>
    39e4:	04415e83          	lhu	t4,68(sp)
    39e8:	51d50f0b          	.insn	4, 0x51d50f0b
    39ec:	05e11223          	sh	t5,68(sp)
    39f0:	00091463          	bnez	s2,39f8 <main+0x5fc>
    39f4:	05e11323          	sh	t5,70(sp)
    39f8:	00100593          	li	a1,1
    39fc:	000a0513          	mv	a0,s4
    3a00:	9f5fc0ef          	jal	3f4 <core_bench_list>
    3a04:	04415f83          	lhu	t6,68(sp)
    3a08:	00640493          	addi	s1,s0,6
    3a0c:	51f5070b          	.insn	4, 0x51f5070b
    3a10:	fff00593          	li	a1,-1
    3a14:	000a0513          	mv	a0,s4
    3a18:	04e11223          	sh	a4,68(sp)
    3a1c:	9d9fc0ef          	jal	3f4 <core_bench_list>
    3a20:	04415283          	lhu	t0,68(sp)
    3a24:	5055078b          	.insn	4, 0x5055078b
    3a28:	04f11223          	sh	a5,68(sp)
    3a2c:	00049463          	bnez	s1,3a34 <main+0x638>
    3a30:	04f11323          	sh	a5,70(sp)
    3a34:	00740413          	addi	s0,s0,7
    3a38:	e28c10e3          	bne	s8,s0,3858 <main+0x45c>
    3a3c:	645050ef          	jal	9880 <stop_time>
    3a40:	6dd050ef          	jal	991c <get_time>
    3a44:	6f1050ef          	jal	9934 <time_in_secs>
    3a48:	c20500e3          	beqz	a0,3668 <main+0x26c>
    3a4c:	00050593          	mv	a1,a0
    3a50:	00a00513          	li	a0,10
    3a54:	235080ef          	jal	c488 <__hidden___udivsi3>
    3a58:	02812c03          	lw	s8,40(sp)
    3a5c:	00150a93          	addi	s5,a0,1
    3a60:	035c0333          	mul	t1,s8,s5
    3a64:	02612423          	sw	t1,40(sp)
    3a68:	ac9ff06f          	j	3530 <main+0x134>
    3a6c:	04511323          	sh	t0,70(sp)
    3a70:	da5ff06f          	j	3814 <main+0x418>
    3a74:	05d11323          	sh	t4,70(sp)
    3a78:	d65ff06f          	j	37dc <main+0x3e0>
    3a7c:	05911323          	sh	s9,70(sp)
    3a80:	d25ff06f          	j	37a4 <main+0x3a8>
    3a84:	04d11323          	sh	a3,70(sp)
    3a88:	ce5ff06f          	j	376c <main+0x370>
    3a8c:	04911323          	sh	s1,70(sp)
    3a90:	ca5ff06f          	j	3734 <main+0x338>
    3a94:	00009fb7          	lui	t6,0x9
    3a98:	a02f8713          	addi	a4,t6,-1534 # 8a02 <core_bench_state+0x25e>
    3a9c:	1cea82e3          	beq	s5,a4,4460 <main+0x1064>
    3aa0:	0000f7b7          	lui	a5,0xf
    3aa4:	9f578413          	addi	s0,a5,-1547 # e9f5 <_data_load_start+0x194d>
    3aa8:	168a9063          	bne	s5,s0,3c08 <main+0x80c>
    3aac:	0000c337          	lui	t1,0xc
    3ab0:	5c430513          	addi	a0,t1,1476 # c5c4 <__modsi3+0xc0>
    3ab4:	6e1050ef          	jal	9994 <ee_printf>
    3ab8:	00300c93          	li	s9,3
    3abc:	000104b7          	lui	s1,0x10
    3ac0:	0004a803          	lw	a6,0(s1) # 10000 <default_num_contexts>
    3ac4:	1c080ae3          	beqz	a6,4498 <main+0x109c>
    3ac8:	07712623          	sw	s7,108(sp)
    3acc:	0000dbb7          	lui	s7,0xd
    3ad0:	07a12023          	sw	s10,96(sp)
    3ad4:	c28b8b93          	addi	s7,s7,-984 # cc28 <list_known_crc>
    3ad8:	0000cd37          	lui	s10,0xc
    3adc:	07612823          	sw	s6,112(sp)
    3ae0:	05b12e23          	sw	s11,92(sp)
    3ae4:	217cab33          	sh1add	s6,s9,s7
    3ae8:	620d0d93          	addi	s11,s10,1568 # c620 <__modsi3+0x11c>
    3aec:	00000a13          	li	s4,0
    3af0:	00000413          	li	s0,0
    3af4:	0000cd37          	lui	s10,0xc
    3af8:	0280006f          	j	3b20 <main+0x724>
    3afc:	008906b3          	add	a3,s2,s0
    3b00:	2026c833          	sh2add	a6,a3,sp
    3b04:	04c85f83          	lhu	t6,76(a6)
    3b08:	0004a703          	lw	a4,0(s1)
    3b0c:	00140413          	addi	s0,s0,1
    3b10:	014f8933          	add	s2,t6,s4
    3b14:	3c04340b          	th.extu	s0,s0,15,0
    3b18:	00090a13          	mv	s4,s2
    3b1c:	0ce47263          	bgeu	s0,a4,3be0 <main+0x7e4>
    3b20:	00441913          	slli	s2,s0,0x4
    3b24:	008908b3          	add	a7,s2,s0
    3b28:	05010e13          	addi	t3,sp,80
    3b2c:	21c8c9b3          	sh2add	s3,a7,t3
    3b30:	fdc9a783          	lw	a5,-36(s3)
    3b34:	fe099e23          	sh	zero,-4(s3)
    3b38:	0017fe93          	andi	t4,a5,1
    3b3c:	020e8663          	beqz	t4,3b68 <main+0x76c>
    3b40:	ff69d603          	lhu	a2,-10(s3)
    3b44:	a39bc68b          	th.lrhu	a3,s7,s9,1
    3b48:	02d60063          	beq	a2,a3,3b68 <main+0x76c>
    3b4c:	00040593          	mv	a1,s0
    3b50:	000d8513          	mv	a0,s11
    3b54:	641050ef          	jal	9994 <ee_printf>
    3b58:	ffc9df03          	lhu	t5,-4(s3)
    3b5c:	fdc9a783          	lw	a5,-36(s3)
    3b60:	001f0f93          	addi	t6,t5,1
    3b64:	fff99e23          	sh	t6,-4(s3)
    3b68:	0027f713          	andi	a4,a5,2
    3b6c:	02070c63          	beqz	a4,3ba4 <main+0x7a8>
    3b70:	008902b3          	add	t0,s2,s0
    3b74:	05010313          	addi	t1,sp,80
    3b78:	2062c9b3          	sh2add	s3,t0,t1
    3b7c:	ff89d603          	lhu	a2,-8(s3)
    3b80:	00cb5683          	lhu	a3,12(s6)
    3b84:	02d60063          	beq	a2,a3,3ba4 <main+0x7a8>
    3b88:	00040593          	mv	a1,s0
    3b8c:	650d0513          	addi	a0,s10,1616 # c650 <__modsi3+0x14c>
    3b90:	605050ef          	jal	9994 <ee_printf>
    3b94:	ffc9d383          	lhu	t2,-4(s3)
    3b98:	fdc9a783          	lw	a5,-36(s3)
    3b9c:	00138593          	addi	a1,t2,1
    3ba0:	feb99e23          	sh	a1,-4(s3)
    3ba4:	0047f613          	andi	a2,a5,4
    3ba8:	f4060ae3          	beqz	a2,3afc <main+0x700>
    3bac:	00890933          	add	s2,s2,s0
    3bb0:	05010893          	addi	a7,sp,80
    3bb4:	211949b3          	sh2add	s3,s2,a7
    3bb8:	ffa9d603          	lhu	a2,-6(s3)
    3bbc:	018b5683          	lhu	a3,24(s6)
    3bc0:	7ed61663          	bne	a2,a3,43ac <main+0xfb0>
    3bc4:	ffc9df83          	lhu	t6,-4(s3)
    3bc8:	0004a703          	lw	a4,0(s1)
    3bcc:	00140413          	addi	s0,s0,1
    3bd0:	014f8933          	add	s2,t6,s4
    3bd4:	3c04340b          	th.extu	s0,s0,15,0
    3bd8:	00090a13          	mv	s4,s2
    3bdc:	f4e462e3          	bltu	s0,a4,3b20 <main+0x724>
    3be0:	07012b03          	lw	s6,112(sp)
    3be4:	06c12b83          	lw	s7,108(sp)
    3be8:	06012d03          	lw	s10,96(sp)
    3bec:	05c12d83          	lw	s11,92(sp)
    3bf0:	0240006f          	j	3c14 <main+0x818>
    3bf4:	01011483          	lh	s1,16(sp)
    3bf8:	88049ce3          	bnez	s1,3490 <main+0x94>
    3bfc:	06600593          	li	a1,102
    3c00:	00b11823          	sh	a1,16(sp)
    3c04:	88dff06f          	j	3490 <main+0x94>
    3c08:	00010a37          	lui	s4,0x10
    3c0c:	fffa0913          	addi	s2,s4,-1 # ffff <_data_load_start+0x2f57>
    3c10:	000104b7          	lui	s1,0x10
    3c14:	331050ef          	jal	9744 <check_data_types>
    3c18:	02412583          	lw	a1,36(sp)
    3c1c:	0000c2b7          	lui	t0,0xc
    3c20:	012509b3          	add	s3,a0,s2
    3c24:	6b428513          	addi	a0,t0,1716 # c6b4 <__modsi3+0x1b0>
    3c28:	56d050ef          	jal	9994 <ee_printf>
    3c2c:	0000c337          	lui	t1,0xc
    3c30:	000c0593          	mv	a1,s8
    3c34:	6cc30513          	addi	a0,t1,1740 # c6cc <__modsi3+0x1c8>
    3c38:	55d050ef          	jal	9994 <ee_printf>
    3c3c:	000c0513          	mv	a0,s8
    3c40:	4f5050ef          	jal	9934 <time_in_secs>
    3c44:	0000c3b7          	lui	t2,0xc
    3c48:	00050593          	mv	a1,a0
    3c4c:	6e438513          	addi	a0,t2,1764 # c6e4 <__modsi3+0x1e0>
    3c50:	545050ef          	jal	9994 <ee_printf>
    3c54:	000c0513          	mv	a0,s8
    3c58:	4dd050ef          	jal	9934 <time_in_secs>
    3c5c:	78051c63          	bnez	a0,43f4 <main+0xff8>
    3c60:	000c0513          	mv	a0,s8
    3c64:	4d1050ef          	jal	9934 <time_in_secs>
    3c68:	00900c13          	li	s8,9
    3c6c:	76ac7a63          	bgeu	s8,a0,43e0 <main+0xfe4>
    3c70:	02812803          	lw	a6,40(sp)
    3c74:	0004a883          	lw	a7,0(s1) # 10000 <default_num_contexts>
    3c78:	0000c537          	lui	a0,0xc
    3c7c:	75450513          	addi	a0,a0,1876 # c754 <__modsi3+0x250>
    3c80:	031805b3          	mul	a1,a6,a7
    3c84:	0000d437          	lui	s0,0xd
    3c88:	3c09aa0b          	th.ext	s4,s3,15,0
    3c8c:	509050ef          	jal	9994 <ee_printf>
    3c90:	0000ce37          	lui	t3,0xc
    3c94:	0000ceb7          	lui	t4,0xc
    3c98:	76ce0593          	addi	a1,t3,1900 # c76c <__modsi3+0x268>
    3c9c:	778e8513          	addi	a0,t4,1912 # c778 <__modsi3+0x274>
    3ca0:	4f5050ef          	jal	9994 <ee_printf>
    3ca4:	0000cf37          	lui	t5,0xc
    3ca8:	0000dfb7          	lui	t6,0xd
    3cac:	790f0593          	addi	a1,t5,1936 # c790 <__modsi3+0x28c>
    3cb0:	97cf8513          	addi	a0,t6,-1668 # c97c <__modsi3+0x478>
    3cb4:	4e1050ef          	jal	9994 <ee_printf>
    3cb8:	0000d737          	lui	a4,0xd
    3cbc:	99470593          	addi	a1,a4,-1644 # c994 <__modsi3+0x490>
    3cc0:	9a040513          	addi	a0,s0,-1632 # c9a0 <__modsi3+0x49c>
    3cc4:	4d1050ef          	jal	9994 <ee_printf>
    3cc8:	000a8593          	mv	a1,s5
    3ccc:	0000dab7          	lui	s5,0xd
    3cd0:	9b8a8513          	addi	a0,s5,-1608 # c9b8 <__modsi3+0x4b4>
    3cd4:	4c1050ef          	jal	9994 <ee_printf>
    3cd8:	02c12c03          	lw	s8,44(sp)
    3cdc:	001c7c93          	andi	s9,s8,1
    3ce0:	180c8c63          	beqz	s9,3e78 <main+0xa7c>
    3ce4:	0004a283          	lw	t0,0(s1)
    3ce8:	18028863          	beqz	t0,3e78 <main+0xa7c>
    3cec:	0000d337          	lui	t1,0xd
    3cf0:	9d430913          	addi	s2,t1,-1580 # c9d4 <__modsi3+0x4d0>
    3cf4:	00000c93          	li	s9,0
    3cf8:	004c9393          	slli	t2,s9,0x4
    3cfc:	019385b3          	add	a1,t2,s9
    3d00:	2025c633          	sh2add	a2,a1,sp
    3d04:	04665603          	lhu	a2,70(a2)
    3d08:	000c8593          	mv	a1,s9
    3d0c:	00090513          	mv	a0,s2
    3d10:	485050ef          	jal	9994 <ee_printf>
    3d14:	001c8693          	addi	a3,s9,1
    3d18:	3c06b98b          	th.extu	s3,a3,15,0
    3d1c:	0004ac03          	lw	s8,0(s1)
    3d20:	00499813          	slli	a6,s3,0x4
    3d24:	013808b3          	add	a7,a6,s3
    3d28:	05010e13          	addi	t3,sp,80
    3d2c:	00090513          	mv	a0,s2
    3d30:	21c8ceb3          	sh2add	t4,a7,t3
    3d34:	00098593          	mv	a1,s3
    3d38:	1389fe63          	bgeu	s3,s8,3e74 <main+0xa78>
    3d3c:	ff6ed603          	lhu	a2,-10(t4)
    3d40:	05010c93          	addi	s9,sp,80
    3d44:	451050ef          	jal	9994 <ee_printf>
    3d48:	00198f93          	addi	t6,s3,1
    3d4c:	3c0fb40b          	th.extu	s0,t6,15,0
    3d50:	0004af03          	lw	t5,0(s1)
    3d54:	00441713          	slli	a4,s0,0x4
    3d58:	00870ab3          	add	s5,a4,s0
    3d5c:	00090513          	mv	a0,s2
    3d60:	219ac2b3          	sh2add	t0,s5,s9
    3d64:	00040593          	mv	a1,s0
    3d68:	11e47663          	bgeu	s0,t5,3e74 <main+0xa78>
    3d6c:	ff62d603          	lhu	a2,-10(t0)
    3d70:	425050ef          	jal	9994 <ee_printf>
    3d74:	00140393          	addi	t2,s0,1
    3d78:	3c03bc0b          	th.extu	s8,t2,15,0
    3d7c:	0004a303          	lw	t1,0(s1)
    3d80:	004c1593          	slli	a1,s8,0x4
    3d84:	018587b3          	add	a5,a1,s8
    3d88:	05010613          	addi	a2,sp,80
    3d8c:	00090513          	mv	a0,s2
    3d90:	20c7c6b3          	sh2add	a3,a5,a2
    3d94:	000c0593          	mv	a1,s8
    3d98:	0c6c7e63          	bgeu	s8,t1,3e74 <main+0xa78>
    3d9c:	ff66d603          	lhu	a2,-10(a3)
    3da0:	3f5050ef          	jal	9994 <ee_printf>
    3da4:	001c0813          	addi	a6,s8,1
    3da8:	3c08340b          	th.extu	s0,a6,15,0
    3dac:	0004a983          	lw	s3,0(s1)
    3db0:	00441893          	slli	a7,s0,0x4
    3db4:	00888e33          	add	t3,a7,s0
    3db8:	05010e93          	addi	t4,sp,80
    3dbc:	00090513          	mv	a0,s2
    3dc0:	21de4f33          	sh2add	t5,t3,t4
    3dc4:	00040593          	mv	a1,s0
    3dc8:	0b347663          	bgeu	s0,s3,3e74 <main+0xa78>
    3dcc:	ff6f5603          	lhu	a2,-10(t5)
    3dd0:	3c5050ef          	jal	9994 <ee_printf>
    3dd4:	00140713          	addi	a4,s0,1
    3dd8:	3c073a8b          	th.extu	s5,a4,15,0
    3ddc:	0004af83          	lw	t6,0(s1)
    3de0:	004a9c93          	slli	s9,s5,0x4
    3de4:	015c82b3          	add	t0,s9,s5
    3de8:	05010313          	addi	t1,sp,80
    3dec:	00090513          	mv	a0,s2
    3df0:	2062c3b3          	sh2add	t2,t0,t1
    3df4:	000a8593          	mv	a1,s5
    3df8:	07fafe63          	bgeu	s5,t6,3e74 <main+0xa78>
    3dfc:	ff63d603          	lhu	a2,-10(t2)
    3e00:	395050ef          	jal	9994 <ee_printf>
    3e04:	001a8593          	addi	a1,s5,1
    3e08:	3c05b98b          	th.extu	s3,a1,15,0
    3e0c:	0004ac03          	lw	s8,0(s1)
    3e10:	00499793          	slli	a5,s3,0x4
    3e14:	01378633          	add	a2,a5,s3
    3e18:	05010693          	addi	a3,sp,80
    3e1c:	00090513          	mv	a0,s2
    3e20:	20d64833          	sh2add	a6,a2,a3
    3e24:	00098593          	mv	a1,s3
    3e28:	0589f663          	bgeu	s3,s8,3e74 <main+0xa78>
    3e2c:	ff685603          	lhu	a2,-10(a6)
    3e30:	00198413          	addi	s0,s3,1
    3e34:	3c043a8b          	th.extu	s5,s0,15,0
    3e38:	35d050ef          	jal	9994 <ee_printf>
    3e3c:	0004a883          	lw	a7,0(s1)
    3e40:	004a9e13          	slli	t3,s5,0x4
    3e44:	015e0eb3          	add	t4,t3,s5
    3e48:	05010f13          	addi	t5,sp,80
    3e4c:	00090513          	mv	a0,s2
    3e50:	21eecfb3          	sh2add	t6,t4,t5
    3e54:	000a8593          	mv	a1,s5
    3e58:	011afe63          	bgeu	s5,a7,3e74 <main+0xa78>
    3e5c:	ff6fd603          	lhu	a2,-10(t6)
    3e60:	335050ef          	jal	9994 <ee_printf>
    3e64:	0004a503          	lw	a0,0(s1)
    3e68:	001a8713          	addi	a4,s5,1
    3e6c:	3c073c8b          	th.extu	s9,a4,15,0
    3e70:	e8ace4e3          	bltu	s9,a0,3cf8 <main+0x8fc>
    3e74:	02c12c03          	lw	s8,44(sp)
    3e78:	002c7913          	andi	s2,s8,2
    3e7c:	18090c63          	beqz	s2,4014 <main+0xc18>
    3e80:	0004a283          	lw	t0,0(s1)
    3e84:	60028e63          	beqz	t0,44a0 <main+0x10a4>
    3e88:	0000d3b7          	lui	t2,0xd
    3e8c:	9f038c13          	addi	s8,t2,-1552 # c9f0 <__modsi3+0x4ec>
    3e90:	00000413          	li	s0,0
    3e94:	00441593          	slli	a1,s0,0x4
    3e98:	008589b3          	add	s3,a1,s0
    3e9c:	2029c633          	sh2add	a2,s3,sp
    3ea0:	04865603          	lhu	a2,72(a2)
    3ea4:	00040593          	mv	a1,s0
    3ea8:	000c0513          	mv	a0,s8
    3eac:	2e9050ef          	jal	9994 <ee_printf>
    3eb0:	00140693          	addi	a3,s0,1
    3eb4:	3c06b40b          	th.extu	s0,a3,15,0
    3eb8:	0004a803          	lw	a6,0(s1)
    3ebc:	00441893          	slli	a7,s0,0x4
    3ec0:	00888ab3          	add	s5,a7,s0
    3ec4:	05010e13          	addi	t3,sp,80
    3ec8:	000c0513          	mv	a0,s8
    3ecc:	21caceb3          	sh2add	t4,s5,t3
    3ed0:	00040593          	mv	a1,s0
    3ed4:	13047e63          	bgeu	s0,a6,4010 <main+0xc14>
    3ed8:	ff8ed603          	lhu	a2,-8(t4)
    3edc:	2b9050ef          	jal	9994 <ee_printf>
    3ee0:	00140f93          	addi	t6,s0,1
    3ee4:	3c0fbc8b          	th.extu	s9,t6,15,0
    3ee8:	0004af03          	lw	t5,0(s1)
    3eec:	004c9713          	slli	a4,s9,0x4
    3ef0:	01970933          	add	s2,a4,s9
    3ef4:	05010293          	addi	t0,sp,80
    3ef8:	000c0513          	mv	a0,s8
    3efc:	20594333          	sh2add	t1,s2,t0
    3f00:	000c8593          	mv	a1,s9
    3f04:	11ecf663          	bgeu	s9,t5,4010 <main+0xc14>
    3f08:	ff835603          	lhu	a2,-8(t1)
    3f0c:	289050ef          	jal	9994 <ee_printf>
    3f10:	001c8593          	addi	a1,s9,1
    3f14:	3c05b98b          	th.extu	s3,a1,15,0
    3f18:	0004a383          	lw	t2,0(s1)
    3f1c:	00499793          	slli	a5,s3,0x4
    3f20:	01378633          	add	a2,a5,s3
    3f24:	05010813          	addi	a6,sp,80
    3f28:	000c0513          	mv	a0,s8
    3f2c:	210646b3          	sh2add	a3,a2,a6
    3f30:	00098593          	mv	a1,s3
    3f34:	0c79fe63          	bgeu	s3,t2,4010 <main+0xc14>
    3f38:	ff86d603          	lhu	a2,-8(a3)
    3f3c:	00198413          	addi	s0,s3,1
    3f40:	3c043a8b          	th.extu	s5,s0,15,0
    3f44:	251050ef          	jal	9994 <ee_printf>
    3f48:	0004a883          	lw	a7,0(s1)
    3f4c:	004a9e13          	slli	t3,s5,0x4
    3f50:	015e0eb3          	add	t4,t3,s5
    3f54:	05010f13          	addi	t5,sp,80
    3f58:	000c0513          	mv	a0,s8
    3f5c:	21eecfb3          	sh2add	t6,t4,t5
    3f60:	000a8593          	mv	a1,s5
    3f64:	0b1af663          	bgeu	s5,a7,4010 <main+0xc14>
    3f68:	ff8fd603          	lhu	a2,-8(t6)
    3f6c:	229050ef          	jal	9994 <ee_printf>
    3f70:	001a8713          	addi	a4,s5,1
    3f74:	3c07390b          	th.extu	s2,a4,15,0
    3f78:	0004ac83          	lw	s9,0(s1)
    3f7c:	00491293          	slli	t0,s2,0x4
    3f80:	01228333          	add	t1,t0,s2
    3f84:	05010393          	addi	t2,sp,80
    3f88:	000c0513          	mv	a0,s8
    3f8c:	207349b3          	sh2add	s3,t1,t2
    3f90:	00090593          	mv	a1,s2
    3f94:	07997e63          	bgeu	s2,s9,4010 <main+0xc14>
    3f98:	ff89d603          	lhu	a2,-8(s3)
    3f9c:	1f9050ef          	jal	9994 <ee_printf>
    3fa0:	00190593          	addi	a1,s2,1
    3fa4:	3c05b40b          	th.extu	s0,a1,15,0
    3fa8:	0004a603          	lw	a2,0(s1)
    3fac:	00441793          	slli	a5,s0,0x4
    3fb0:	00878833          	add	a6,a5,s0
    3fb4:	05010693          	addi	a3,sp,80
    3fb8:	000c0513          	mv	a0,s8
    3fbc:	20d848b3          	sh2add	a7,a6,a3
    3fc0:	00040593          	mv	a1,s0
    3fc4:	04c47663          	bgeu	s0,a2,4010 <main+0xc14>
    3fc8:	ff88d603          	lhu	a2,-8(a7)
    3fcc:	1c9050ef          	jal	9994 <ee_printf>
    3fd0:	00140e13          	addi	t3,s0,1
    3fd4:	3c0e3c8b          	th.extu	s9,t3,15,0
    3fd8:	0004aa83          	lw	s5,0(s1)
    3fdc:	004c9e93          	slli	t4,s9,0x4
    3fe0:	019e8f33          	add	t5,t4,s9
    3fe4:	05010f93          	addi	t6,sp,80
    3fe8:	000c0513          	mv	a0,s8
    3fec:	21ff4733          	sh2add	a4,t5,t6
    3ff0:	000c8593          	mv	a1,s9
    3ff4:	015cfe63          	bgeu	s9,s5,4010 <main+0xc14>
    3ff8:	ff875603          	lhu	a2,-8(a4)
    3ffc:	001c8913          	addi	s2,s9,1
    4000:	3c09340b          	th.extu	s0,s2,15,0
    4004:	191050ef          	jal	9994 <ee_printf>
    4008:	0004a503          	lw	a0,0(s1)
    400c:	e8a464e3          	bltu	s0,a0,3e94 <main+0xa98>
    4010:	02c12c03          	lw	s8,44(sp)
    4014:	004c7293          	andi	t0,s8,4
    4018:	18028a63          	beqz	t0,41ac <main+0xdb0>
    401c:	0004a303          	lw	t1,0(s1)
    4020:	30030e63          	beqz	t1,433c <main+0xf40>
    4024:	0000d3b7          	lui	t2,0xd
    4028:	a0c38993          	addi	s3,t2,-1524 # ca0c <__modsi3+0x508>
    402c:	00000a93          	li	s5,0
    4030:	004a9613          	slli	a2,s5,0x4
    4034:	015605b3          	add	a1,a2,s5
    4038:	2025c833          	sh2add	a6,a1,sp
    403c:	04a85603          	lhu	a2,74(a6)
    4040:	000a8593          	mv	a1,s5
    4044:	00098513          	mv	a0,s3
    4048:	14d050ef          	jal	9994 <ee_printf>
    404c:	001a8693          	addi	a3,s5,1
    4050:	3c06ba8b          	th.extu	s5,a3,15,0
    4054:	0004a883          	lw	a7,0(s1)
    4058:	004a9e13          	slli	t3,s5,0x4
    405c:	015e0cb3          	add	s9,t3,s5
    4060:	05010e93          	addi	t4,sp,80
    4064:	00098513          	mv	a0,s3
    4068:	21dccf33          	sh2add	t5,s9,t4
    406c:	000a8593          	mv	a1,s5
    4070:	131afe63          	bgeu	s5,a7,41ac <main+0xdb0>
    4074:	ffaf5603          	lhu	a2,-6(t5)
    4078:	11d050ef          	jal	9994 <ee_printf>
    407c:	001a8713          	addi	a4,s5,1
    4080:	3c07390b          	th.extu	s2,a4,15,0
    4084:	0004af83          	lw	t6,0(s1)
    4088:	00491413          	slli	s0,s2,0x4
    408c:	01240c33          	add	s8,s0,s2
    4090:	05010293          	addi	t0,sp,80
    4094:	00098513          	mv	a0,s3
    4098:	205c4333          	sh2add	t1,s8,t0
    409c:	00090593          	mv	a1,s2
    40a0:	11f97663          	bgeu	s2,t6,41ac <main+0xdb0>
    40a4:	ffa35603          	lhu	a2,-6(t1)
    40a8:	0ed050ef          	jal	9994 <ee_printf>
    40ac:	00190613          	addi	a2,s2,1
    40b0:	3c063a8b          	th.extu	s5,a2,15,0
    40b4:	0004a383          	lw	t2,0(s1)
    40b8:	004a9593          	slli	a1,s5,0x4
    40bc:	015587b3          	add	a5,a1,s5
    40c0:	05010813          	addi	a6,sp,80
    40c4:	00098513          	mv	a0,s3
    40c8:	2107c8b3          	sh2add	a7,a5,a6
    40cc:	000a8593          	mv	a1,s5
    40d0:	0c7afe63          	bgeu	s5,t2,41ac <main+0xdb0>
    40d4:	ffa8d603          	lhu	a2,-6(a7)
    40d8:	0bd050ef          	jal	9994 <ee_printf>
    40dc:	001a8693          	addi	a3,s5,1
    40e0:	3c06bc8b          	th.extu	s9,a3,15,0
    40e4:	0004ae03          	lw	t3,0(s1)
    40e8:	004c9e93          	slli	t4,s9,0x4
    40ec:	019e8f33          	add	t5,t4,s9
    40f0:	05010f93          	addi	t6,sp,80
    40f4:	00098513          	mv	a0,s3
    40f8:	21ff4733          	sh2add	a4,t5,t6
    40fc:	000c8593          	mv	a1,s9
    4100:	0bccf663          	bgeu	s9,t3,41ac <main+0xdb0>
    4104:	ffa75603          	lhu	a2,-6(a4)
    4108:	001c8413          	addi	s0,s9,1
    410c:	3c043c0b          	th.extu	s8,s0,15,0
    4110:	085050ef          	jal	9994 <ee_printf>
    4114:	0004a903          	lw	s2,0(s1)
    4118:	004c1293          	slli	t0,s8,0x4
    411c:	01828333          	add	t1,t0,s8
    4120:	05010393          	addi	t2,sp,80
    4124:	00098513          	mv	a0,s3
    4128:	20734633          	sh2add	a2,t1,t2
    412c:	000c0593          	mv	a1,s8
    4130:	072c7e63          	bgeu	s8,s2,41ac <main+0xdb0>
    4134:	ffa65603          	lhu	a2,-6(a2)
    4138:	05d050ef          	jal	9994 <ee_printf>
    413c:	001c0593          	addi	a1,s8,1
    4140:	3c05bc8b          	th.extu	s9,a1,15,0
    4144:	0004aa83          	lw	s5,0(s1)
    4148:	004c9793          	slli	a5,s9,0x4
    414c:	01978833          	add	a6,a5,s9
    4150:	05010893          	addi	a7,sp,80
    4154:	00098513          	mv	a0,s3
    4158:	21184e33          	sh2add	t3,a6,a7
    415c:	000c8593          	mv	a1,s9
    4160:	055cf663          	bgeu	s9,s5,41ac <main+0xdb0>
    4164:	ffae5603          	lhu	a2,-6(t3)
    4168:	02d050ef          	jal	9994 <ee_printf>
    416c:	001c8693          	addi	a3,s9,1
    4170:	3c06b90b          	th.extu	s2,a3,15,0
    4174:	0004ae83          	lw	t4,0(s1)
    4178:	00491f13          	slli	t5,s2,0x4
    417c:	012f0fb3          	add	t6,t5,s2
    4180:	05010713          	addi	a4,sp,80
    4184:	00098513          	mv	a0,s3
    4188:	20efc433          	sh2add	s0,t6,a4
    418c:	00090593          	mv	a1,s2
    4190:	01d97e63          	bgeu	s2,t4,41ac <main+0xdb0>
    4194:	ffa45603          	lhu	a2,-6(s0)
    4198:	00190c13          	addi	s8,s2,1
    419c:	3c0c3a8b          	th.extu	s5,s8,15,0
    41a0:	7f4050ef          	jal	9994 <ee_printf>
    41a4:	0004a503          	lw	a0,0(s1)
    41a8:	e8aae4e3          	bltu	s5,a0,4030 <main+0xc34>
    41ac:	0004a983          	lw	s3,0(s1)
    41b0:	18098663          	beqz	s3,433c <main+0xf40>
    41b4:	0000d2b7          	lui	t0,0xd
    41b8:	a2828c93          	addi	s9,t0,-1496 # ca28 <__modsi3+0x524>
    41bc:	00000a93          	li	s5,0
    41c0:	004a9313          	slli	t1,s5,0x4
    41c4:	015303b3          	add	t2,t1,s5
    41c8:	2023c5b3          	sh2add	a1,t2,sp
    41cc:	0445d603          	lhu	a2,68(a1)
    41d0:	000c8513          	mv	a0,s9
    41d4:	000a8593          	mv	a1,s5
    41d8:	7bc050ef          	jal	9994 <ee_printf>
    41dc:	001a8793          	addi	a5,s5,1
    41e0:	3c07b90b          	th.extu	s2,a5,15,0
    41e4:	0004a803          	lw	a6,0(s1)
    41e8:	00491893          	slli	a7,s2,0x4
    41ec:	01288e33          	add	t3,a7,s2
    41f0:	05010e93          	addi	t4,sp,80
    41f4:	000c8513          	mv	a0,s9
    41f8:	21de46b3          	sh2add	a3,t3,t4
    41fc:	00090593          	mv	a1,s2
    4200:	13097e63          	bgeu	s2,a6,433c <main+0xf40>
    4204:	ff46d603          	lhu	a2,-12(a3)
    4208:	05010a93          	addi	s5,sp,80
    420c:	788050ef          	jal	9994 <ee_printf>
    4210:	00190f93          	addi	t6,s2,1
    4214:	3c0fb40b          	th.extu	s0,t6,15,0
    4218:	0004af03          	lw	t5,0(s1)
    421c:	00441713          	slli	a4,s0,0x4
    4220:	00870c33          	add	s8,a4,s0
    4224:	000c8513          	mv	a0,s9
    4228:	215c49b3          	sh2add	s3,s8,s5
    422c:	00040593          	mv	a1,s0
    4230:	11e47663          	bgeu	s0,t5,433c <main+0xf40>
    4234:	ff49d603          	lhu	a2,-12(s3)
    4238:	75c050ef          	jal	9994 <ee_printf>
    423c:	00140313          	addi	t1,s0,1
    4240:	3c03390b          	th.extu	s2,t1,15,0
    4244:	0004a283          	lw	t0,0(s1)
    4248:	00491393          	slli	t2,s2,0x4
    424c:	05010593          	addi	a1,sp,80
    4250:	01238633          	add	a2,t2,s2
    4254:	20b64833          	sh2add	a6,a2,a1
    4258:	000c8513          	mv	a0,s9
    425c:	00090593          	mv	a1,s2
    4260:	0c597e63          	bgeu	s2,t0,433c <main+0xf40>
    4264:	ff485603          	lhu	a2,-12(a6)
    4268:	72c050ef          	jal	9994 <ee_printf>
    426c:	00190793          	addi	a5,s2,1
    4270:	3c07b40b          	th.extu	s0,a5,15,0
    4274:	0004a883          	lw	a7,0(s1)
    4278:	00441e13          	slli	t3,s0,0x4
    427c:	008e0eb3          	add	t4,t3,s0
    4280:	05010693          	addi	a3,sp,80
    4284:	000c8513          	mv	a0,s9
    4288:	20decf33          	sh2add	t5,t4,a3
    428c:	00040593          	mv	a1,s0
    4290:	0b147663          	bgeu	s0,a7,433c <main+0xf40>
    4294:	ff4f5603          	lhu	a2,-12(t5)
    4298:	6fc050ef          	jal	9994 <ee_printf>
    429c:	00140713          	addi	a4,s0,1
    42a0:	3c073c0b          	th.extu	s8,a4,15,0
    42a4:	0004af83          	lw	t6,0(s1)
    42a8:	004c1a93          	slli	s5,s8,0x4
    42ac:	018a89b3          	add	s3,s5,s8
    42b0:	05010293          	addi	t0,sp,80
    42b4:	000c8513          	mv	a0,s9
    42b8:	2059c333          	sh2add	t1,s3,t0
    42bc:	000c0593          	mv	a1,s8
    42c0:	07fc7e63          	bgeu	s8,t6,433c <main+0xf40>
    42c4:	ff435603          	lhu	a2,-12(t1)
    42c8:	6cc050ef          	jal	9994 <ee_printf>
    42cc:	001c0393          	addi	t2,s8,1
    42d0:	3c03b40b          	th.extu	s0,t2,15,0
    42d4:	0004a903          	lw	s2,0(s1)
    42d8:	00441613          	slli	a2,s0,0x4
    42dc:	008605b3          	add	a1,a2,s0
    42e0:	05010813          	addi	a6,sp,80
    42e4:	2105c8b3          	sh2add	a7,a1,a6
    42e8:	000c8513          	mv	a0,s9
    42ec:	00040593          	mv	a1,s0
    42f0:	05247663          	bgeu	s0,s2,433c <main+0xf40>
    42f4:	ff48d603          	lhu	a2,-12(a7)
    42f8:	69c050ef          	jal	9994 <ee_printf>
    42fc:	00140793          	addi	a5,s0,1
    4300:	3c07bc0b          	th.extu	s8,a5,15,0
    4304:	0004ae03          	lw	t3,0(s1)
    4308:	004c1e93          	slli	t4,s8,0x4
    430c:	018e8f33          	add	t5,t4,s8
    4310:	05010693          	addi	a3,sp,80
    4314:	000c8513          	mv	a0,s9
    4318:	20df4fb3          	sh2add	t6,t5,a3
    431c:	000c0593          	mv	a1,s8
    4320:	01cc7e63          	bgeu	s8,t3,433c <main+0xf40>
    4324:	ff4fd603          	lhu	a2,-12(t6)
    4328:	66c050ef          	jal	9994 <ee_printf>
    432c:	0004a503          	lw	a0,0(s1)
    4330:	001c0713          	addi	a4,s8,1
    4334:	3c073a8b          	th.extu	s5,a4,15,0
    4338:	e8aae4e3          	bltu	s5,a0,41c0 <main+0xdc4>
    433c:	080a0a63          	beqz	s4,43d0 <main+0xfd4>
    4340:	0f405463          	blez	s4,4428 <main+0x102c>
    4344:	0000da37          	lui	s4,0xd
    4348:	af4a0513          	addi	a0,s4,-1292 # caf4 <__modsi3+0x5f0>
    434c:	648050ef          	jal	9994 <ee_printf>
    4350:	04e10513          	addi	a0,sp,78
    4354:	614050ef          	jal	9968 <portable_fini>
    4358:	08c12083          	lw	ra,140(sp)
    435c:	08812403          	lw	s0,136(sp)
    4360:	08412483          	lw	s1,132(sp)
    4364:	08012903          	lw	s2,128(sp)
    4368:	07c12983          	lw	s3,124(sp)
    436c:	07812a03          	lw	s4,120(sp)
    4370:	07412a83          	lw	s5,116(sp)
    4374:	06812c03          	lw	s8,104(sp)
    4378:	06412c83          	lw	s9,100(sp)
    437c:	00000513          	li	a0,0
    4380:	09010113          	addi	sp,sp,144
    4384:	00008067          	ret
    4388:	00010cb7          	lui	s9,0x10
    438c:	fffc8913          	addi	s2,s9,-1 # ffff <_data_load_start+0x2f57>
    4390:	000104b7          	lui	s1,0x10
    4394:	881ff06f          	j	3c14 <main+0x818>
    4398:	01512c23          	sw	s5,24(sp)
    439c:	00400413          	li	s0,4
    43a0:	a4cff06f          	j	35ec <main+0x1f0>
    43a4:	01512c23          	sw	s5,24(sp)
    43a8:	92cff06f          	j	34d4 <main+0xd8>
    43ac:	0000ce37          	lui	t3,0xc
    43b0:	684e0513          	addi	a0,t3,1668 # c684 <__modsi3+0x180>
    43b4:	00040593          	mv	a1,s0
    43b8:	5dc050ef          	jal	9994 <ee_printf>
    43bc:	ffc9de83          	lhu	t4,-4(s3)
    43c0:	001e8f13          	addi	t5,t4,1
    43c4:	3c0f3f8b          	th.extu	t6,t5,15,0
    43c8:	fff99e23          	sh	t6,-4(s3)
    43cc:	f3cff06f          	j	3b08 <main+0x70c>
    43d0:	0000dcb7          	lui	s9,0xd
    43d4:	a44c8513          	addi	a0,s9,-1468 # ca44 <__modsi3+0x540>
    43d8:	5bc050ef          	jal	9994 <ee_printf>
    43dc:	f75ff06f          	j	4350 <main+0xf54>
    43e0:	0000c6b7          	lui	a3,0xc
    43e4:	71468513          	addi	a0,a3,1812 # c714 <__modsi3+0x210>
    43e8:	5ac050ef          	jal	9994 <ee_printf>
    43ec:	00198993          	addi	s3,s3,1
    43f0:	881ff06f          	j	3c70 <main+0x874>
    43f4:	02812583          	lw	a1,40(sp)
    43f8:	0004a783          	lw	a5,0(s1) # 10000 <default_num_contexts>
    43fc:	000c0513          	mv	a0,s8
    4400:	02f58933          	mul	s2,a1,a5
    4404:	530050ef          	jal	9934 <time_in_secs>
    4408:	00050593          	mv	a1,a0
    440c:	00090513          	mv	a0,s2
    4410:	078080ef          	jal	c488 <__hidden___udivsi3>
    4414:	0000c637          	lui	a2,0xc
    4418:	00050593          	mv	a1,a0
    441c:	6fc60513          	addi	a0,a2,1788 # c6fc <__modsi3+0x1f8>
    4420:	574050ef          	jal	9994 <ee_printf>
    4424:	83dff06f          	j	3c60 <main+0x864>
    4428:	0000d4b7          	lui	s1,0xd
    442c:	a9048513          	addi	a0,s1,-1392 # ca90 <__modsi3+0x58c>
    4430:	564050ef          	jal	9994 <ee_printf>
    4434:	f1dff06f          	j	4350 <main+0xf54>
    4438:	0000c637          	lui	a2,0xc
    443c:	5f460513          	addi	a0,a2,1524 # c5f4 <__modsi3+0xf0>
    4440:	554050ef          	jal	9994 <ee_printf>
    4444:	00400c93          	li	s9,4
    4448:	e74ff06f          	j	3abc <main+0x6c0>
    444c:	0000c4b7          	lui	s1,0xc
    4450:	56448513          	addi	a0,s1,1380 # c564 <__modsi3+0x60>
    4454:	540050ef          	jal	9994 <ee_printf>
    4458:	00100c93          	li	s9,1
    445c:	e60ff06f          	j	3abc <main+0x6c0>
    4460:	0000c2b7          	lui	t0,0xc
    4464:	53428513          	addi	a0,t0,1332 # c534 <__modsi3+0x30>
    4468:	52c050ef          	jal	9994 <ee_printf>
    446c:	00000c93          	li	s9,0
    4470:	e4cff06f          	j	3abc <main+0x6c0>
    4474:	01011283          	lh	t0,16(sp)
    4478:	00028463          	beqz	t0,4480 <main+0x1084>
    447c:	814ff06f          	j	3490 <main+0x94>
    4480:	34153337          	lui	t1,0x34153
    4484:	41530393          	addi	t2,t1,1045 # 34153415 <_stack_top+0x3413f415>
    4488:	06600413          	li	s0,102
    448c:	00712623          	sw	t2,12(sp)
    4490:	00811823          	sh	s0,16(sp)
    4494:	ffdfe06f          	j	3490 <main+0x94>
    4498:	00000913          	li	s2,0
    449c:	f78ff06f          	j	3c14 <main+0x818>
    44a0:	004c7313          	andi	t1,s8,4
    44a4:	d00304e3          	beqz	t1,41ac <main+0xdb0>
    44a8:	e95ff06f          	j	433c <main+0xf40>

000044ac <core_bench_matrix>:
    44ac:	00052803          	lw	a6,0(a0)
    44b0:	fc010113          	addi	sp,sp,-64
    44b4:	01b12623          	sw	s11,12(sp)
    44b8:	02112e23          	sw	ra,60(sp)
    44bc:	00060d93          	mv	s11,a2
    44c0:	00081463          	bnez	a6,44c8 <core_bench_matrix+0x1c>
    44c4:	7580106f          	j	5c1c <core_bench_matrix+0x1770>
    44c8:	03412423          	sw	s4,40(sp)
    44cc:	00452a03          	lw	s4,4(a0)
    44d0:	03512223          	sw	s5,36(sp)
    44d4:	01912a23          	sw	s9,20(sp)
    44d8:	00852a83          	lw	s5,8(a0)
    44dc:	00c52c83          	lw	s9,12(a0)
    44e0:	03212823          	sw	s2,48(sp)
    44e4:	01812c23          	sw	s8,24(sp)
    44e8:	fffff937          	lui	s2,0xfffff
    44ec:	21482c33          	sh1add	s8,a6,s4
    44f0:	02812c23          	sw	s0,56(sp)
    44f4:	03312623          	sw	s3,44(sp)
    44f8:	01a12823          	sw	s10,16(sp)
    44fc:	02912a23          	sw	s1,52(sp)
    4500:	03612023          	sw	s6,32(sp)
    4504:	01712e23          	sw	s7,28(sp)
    4508:	00058993          	mv	s3,a1
    450c:	0125e933          	or	s2,a1,s2
    4510:	000c0693          	mv	a3,s8
    4514:	00181413          	slli	s0,a6,0x1
    4518:	00000d13          	li	s10,0
    451c:	ffe40713          	addi	a4,s0,-2
    4520:	00175293          	srli	t0,a4,0x1
    4524:	00128313          	addi	t1,t0,1
    4528:	00737393          	andi	t2,t1,7
    452c:	408687b3          	sub	a5,a3,s0
    4530:	0a038463          	beqz	t2,45d8 <core_bench_matrix+0x12c>
    4534:	00100613          	li	a2,1
    4538:	08c38663          	beq	t2,a2,45c4 <core_bench_matrix+0x118>
    453c:	00200493          	li	s1,2
    4540:	06938a63          	beq	t2,s1,45b4 <core_bench_matrix+0x108>
    4544:	00300513          	li	a0,3
    4548:	04a38e63          	beq	t2,a0,45a4 <core_bench_matrix+0xf8>
    454c:	00400593          	li	a1,4
    4550:	04b38263          	beq	t2,a1,4594 <core_bench_matrix+0xe8>
    4554:	00500893          	li	a7,5
    4558:	03138663          	beq	t2,a7,4584 <core_bench_matrix+0xd8>
    455c:	00600b13          	li	s6,6
    4560:	01638a63          	beq	t2,s6,4574 <core_bench_matrix+0xc8>
    4564:	0007db83          	lhu	s7,0(a5)
    4568:	00278793          	addi	a5,a5,2
    456c:	01798e33          	add	t3,s3,s7
    4570:	ffc79f23          	sh	t3,-2(a5)
    4574:	0007de83          	lhu	t4,0(a5)
    4578:	00278793          	addi	a5,a5,2
    457c:	01d98f33          	add	t5,s3,t4
    4580:	ffe79f23          	sh	t5,-2(a5)
    4584:	0007df83          	lhu	t6,0(a5)
    4588:	00278793          	addi	a5,a5,2
    458c:	01f98733          	add	a4,s3,t6
    4590:	fee79f23          	sh	a4,-2(a5)
    4594:	0007d283          	lhu	t0,0(a5)
    4598:	00278793          	addi	a5,a5,2
    459c:	00598333          	add	t1,s3,t0
    45a0:	fe679f23          	sh	t1,-2(a5)
    45a4:	0007d383          	lhu	t2,0(a5)
    45a8:	00278793          	addi	a5,a5,2
    45ac:	00798633          	add	a2,s3,t2
    45b0:	fec79f23          	sh	a2,-2(a5)
    45b4:	0007d483          	lhu	s1,0(a5)
    45b8:	00278793          	addi	a5,a5,2
    45bc:	00998533          	add	a0,s3,s1
    45c0:	fea79f23          	sh	a0,-2(a5)
    45c4:	0007d583          	lhu	a1,0(a5)
    45c8:	00278793          	addi	a5,a5,2
    45cc:	00b988b3          	add	a7,s3,a1
    45d0:	ff179f23          	sh	a7,-2(a5)
    45d4:	06d78663          	beq	a5,a3,4640 <core_bench_matrix+0x194>
    45d8:	0007db03          	lhu	s6,0(a5)
    45dc:	0027db83          	lhu	s7,2(a5)
    45e0:	0047df03          	lhu	t5,4(a5)
    45e4:	0067df83          	lhu	t6,6(a5)
    45e8:	0087d283          	lhu	t0,8(a5)
    45ec:	00a7d383          	lhu	t2,10(a5)
    45f0:	00c7d603          	lhu	a2,12(a5)
    45f4:	00e7d703          	lhu	a4,14(a5)
    45f8:	01698eb3          	add	t4,s3,s6
    45fc:	01798e33          	add	t3,s3,s7
    4600:	01e98333          	add	t1,s3,t5
    4604:	01f984b3          	add	s1,s3,t6
    4608:	00598533          	add	a0,s3,t0
    460c:	007985b3          	add	a1,s3,t2
    4610:	00c988b3          	add	a7,s3,a2
    4614:	00e98b33          	add	s6,s3,a4
    4618:	01d79023          	sh	t4,0(a5)
    461c:	01c79123          	sh	t3,2(a5)
    4620:	00679223          	sh	t1,4(a5)
    4624:	00979323          	sh	s1,6(a5)
    4628:	00a79423          	sh	a0,8(a5)
    462c:	00b79523          	sh	a1,10(a5)
    4630:	01179623          	sh	a7,12(a5)
    4634:	01679723          	sh	s6,14(a5)
    4638:	01078793          	addi	a5,a5,16
    463c:	f8d79ee3          	bne	a5,a3,45d8 <core_bench_matrix+0x12c>
    4640:	001d0493          	addi	s1,s10,1
    4644:	008786b3          	add	a3,a5,s0
    4648:	00980663          	beq	a6,s1,4654 <core_bench_matrix+0x1a8>
    464c:	00048d13          	mv	s10,s1
    4650:	ecdff06f          	j	451c <core_bench_matrix+0x70>
    4654:	00249b93          	slli	s7,s1,0x2
    4658:	000c8b13          	mv	s6,s9
    465c:	000c8613          	mv	a2,s9
    4660:	000a0693          	mv	a3,s4
    4664:	00000313          	li	t1,0
    4668:	0074f813          	andi	a6,s1,7
    466c:	00000793          	li	a5,0
    4670:	0a080463          	beqz	a6,4718 <core_bench_matrix+0x26c>
    4674:	00100f13          	li	t5,1
    4678:	09e80663          	beq	a6,t5,4704 <core_bench_matrix+0x258>
    467c:	00200f93          	li	t6,2
    4680:	07f80a63          	beq	a6,t6,46f4 <core_bench_matrix+0x248>
    4684:	00300293          	li	t0,3
    4688:	04580e63          	beq	a6,t0,46e4 <core_bench_matrix+0x238>
    468c:	00400393          	li	t2,4
    4690:	04780263          	beq	a6,t2,46d4 <core_bench_matrix+0x228>
    4694:	00500713          	li	a4,5
    4698:	02e80663          	beq	a6,a4,46c4 <core_bench_matrix+0x218>
    469c:	00600e93          	li	t4,6
    46a0:	01d80a63          	beq	a6,t4,46b4 <core_bench_matrix+0x208>
    46a4:	00069e03          	lh	t3,0(a3)
    46a8:	000f0793          	mv	a5,t5
    46ac:	033e0533          	mul	a0,t3,s3
    46b0:	00a62023          	sw	a0,0(a2)
    46b4:	22f6c58b          	th.lrh	a1,a3,a5,1
    46b8:	033588b3          	mul	a7,a1,s3
    46bc:	44f6588b          	th.srw	a7,a2,a5,2
    46c0:	00178793          	addi	a5,a5,1
    46c4:	22f6c80b          	th.lrh	a6,a3,a5,1
    46c8:	03380f33          	mul	t5,a6,s3
    46cc:	44f65f0b          	th.srw	t5,a2,a5,2
    46d0:	00178793          	addi	a5,a5,1
    46d4:	22f6cf8b          	th.lrh	t6,a3,a5,1
    46d8:	033f82b3          	mul	t0,t6,s3
    46dc:	44f6528b          	th.srw	t0,a2,a5,2
    46e0:	00178793          	addi	a5,a5,1
    46e4:	22f6c38b          	th.lrh	t2,a3,a5,1
    46e8:	03338733          	mul	a4,t2,s3
    46ec:	44f6570b          	th.srw	a4,a2,a5,2
    46f0:	00178793          	addi	a5,a5,1
    46f4:	22f6ce8b          	th.lrh	t4,a3,a5,1
    46f8:	033e8e33          	mul	t3,t4,s3
    46fc:	44f65e0b          	th.srw	t3,a2,a5,2
    4700:	00178793          	addi	a5,a5,1
    4704:	22f6c50b          	th.lrh	a0,a3,a5,1
    4708:	033505b3          	mul	a1,a0,s3
    470c:	44f6558b          	th.srw	a1,a2,a5,2
    4710:	00178793          	addi	a5,a5,1
    4714:	08978463          	beq	a5,s1,479c <core_bench_matrix+0x2f0>
    4718:	22f6c88b          	th.lrh	a7,a3,a5,1
    471c:	00178393          	addi	t2,a5,1
    4720:	2276ce8b          	th.lrh	t4,a3,t2,1
    4724:	03388533          	mul	a0,a7,s3
    4728:	00278e13          	addi	t3,a5,2
    472c:	23c6c70b          	th.lrh	a4,a3,t3,1
    4730:	00378293          	addi	t0,a5,3
    4734:	2256c88b          	th.lrh	a7,a3,t0,1
    4738:	00478f93          	addi	t6,a5,4
    473c:	23f6c80b          	th.lrh	a6,a3,t6,1
    4740:	00578f13          	addi	t5,a5,5
    4744:	033e85b3          	mul	a1,t4,s3
    4748:	44f6550b          	th.srw	a0,a2,a5,2
    474c:	23e6c50b          	th.lrh	a0,a3,t5,1
    4750:	00678e93          	addi	t4,a5,6
    4754:	4476558b          	th.srw	a1,a2,t2,2
    4758:	033703b3          	mul	t2,a4,s3
    475c:	23d6c58b          	th.lrh	a1,a3,t4,1
    4760:	033888b3          	mul	a7,a7,s3
    4764:	45c6538b          	th.srw	t2,a2,t3,2
    4768:	00778e13          	addi	t3,a5,7
    476c:	23c6c70b          	th.lrh	a4,a3,t3,1
    4770:	00878793          	addi	a5,a5,8
    4774:	4456588b          	th.srw	a7,a2,t0,2
    4778:	033802b3          	mul	t0,a6,s3
    477c:	03350833          	mul	a6,a0,s3
    4780:	45f6528b          	th.srw	t0,a2,t6,2
    4784:	03358fb3          	mul	t6,a1,s3
    4788:	45e6580b          	th.srw	a6,a2,t5,2
    478c:	03370f33          	mul	t5,a4,s3
    4790:	45d65f8b          	th.srw	t6,a2,t4,2
    4794:	45c65f0b          	th.srw	t5,a2,t3,2
    4798:	f89790e3          	bne	a5,s1,4718 <core_bench_matrix+0x26c>
    479c:	008686b3          	add	a3,a3,s0
    47a0:	01760633          	add	a2,a2,s7
    47a4:	01a30663          	beq	t1,s10,47b0 <core_bench_matrix+0x304>
    47a8:	00130313          	addi	t1,t1,1
    47ac:	ebdff06f          	j	4668 <core_bench_matrix+0x1bc>
    47b0:	017c8633          	add	a2,s9,s7
    47b4:	00000813          	li	a6,0
    47b8:	00000793          	li	a5,0
    47bc:	00000513          	li	a0,0
    47c0:	00000593          	li	a1,0
    47c4:	ffcb8313          	addi	t1,s7,-4
    47c8:	00235393          	srli	t2,t1,0x2
    47cc:	00138e93          	addi	t4,t2,1
    47d0:	007efe13          	andi	t3,t4,7
    47d4:	41760733          	sub	a4,a2,s7
    47d8:	1c0e0463          	beqz	t3,49a0 <core_bench_matrix+0x4f4>
    47dc:	00100893          	li	a7,1
    47e0:	0f1e0463          	beq	t3,a7,48c8 <core_bench_matrix+0x41c>
    47e4:	00200293          	li	t0,2
    47e8:	0c5e0063          	beq	t3,t0,48a8 <core_bench_matrix+0x3fc>
    47ec:	00300f93          	li	t6,3
    47f0:	09fe0e63          	beq	t3,t6,488c <core_bench_matrix+0x3e0>
    47f4:	00400f13          	li	t5,4
    47f8:	07ee0a63          	beq	t3,t5,486c <core_bench_matrix+0x3c0>
    47fc:	00500693          	li	a3,5
    4800:	04de0663          	beq	t3,a3,484c <core_bench_matrix+0x3a0>
    4804:	00600313          	li	t1,6
    4808:	026e0263          	beq	t3,t1,482c <core_bench_matrix+0x380>
    480c:	00080393          	mv	t2,a6
    4810:	00072803          	lw	a6,0(a4)
    4814:	010787b3          	add	a5,a5,a6
    4818:	00f94463          	blt	s2,a5,4820 <core_bench_matrix+0x374>
    481c:	3cc0106f          	j	5be8 <core_bench_matrix+0x173c>
    4820:	00a50513          	addi	a0,a0,10
    4824:	00000793          	li	a5,0
    4828:	00470713          	addi	a4,a4,4
    482c:	00080e13          	mv	t3,a6
    4830:	00072803          	lw	a6,0(a4)
    4834:	010787b3          	add	a5,a5,a6
    4838:	24f95663          	bge	s2,a5,4a84 <core_bench_matrix+0x5d8>
    483c:	00a50293          	addi	t0,a0,10
    4840:	00000793          	li	a5,0
    4844:	00028513          	mv	a0,t0
    4848:	00470713          	addi	a4,a4,4
    484c:	00080f93          	mv	t6,a6
    4850:	00072803          	lw	a6,0(a4)
    4854:	010787b3          	add	a5,a5,a6
    4858:	22f95063          	bge	s2,a5,4a78 <core_bench_matrix+0x5cc>
    485c:	00a50693          	addi	a3,a0,10
    4860:	00000793          	li	a5,0
    4864:	00068513          	mv	a0,a3
    4868:	00470713          	addi	a4,a4,4
    486c:	00080313          	mv	t1,a6
    4870:	00072803          	lw	a6,0(a4)
    4874:	010787b3          	add	a5,a5,a6
    4878:	1ef95a63          	bge	s2,a5,4a6c <core_bench_matrix+0x5c0>
    487c:	00a50e93          	addi	t4,a0,10
    4880:	00000793          	li	a5,0
    4884:	000e8513          	mv	a0,t4
    4888:	00470713          	addi	a4,a4,4
    488c:	00080e13          	mv	t3,a6
    4890:	00072803          	lw	a6,0(a4)
    4894:	010787b3          	add	a5,a5,a6
    4898:	1cf95463          	bge	s2,a5,4a60 <core_bench_matrix+0x5b4>
    489c:	00a50513          	addi	a0,a0,10
    48a0:	00000793          	li	a5,0
    48a4:	00470713          	addi	a4,a4,4
    48a8:	00080293          	mv	t0,a6
    48ac:	00072803          	lw	a6,0(a4)
    48b0:	010787b3          	add	a5,a5,a6
    48b4:	1af95063          	bge	s2,a5,4a54 <core_bench_matrix+0x5a8>
    48b8:	00a50f13          	addi	t5,a0,10
    48bc:	00000793          	li	a5,0
    48c0:	000f0513          	mv	a0,t5
    48c4:	00470713          	addi	a4,a4,4
    48c8:	00080693          	mv	a3,a6
    48cc:	00072803          	lw	a6,0(a4)
    48d0:	010787b3          	add	a5,a5,a6
    48d4:	16f95a63          	bge	s2,a5,4a48 <core_bench_matrix+0x59c>
    48d8:	00a50393          	addi	t2,a0,10
    48dc:	00000793          	li	a5,0
    48e0:	00470713          	addi	a4,a4,4
    48e4:	3c03a50b          	th.ext	a0,t2,15,0
    48e8:	0ae61c63          	bne	a2,a4,49a0 <core_bench_matrix+0x4f4>
    48ec:	01760633          	add	a2,a2,s7
    48f0:	1ba58063          	beq	a1,s10,4a90 <core_bench_matrix+0x5e4>
    48f4:	00158593          	addi	a1,a1,1
    48f8:	ecdff06f          	j	47c4 <core_bench_matrix+0x318>
    48fc:	00472283          	lw	t0,4(a4)
    4900:	01d82833          	slt	a6,a6,t4
    4904:	01050e33          	add	t3,a0,a6
    4908:	00578fb3          	add	t6,a5,t0
    490c:	00470713          	addi	a4,a4,4
    4910:	0bf95a63          	bge	s2,t6,49c4 <core_bench_matrix+0x518>
    4914:	00472503          	lw	a0,4(a4)
    4918:	00000f93          	li	t6,0
    491c:	00ae0f13          	addi	t5,t3,10
    4920:	00af8333          	add	t1,t6,a0
    4924:	0a695a63          	bge	s2,t1,49d8 <core_bench_matrix+0x52c>
    4928:	00872e83          	lw	t4,8(a4)
    492c:	00000313          	li	t1,0
    4930:	00af0393          	addi	t2,t5,10
    4934:	01d30833          	add	a6,t1,t4
    4938:	0b095a63          	bge	s2,a6,49ec <core_bench_matrix+0x540>
    493c:	00c72f83          	lw	t6,12(a4)
    4940:	00000813          	li	a6,0
    4944:	00a38293          	addi	t0,t2,10
    4948:	01f807b3          	add	a5,a6,t6
    494c:	0af95a63          	bge	s2,a5,4a00 <core_bench_matrix+0x554>
    4950:	01072303          	lw	t1,16(a4)
    4954:	00000793          	li	a5,0
    4958:	00a28f13          	addi	t5,t0,10
    495c:	006783b3          	add	t2,a5,t1
    4960:	0a795a63          	bge	s2,t2,4a14 <core_bench_matrix+0x568>
    4964:	01472e83          	lw	t4,20(a4)
    4968:	00000393          	li	t2,0
    496c:	00af0693          	addi	a3,t5,10
    4970:	01d38e33          	add	t3,t2,t4
    4974:	0bc95a63          	bge	s2,t3,4a28 <core_bench_matrix+0x57c>
    4978:	01872803          	lw	a6,24(a4)
    497c:	00000e13          	li	t3,0
    4980:	00a68293          	addi	t0,a3,10
    4984:	010e07b3          	add	a5,t3,a6
    4988:	0af95a63          	bge	s2,a5,4a3c <core_bench_matrix+0x590>
    498c:	00a28893          	addi	a7,t0,10
    4990:	00000793          	li	a5,0
    4994:	01c70713          	addi	a4,a4,28
    4998:	3c08a50b          	th.ext	a0,a7,15,0
    499c:	f4e608e3          	beq	a2,a4,48ec <core_bench_matrix+0x440>
    49a0:	00072e83          	lw	t4,0(a4)
    49a4:	01d787b3          	add	a5,a5,t4
    49a8:	f4f95ae3          	bge	s2,a5,48fc <core_bench_matrix+0x450>
    49ac:	00472283          	lw	t0,4(a4)
    49b0:	00000793          	li	a5,0
    49b4:	00a50e13          	addi	t3,a0,10
    49b8:	00578fb3          	add	t6,a5,t0
    49bc:	00470713          	addi	a4,a4,4
    49c0:	f5f94ae3          	blt	s2,t6,4914 <core_bench_matrix+0x468>
    49c4:	00472503          	lw	a0,4(a4)
    49c8:	005ea8b3          	slt	a7,t4,t0
    49cc:	011e0f33          	add	t5,t3,a7
    49d0:	00af8333          	add	t1,t6,a0
    49d4:	f4694ae3          	blt	s2,t1,4928 <core_bench_matrix+0x47c>
    49d8:	00872e83          	lw	t4,8(a4)
    49dc:	00a2a6b3          	slt	a3,t0,a0
    49e0:	00df03b3          	add	t2,t5,a3
    49e4:	01d30833          	add	a6,t1,t4
    49e8:	f5094ae3          	blt	s2,a6,493c <core_bench_matrix+0x490>
    49ec:	00c72f83          	lw	t6,12(a4)
    49f0:	01d52e33          	slt	t3,a0,t4
    49f4:	01c382b3          	add	t0,t2,t3
    49f8:	01f807b3          	add	a5,a6,t6
    49fc:	f4f94ae3          	blt	s2,a5,4950 <core_bench_matrix+0x4a4>
    4a00:	01072303          	lw	t1,16(a4)
    4a04:	01fea8b3          	slt	a7,t4,t6
    4a08:	01128f33          	add	t5,t0,a7
    4a0c:	006783b3          	add	t2,a5,t1
    4a10:	f4794ae3          	blt	s2,t2,4964 <core_bench_matrix+0x4b8>
    4a14:	01472e83          	lw	t4,20(a4)
    4a18:	006fa533          	slt	a0,t6,t1
    4a1c:	00af06b3          	add	a3,t5,a0
    4a20:	01d38e33          	add	t3,t2,t4
    4a24:	f5c94ae3          	blt	s2,t3,4978 <core_bench_matrix+0x4cc>
    4a28:	01d32833          	slt	a6,t1,t4
    4a2c:	010682b3          	add	t0,a3,a6
    4a30:	01872803          	lw	a6,24(a4)
    4a34:	010e07b3          	add	a5,t3,a6
    4a38:	f4f94ae3          	blt	s2,a5,498c <core_bench_matrix+0x4e0>
    4a3c:	010eafb3          	slt	t6,t4,a6
    4a40:	01f288b3          	add	a7,t0,t6
    4a44:	f51ff06f          	j	4994 <core_bench_matrix+0x4e8>
    4a48:	0106a333          	slt	t1,a3,a6
    4a4c:	006503b3          	add	t2,a0,t1
    4a50:	e91ff06f          	j	48e0 <core_bench_matrix+0x434>
    4a54:	0102afb3          	slt	t6,t0,a6
    4a58:	01f50f33          	add	t5,a0,t6
    4a5c:	e65ff06f          	j	48c0 <core_bench_matrix+0x414>
    4a60:	010e28b3          	slt	a7,t3,a6
    4a64:	01150533          	add	a0,a0,a7
    4a68:	e3dff06f          	j	48a4 <core_bench_matrix+0x3f8>
    4a6c:	010323b3          	slt	t2,t1,a6
    4a70:	00750eb3          	add	t4,a0,t2
    4a74:	e11ff06f          	j	4884 <core_bench_matrix+0x3d8>
    4a78:	010faf33          	slt	t5,t6,a6
    4a7c:	01e506b3          	add	a3,a0,t5
    4a80:	de5ff06f          	j	4864 <core_bench_matrix+0x3b8>
    4a84:	010e28b3          	slt	a7,t3,a6
    4a88:	011502b3          	add	t0,a0,a7
    4a8c:	db9ff06f          	j	4844 <core_bench_matrix+0x398>
    4a90:	00000593          	li	a1,0
    4a94:	4a1040ef          	jal	9734 <crc16>
    4a98:	00050593          	mv	a1,a0
    4a9c:	000a0613          	mv	a2,s4
    4aa0:	00000513          	li	a0,0
    4aa4:	0074ff13          	andi	t5,s1,7
    4aa8:	00000893          	li	a7,0
    4aac:	00000793          	li	a5,0
    4ab0:	0c0f0063          	beqz	t5,4b70 <core_bench_matrix+0x6c4>
    4ab4:	00100313          	li	t1,1
    4ab8:	0a6f0063          	beq	t5,t1,4b58 <core_bench_matrix+0x6ac>
    4abc:	00200393          	li	t2,2
    4ac0:	087f0263          	beq	t5,t2,4b44 <core_bench_matrix+0x698>
    4ac4:	00300693          	li	a3,3
    4ac8:	06df0463          	beq	t5,a3,4b30 <core_bench_matrix+0x684>
    4acc:	00400e93          	li	t4,4
    4ad0:	05df0663          	beq	t5,t4,4b1c <core_bench_matrix+0x670>
    4ad4:	00500e13          	li	t3,5
    4ad8:	03cf0863          	beq	t5,t3,4b08 <core_bench_matrix+0x65c>
    4adc:	00600293          	li	t0,6
    4ae0:	005f0a63          	beq	t5,t0,4af4 <core_bench_matrix+0x648>
    4ae4:	00061803          	lh	a6,0(a2)
    4ae8:	000a9f83          	lh	t6,0(s5)
    4aec:	00030793          	mv	a5,t1
    4af0:	03f808b3          	mul	a7,a6,t6
    4af4:	22f6470b          	th.lrh	a4,a2,a5,1
    4af8:	22facf0b          	th.lrh	t5,s5,a5,1
    4afc:	00178793          	addi	a5,a5,1
    4b00:	03e70333          	mul	t1,a4,t5
    4b04:	006888b3          	add	a7,a7,t1
    4b08:	22f6438b          	th.lrh	t2,a2,a5,1
    4b0c:	22fac68b          	th.lrh	a3,s5,a5,1
    4b10:	00178793          	addi	a5,a5,1
    4b14:	02d38eb3          	mul	t4,t2,a3
    4b18:	01d888b3          	add	a7,a7,t4
    4b1c:	22f64e0b          	th.lrh	t3,a2,a5,1
    4b20:	22fac28b          	th.lrh	t0,s5,a5,1
    4b24:	00178793          	addi	a5,a5,1
    4b28:	025e0833          	mul	a6,t3,t0
    4b2c:	010888b3          	add	a7,a7,a6
    4b30:	22f64f8b          	th.lrh	t6,a2,a5,1
    4b34:	22fac70b          	th.lrh	a4,s5,a5,1
    4b38:	00178793          	addi	a5,a5,1
    4b3c:	02ef8f33          	mul	t5,t6,a4
    4b40:	01e888b3          	add	a7,a7,t5
    4b44:	22f6430b          	th.lrh	t1,a2,a5,1
    4b48:	22fac38b          	th.lrh	t2,s5,a5,1
    4b4c:	00178793          	addi	a5,a5,1
    4b50:	027306b3          	mul	a3,t1,t2
    4b54:	00d888b3          	add	a7,a7,a3
    4b58:	22f64e8b          	th.lrh	t4,a2,a5,1
    4b5c:	22face0b          	th.lrh	t3,s5,a5,1
    4b60:	00178793          	addi	a5,a5,1
    4b64:	03ce82b3          	mul	t0,t4,t3
    4b68:	005888b3          	add	a7,a7,t0
    4b6c:	0a978463          	beq	a5,s1,4c14 <core_bench_matrix+0x768>
    4b70:	00178f13          	addi	t5,a5,1
    4b74:	22f64f8b          	th.lrh	t6,a2,a5,1
    4b78:	22fac70b          	th.lrh	a4,s5,a5,1
    4b7c:	00278313          	addi	t1,a5,2
    4b80:	23eac38b          	th.lrh	t2,s5,t5,1
    4b84:	23e6480b          	th.lrh	a6,a2,t5,1
    4b88:	226ace8b          	th.lrh	t4,s5,t1,1
    4b8c:	2266468b          	th.lrh	a3,a2,t1,1
    4b90:	02ef8733          	mul	a4,t6,a4
    4b94:	00378e13          	addi	t3,a5,3
    4b98:	23c6428b          	th.lrh	t0,a2,t3,1
    4b9c:	23cace0b          	th.lrh	t3,s5,t3,1
    4ba0:	00478f93          	addi	t6,a5,4
    4ba4:	00578f13          	addi	t5,a5,5
    4ba8:	23f6430b          	th.lrh	t1,a2,t6,1
    4bac:	23facf8b          	th.lrh	t6,s5,t6,1
    4bb0:	02780833          	mul	a6,a6,t2
    4bb4:	00e883b3          	add	t2,a7,a4
    4bb8:	23e6488b          	th.lrh	a7,a2,t5,1
    4bbc:	23eacf0b          	th.lrh	t5,s5,t5,1
    4bc0:	03d686b3          	mul	a3,a3,t4
    4bc4:	00678e93          	addi	t4,a5,6
    4bc8:	01038733          	add	a4,t2,a6
    4bcc:	23dac38b          	th.lrh	t2,s5,t4,1
    4bd0:	23d6480b          	th.lrh	a6,a2,t4,1
    4bd4:	03c282b3          	mul	t0,t0,t3
    4bd8:	00778e13          	addi	t3,a5,7
    4bdc:	00d70733          	add	a4,a4,a3
    4be0:	23cace8b          	th.lrh	t4,s5,t3,1
    4be4:	23c6468b          	th.lrh	a3,a2,t3,1
    4be8:	00878793          	addi	a5,a5,8
    4bec:	03f30333          	mul	t1,t1,t6
    4bf0:	00570fb3          	add	t6,a4,t0
    4bf4:	03e888b3          	mul	a7,a7,t5
    4bf8:	006f8f33          	add	t5,t6,t1
    4bfc:	02780833          	mul	a6,a6,t2
    4c00:	011f03b3          	add	t2,t5,a7
    4c04:	03d682b3          	mul	t0,a3,t4
    4c08:	01038733          	add	a4,t2,a6
    4c0c:	005708b3          	add	a7,a4,t0
    4c10:	f69790e3          	bne	a5,s1,4b70 <core_bench_matrix+0x6c4>
    4c14:	44acd88b          	th.srw	a7,s9,a0,2
    4c18:	00860633          	add	a2,a2,s0
    4c1c:	01a50663          	beq	a0,s10,4c28 <core_bench_matrix+0x77c>
    4c20:	00150513          	addi	a0,a0,1
    4c24:	e81ff06f          	j	4aa4 <core_bench_matrix+0x5f8>
    4c28:	000c8613          	mv	a2,s9
    4c2c:	00000893          	li	a7,0
    4c30:	00000793          	li	a5,0
    4c34:	00000513          	li	a0,0
    4c38:	00000813          	li	a6,0
    4c3c:	00088d13          	mv	s10,a7
    4c40:	00062883          	lw	a7,0(a2)
    4c44:	fff48e13          	addi	t3,s1,-1
    4c48:	007e7693          	andi	a3,t3,7
    4c4c:	011787b3          	add	a5,a5,a7
    4c50:	64f958e3          	bge	s2,a5,5aa0 <core_bench_matrix+0x15f4>
    4c54:	00a50513          	addi	a0,a0,10
    4c58:	00000793          	li	a5,0
    4c5c:	00100713          	li	a4,1
    4c60:	3c05250b          	th.ext	a0,a0,15,0
    4c64:	10977863          	bgeu	a4,s1,4d74 <core_bench_matrix+0x8c8>
    4c68:	26068ae3          	beqz	a3,56dc <core_bench_matrix+0x1230>
    4c6c:	0ee68263          	beq	a3,a4,4d50 <core_bench_matrix+0x8a4>
    4c70:	00200313          	li	t1,2
    4c74:	0c668063          	beq	a3,t1,4d34 <core_bench_matrix+0x888>
    4c78:	00300f93          	li	t6,3
    4c7c:	09f68c63          	beq	a3,t6,4d14 <core_bench_matrix+0x868>
    4c80:	00400f13          	li	t5,4
    4c84:	07e68863          	beq	a3,t5,4cf4 <core_bench_matrix+0x848>
    4c88:	00500393          	li	t2,5
    4c8c:	04768463          	beq	a3,t2,4cd4 <core_bench_matrix+0x828>
    4c90:	00600293          	li	t0,6
    4c94:	02568263          	beq	a3,t0,4cb8 <core_bench_matrix+0x80c>
    4c98:	00088d13          	mv	s10,a7
    4c9c:	44e6488b          	th.lrw	a7,a2,a4,2
    4ca0:	011787b3          	add	a5,a5,a7
    4ca4:	76f946e3          	blt	s2,a5,5c10 <core_bench_matrix+0x1764>
    4ca8:	011d2e33          	slt	t3,s10,a7
    4cac:	01c506b3          	add	a3,a0,t3
    4cb0:	00068513          	mv	a0,a3
    4cb4:	00170713          	addi	a4,a4,1
    4cb8:	00088e93          	mv	t4,a7
    4cbc:	44e6488b          	th.lrw	a7,a2,a4,2
    4cc0:	011787b3          	add	a5,a5,a7
    4cc4:	6cf958e3          	bge	s2,a5,5b94 <core_bench_matrix+0x16e8>
    4cc8:	00a50513          	addi	a0,a0,10
    4ccc:	00000793          	li	a5,0
    4cd0:	00170713          	addi	a4,a4,1
    4cd4:	00088f93          	mv	t6,a7
    4cd8:	44e6488b          	th.lrw	a7,a2,a4,2
    4cdc:	011787b3          	add	a5,a5,a7
    4ce0:	66f95ae3          	bge	s2,a5,5b54 <core_bench_matrix+0x16a8>
    4ce4:	00a50393          	addi	t2,a0,10
    4ce8:	00000793          	li	a5,0
    4cec:	00038513          	mv	a0,t2
    4cf0:	00170713          	addi	a4,a4,1
    4cf4:	00088293          	mv	t0,a7
    4cf8:	44e6488b          	th.lrw	a7,a2,a4,2
    4cfc:	011787b3          	add	a5,a5,a7
    4d00:	62f95ee3          	bge	s2,a5,5b3c <core_bench_matrix+0x1690>
    4d04:	00a50e13          	addi	t3,a0,10
    4d08:	00000793          	li	a5,0
    4d0c:	000e0513          	mv	a0,t3
    4d10:	00170713          	addi	a4,a4,1
    4d14:	00088693          	mv	a3,a7
    4d18:	44e6488b          	th.lrw	a7,a2,a4,2
    4d1c:	011787b3          	add	a5,a5,a7
    4d20:	5ef95ce3          	bge	s2,a5,5b18 <core_bench_matrix+0x166c>
    4d24:	00a50313          	addi	t1,a0,10
    4d28:	00000793          	li	a5,0
    4d2c:	00030513          	mv	a0,t1
    4d30:	00170713          	addi	a4,a4,1
    4d34:	00088f93          	mv	t6,a7
    4d38:	44e6488b          	th.lrw	a7,a2,a4,2
    4d3c:	011787b3          	add	a5,a5,a7
    4d40:	5af95ee3          	bge	s2,a5,5afc <core_bench_matrix+0x1650>
    4d44:	00a50513          	addi	a0,a0,10
    4d48:	00000793          	li	a5,0
    4d4c:	00170713          	addi	a4,a4,1
    4d50:	00088393          	mv	t2,a7
    4d54:	44e6488b          	th.lrw	a7,a2,a4,2
    4d58:	011787b3          	add	a5,a5,a7
    4d5c:	54f95ee3          	bge	s2,a5,5ab8 <core_bench_matrix+0x160c>
    4d60:	00a50d13          	addi	s10,a0,10
    4d64:	00000793          	li	a5,0
    4d68:	00170713          	addi	a4,a4,1
    4d6c:	3c0d250b          	th.ext	a0,s10,15,0
    4d70:	169766e3          	bltu	a4,s1,56dc <core_bench_matrix+0x1230>
    4d74:	00180813          	addi	a6,a6,1
    4d78:	01760633          	add	a2,a2,s7
    4d7c:	ec9860e3          	bltu	a6,s1,4c3c <core_bench_matrix+0x790>
    4d80:	1b5040ef          	jal	9734 <crc16>
    4d84:	00050593          	mv	a1,a0
    4d88:	000a0813          	mv	a6,s4
    4d8c:	000c8313          	mv	t1,s9
    4d90:	00000e13          	li	t3,0
    4d94:	000a8893          	mv	a7,s5
    4d98:	00000513          	li	a0,0
    4d9c:	00081e83          	lh	t4,0(a6)
    4da0:	00089683          	lh	a3,0(a7)
    4da4:	fff48f93          	addi	t6,s1,-1
    4da8:	00100793          	li	a5,1
    4dac:	02de86b3          	mul	a3,t4,a3
    4db0:	007ff393          	andi	t2,t6,7
    4db4:	00888733          	add	a4,a7,s0
    4db8:	1897fa63          	bgeu	a5,s1,4f4c <core_bench_matrix+0xaa0>
    4dbc:	0c038e63          	beqz	t2,4e98 <core_bench_matrix+0x9ec>
    4dc0:	0af38e63          	beq	t2,a5,4e7c <core_bench_matrix+0x9d0>
    4dc4:	00200293          	li	t0,2
    4dc8:	08538e63          	beq	t2,t0,4e64 <core_bench_matrix+0x9b8>
    4dcc:	00300f13          	li	t5,3
    4dd0:	07e38e63          	beq	t2,t5,4e4c <core_bench_matrix+0x9a0>
    4dd4:	00400d13          	li	s10,4
    4dd8:	05a38e63          	beq	t2,s10,4e34 <core_bench_matrix+0x988>
    4ddc:	00500613          	li	a2,5
    4de0:	02c38e63          	beq	t2,a2,4e1c <core_bench_matrix+0x970>
    4de4:	00600e93          	li	t4,6
    4de8:	01d38e63          	beq	t2,t4,4e04 <core_bench_matrix+0x958>
    4dec:	00281f83          	lh	t6,2(a6)
    4df0:	2088c38b          	th.lrh	t2,a7,s0,0
    4df4:	00028793          	mv	a5,t0
    4df8:	00870733          	add	a4,a4,s0
    4dfc:	027f82b3          	mul	t0,t6,t2
    4e00:	005686b3          	add	a3,a3,t0
    4e04:	22f84f0b          	th.lrh	t5,a6,a5,1
    4e08:	00071d03          	lh	s10,0(a4)
    4e0c:	00178793          	addi	a5,a5,1
    4e10:	00870733          	add	a4,a4,s0
    4e14:	03af0633          	mul	a2,t5,s10
    4e18:	00c686b3          	add	a3,a3,a2
    4e1c:	22f84f8b          	th.lrh	t6,a6,a5,1
    4e20:	00071e83          	lh	t4,0(a4)
    4e24:	00178793          	addi	a5,a5,1
    4e28:	00870733          	add	a4,a4,s0
    4e2c:	03df83b3          	mul	t2,t6,t4
    4e30:	007686b3          	add	a3,a3,t2
    4e34:	22f8428b          	th.lrh	t0,a6,a5,1
    4e38:	00071f03          	lh	t5,0(a4)
    4e3c:	00178793          	addi	a5,a5,1
    4e40:	00870733          	add	a4,a4,s0
    4e44:	03e28d33          	mul	s10,t0,t5
    4e48:	01a686b3          	add	a3,a3,s10
    4e4c:	22f8460b          	th.lrh	a2,a6,a5,1
    4e50:	00071f83          	lh	t6,0(a4)
    4e54:	00178793          	addi	a5,a5,1
    4e58:	00870733          	add	a4,a4,s0
    4e5c:	03f60eb3          	mul	t4,a2,t6
    4e60:	01d686b3          	add	a3,a3,t4
    4e64:	22f8438b          	th.lrh	t2,a6,a5,1
    4e68:	00071283          	lh	t0,0(a4)
    4e6c:	00178793          	addi	a5,a5,1
    4e70:	00870733          	add	a4,a4,s0
    4e74:	02538f33          	mul	t5,t2,t0
    4e78:	01e686b3          	add	a3,a3,t5
    4e7c:	22f84d0b          	th.lrh	s10,a6,a5,1
    4e80:	00071603          	lh	a2,0(a4)
    4e84:	00178793          	addi	a5,a5,1
    4e88:	00870733          	add	a4,a4,s0
    4e8c:	02cd0fb3          	mul	t6,s10,a2
    4e90:	01f686b3          	add	a3,a3,t6
    4e94:	0a97fc63          	bgeu	a5,s1,4f4c <core_bench_matrix+0xaa0>
    4e98:	22f84d0b          	th.lrh	s10,a6,a5,1
    4e9c:	00071e83          	lh	t4,0(a4)
    4ea0:	00178393          	addi	t2,a5,1
    4ea4:	20874f0b          	th.lrh	t5,a4,s0,0
    4ea8:	2278438b          	th.lrh	t2,a6,t2,1
    4eac:	03dd0633          	mul	a2,s10,t4
    4eb0:	00278293          	addi	t0,a5,2
    4eb4:	22874d0b          	th.lrh	s10,a4,s0,1
    4eb8:	2258428b          	th.lrh	t0,a6,t0,1
    4ebc:	00478e93          	addi	t4,a5,4
    4ec0:	20e42733          	sh1add	a4,s0,a4
    4ec4:	00378f93          	addi	t6,a5,3
    4ec8:	23f84f8b          	th.lrh	t6,a6,t6,1
    4ecc:	03e383b3          	mul	t2,t2,t5
    4ed0:	23d84f0b          	th.lrh	t5,a6,t4,1
    4ed4:	00c686b3          	add	a3,a3,a2
    4ed8:	2087460b          	th.lrh	a2,a4,s0,0
    4edc:	03a28eb3          	mul	t4,t0,s10
    4ee0:	007686b3          	add	a3,a3,t2
    4ee4:	2287438b          	th.lrh	t2,a4,s0,1
    4ee8:	00578293          	addi	t0,a5,5
    4eec:	20e42733          	sh1add	a4,s0,a4
    4ef0:	2258428b          	th.lrh	t0,a6,t0,1
    4ef4:	02cf8d33          	mul	s10,t6,a2
    4ef8:	20874f8b          	th.lrh	t6,a4,s0,0
    4efc:	01d68633          	add	a2,a3,t4
    4f00:	00678e93          	addi	t4,a5,6
    4f04:	00778693          	addi	a3,a5,7
    4f08:	23d84e8b          	th.lrh	t4,a6,t4,1
    4f0c:	22d8468b          	th.lrh	a3,a6,a3,1
    4f10:	00878793          	addi	a5,a5,8
    4f14:	027f03b3          	mul	t2,t5,t2
    4f18:	22874f0b          	th.lrh	t5,a4,s0,1
    4f1c:	20e42733          	sh1add	a4,s0,a4
    4f20:	01a60d33          	add	s10,a2,s10
    4f24:	03f28fb3          	mul	t6,t0,t6
    4f28:	2087428b          	th.lrh	t0,a4,s0,0
    4f2c:	007d0633          	add	a2,s10,t2
    4f30:	20e42733          	sh1add	a4,s0,a4
    4f34:	03ee8eb3          	mul	t4,t4,t5
    4f38:	01f603b3          	add	t2,a2,t6
    4f3c:	02568d33          	mul	s10,a3,t0
    4f40:	01d38f33          	add	t5,t2,t4
    4f44:	01af06b3          	add	a3,t5,s10
    4f48:	f497e8e3          	bltu	a5,s1,4e98 <core_bench_matrix+0x9ec>
    4f4c:	44a3568b          	th.srw	a3,t1,a0,2
    4f50:	00150513          	addi	a0,a0,1
    4f54:	00288893          	addi	a7,a7,2
    4f58:	e49562e3          	bltu	a0,s1,4d9c <core_bench_matrix+0x8f0>
    4f5c:	001e0e13          	addi	t3,t3,1
    4f60:	01730333          	add	t1,t1,s7
    4f64:	00880833          	add	a6,a6,s0
    4f68:	e29e66e3          	bltu	t3,s1,4d94 <core_bench_matrix+0x8e8>
    4f6c:	000c8613          	mv	a2,s9
    4f70:	00000893          	li	a7,0
    4f74:	00000793          	li	a5,0
    4f78:	00000513          	li	a0,0
    4f7c:	00000813          	li	a6,0
    4f80:	00088713          	mv	a4,a7
    4f84:	00062883          	lw	a7,0(a2)
    4f88:	fff48693          	addi	a3,s1,-1
    4f8c:	0076ff93          	andi	t6,a3,7
    4f90:	011787b3          	add	a5,a5,a7
    4f94:	30f95ce3          	bge	s2,a5,5aac <core_bench_matrix+0x1600>
    4f98:	00a50513          	addi	a0,a0,10
    4f9c:	00000793          	li	a5,0
    4fa0:	00100713          	li	a4,1
    4fa4:	3c05250b          	th.ext	a0,a0,15,0
    4fa8:	10977863          	bgeu	a4,s1,50b8 <core_bench_matrix+0xc0c>
    4fac:	0a0f86e3          	beqz	t6,5858 <core_bench_matrix+0x13ac>
    4fb0:	0eef8263          	beq	t6,a4,5094 <core_bench_matrix+0xbe8>
    4fb4:	00200e93          	li	t4,2
    4fb8:	0ddf8063          	beq	t6,t4,5078 <core_bench_matrix+0xbcc>
    4fbc:	00300393          	li	t2,3
    4fc0:	087f8c63          	beq	t6,t2,5058 <core_bench_matrix+0xbac>
    4fc4:	00400d13          	li	s10,4
    4fc8:	07af8863          	beq	t6,s10,5038 <core_bench_matrix+0xb8c>
    4fcc:	00500f13          	li	t5,5
    4fd0:	05ef8463          	beq	t6,t5,5018 <core_bench_matrix+0xb6c>
    4fd4:	00600e13          	li	t3,6
    4fd8:	03cf8263          	beq	t6,t3,4ffc <core_bench_matrix+0xb50>
    4fdc:	00088313          	mv	t1,a7
    4fe0:	44e6488b          	th.lrw	a7,a2,a4,2
    4fe4:	011787b3          	add	a5,a5,a7
    4fe8:	40f94ee3          	blt	s2,a5,5c04 <core_bench_matrix+0x1758>
    4fec:	011326b3          	slt	a3,t1,a7
    4ff0:	00d50fb3          	add	t6,a0,a3
    4ff4:	000f8513          	mv	a0,t6
    4ff8:	00170713          	addi	a4,a4,1
    4ffc:	00088293          	mv	t0,a7
    5000:	44e6488b          	th.lrw	a7,a2,a4,2
    5004:	011787b3          	add	a5,a5,a7
    5008:	36f95ee3          	bge	s2,a5,5b84 <core_bench_matrix+0x16d8>
    500c:	00a50513          	addi	a0,a0,10
    5010:	00000793          	li	a5,0
    5014:	00170713          	addi	a4,a4,1
    5018:	00088393          	mv	t2,a7
    501c:	44e6488b          	th.lrw	a7,a2,a4,2
    5020:	011787b3          	add	a5,a5,a7
    5024:	34f954e3          	bge	s2,a5,5b6c <core_bench_matrix+0x16c0>
    5028:	00a50f13          	addi	t5,a0,10
    502c:	00000793          	li	a5,0
    5030:	000f0513          	mv	a0,t5
    5034:	00170713          	addi	a4,a4,1
    5038:	00088e13          	mv	t3,a7
    503c:	44e6488b          	th.lrw	a7,a2,a4,2
    5040:	011787b3          	add	a5,a5,a7
    5044:	2ef956e3          	bge	s2,a5,5b30 <core_bench_matrix+0x1684>
    5048:	00a50693          	addi	a3,a0,10
    504c:	00000793          	li	a5,0
    5050:	00068513          	mv	a0,a3
    5054:	00170713          	addi	a4,a4,1
    5058:	00088f93          	mv	t6,a7
    505c:	44e6488b          	th.lrw	a7,a2,a4,2
    5060:	011787b3          	add	a5,a5,a7
    5064:	2cf950e3          	bge	s2,a5,5b24 <core_bench_matrix+0x1678>
    5068:	00a50e93          	addi	t4,a0,10
    506c:	00000793          	li	a5,0
    5070:	000e8513          	mv	a0,t4
    5074:	00170713          	addi	a4,a4,1
    5078:	00088393          	mv	t2,a7
    507c:	44e6488b          	th.lrw	a7,a2,a4,2
    5080:	011787b3          	add	a5,a5,a7
    5084:	24f95ce3          	bge	s2,a5,5adc <core_bench_matrix+0x1630>
    5088:	00a50513          	addi	a0,a0,10
    508c:	00000793          	li	a5,0
    5090:	00170713          	addi	a4,a4,1
    5094:	00088f13          	mv	t5,a7
    5098:	44e6488b          	th.lrw	a7,a2,a4,2
    509c:	011787b3          	add	a5,a5,a7
    50a0:	22f952e3          	bge	s2,a5,5ac4 <core_bench_matrix+0x1618>
    50a4:	00a50313          	addi	t1,a0,10
    50a8:	00000793          	li	a5,0
    50ac:	00170713          	addi	a4,a4,1
    50b0:	3c03250b          	th.ext	a0,t1,15,0
    50b4:	7a976263          	bltu	a4,s1,5858 <core_bench_matrix+0x13ac>
    50b8:	00180813          	addi	a6,a6,1
    50bc:	01760633          	add	a2,a2,s7
    50c0:	ec9860e3          	bltu	a6,s1,4f80 <core_bench_matrix+0xad4>
    50c4:	670040ef          	jal	9734 <crc16>
    50c8:	00050593          	mv	a1,a0
    50cc:	000a0893          	mv	a7,s4
    50d0:	00000513          	li	a0,0
    50d4:	000a8313          	mv	t1,s5
    50d8:	00000e13          	li	t3,0
    50dc:	00089f83          	lh	t6,0(a7)
    50e0:	00031283          	lh	t0,0(t1)
    50e4:	fff48693          	addi	a3,s1,-1
    50e8:	00100793          	li	a5,1
    50ec:	025f8eb3          	mul	t4,t6,t0
    50f0:	0076f393          	andi	t2,a3,7
    50f4:	00830733          	add	a4,t1,s0
    50f8:	142ebd0b          	th.extu	s10,t4,5,2
    50fc:	2c5ebf0b          	th.extu	t5,t4,11,5
    5100:	03ed06b3          	mul	a3,s10,t5
    5104:	2497f463          	bgeu	a5,s1,534c <core_bench_matrix+0xea0>
    5108:	12038863          	beqz	t2,5238 <core_bench_matrix+0xd8c>
    510c:	10f38263          	beq	t2,a5,5210 <core_bench_matrix+0xd64>
    5110:	00200813          	li	a6,2
    5114:	0d038c63          	beq	t2,a6,51ec <core_bench_matrix+0xd40>
    5118:	00300613          	li	a2,3
    511c:	0ac38663          	beq	t2,a2,51c8 <core_bench_matrix+0xd1c>
    5120:	00400f93          	li	t6,4
    5124:	09f38063          	beq	t2,t6,51a4 <core_bench_matrix+0xcf8>
    5128:	00500293          	li	t0,5
    512c:	04538a63          	beq	t2,t0,5180 <core_bench_matrix+0xcd4>
    5130:	00600e93          	li	t4,6
    5134:	03d38463          	beq	t2,t4,515c <core_bench_matrix+0xcb0>
    5138:	00289383          	lh	t2,2(a7)
    513c:	20834d0b          	th.lrh	s10,t1,s0,0
    5140:	00080793          	mv	a5,a6
    5144:	00870733          	add	a4,a4,s0
    5148:	03a38f33          	mul	t5,t2,s10
    514c:	142f380b          	th.extu	a6,t5,5,2
    5150:	2c5f360b          	th.extu	a2,t5,11,5
    5154:	02c80fb3          	mul	t6,a6,a2
    5158:	01f686b3          	add	a3,a3,t6
    515c:	22f8c28b          	th.lrh	t0,a7,a5,1
    5160:	00071e83          	lh	t4,0(a4)
    5164:	00178793          	addi	a5,a5,1
    5168:	00870733          	add	a4,a4,s0
    516c:	03d283b3          	mul	t2,t0,t4
    5170:	1423bd0b          	th.extu	s10,t2,5,2
    5174:	2c53bf0b          	th.extu	t5,t2,11,5
    5178:	03ed0833          	mul	a6,s10,t5
    517c:	010686b3          	add	a3,a3,a6
    5180:	22f8c60b          	th.lrh	a2,a7,a5,1
    5184:	00071f83          	lh	t6,0(a4)
    5188:	00178793          	addi	a5,a5,1
    518c:	00870733          	add	a4,a4,s0
    5190:	03f602b3          	mul	t0,a2,t6
    5194:	1422be8b          	th.extu	t4,t0,5,2
    5198:	2c52b38b          	th.extu	t2,t0,11,5
    519c:	027e8d33          	mul	s10,t4,t2
    51a0:	01a686b3          	add	a3,a3,s10
    51a4:	22f8cf0b          	th.lrh	t5,a7,a5,1
    51a8:	00071803          	lh	a6,0(a4)
    51ac:	00178793          	addi	a5,a5,1
    51b0:	00870733          	add	a4,a4,s0
    51b4:	030f0633          	mul	a2,t5,a6
    51b8:	14263f8b          	th.extu	t6,a2,5,2
    51bc:	2c56328b          	th.extu	t0,a2,11,5
    51c0:	025f8eb3          	mul	t4,t6,t0
    51c4:	01d686b3          	add	a3,a3,t4
    51c8:	22f8c38b          	th.lrh	t2,a7,a5,1
    51cc:	00071d03          	lh	s10,0(a4)
    51d0:	00178793          	addi	a5,a5,1
    51d4:	00870733          	add	a4,a4,s0
    51d8:	03a38f33          	mul	t5,t2,s10
    51dc:	142f380b          	th.extu	a6,t5,5,2
    51e0:	2c5f360b          	th.extu	a2,t5,11,5
    51e4:	02c80fb3          	mul	t6,a6,a2
    51e8:	01f686b3          	add	a3,a3,t6
    51ec:	22f8c28b          	th.lrh	t0,a7,a5,1
    51f0:	00071e83          	lh	t4,0(a4)
    51f4:	00178793          	addi	a5,a5,1
    51f8:	00870733          	add	a4,a4,s0
    51fc:	03d283b3          	mul	t2,t0,t4
    5200:	1423bd0b          	th.extu	s10,t2,5,2
    5204:	2c53bf0b          	th.extu	t5,t2,11,5
    5208:	03ed0833          	mul	a6,s10,t5
    520c:	010686b3          	add	a3,a3,a6
    5210:	22f8c60b          	th.lrh	a2,a7,a5,1
    5214:	00071f83          	lh	t6,0(a4)
    5218:	00178793          	addi	a5,a5,1
    521c:	00870733          	add	a4,a4,s0
    5220:	03f602b3          	mul	t0,a2,t6
    5224:	1422be8b          	th.extu	t4,t0,5,2
    5228:	2c52b38b          	th.extu	t2,t0,11,5
    522c:	027e8d33          	mul	s10,t4,t2
    5230:	01a686b3          	add	a3,a3,s10
    5234:	1097fc63          	bgeu	a5,s1,534c <core_bench_matrix+0xea0>
    5238:	00071f03          	lh	t5,0(a4)
    523c:	22f8c80b          	th.lrh	a6,a7,a5,1
    5240:	00178613          	addi	a2,a5,1
    5244:	22c8ce8b          	th.lrh	t4,a7,a2,1
    5248:	03e80833          	mul	a6,a6,t5
    524c:	20874d0b          	th.lrh	s10,a4,s0,0
    5250:	00278f93          	addi	t6,a5,2
    5254:	20e423b3          	sh1add	t2,s0,a4
    5258:	23f8c28b          	th.lrh	t0,a7,t6,1
    525c:	22874f8b          	th.lrh	t6,a4,s0,1
    5260:	00378713          	addi	a4,a5,3
    5264:	22e8cf0b          	th.lrh	t5,a7,a4,1
    5268:	1428360b          	th.extu	a2,a6,5,2
    526c:	2c58380b          	th.extu	a6,a6,11,5
    5270:	03ae8d33          	mul	s10,t4,s10
    5274:	2083ce8b          	th.lrh	t4,t2,s0,0
    5278:	03060633          	mul	a2,a2,a6
    527c:	00c68633          	add	a2,a3,a2
    5280:	142d368b          	th.extu	a3,s10,5,2
    5284:	2c5d3d0b          	th.extu	s10,s10,11,5
    5288:	03f282b3          	mul	t0,t0,t6
    528c:	00478f93          	addi	t6,a5,4
    5290:	23f8c70b          	th.lrh	a4,a7,t6,1
    5294:	03a686b3          	mul	a3,a3,s10
    5298:	03df0f33          	mul	t5,t5,t4
    529c:	2283ce8b          	th.lrh	t4,t2,s0,1
    52a0:	207423b3          	sh1add	t2,s0,t2
    52a4:	2083c80b          	th.lrh	a6,t2,s0,0
    52a8:	2283cd0b          	th.lrh	s10,t2,s0,1
    52ac:	00d60633          	add	a2,a2,a3
    52b0:	00778693          	addi	a3,a5,7
    52b4:	03d70fb3          	mul	t6,a4,t4
    52b8:	00578713          	addi	a4,a5,5
    52bc:	22e8ce8b          	th.lrh	t4,a7,a4,1
    52c0:	00678713          	addi	a4,a5,6
    52c4:	00878793          	addi	a5,a5,8
    52c8:	030e8eb3          	mul	t4,t4,a6
    52cc:	22e8c80b          	th.lrh	a6,a7,a4,1
    52d0:	20742733          	sh1add	a4,s0,t2
    52d4:	1422b38b          	th.extu	t2,t0,5,2
    52d8:	2c52b28b          	th.extu	t0,t0,11,5
    52dc:	03a80833          	mul	a6,a6,s10
    52e0:	22d8cd0b          	th.lrh	s10,a7,a3,1
    52e4:	025382b3          	mul	t0,t2,t0
    52e8:	2087438b          	th.lrh	t2,a4,s0,0
    52ec:	20e42733          	sh1add	a4,s0,a4
    52f0:	027d06b3          	mul	a3,s10,t2
    52f4:	142f3d0b          	th.extu	s10,t5,5,2
    52f8:	2c5f3f0b          	th.extu	t5,t5,11,5
    52fc:	142fb38b          	th.extu	t2,t6,5,2
    5300:	2c5fbf8b          	th.extu	t6,t6,11,5
    5304:	00560633          	add	a2,a2,t0
    5308:	142eb28b          	th.extu	t0,t4,5,2
    530c:	2c5ebe8b          	th.extu	t4,t4,11,5
    5310:	03ed0d33          	mul	s10,s10,t5
    5314:	1426bf0b          	th.extu	t5,a3,5,2
    5318:	2c56b68b          	th.extu	a3,a3,11,5
    531c:	03f383b3          	mul	t2,t2,t6
    5320:	01a60633          	add	a2,a2,s10
    5324:	14283f8b          	th.extu	t6,a6,5,2
    5328:	2c58380b          	th.extu	a6,a6,11,5
    532c:	03d28d33          	mul	s10,t0,t4
    5330:	007602b3          	add	t0,a2,t2
    5334:	030f8eb3          	mul	t4,t6,a6
    5338:	01a283b3          	add	t2,t0,s10
    533c:	02df0fb3          	mul	t6,t5,a3
    5340:	01d38633          	add	a2,t2,t4
    5344:	01f606b3          	add	a3,a2,t6
    5348:	ee97e8e3          	bltu	a5,s1,5238 <core_bench_matrix+0xd8c>
    534c:	45ccd68b          	th.srw	a3,s9,t3,2
    5350:	001e0e13          	addi	t3,t3,1
    5354:	00230313          	addi	t1,t1,2
    5358:	d89e62e3          	bltu	t3,s1,50dc <core_bench_matrix+0xc30>
    535c:	00150513          	addi	a0,a0,1
    5360:	017c8cb3          	add	s9,s9,s7
    5364:	008888b3          	add	a7,a7,s0
    5368:	d69566e3          	bltu	a0,s1,50d4 <core_bench_matrix+0xc28>
    536c:	00000813          	li	a6,0
    5370:	00000793          	li	a5,0
    5374:	00000513          	li	a0,0
    5378:	00000613          	li	a2,0
