
D:\BaiduSyncdisk\02_icdc_workspace\.worktrees\coremark7-dmips5-20260508\YH_rv_cpu\build\sw\h22_custom_crc_only_no_skip_20260514.elf:     file format elf32-littleriscv


Disassembly of section .text:

00000000 <_start>:
       0:	00014117          	auipc	sp,0x14
       4:	00010113          	mv	sp,sp
       8:	0000d517          	auipc	a0,0xd
       c:	0a050513          	addi	a0,a0,160 # d0a8 <_data_load_start>
      10:	00010597          	auipc	a1,0x10
      14:	ff058593          	addi	a1,a1,-16 # 10000 <default_num_contexts>
      18:	00010617          	auipc	a2,0x10
      1c:	ff460613          	addi	a2,a2,-12 # 1000c <core_cached_prev_head>
      20:	00c5fc63          	bgeu	a1,a2,38 <_start+0x38>
      24:	00054283          	lbu	t0,0(a0)
      28:	00558023          	sb	t0,0(a1)
      2c:	00150513          	addi	a0,a0,1
      30:	00158593          	addi	a1,a1,1
      34:	fedff06f          	j	20 <_start+0x20>
      38:	00010517          	auipc	a0,0x10
      3c:	fd450513          	addi	a0,a0,-44 # 1000c <core_cached_prev_head>
      40:	00010597          	auipc	a1,0x10
      44:	7b858593          	addi	a1,a1,1976 # 107f8 <_bss_end>
      48:	00b57863          	bgeu	a0,a1,58 <_start+0x58>
      4c:	00050023          	sb	zero,0(a0)
      50:	00150513          	addi	a0,a0,1
      54:	ff5ff06f          	j	48 <_start+0x48>
      58:	3a4030ef          	jal	33fc <main>
      5c:	0000006f          	j	5c <_start+0x5c>

00000060 <calc_func>:
      60:	fe010113          	addi	sp,sp,-32 # 13fe0 <_bss_end+0x37e8>
      64:	00812c23          	sw	s0,24(sp)
      68:	00051403          	lh	s0,0(a0)
      6c:	00112e23          	sw	ra,28(sp)
      70:	48745793          	bexti	a5,s0,0x7
      74:	00078c63          	beqz	a5,8c <calc_func+0x2c>
      78:	01c12083          	lw	ra,28(sp)
      7c:	07f47513          	andi	a0,s0,127
      80:	01812403          	lw	s0,24(sp)
      84:	02010113          	addi	sp,sp,32
      88:	00008067          	ret
      8c:	1834370b          	th.extu	a4,s0,6,3
      90:	00471293          	slli	t0,a4,0x4
      94:	00912a23          	sw	s1,20(sp)
      98:	01212823          	sw	s2,16(sp)
      9c:	00570633          	add	a2,a4,t0
      a0:	01312623          	sw	s3,12(sp)
      a4:	00747693          	andi	a3,s0,7
      a8:	0385d783          	lhu	a5,56(a1)
      ac:	00058493          	mv	s1,a1
      b0:	00050913          	mv	s2,a0
      b4:	00060713          	mv	a4,a2
      b8:	06068c63          	beqz	a3,130 <calc_func+0xd0>
      bc:	00100513          	li	a0,1
      c0:	06a69263          	bne	a3,a0,124 <calc_func+0xc4>
      c4:	00070593          	mv	a1,a4
      c8:	00078613          	mv	a2,a5
      cc:	02848513          	addi	a0,s1,40
      d0:	3dc040ef          	jal	44ac <core_bench_matrix>
      d4:	03c4d583          	lhu	a1,60(s1)
      d8:	00050993          	mv	s3,a0
      dc:	08058463          	beqz	a1,164 <calc_func+0x104>
      e0:	0384d783          	lhu	a5,56(s1)
      e4:	00078593          	mv	a1,a5
      e8:	634090ef          	jal	971c <crcu16>
      ec:	00050813          	mv	a6,a0
      f0:	f0047893          	andi	a7,s0,-256
      f4:	07f9f513          	andi	a0,s3,127
      f8:	01c12083          	lw	ra,28(sp)
      fc:	01812403          	lw	s0,24(sp)
     100:	01156e33          	or	t3,a0,a7
     104:	03049c23          	sh	a6,56(s1)
     108:	080e6e93          	ori	t4,t3,128
     10c:	01d91023          	sh	t4,0(s2)
     110:	01412483          	lw	s1,20(sp)
     114:	01012903          	lw	s2,16(sp)
     118:	00c12983          	lw	s3,12(sp)
     11c:	02010113          	addi	sp,sp,32
     120:	00008067          	ret
     124:	3c04350b          	th.extu	a0,s0,15,0
     128:	00040993          	mv	s3,s0
     12c:	fb9ff06f          	j	e4 <calc_func+0x84>
     130:	02100313          	li	t1,33
     134:	00c36463          	bltu	t1,a2,13c <calc_func+0xdc>
     138:	02200713          	li	a4,34
     13c:	00249683          	lh	a3,2(s1)
     140:	00049603          	lh	a2,0(s1)
     144:	0144a583          	lw	a1,20(s1)
     148:	0184a503          	lw	a0,24(s1)
     14c:	658080ef          	jal	87a4 <core_bench_state>
     150:	03e4d383          	lhu	t2,62(s1)
     154:	00050993          	mv	s3,a0
     158:	00038c63          	beqz	t2,170 <calc_func+0x110>
     15c:	0384d783          	lhu	a5,56(s1)
     160:	f85ff06f          	j	e4 <calc_func+0x84>
     164:	0384d783          	lhu	a5,56(s1)
     168:	02a49e23          	sh	a0,60(s1)
     16c:	f79ff06f          	j	e4 <calc_func+0x84>
     170:	0384d783          	lhu	a5,56(s1)
     174:	02a49f23          	sh	a0,62(s1)
     178:	f6dff06f          	j	e4 <calc_func+0x84>

0000017c <cmp_complex>:
     17c:	fe010113          	addi	sp,sp,-32
     180:	00812c23          	sw	s0,24(sp)
     184:	00051403          	lh	s0,0(a0)
     188:	00912a23          	sw	s1,20(sp)
     18c:	01312623          	sw	s3,12(sp)
     190:	00112e23          	sw	ra,28(sp)
     194:	01212823          	sw	s2,16(sp)
     198:	48745793          	bexti	a5,s0,0x7
     19c:	00058993          	mv	s3,a1
     1a0:	00060493          	mv	s1,a2
     1a4:	02078c63          	beqz	a5,1dc <cmp_complex+0x60>
     1a8:	07f47913          	andi	s2,s0,127
     1ac:	00099403          	lh	s0,0(s3)
     1b0:	48745e93          	bexti	t4,s0,0x7
     1b4:	0a0e8263          	beqz	t4,258 <cmp_complex+0xdc>
     1b8:	01c12083          	lw	ra,28(sp)
     1bc:	07f47313          	andi	t1,s0,127
     1c0:	01812403          	lw	s0,24(sp)
     1c4:	01412483          	lw	s1,20(sp)
     1c8:	00c12983          	lw	s3,12(sp)
     1cc:	40690533          	sub	a0,s2,t1
     1d0:	01012903          	lw	s2,16(sp)
     1d4:	02010113          	addi	sp,sp,32
     1d8:	00008067          	ret
     1dc:	1834370b          	th.extu	a4,s0,6,3
     1e0:	00471293          	slli	t0,a4,0x4
     1e4:	01412423          	sw	s4,8(sp)
     1e8:	00570633          	add	a2,a4,t0
     1ec:	00747693          	andi	a3,s0,7
     1f0:	0384d783          	lhu	a5,56(s1)
     1f4:	00050a13          	mv	s4,a0
     1f8:	00060713          	mv	a4,a2
     1fc:	12068a63          	beqz	a3,330 <cmp_complex+0x1b4>
     200:	00100513          	li	a0,1
     204:	0ea69063          	bne	a3,a0,2e4 <cmp_complex+0x168>
     208:	00070593          	mv	a1,a4
     20c:	00078613          	mv	a2,a5
     210:	02848513          	addi	a0,s1,40
     214:	298040ef          	jal	44ac <core_bench_matrix>
     218:	03c4d583          	lhu	a1,60(s1)
     21c:	00050913          	mv	s2,a0
     220:	14058e63          	beqz	a1,37c <cmp_complex+0x200>
     224:	0384d783          	lhu	a5,56(s1)
     228:	00078593          	mv	a1,a5
     22c:	4f0090ef          	jal	971c <crcu16>
     230:	f0047813          	andi	a6,s0,-256
     234:	07f97913          	andi	s2,s2,127
     238:	010968b3          	or	a7,s2,a6
     23c:	02a49c23          	sh	a0,56(s1)
     240:	0808ee13          	ori	t3,a7,128
     244:	01ca1023          	sh	t3,0(s4)
     248:	00099403          	lh	s0,0(s3)
     24c:	00812a03          	lw	s4,8(sp)
     250:	48745e93          	bexti	t4,s0,0x7
     254:	f60e92e3          	bnez	t4,1b8 <cmp_complex+0x3c>
     258:	18343f0b          	th.extu	t5,s0,6,3
     25c:	004f1f93          	slli	t6,t5,0x4
     260:	01412423          	sw	s4,8(sp)
     264:	01ff02b3          	add	t0,t5,t6
     268:	00747a13          	andi	s4,s0,7
     26c:	0384d783          	lhu	a5,56(s1)
     270:	00028713          	mv	a4,t0
     274:	080a0463          	beqz	s4,2fc <cmp_complex+0x180>
     278:	00100613          	li	a2,1
     27c:	06ca1a63          	bne	s4,a2,2f0 <cmp_complex+0x174>
     280:	00078613          	mv	a2,a5
     284:	00028593          	mv	a1,t0
     288:	02848513          	addi	a0,s1,40
     28c:	220040ef          	jal	44ac <core_bench_matrix>
     290:	03c4d703          	lhu	a4,60(s1)
     294:	00050a13          	mv	s4,a0
     298:	0e070863          	beqz	a4,388 <cmp_complex+0x20c>
     29c:	0384d783          	lhu	a5,56(s1)
     2a0:	00078593          	mv	a1,a5
     2a4:	478090ef          	jal	971c <crcu16>
     2a8:	07fa7313          	andi	t1,s4,127
     2ac:	f0047393          	andi	t2,s0,-256
     2b0:	01c12083          	lw	ra,28(sp)
     2b4:	01812403          	lw	s0,24(sp)
     2b8:	007365b3          	or	a1,t1,t2
     2bc:	02a49c23          	sh	a0,56(s1)
     2c0:	0805e813          	ori	a6,a1,128
     2c4:	01099023          	sh	a6,0(s3)
     2c8:	00812a03          	lw	s4,8(sp)
     2cc:	01412483          	lw	s1,20(sp)
     2d0:	00c12983          	lw	s3,12(sp)
     2d4:	40690533          	sub	a0,s2,t1
     2d8:	01012903          	lw	s2,16(sp)
     2dc:	02010113          	addi	sp,sp,32
     2e0:	00008067          	ret
     2e4:	3c04350b          	th.extu	a0,s0,15,0
     2e8:	00040913          	mv	s2,s0
     2ec:	f3dff06f          	j	228 <cmp_complex+0xac>
     2f0:	3c04350b          	th.extu	a0,s0,15,0
     2f4:	00040a13          	mv	s4,s0
     2f8:	fa9ff06f          	j	2a0 <cmp_complex+0x124>
     2fc:	02100693          	li	a3,33
     300:	0056e463          	bltu	a3,t0,308 <cmp_complex+0x18c>
     304:	02200713          	li	a4,34
     308:	00249683          	lh	a3,2(s1)
     30c:	00049603          	lh	a2,0(s1)
     310:	0144a583          	lw	a1,20(s1)
     314:	0184a503          	lw	a0,24(s1)
     318:	48c080ef          	jal	87a4 <core_bench_state>
     31c:	03e4d783          	lhu	a5,62(s1)
     320:	00050a13          	mv	s4,a0
     324:	04078063          	beqz	a5,364 <cmp_complex+0x1e8>
     328:	0384d783          	lhu	a5,56(s1)
     32c:	f75ff06f          	j	2a0 <cmp_complex+0x124>
     330:	02100313          	li	t1,33
     334:	00c36463          	bltu	t1,a2,33c <cmp_complex+0x1c0>
     338:	02200713          	li	a4,34
     33c:	00249683          	lh	a3,2(s1)
     340:	00049603          	lh	a2,0(s1)
     344:	0144a583          	lw	a1,20(s1)
     348:	0184a503          	lw	a0,24(s1)
     34c:	458080ef          	jal	87a4 <core_bench_state>
     350:	03e4d383          	lhu	t2,62(s1)
     354:	00050913          	mv	s2,a0
     358:	00038c63          	beqz	t2,370 <cmp_complex+0x1f4>
     35c:	0384d783          	lhu	a5,56(s1)
     360:	ec9ff06f          	j	228 <cmp_complex+0xac>
     364:	0384d783          	lhu	a5,56(s1)
     368:	02a49f23          	sh	a0,62(s1)
     36c:	f35ff06f          	j	2a0 <cmp_complex+0x124>
     370:	0384d783          	lhu	a5,56(s1)
     374:	02a49f23          	sh	a0,62(s1)
     378:	eb1ff06f          	j	228 <cmp_complex+0xac>
     37c:	0384d783          	lhu	a5,56(s1)
     380:	02a49e23          	sh	a0,60(s1)
     384:	ea5ff06f          	j	228 <cmp_complex+0xac>
     388:	0384d783          	lhu	a5,56(s1)
     38c:	02a49e23          	sh	a0,60(s1)
     390:	f11ff06f          	j	2a0 <cmp_complex+0x124>

00000394 <cmp_idx>:
     394:	00060a63          	beqz	a2,3a8 <cmp_idx+0x14>
     398:	00251503          	lh	a0,2(a0)
     39c:	00259583          	lh	a1,2(a1)
     3a0:	40b50533          	sub	a0,a0,a1
     3a4:	00008067          	ret
     3a8:	00051783          	lh	a5,0(a0)
     3ac:	f007f713          	andi	a4,a5,-256
     3b0:	3c87b28b          	th.extu	t0,a5,15,8
     3b4:	00576333          	or	t1,a4,t0
     3b8:	00651023          	sh	t1,0(a0)
     3bc:	00059383          	lh	t2,0(a1)
     3c0:	00251503          	lh	a0,2(a0)
     3c4:	f003f613          	andi	a2,t2,-256
     3c8:	3c83b68b          	th.extu	a3,t2,15,8
     3cc:	00d66833          	or	a6,a2,a3
     3d0:	01059023          	sh	a6,0(a1)
     3d4:	00259583          	lh	a1,2(a1)
     3d8:	40b50533          	sub	a0,a0,a1
     3dc:	00008067          	ret

000003e0 <copy_info>:
     3e0:	00059703          	lh	a4,0(a1)
     3e4:	00259783          	lh	a5,2(a1)
     3e8:	00e51023          	sh	a4,0(a0)
     3ec:	00f51123          	sh	a5,2(a0)
     3f0:	00008067          	ret

000003f4 <core_bench_list>:
     3f4:	000107b7          	lui	a5,0x10
     3f8:	fa010113          	addi	sp,sp,-96
     3fc:	00c78293          	addi	t0,a5,12 # 1000c <core_cached_prev_head>
     400:	04812c23          	sw	s0,88(sp)
     404:	0002a303          	lw	t1,0(t0)
     408:	02452403          	lw	s0,36(a0)
     40c:	04112e23          	sw	ra,92(sp)
     410:	00512c23          	sw	t0,24(sp)
     414:	00451e83          	lh	t4,4(a0)
     418:	72830e63          	beq	t1,s0,b54 <core_bench_list+0x760>
     41c:	00041463          	bnez	s0,424 <core_bench_list+0x30>
     420:	4100106f          	j	1830 <core_bench_list+0x143c>
     424:	00040793          	mv	a5,s0
     428:	00000693          	li	a3,0
     42c:	0007a703          	lw	a4,0(a5)
     430:	00d7a223          	sw	a3,4(a5)
     434:	00078693          	mv	a3,a5
     438:	06070a63          	beqz	a4,4ac <core_bench_list+0xb8>
     43c:	00072803          	lw	a6,0(a4)
     440:	00f72223          	sw	a5,4(a4)
     444:	00070693          	mv	a3,a4
     448:	06080263          	beqz	a6,4ac <core_bench_list+0xb8>
     44c:	00082883          	lw	a7,0(a6)
     450:	00e82223          	sw	a4,4(a6)
     454:	00080693          	mv	a3,a6
     458:	04088a63          	beqz	a7,4ac <core_bench_list+0xb8>
     45c:	0008ae03          	lw	t3,0(a7)
     460:	0108a223          	sw	a6,4(a7)
     464:	00088693          	mv	a3,a7
     468:	040e0263          	beqz	t3,4ac <core_bench_list+0xb8>
     46c:	000e2f03          	lw	t5,0(t3)
     470:	011e2223          	sw	a7,4(t3)
     474:	000e0693          	mv	a3,t3
     478:	020f0a63          	beqz	t5,4ac <core_bench_list+0xb8>
     47c:	000f2f83          	lw	t6,0(t5)
     480:	01cf2223          	sw	t3,4(t5)
     484:	000f0693          	mv	a3,t5
     488:	020f8263          	beqz	t6,4ac <core_bench_list+0xb8>
     48c:	000fa283          	lw	t0,0(t6)
     490:	01efa223          	sw	t5,4(t6)
     494:	000f8693          	mv	a3,t6
     498:	00028a63          	beqz	t0,4ac <core_bench_list+0xb8>
     49c:	0002a783          	lw	a5,0(t0)
     4a0:	01f2a223          	sw	t6,4(t0)
     4a4:	00028693          	mv	a3,t0
     4a8:	f80792e3          	bnez	a5,42c <core_bench_list+0x38>
     4ac:	01812303          	lw	t1,24(sp)
     4b0:	00832023          	sw	s0,0(t1)
     4b4:	00d32223          	sw	a3,4(t1)
     4b8:	0805c863          	bltz	a1,548 <core_bench_list+0x154>
     4bc:	fffe8313          	addi	t1,t4,-1
     4c0:	0ff37613          	zext.b	a2,t1
     4c4:	00c12a23          	sw	a2,20(sp)
     4c8:	01d04463          	bgtz	t4,4d0 <core_bench_list+0xdc>
     4cc:	4080106f          	j	18d4 <core_bench_list+0x14e0>
     4d0:	00be8eb3          	add	t4,t4,a1
     4d4:	3c0eaf0b          	th.ext	t5,t4,15,0
     4d8:	01e12e23          	sw	t5,28(sp)
     4dc:	00041463          	bnez	s0,4e4 <core_bench_list+0xf0>
     4e0:	3180106f          	j	17f8 <core_bench_list+0x1404>
     4e4:	00058713          	mv	a4,a1
     4e8:	00000813          	li	a6,0
     4ec:	00000313          	li	t1,0
     4f0:	00000613          	li	a2,0
     4f4:	00000e13          	li	t3,0
     4f8:	00100e93          	li	t4,1
     4fc:	00a41783          	lh	a5,10(s0)
     500:	6ee78a63          	beq	a5,a4,bf4 <core_bench_list+0x800>
     504:	66081c63          	bnez	a6,b7c <core_bench_list+0x788>
     508:	00042283          	lw	t0,0(s0)
     50c:	02028463          	beqz	t0,534 <core_bench_list+0x140>
     510:	00a29383          	lh	t2,10(t0)
     514:	06e38ee3          	beq	t2,a4,d90 <core_bench_list+0x99c>
     518:	0002a283          	lw	t0,0(t0)
     51c:	00029463          	bnez	t0,524 <core_bench_list+0x130>
     520:	2ec0106f          	j	180c <core_bench_list+0x1418>
     524:	00a29883          	lh	a7,10(t0)
     528:	6ce88863          	beq	a7,a4,bf8 <core_bench_list+0x804>
     52c:	0002a283          	lw	t0,0(t0)
     530:	fe0290e3          	bnez	t0,510 <core_bench_list+0x11c>
     534:	00068813          	mv	a6,a3
     538:	00130313          	addi	t1,t1,1
     53c:	00040693          	mv	a3,s0
     540:	00080413          	mv	s0,a6
     544:	2e00106f          	j	1824 <core_bench_list+0x1430>
     548:	63d05263          	blez	t4,b6c <core_bench_list+0x778>
     54c:	00040893          	mv	a7,s0
     550:	00068413          	mv	s0,a3
     554:	00000693          	li	a3,0
     558:	0ff6f393          	zext.b	t2,a3
     55c:	00712a23          	sw	t2,20(sp)
     560:	00000813          	li	a6,0
     564:	00000313          	li	t1,0
     568:	00000613          	li	a2,0
     56c:	00000e13          	li	t3,0
     570:	00100f13          	li	t5,1
     574:	00088793          	mv	a5,a7
     578:	00089c63          	bnez	a7,590 <core_bench_list+0x19c>
     57c:	0700006f          	j	5ec <core_bench_list+0x1f8>
     580:	0007af83          	lw	t6,0(a5)
     584:	0047a783          	lw	a5,4(a5)
     588:	410f978b          	th.mveqz	a5,t6,a6
     58c:	06078063          	beqz	a5,5ec <core_bench_list+0x1f8>
     590:	0087c703          	lbu	a4,8(a5)
     594:	01412f83          	lw	t6,20(sp)
     598:	feef94e3          	bne	t6,a4,580 <core_bench_list+0x18c>
     59c:	00879283          	lh	t0,8(a5)
     5a0:	00160613          	addi	a2,a2,1
     5a4:	0012f393          	andi	t2,t0,1
     5a8:	00038663          	beqz	t2,5b4 <core_bench_list+0x1c0>
     5ac:	4892d713          	bexti	a4,t0,0x9
     5b0:	00ee0e33          	add	t3,t3,a4
     5b4:	03e802e3          	beq	a6,t5,dd8 <core_bench_list+0x9e4>
     5b8:	0047a283          	lw	t0,4(a5)
     5bc:	7e029463          	bnez	t0,da4 <core_bench_list+0x9b0>
     5c0:	00088793          	mv	a5,a7
     5c4:	00100813          	li	a6,1
     5c8:	00168693          	addi	a3,a3,1
     5cc:	3c06a68b          	th.ext	a3,a3,15,0
     5d0:	00040893          	mv	a7,s0
     5d4:	04de8a63          	beq	t4,a3,628 <core_bench_list+0x234>
     5d8:	0ff6f393          	zext.b	t2,a3
     5dc:	00712a23          	sw	t2,20(sp)
     5e0:	00078413          	mv	s0,a5
     5e4:	00088793          	mv	a5,a7
     5e8:	fa0894e3          	bnez	a7,590 <core_bench_list+0x19c>
     5ec:	00042383          	lw	t2,0(s0)
     5f0:	00442703          	lw	a4,4(s0)
     5f4:	00130313          	addi	t1,t1,1
     5f8:	00184293          	xori	t0,a6,1
     5fc:	01e81463          	bne	a6,t5,604 <core_bench_list+0x210>
     600:	00038713          	mv	a4,t2
     604:	00970f83          	lb	t6,9(a4)
     608:	00168693          	addi	a3,a3,1
     60c:	00088793          	mv	a5,a7
     610:	3c06a68b          	th.ext	a3,a3,15,0
     614:	001ff893          	andi	a7,t6,1
     618:	011e0e33          	add	t3,t3,a7
     61c:	00028813          	mv	a6,t0
     620:	00040893          	mv	a7,s0
     624:	fade9ae3          	bne	t4,a3,5d8 <core_bench_list+0x1e4>
     628:	00261693          	slli	a3,a2,0x2
     62c:	40668633          	sub	a2,a3,t1
     630:	00ce0e33          	add	t3,t3,a2
     634:	3c0e330b          	th.extu	t1,t3,15,0
     638:	00b12e23          	sw	a1,28(sp)
     63c:	00612623          	sw	t1,12(sp)
     640:	60081e63          	bnez	a6,c5c <core_bench_list+0x868>
     644:	00041463          	bnez	s0,64c <core_bench_list+0x258>
     648:	2340106f          	j	187c <core_bench_list+0x1488>
     64c:	00040e13          	mv	t3,s0
     650:	00000793          	li	a5,0
     654:	000e2f83          	lw	t6,0(t3)
     658:	00fe2223          	sw	a5,4(t3)
     65c:	000e0793          	mv	a5,t3
     660:	060f8a63          	beqz	t6,6d4 <core_bench_list+0x2e0>
     664:	000fae83          	lw	t4,0(t6)
     668:	01cfa223          	sw	t3,4(t6)
     66c:	000f8793          	mv	a5,t6
     670:	060e8263          	beqz	t4,6d4 <core_bench_list+0x2e0>
     674:	000eaf03          	lw	t5,0(t4)
     678:	01fea223          	sw	t6,4(t4)
     67c:	000e8793          	mv	a5,t4
     680:	040f0a63          	beqz	t5,6d4 <core_bench_list+0x2e0>
     684:	000f2383          	lw	t2,0(t5)
     688:	01df2223          	sw	t4,4(t5)
     68c:	000f0793          	mv	a5,t5
     690:	04038263          	beqz	t2,6d4 <core_bench_list+0x2e0>
     694:	0003a283          	lw	t0,0(t2)
     698:	01e3a223          	sw	t5,4(t2)
     69c:	00038793          	mv	a5,t2
     6a0:	02028a63          	beqz	t0,6d4 <core_bench_list+0x2e0>
     6a4:	0002a603          	lw	a2,0(t0)
     6a8:	0072a223          	sw	t2,4(t0)
     6ac:	00028793          	mv	a5,t0
     6b0:	02060263          	beqz	a2,6d4 <core_bench_list+0x2e0>
     6b4:	00062683          	lw	a3,0(a2)
     6b8:	00562223          	sw	t0,4(a2)
     6bc:	00060793          	mv	a5,a2
     6c0:	00068a63          	beqz	a3,6d4 <core_bench_list+0x2e0>
     6c4:	0006ae03          	lw	t3,0(a3)
     6c8:	00c6a223          	sw	a2,4(a3)
     6cc:	00068793          	mv	a5,a3
     6d0:	f80e12e3          	bnez	t3,654 <core_bench_list+0x260>
     6d4:	01812303          	lw	t1,24(sp)
     6d8:	00832023          	sw	s0,0(t1)
     6dc:	00f32223          	sw	a5,4(t1)
     6e0:	22b046e3          	bgtz	a1,110c <core_bench_list+0xd18>
     6e4:	00042803          	lw	a6,0(s0)
     6e8:	01c12e83          	lw	t4,28(sp)
     6ec:	00082283          	lw	t0,0(a6)
     6f0:	00882503          	lw	a0,8(a6)
     6f4:	0082a883          	lw	a7,8(t0)
     6f8:	01182423          	sw	a7,8(a6)
     6fc:	00a2a423          	sw	a0,8(t0)
     700:	00082703          	lw	a4,0(a6)
     704:	00072f83          	lw	t6,0(a4)
     708:	01f82023          	sw	t6,0(a6)
     70c:	0002a023          	sw	zero,0(t0)
     710:	000ed463          	bgez	t4,718 <core_bench_list+0x324>
     714:	0c00106f          	j	17d4 <core_bench_list+0x13e0>
     718:	00040513          	mv	a0,s0
     71c:	0100006f          	j	72c <core_bench_list+0x338>
     720:	00052503          	lw	a0,0(a0)
     724:	00051463          	bnez	a0,72c <core_bench_list+0x338>
     728:	0540106f          	j	177c <core_bench_list+0x1388>
     72c:	00a51603          	lh	a2,10(a0)
     730:	01c12e03          	lw	t3,28(sp)
     734:	ffc616e3          	bne	a2,t3,720 <core_bench_list+0x32c>
     738:	00042303          	lw	t1,0(s0)
     73c:	00845683          	lhu	a3,8(s0)
     740:	00c12583          	lw	a1,12(sp)
     744:	50b6880b          	.insn	4, 0x50b6880b
     748:	00052783          	lw	a5,0(a0)
     74c:	3c08350b          	th.extu	a0,a6,15,0
     750:	00a12623          	sw	a0,12(sp)
     754:	08078a63          	beqz	a5,7e8 <core_bench_list+0x3f4>
     758:	00c12883          	lw	a7,12(sp)
     75c:	5116870b          	.insn	4, 0x5116870b
     760:	0007af83          	lw	t6,0(a5)
     764:	3c073e8b          	th.extu	t4,a4,15,0
     768:	01d12623          	sw	t4,12(sp)
     76c:	060f8e63          	beqz	t6,7e8 <core_bench_list+0x3f4>
     770:	51d68f0b          	.insn	4, 0x51d68f0b
     774:	000fa383          	lw	t2,0(t6)
     778:	3c0f360b          	th.extu	a2,t5,15,0
     77c:	00c12623          	sw	a2,12(sp)
     780:	06038463          	beqz	t2,7e8 <core_bench_list+0x3f4>
     784:	50c68e0b          	.insn	4, 0x50c68e0b
     788:	0003a803          	lw	a6,0(t2)
     78c:	3c0e358b          	th.extu	a1,t3,15,0
     790:	00b12623          	sw	a1,12(sp)
     794:	04080a63          	beqz	a6,7e8 <core_bench_list+0x3f4>
     798:	50b6850b          	.insn	4, 0x50b6850b
     79c:	00082783          	lw	a5,0(a6)
     7a0:	3c05388b          	th.extu	a7,a0,15,0
     7a4:	01112623          	sw	a7,12(sp)
     7a8:	04078063          	beqz	a5,7e8 <core_bench_list+0x3f4>
     7ac:	5116870b          	.insn	4, 0x5116870b
     7b0:	0007af83          	lw	t6,0(a5)
     7b4:	3c073e8b          	th.extu	t4,a4,15,0
     7b8:	01d12623          	sw	t4,12(sp)
     7bc:	020f8663          	beqz	t6,7e8 <core_bench_list+0x3f4>
     7c0:	51d68f0b          	.insn	4, 0x51d68f0b
     7c4:	000fa383          	lw	t2,0(t6)
     7c8:	3c0f360b          	th.extu	a2,t5,15,0
     7cc:	00c12623          	sw	a2,12(sp)
     7d0:	00038c63          	beqz	t2,7e8 <core_bench_list+0x3f4>
     7d4:	50c68e0b          	.insn	4, 0x50c68e0b
     7d8:	0003a503          	lw	a0,0(t2)
     7dc:	3c0e380b          	th.extu	a6,t3,15,0
     7e0:	01012623          	sw	a6,12(sp)
     7e4:	f4051ee3          	bnez	a0,740 <core_bench_list+0x34c>
     7e8:	00832583          	lw	a1,8(t1)
     7ec:	0082a683          	lw	a3,8(t0)
     7f0:	00032783          	lw	a5,0(t1)
     7f4:	00b2a423          	sw	a1,8(t0)
     7f8:	00d32423          	sw	a3,8(t1)
     7fc:	00f2a023          	sw	a5,0(t0)
     800:	00100e13          	li	t3,1
     804:	00532023          	sw	t0,0(t1)
     808:	000e0f13          	mv	t5,t3
     80c:	00041463          	bnez	s0,814 <core_bench_list+0x420>
     810:	1380106f          	j	1948 <core_bench_list+0x1554>
     814:	00000313          	li	t1,0
     818:	00000713          	li	a4,0
     81c:	00000e93          	li	t4,0
     820:	007e7293          	andi	t0,t3,7
     824:	001e8e93          	addi	t4,t4,1
     828:	00040613          	mv	a2,s0
     82c:	00000793          	li	a5,0
     830:	08028463          	beqz	t0,8b8 <core_bench_list+0x4c4>
     834:	0fc7d663          	bge	a5,t3,920 <core_bench_list+0x52c>
     838:	00042603          	lw	a2,0(s0)
     83c:	00100793          	li	a5,1
     840:	0e060063          	beqz	a2,920 <core_bench_list+0x52c>
     844:	06f28a63          	beq	t0,a5,8b8 <core_bench_list+0x4c4>
     848:	00200893          	li	a7,2
     84c:	07128063          	beq	t0,a7,8ac <core_bench_list+0x4b8>
     850:	00300f93          	li	t6,3
     854:	05f28663          	beq	t0,t6,8a0 <core_bench_list+0x4ac>
     858:	00400393          	li	t2,4
     85c:	02728c63          	beq	t0,t2,894 <core_bench_list+0x4a0>
     860:	00500513          	li	a0,5
     864:	02a28263          	beq	t0,a0,888 <core_bench_list+0x494>
     868:	00600813          	li	a6,6
     86c:	01028863          	beq	t0,a6,87c <core_bench_list+0x488>
     870:	00062603          	lw	a2,0(a2)
     874:	00088793          	mv	a5,a7
     878:	0a060463          	beqz	a2,920 <core_bench_list+0x52c>
     87c:	00062603          	lw	a2,0(a2)
     880:	00178793          	addi	a5,a5,1
     884:	08060e63          	beqz	a2,920 <core_bench_list+0x52c>
     888:	00062603          	lw	a2,0(a2)
     88c:	00178793          	addi	a5,a5,1
     890:	08060863          	beqz	a2,920 <core_bench_list+0x52c>
     894:	00062603          	lw	a2,0(a2)
     898:	00178793          	addi	a5,a5,1
     89c:	08060263          	beqz	a2,920 <core_bench_list+0x52c>
     8a0:	00062603          	lw	a2,0(a2)
     8a4:	00178793          	addi	a5,a5,1
     8a8:	06060c63          	beqz	a2,920 <core_bench_list+0x52c>
     8ac:	00062603          	lw	a2,0(a2)
     8b0:	00178793          	addi	a5,a5,1
     8b4:	06060663          	beqz	a2,920 <core_bench_list+0x52c>
     8b8:	07c7d463          	bge	a5,t3,920 <core_bench_list+0x52c>
     8bc:	00062603          	lw	a2,0(a2)
     8c0:	00178793          	addi	a5,a5,1
     8c4:	00078593          	mv	a1,a5
     8c8:	04060c63          	beqz	a2,920 <core_bench_list+0x52c>
     8cc:	00062603          	lw	a2,0(a2)
     8d0:	00178793          	addi	a5,a5,1
     8d4:	04060663          	beqz	a2,920 <core_bench_list+0x52c>
     8d8:	00062603          	lw	a2,0(a2)
     8dc:	00258793          	addi	a5,a1,2
     8e0:	04060063          	beqz	a2,920 <core_bench_list+0x52c>
     8e4:	00062603          	lw	a2,0(a2)
     8e8:	00358793          	addi	a5,a1,3
     8ec:	02060a63          	beqz	a2,920 <core_bench_list+0x52c>
     8f0:	00062603          	lw	a2,0(a2)
     8f4:	00458793          	addi	a5,a1,4
     8f8:	02060463          	beqz	a2,920 <core_bench_list+0x52c>
     8fc:	00062603          	lw	a2,0(a2)
     900:	00558793          	addi	a5,a1,5
     904:	00060e63          	beqz	a2,920 <core_bench_list+0x52c>
     908:	00062603          	lw	a2,0(a2)
     90c:	00658793          	addi	a5,a1,6
     910:	00060863          	beqz	a2,920 <core_bench_list+0x52c>
     914:	00062603          	lw	a2,0(a2)
     918:	00758793          	addi	a5,a1,7
     91c:	f8061ee3          	bnez	a2,8b8 <core_bench_list+0x4c4>
     920:	00070693          	mv	a3,a4
     924:	000e0513          	mv	a0,t3
     928:	00040713          	mv	a4,s0
     92c:	00060413          	mv	s0,a2
     930:	04f05e63          	blez	a5,98c <core_bench_list+0x598>
     934:	4a050c63          	beqz	a0,dec <core_bench_list+0x9f8>
     938:	4e040463          	beqz	s0,e20 <core_bench_list+0xa2c>
     93c:	00a41803          	lh	a6,10(s0)
     940:	00871f83          	lh	t6,8(a4)
     944:	00a71883          	lh	a7,10(a4)
     948:	f00ff393          	andi	t2,t6,-256
     94c:	3c8fb58b          	th.extu	a1,t6,15,8
     950:	00b3e633          	or	a2,t2,a1
     954:	00c71423          	sh	a2,8(a4)
     958:	00841283          	lh	t0,8(s0)
     95c:	f002ff93          	andi	t6,t0,-256
     960:	3c82b38b          	th.extu	t2,t0,15,8
     964:	007fe5b3          	or	a1,t6,t2
     968:	00b41423          	sh	a1,8(s0)
     96c:	4f185863          	bge	a6,a7,e5c <core_bench_list+0xa68>
     970:	00042803          	lw	a6,0(s0)
     974:	fff50513          	addi	a0,a0,-1
     978:	50068263          	beqz	a3,e7c <core_bench_list+0xa88>
     97c:	0086a023          	sw	s0,0(a3)
     980:	00040693          	mv	a3,s0
     984:	00080413          	mv	s0,a6
     988:	faf046e3          	bgtz	a5,934 <core_bench_list+0x540>
     98c:	52a05063          	blez	a0,eac <core_bench_list+0xab8>
     990:	1a040863          	beqz	s0,b40 <core_bench_list+0x74c>
     994:	fa0794e3          	bnez	a5,93c <core_bench_list+0x548>
     998:	fff50713          	addi	a4,a0,-1
     99c:	00777793          	andi	a5,a4,7
     9a0:	0e078a63          	beqz	a5,a94 <core_bench_list+0x6a0>
     9a4:	00042283          	lw	t0,0(s0)
     9a8:	00070513          	mv	a0,a4
     9ac:	56068c63          	beqz	a3,f24 <core_bench_list+0xb30>
     9b0:	0086a023          	sw	s0,0(a3)
     9b4:	00040693          	mv	a3,s0
     9b8:	18028463          	beqz	t0,b40 <core_bench_list+0x74c>
     9bc:	00100613          	li	a2,1
     9c0:	00028413          	mv	s0,t0
     9c4:	0cc78863          	beq	a5,a2,a94 <core_bench_list+0x6a0>
     9c8:	00200f93          	li	t6,2
     9cc:	0bf78663          	beq	a5,t6,a78 <core_bench_list+0x684>
     9d0:	00300393          	li	t2,3
     9d4:	08778463          	beq	a5,t2,a5c <core_bench_list+0x668>
     9d8:	00400593          	li	a1,4
     9dc:	06b78263          	beq	a5,a1,a40 <core_bench_list+0x64c>
     9e0:	00500893          	li	a7,5
     9e4:	05178063          	beq	a5,a7,a24 <core_bench_list+0x630>
     9e8:	00600813          	li	a6,6
     9ec:	01078e63          	beq	a5,a6,a08 <core_bench_list+0x614>
     9f0:	0002a403          	lw	s0,0(t0)
     9f4:	fff50513          	addi	a0,a0,-1
     9f8:	6a068e63          	beqz	a3,10b4 <core_bench_list+0xcc0>
     9fc:	0056a023          	sw	t0,0(a3)
     a00:	00028693          	mv	a3,t0
     a04:	12040e63          	beqz	s0,b40 <core_bench_list+0x74c>
     a08:	00042703          	lw	a4,0(s0)
     a0c:	fff50513          	addi	a0,a0,-1
     a10:	52068e63          	beqz	a3,f4c <core_bench_list+0xb58>
     a14:	0086a023          	sw	s0,0(a3)
     a18:	00040693          	mv	a3,s0
     a1c:	12070263          	beqz	a4,b40 <core_bench_list+0x74c>
     a20:	00070413          	mv	s0,a4
     a24:	00042783          	lw	a5,0(s0)
     a28:	fff50513          	addi	a0,a0,-1
     a2c:	50068c63          	beqz	a3,f44 <core_bench_list+0xb50>
     a30:	0086a023          	sw	s0,0(a3)
     a34:	00040693          	mv	a3,s0
     a38:	10078463          	beqz	a5,b40 <core_bench_list+0x74c>
     a3c:	00078413          	mv	s0,a5
     a40:	00042283          	lw	t0,0(s0)
     a44:	fff50513          	addi	a0,a0,-1
     a48:	4e068a63          	beqz	a3,f3c <core_bench_list+0xb48>
     a4c:	0086a023          	sw	s0,0(a3)
     a50:	00040693          	mv	a3,s0
     a54:	0e028663          	beqz	t0,b40 <core_bench_list+0x74c>
     a58:	00028413          	mv	s0,t0
     a5c:	00042603          	lw	a2,0(s0)
     a60:	fff50513          	addi	a0,a0,-1
     a64:	4c068863          	beqz	a3,f34 <core_bench_list+0xb40>
     a68:	0086a023          	sw	s0,0(a3)
     a6c:	00040693          	mv	a3,s0
     a70:	0c060863          	beqz	a2,b40 <core_bench_list+0x74c>
     a74:	00060413          	mv	s0,a2
     a78:	00042f83          	lw	t6,0(s0)
     a7c:	fff50513          	addi	a0,a0,-1
     a80:	4a068663          	beqz	a3,f2c <core_bench_list+0xb38>
     a84:	0086a023          	sw	s0,0(a3)
     a88:	00040693          	mv	a3,s0
     a8c:	0a0f8a63          	beqz	t6,b40 <core_bench_list+0x74c>
     a90:	000f8413          	mv	s0,t6
     a94:	00042383          	lw	t2,0(s0)
     a98:	fff50513          	addi	a0,a0,-1
     a9c:	42068c63          	beqz	a3,ed4 <core_bench_list+0xae0>
     aa0:	0086a023          	sw	s0,0(a3)
     aa4:	42050c63          	beqz	a0,edc <core_bench_list+0xae8>
     aa8:	00040693          	mv	a3,s0
     aac:	08038a63          	beqz	t2,b40 <core_bench_list+0x74c>
     ab0:	0003a583          	lw	a1,0(t2)
     ab4:	42040c63          	beqz	s0,eec <core_bench_list+0xaf8>
     ab8:	00742023          	sw	t2,0(s0)
     abc:	00038693          	mv	a3,t2
     ac0:	08058063          	beqz	a1,b40 <core_bench_list+0x74c>
     ac4:	0005a403          	lw	s0,0(a1)
     ac8:	42038663          	beqz	t2,ef4 <core_bench_list+0xb00>
     acc:	00b3a023          	sw	a1,0(t2)
     ad0:	00058693          	mv	a3,a1
     ad4:	06040663          	beqz	s0,b40 <core_bench_list+0x74c>
     ad8:	00042883          	lw	a7,0(s0)
     adc:	42058063          	beqz	a1,efc <core_bench_list+0xb08>
     ae0:	0085a023          	sw	s0,0(a1)
     ae4:	00040693          	mv	a3,s0
     ae8:	04088c63          	beqz	a7,b40 <core_bench_list+0x74c>
     aec:	0008a803          	lw	a6,0(a7)
     af0:	40040a63          	beqz	s0,f04 <core_bench_list+0xb10>
     af4:	01142023          	sw	a7,0(s0)
     af8:	00088693          	mv	a3,a7
     afc:	04080263          	beqz	a6,b40 <core_bench_list+0x74c>
     b00:	00082283          	lw	t0,0(a6)
     b04:	40088463          	beqz	a7,f0c <core_bench_list+0xb18>
     b08:	0108a023          	sw	a6,0(a7)
     b0c:	00080693          	mv	a3,a6
     b10:	02028863          	beqz	t0,b40 <core_bench_list+0x74c>
     b14:	0002a783          	lw	a5,0(t0)
     b18:	3e080e63          	beqz	a6,f14 <core_bench_list+0xb20>
     b1c:	00582023          	sw	t0,0(a6)
     b20:	00028693          	mv	a3,t0
     b24:	00078e63          	beqz	a5,b40 <core_bench_list+0x74c>
     b28:	0007a403          	lw	s0,0(a5)
     b2c:	ff950513          	addi	a0,a0,-7
     b30:	3e028663          	beqz	t0,f1c <core_bench_list+0xb28>
     b34:	00f2a023          	sw	a5,0(t0)
     b38:	00078693          	mv	a3,a5
     b3c:	f4041ce3          	bnez	s0,a94 <core_bench_list+0x6a0>
     b40:	0006a023          	sw	zero,0(a3)
     b44:	41ee8863          	beq	t4,t5,f54 <core_bench_list+0xb60>
     b48:	001e1e13          	slli	t3,t3,0x1
     b4c:	00030413          	mv	s0,t1
     b50:	cbdff06f          	j	80c <core_bench_list+0x418>
     b54:	01812383          	lw	t2,24(sp)
     b58:	0043a683          	lw	a3,4(t2)
     b5c:	8c0680e3          	beqz	a3,41c <core_bench_list+0x28>
     b60:	9405dee3          	bgez	a1,4bc <core_bench_list+0xc8>
     b64:	9fd044e3          	bgtz	t4,54c <core_bench_list+0x158>
     b68:	5a040ce3          	beqz	s0,1920 <core_bench_list+0x152c>
     b6c:	00b12e23          	sw	a1,28(sp)
     b70:	00012623          	sw	zero,12(sp)
     b74:	00012a23          	sw	zero,20(sp)
     b78:	ad5ff06f          	j	64c <core_bench_list+0x258>
     b7c:	00442283          	lw	t0,4(s0)
     b80:	02028263          	beqz	t0,ba4 <core_bench_list+0x7b0>
     b84:	00a29f03          	lh	t5,10(t0)
     b88:	1aef0863          	beq	t5,a4,d38 <core_bench_list+0x944>
     b8c:	0042a283          	lw	t0,4(t0)
     b90:	46028ee3          	beqz	t0,180c <core_bench_list+0x1418>
     b94:	00a29383          	lh	t2,10(t0)
     b98:	06e38063          	beq	t2,a4,bf8 <core_bench_list+0x804>
     b9c:	0042a283          	lw	t0,4(t0)
     ba0:	fe0292e3          	bnez	t0,b84 <core_bench_list+0x790>
     ba4:	00130313          	addi	t1,t1,1
     ba8:	00068f93          	mv	t6,a3
     bac:	0006ae83          	lw	t4,0(a3)
     bb0:	00000813          	li	a6,0
     bb4:	00040693          	mv	a3,s0
     bb8:	000f8413          	mv	s0,t6
     bbc:	009e8f03          	lb	t5,9(t4)
     bc0:	01c12283          	lw	t0,28(sp)
     bc4:	00170793          	addi	a5,a4,1
     bc8:	001f7393          	andi	t2,t5,1
     bcc:	3c07a70b          	th.ext	a4,a5,15,0
     bd0:	007e0e33          	add	t3,t3,t2
     bd4:	92e292e3          	bne	t0,a4,4f8 <core_bench_list+0x104>
     bd8:	00261693          	slli	a3,a2,0x2
     bdc:	40668633          	sub	a2,a3,t1
     be0:	00ce0e33          	add	t3,t3,a2
     be4:	3c0e330b          	th.extu	t1,t3,15,0
     be8:	00612623          	sw	t1,12(sp)
     bec:	a4080ce3          	beqz	a6,644 <core_bench_list+0x250>
     bf0:	06c0006f          	j	c5c <core_bench_list+0x868>
     bf4:	00040293          	mv	t0,s0
     bf8:	00829883          	lh	a7,8(t0)
     bfc:	00160613          	addi	a2,a2,1
     c00:	0018ff93          	andi	t6,a7,1
     c04:	000f8663          	beqz	t6,c10 <core_bench_list+0x81c>
     c08:	4898df13          	bexti	t5,a7,0x9
     c0c:	01ee0e33          	add	t3,t3,t5
     c10:	13d80c63          	beq	a6,t4,d48 <core_bench_list+0x954>
     c14:	0042af03          	lw	t5,4(t0)
     c18:	0e0f1063          	bnez	t5,cf8 <core_bench_list+0x904>
     c1c:	01c12783          	lw	a5,28(sp)
     c20:	00170813          	addi	a6,a4,1
     c24:	3c08270b          	th.ext	a4,a6,15,0
     c28:	00f70e63          	beq	a4,a5,c44 <core_bench_list+0x850>
     c2c:	48068ce3          	beqz	a3,18c4 <core_bench_list+0x14d0>
     c30:	00100813          	li	a6,1
     c34:	00040893          	mv	a7,s0
     c38:	00068413          	mv	s0,a3
     c3c:	00088693          	mv	a3,a7
     c40:	8bdff06f          	j	4fc <core_bench_list+0x108>
     c44:	00261393          	slli	t2,a2,0x2
     c48:	406382b3          	sub	t0,t2,t1
     c4c:	005e08b3          	add	a7,t3,t0
     c50:	3c08b70b          	th.extu	a4,a7,15,0
     c54:	00e12623          	sw	a4,12(sp)
     c58:	00068413          	mv	s0,a3
     c5c:	420400e3          	beqz	s0,187c <core_bench_list+0x1488>
     c60:	00042383          	lw	t2,0(s0)
     c64:	00000713          	li	a4,0
     c68:	00e42023          	sw	a4,0(s0)
     c6c:	9e0380e3          	beqz	t2,64c <core_bench_list+0x258>
     c70:	0003a283          	lw	t0,0(t2)
     c74:	0083a023          	sw	s0,0(t2)
     c78:	00038413          	mv	s0,t2
     c7c:	9c0288e3          	beqz	t0,64c <core_bench_list+0x258>
     c80:	0002a603          	lw	a2,0(t0)
     c84:	0072a023          	sw	t2,0(t0)
     c88:	00028413          	mv	s0,t0
     c8c:	9c0600e3          	beqz	a2,64c <core_bench_list+0x258>
     c90:	00062683          	lw	a3,0(a2)
     c94:	00562023          	sw	t0,0(a2)
     c98:	00060413          	mv	s0,a2
     c9c:	9a0688e3          	beqz	a3,64c <core_bench_list+0x258>
     ca0:	0006ae03          	lw	t3,0(a3)
     ca4:	00c6a023          	sw	a2,0(a3)
     ca8:	00068413          	mv	s0,a3
     cac:	9a0e00e3          	beqz	t3,64c <core_bench_list+0x258>
     cb0:	000e2303          	lw	t1,0(t3)
     cb4:	00de2023          	sw	a3,0(t3)
     cb8:	000e0413          	mv	s0,t3
     cbc:	980308e3          	beqz	t1,64c <core_bench_list+0x258>
     cc0:	00032803          	lw	a6,0(t1)
     cc4:	01c32023          	sw	t3,0(t1)
     cc8:	00030413          	mv	s0,t1
     ccc:	980800e3          	beqz	a6,64c <core_bench_list+0x258>
     cd0:	00082883          	lw	a7,0(a6)
     cd4:	00682023          	sw	t1,0(a6)
     cd8:	00080413          	mv	s0,a6
     cdc:	00080713          	mv	a4,a6
     ce0:	960886e3          	beqz	a7,64c <core_bench_list+0x258>
     ce4:	00088413          	mv	s0,a7
     ce8:	00042383          	lw	t2,0(s0)
     cec:	00e42023          	sw	a4,0(s0)
     cf0:	f80390e3          	bnez	t2,c70 <core_bench_list+0x87c>
     cf4:	959ff06f          	j	64c <core_bench_list+0x258>
     cf8:	004f2803          	lw	a6,4(t5)
     cfc:	0102a223          	sw	a6,4(t0)
     d00:	2c0802e3          	beqz	a6,17c4 <core_bench_list+0x13d0>
     d04:	00582023          	sw	t0,0(a6)
     d08:	0046a883          	lw	a7,4(a3)
     d0c:	00df2023          	sw	a3,0(t5)
     d10:	011f2223          	sw	a7,4(t5)
     d14:	26088ee3          	beqz	a7,1790 <core_bench_list+0x139c>
     d18:	01c12f83          	lw	t6,28(sp)
     d1c:	01e8a023          	sw	t5,0(a7)
     d20:	00170713          	addi	a4,a4,1
     d24:	3c07270b          	th.ext	a4,a4,15,0
     d28:	01e6a223          	sw	t5,4(a3)
     d2c:	27f70ee3          	beq	a4,t6,17a8 <core_bench_list+0x13b4>
     d30:	00100813          	li	a6,1
     d34:	f01ff06f          	j	c34 <core_bench_list+0x840>
     d38:	00829883          	lh	a7,8(t0)
     d3c:	00160613          	addi	a2,a2,1
     d40:	0018f793          	andi	a5,a7,1
     d44:	ec0792e3          	bnez	a5,c08 <core_bench_list+0x814>
     d48:	0002a803          	lw	a6,0(t0)
     d4c:	36080863          	beqz	a6,10bc <core_bench_list+0xcc8>
     d50:	00082383          	lw	t2,0(a6)
     d54:	0072a023          	sw	t2,0(t0)
     d58:	30038ee3          	beqz	t2,1874 <core_bench_list+0x1480>
     d5c:	0053a223          	sw	t0,4(t2)
     d60:	0006a283          	lw	t0,0(a3)
     d64:	00d82223          	sw	a3,4(a6)
     d68:	00582023          	sw	t0,0(a6)
     d6c:	300280e3          	beqz	t0,186c <core_bench_list+0x1478>
     d70:	0102a223          	sw	a6,4(t0)
     d74:	01c12f83          	lw	t6,28(sp)
     d78:	00170893          	addi	a7,a4,1
     d7c:	3c08a70b          	th.ext	a4,a7,15,0
     d80:	0106a023          	sw	a6,0(a3)
     d84:	2cef86e3          	beq	t6,a4,1850 <core_bench_list+0x145c>
     d88:	00000813          	li	a6,0
     d8c:	ea9ff06f          	j	c34 <core_bench_list+0x840>
     d90:	00829883          	lh	a7,8(t0)
     d94:	00160613          	addi	a2,a2,1
     d98:	0018ff93          	andi	t6,a7,1
     d9c:	e60f96e3          	bnez	t6,c08 <core_bench_list+0x814>
     da0:	e75ff06f          	j	c14 <core_bench_list+0x820>
     da4:	0042a383          	lw	t2,4(t0)
     da8:	0077a223          	sw	t2,4(a5)
     dac:	00038663          	beqz	t2,db8 <core_bench_list+0x9c4>
     db0:	00f3a023          	sw	a5,0(t2)
     db4:	00088793          	mv	a5,a7
     db8:	00442703          	lw	a4,4(s0)
     dbc:	0082a023          	sw	s0,0(t0)
     dc0:	00e2a223          	sw	a4,4(t0)
     dc4:	200704e3          	beqz	a4,17cc <core_bench_list+0x13d8>
     dc8:	00572023          	sw	t0,0(a4)
     dcc:	00542223          	sw	t0,4(s0)
     dd0:	00100813          	li	a6,1
     dd4:	ff4ff06f          	j	5c8 <core_bench_list+0x1d4>
     dd8:	0007af83          	lw	t6,0(a5)
     ddc:	2e0f9e63          	bnez	t6,10d8 <core_bench_list+0xce4>
     de0:	00088793          	mv	a5,a7
     de4:	00000813          	li	a6,0
     de8:	fe0ff06f          	j	5c8 <core_bench_list+0x1d4>
     dec:	00072603          	lw	a2,0(a4)
     df0:	fff78793          	addi	a5,a5,-1
     df4:	02068063          	beqz	a3,e14 <core_bench_list+0xa20>
     df8:	00e6a023          	sw	a4,0(a3)
     dfc:	08078663          	beqz	a5,e88 <core_bench_list+0xa94>
     e00:	00070693          	mv	a3,a4
     e04:	00060713          	mv	a4,a2
     e08:	00072603          	lw	a2,0(a4)
     e0c:	fff78793          	addi	a5,a5,-1
     e10:	fe0694e3          	bnez	a3,df8 <core_bench_list+0xa04>
     e14:	06078863          	beqz	a5,e84 <core_bench_list+0xa90>
     e18:	00070313          	mv	t1,a4
     e1c:	fe5ff06f          	j	e00 <core_bench_list+0xa0c>
     e20:	00068293          	mv	t0,a3
     e24:	fff78793          	addi	a5,a5,-1
     e28:	00070693          	mv	a3,a4
     e2c:	00072703          	lw	a4,0(a4)
     e30:	02028063          	beqz	t0,e50 <core_bench_list+0xa5c>
     e34:	00d2a023          	sw	a3,0(t0)
     e38:	b4078ae3          	beqz	a5,98c <core_bench_list+0x598>
     e3c:	00068293          	mv	t0,a3
     e40:	fff78793          	addi	a5,a5,-1
     e44:	00070693          	mv	a3,a4
     e48:	00072703          	lw	a4,0(a4)
     e4c:	fe0294e3          	bnez	t0,e34 <core_bench_list+0xa40>
     e50:	06078463          	beqz	a5,eb8 <core_bench_list+0xac4>
     e54:	00068313          	mv	t1,a3
     e58:	fe5ff06f          	j	e3c <core_bench_list+0xa48>
     e5c:	00072883          	lw	a7,0(a4)
     e60:	fff78793          	addi	a5,a5,-1
     e64:	02068863          	beqz	a3,e94 <core_bench_list+0xaa0>
     e68:	00e6a023          	sw	a4,0(a3)
     e6c:	02f05a63          	blez	a5,ea0 <core_bench_list+0xaac>
     e70:	00070693          	mv	a3,a4
     e74:	00088713          	mv	a4,a7
     e78:	ac9ff06f          	j	940 <core_bench_list+0x54c>
     e7c:	00040313          	mv	t1,s0
     e80:	b01ff06f          	j	980 <core_bench_list+0x58c>
     e84:	00070313          	mv	t1,a4
     e88:	98041ce3          	bnez	s0,820 <core_bench_list+0x42c>
     e8c:	00070693          	mv	a3,a4
     e90:	cb1ff06f          	j	b40 <core_bench_list+0x74c>
     e94:	02f05863          	blez	a5,ec4 <core_bench_list+0xad0>
     e98:	00070313          	mv	t1,a4
     e9c:	fd5ff06f          	j	e70 <core_bench_list+0xa7c>
     ea0:	00070693          	mv	a3,a4
     ea4:	00088713          	mv	a4,a7
     ea8:	aea044e3          	bgtz	a0,990 <core_bench_list+0x59c>
     eac:	00068713          	mv	a4,a3
     eb0:	960418e3          	bnez	s0,820 <core_bench_list+0x42c>
     eb4:	fd9ff06f          	j	e8c <core_bench_list+0xa98>
     eb8:	00068313          	mv	t1,a3
     ebc:	00000413          	li	s0,0
     ec0:	acdff06f          	j	98c <core_bench_list+0x598>
     ec4:	00070313          	mv	t1,a4
     ec8:	00070693          	mv	a3,a4
     ecc:	00088713          	mv	a4,a7
     ed0:	abdff06f          	j	98c <core_bench_list+0x598>
     ed4:	00040313          	mv	t1,s0
     ed8:	bc0518e3          	bnez	a0,aa8 <core_bench_list+0x6b4>
     edc:	00040713          	mv	a4,s0
     ee0:	00038413          	mv	s0,t2
     ee4:	92041ee3          	bnez	s0,820 <core_bench_list+0x42c>
     ee8:	fa5ff06f          	j	e8c <core_bench_list+0xa98>
     eec:	00038313          	mv	t1,t2
     ef0:	bcdff06f          	j	abc <core_bench_list+0x6c8>
     ef4:	00058313          	mv	t1,a1
     ef8:	bd9ff06f          	j	ad0 <core_bench_list+0x6dc>
     efc:	00040313          	mv	t1,s0
     f00:	be5ff06f          	j	ae4 <core_bench_list+0x6f0>
     f04:	00088313          	mv	t1,a7
     f08:	bf1ff06f          	j	af8 <core_bench_list+0x704>
     f0c:	00080313          	mv	t1,a6
     f10:	bfdff06f          	j	b0c <core_bench_list+0x718>
     f14:	00028313          	mv	t1,t0
     f18:	c09ff06f          	j	b20 <core_bench_list+0x72c>
     f1c:	00078313          	mv	t1,a5
     f20:	c19ff06f          	j	b38 <core_bench_list+0x744>
     f24:	00040313          	mv	t1,s0
     f28:	a8dff06f          	j	9b4 <core_bench_list+0x5c0>
     f2c:	00040313          	mv	t1,s0
     f30:	b59ff06f          	j	a88 <core_bench_list+0x694>
     f34:	00040313          	mv	t1,s0
     f38:	b35ff06f          	j	a6c <core_bench_list+0x678>
     f3c:	00040313          	mv	t1,s0
     f40:	b11ff06f          	j	a50 <core_bench_list+0x65c>
     f44:	00040313          	mv	t1,s0
     f48:	aedff06f          	j	a34 <core_bench_list+0x640>
     f4c:	00040313          	mv	t1,s0
     f50:	ac9ff06f          	j	a18 <core_bench_list+0x624>
     f54:	00030893          	mv	a7,t1
     f58:	00000813          	li	a6,0
     f5c:	08030263          	beqz	t1,fe0 <core_bench_list+0xbec>
     f60:	0008ae83          	lw	t4,0(a7)
     f64:	0108a223          	sw	a6,4(a7)
     f68:	00088813          	mv	a6,a7
     f6c:	060e8a63          	beqz	t4,fe0 <core_bench_list+0xbec>
     f70:	000eaf03          	lw	t5,0(t4)
     f74:	011ea223          	sw	a7,4(t4)
     f78:	000e8813          	mv	a6,t4
     f7c:	060f0263          	beqz	t5,fe0 <core_bench_list+0xbec>
     f80:	000f2f83          	lw	t6,0(t5)
     f84:	01df2223          	sw	t4,4(t5)
     f88:	000f0813          	mv	a6,t5
     f8c:	040f8a63          	beqz	t6,fe0 <core_bench_list+0xbec>
     f90:	000fa383          	lw	t2,0(t6)
     f94:	01efa223          	sw	t5,4(t6)
     f98:	000f8813          	mv	a6,t6
     f9c:	04038263          	beqz	t2,fe0 <core_bench_list+0xbec>
     fa0:	0003a583          	lw	a1,0(t2)
     fa4:	01f3a223          	sw	t6,4(t2)
     fa8:	00038813          	mv	a6,t2
     fac:	02058a63          	beqz	a1,fe0 <core_bench_list+0xbec>
     fb0:	0005a703          	lw	a4,0(a1)
     fb4:	0075a223          	sw	t2,4(a1)
     fb8:	00058813          	mv	a6,a1
     fbc:	02070263          	beqz	a4,fe0 <core_bench_list+0xbec>
     fc0:	00072403          	lw	s0,0(a4)
     fc4:	00b72223          	sw	a1,4(a4)
     fc8:	00070813          	mv	a6,a4
     fcc:	00040a63          	beqz	s0,fe0 <core_bench_list+0xbec>
     fd0:	00042883          	lw	a7,0(s0)
     fd4:	00e42223          	sw	a4,4(s0)
     fd8:	00040813          	mv	a6,s0
     fdc:	f80892e3          	bnez	a7,f60 <core_bench_list+0xb6c>
     fe0:	01812283          	lw	t0,24(sp)
     fe4:	00032583          	lw	a1,0(t1)
     fe8:	0062a023          	sw	t1,0(t0)
     fec:	0102a223          	sw	a6,4(t0)
     ff0:	0a058863          	beqz	a1,10a0 <core_bench_list+0xcac>
     ff4:	00835303          	lhu	t1,8(t1)
     ff8:	00c12783          	lw	a5,12(sp)
     ffc:	50f3050b          	.insn	4, 0x50f3050b
    1000:	0005a603          	lw	a2,0(a1)
    1004:	3c05368b          	th.extu	a3,a0,15,0
    1008:	00d12623          	sw	a3,12(sp)
    100c:	08060a63          	beqz	a2,10a0 <core_bench_list+0xcac>
    1010:	00c12e03          	lw	t3,12(sp)
    1014:	51c30e8b          	.insn	4, 0x51c30e8b
    1018:	00062f03          	lw	t5,0(a2)
    101c:	3c0ebf8b          	th.extu	t6,t4,15,0
    1020:	01f12623          	sw	t6,12(sp)
    1024:	060f0e63          	beqz	t5,10a0 <core_bench_list+0xcac>
    1028:	51f3038b          	.insn	4, 0x51f3038b
    102c:	000f2583          	lw	a1,0(t5)
    1030:	3c03b70b          	th.extu	a4,t2,15,0
    1034:	00e12623          	sw	a4,12(sp)
    1038:	06058463          	beqz	a1,10a0 <core_bench_list+0xcac>
    103c:	50e3040b          	.insn	4, 0x50e3040b
    1040:	0005a883          	lw	a7,0(a1)
    1044:	3c04380b          	th.extu	a6,s0,15,0
    1048:	01012623          	sw	a6,12(sp)
    104c:	04088a63          	beqz	a7,10a0 <core_bench_list+0xcac>
    1050:	5103028b          	.insn	4, 0x5103028b
    1054:	0008a783          	lw	a5,0(a7)
    1058:	3c02b50b          	th.extu	a0,t0,15,0
    105c:	00a12623          	sw	a0,12(sp)
    1060:	04078063          	beqz	a5,10a0 <core_bench_list+0xcac>
    1064:	50a3060b          	.insn	4, 0x50a3060b
    1068:	0007ae03          	lw	t3,0(a5)
    106c:	3c06368b          	th.extu	a3,a2,15,0
    1070:	00d12623          	sw	a3,12(sp)
    1074:	020e0663          	beqz	t3,10a0 <core_bench_list+0xcac>
    1078:	50d30e8b          	.insn	4, 0x50d30e8b
    107c:	000e2f03          	lw	t5,0(t3)
    1080:	3c0ebf8b          	th.extu	t6,t4,15,0
    1084:	01f12623          	sw	t6,12(sp)
    1088:	000f0c63          	beqz	t5,10a0 <core_bench_list+0xcac>
    108c:	51f3038b          	.insn	4, 0x51f3038b
    1090:	000f2583          	lw	a1,0(t5)
    1094:	3c03b70b          	th.extu	a4,t2,15,0
    1098:	00e12623          	sw	a4,12(sp)
    109c:	f4059ee3          	bnez	a1,ff8 <core_bench_list+0xc04>
    10a0:	05c12083          	lw	ra,92(sp)
    10a4:	05812403          	lw	s0,88(sp)
    10a8:	00c12503          	lw	a0,12(sp)
    10ac:	06010113          	addi	sp,sp,96
    10b0:	00008067          	ret
    10b4:	00028313          	mv	t1,t0
    10b8:	949ff06f          	j	a00 <core_bench_list+0x60c>
    10bc:	01c12783          	lw	a5,28(sp)
    10c0:	00170713          	addi	a4,a4,1
    10c4:	3c07270b          	th.ext	a4,a4,15,0
    10c8:	78e78463          	beq	a5,a4,1850 <core_bench_list+0x145c>
    10cc:	06068ae3          	beqz	a3,1940 <core_bench_list+0x154c>
    10d0:	00000813          	li	a6,0
    10d4:	b61ff06f          	j	c34 <core_bench_list+0x840>
    10d8:	000fa803          	lw	a6,0(t6)
    10dc:	0107a023          	sw	a6,0(a5)
    10e0:	00080663          	beqz	a6,10ec <core_bench_list+0xcf8>
    10e4:	00f82223          	sw	a5,4(a6)
    10e8:	00088793          	mv	a5,a7
    10ec:	00042883          	lw	a7,0(s0)
    10f0:	008fa223          	sw	s0,4(t6)
    10f4:	011fa023          	sw	a7,0(t6)
    10f8:	74088863          	beqz	a7,1848 <core_bench_list+0x1454>
    10fc:	01f8a223          	sw	t6,4(a7)
    1100:	01f42023          	sw	t6,0(s0)
    1104:	00000813          	li	a6,0
    1108:	cc0ff06f          	j	5c8 <core_bench_list+0x1d4>
    110c:	04912a23          	sw	s1,84(sp)
    1110:	03b12623          	sw	s11,44(sp)
    1114:	02850493          	addi	s1,a0,40
    1118:	00100d93          	li	s11,1
    111c:	05512223          	sw	s5,68(sp)
    1120:	03a12823          	sw	s10,48(sp)
    1124:	05212823          	sw	s2,80(sp)
    1128:	05312623          	sw	s3,76(sp)
    112c:	05412423          	sw	s4,72(sp)
    1130:	05612023          	sw	s6,64(sp)
    1134:	03712e23          	sw	s7,60(sp)
    1138:	03812c23          	sw	s8,56(sp)
    113c:	03912a23          	sw	s9,52(sp)
    1140:	00050a93          	mv	s5,a0
    1144:	000d8d13          	mv	s10,s11
    1148:	00912823          	sw	s1,16(sp)
    114c:	76040863          	beqz	s0,18bc <core_bench_list+0x14c8>
    1150:	00000c93          	li	s9,0
    1154:	00000913          	li	s2,0
    1158:	00012423          	sw	zero,8(sp)
    115c:	00812983          	lw	s3,8(sp)
    1160:	007df593          	andi	a1,s11,7
    1164:	00040713          	mv	a4,s0
    1168:	00198a13          	addi	s4,s3,1
    116c:	01412423          	sw	s4,8(sp)
    1170:	00000493          	li	s1,0
    1174:	08058463          	beqz	a1,11fc <core_bench_list+0xe08>
    1178:	0fb4d663          	bge	s1,s11,1264 <core_bench_list+0xe70>
    117c:	00042703          	lw	a4,0(s0)
    1180:	00100493          	li	s1,1
    1184:	0e070063          	beqz	a4,1264 <core_bench_list+0xe70>
    1188:	06958a63          	beq	a1,s1,11fc <core_bench_list+0xe08>
    118c:	00200b13          	li	s6,2
    1190:	07658063          	beq	a1,s6,11f0 <core_bench_list+0xdfc>
    1194:	00300b93          	li	s7,3
    1198:	05758663          	beq	a1,s7,11e4 <core_bench_list+0xdf0>
    119c:	00400c13          	li	s8,4
    11a0:	03858c63          	beq	a1,s8,11d8 <core_bench_list+0xde4>
    11a4:	00500513          	li	a0,5
    11a8:	02a58263          	beq	a1,a0,11cc <core_bench_list+0xdd8>
    11ac:	00600813          	li	a6,6
    11b0:	01058863          	beq	a1,a6,11c0 <core_bench_list+0xdcc>
    11b4:	00072703          	lw	a4,0(a4)
    11b8:	000b0493          	mv	s1,s6
    11bc:	0a070463          	beqz	a4,1264 <core_bench_list+0xe70>
    11c0:	00072703          	lw	a4,0(a4)
    11c4:	00148493          	addi	s1,s1,1
    11c8:	08070e63          	beqz	a4,1264 <core_bench_list+0xe70>
    11cc:	00072703          	lw	a4,0(a4)
    11d0:	00148493          	addi	s1,s1,1
    11d4:	08070863          	beqz	a4,1264 <core_bench_list+0xe70>
    11d8:	00072703          	lw	a4,0(a4)
    11dc:	00148493          	addi	s1,s1,1
    11e0:	08070263          	beqz	a4,1264 <core_bench_list+0xe70>
    11e4:	00072703          	lw	a4,0(a4)
    11e8:	00148493          	addi	s1,s1,1
    11ec:	06070c63          	beqz	a4,1264 <core_bench_list+0xe70>
    11f0:	00072703          	lw	a4,0(a4)
    11f4:	00148493          	addi	s1,s1,1
    11f8:	06070663          	beqz	a4,1264 <core_bench_list+0xe70>
    11fc:	07b4d463          	bge	s1,s11,1264 <core_bench_list+0xe70>
    1200:	00072703          	lw	a4,0(a4)
    1204:	00148493          	addi	s1,s1,1
    1208:	00048893          	mv	a7,s1
    120c:	04070c63          	beqz	a4,1264 <core_bench_list+0xe70>
    1210:	00072703          	lw	a4,0(a4)
    1214:	00148493          	addi	s1,s1,1
    1218:	04070663          	beqz	a4,1264 <core_bench_list+0xe70>
    121c:	00072703          	lw	a4,0(a4)
    1220:	00288493          	addi	s1,a7,2
    1224:	04070063          	beqz	a4,1264 <core_bench_list+0xe70>
    1228:	00072703          	lw	a4,0(a4)
    122c:	00388493          	addi	s1,a7,3
    1230:	02070a63          	beqz	a4,1264 <core_bench_list+0xe70>
    1234:	00072703          	lw	a4,0(a4)
    1238:	00488493          	addi	s1,a7,4
    123c:	02070463          	beqz	a4,1264 <core_bench_list+0xe70>
    1240:	00072703          	lw	a4,0(a4)
    1244:	00588493          	addi	s1,a7,5
    1248:	00070e63          	beqz	a4,1264 <core_bench_list+0xe70>
    124c:	00072703          	lw	a4,0(a4)
    1250:	00688493          	addi	s1,a7,6
    1254:	00070863          	beqz	a4,1264 <core_bench_list+0xe70>
    1258:	00072703          	lw	a4,0(a4)
    125c:	00788493          	addi	s1,a7,7
    1260:	f8071ee3          	bnez	a4,11fc <core_bench_list+0xe08>
    1264:	00090993          	mv	s3,s2
    1268:	000d8c13          	mv	s8,s11
    126c:	00040913          	mv	s2,s0
    1270:	00070413          	mv	s0,a4
    1274:	04905663          	blez	s1,12c0 <core_bench_list+0xecc>
    1278:	200c0a63          	beqz	s8,148c <core_bench_list+0x1098>
    127c:	42040063          	beqz	s0,169c <core_bench_list+0x12a8>
    1280:	00891a03          	lh	s4,8(s2)
    1284:	080a7e93          	andi	t4,s4,128
    1288:	2a0e8663          	beqz	t4,1534 <core_bench_list+0x1140>
    128c:	07fa7b93          	andi	s7,s4,127
    1290:	00841a03          	lh	s4,8(s0)
    1294:	080a7513          	andi	a0,s4,128
    1298:	22050463          	beqz	a0,14c0 <core_bench_list+0x10cc>
    129c:	07fa7613          	andi	a2,s4,127
    12a0:	27765663          	bge	a2,s7,150c <core_bench_list+0x1118>
    12a4:	00042b83          	lw	s7,0(s0)
    12a8:	fffc0c13          	addi	s8,s8,-1
    12ac:	2c098a63          	beqz	s3,1580 <core_bench_list+0x118c>
    12b0:	0089a023          	sw	s0,0(s3)
    12b4:	00040993          	mv	s3,s0
    12b8:	000b8413          	mv	s0,s7
    12bc:	fa904ee3          	bgtz	s1,1278 <core_bench_list+0xe84>
    12c0:	3d805863          	blez	s8,1690 <core_bench_list+0x129c>
    12c4:	1a040863          	beqz	s0,1474 <core_bench_list+0x1080>
    12c8:	fa049ce3          	bnez	s1,1280 <core_bench_list+0xe8c>
    12cc:	fffc0913          	addi	s2,s8,-1
    12d0:	00797493          	andi	s1,s2,7
    12d4:	0e048a63          	beqz	s1,13c8 <core_bench_list+0xfd4>
    12d8:	00042583          	lw	a1,0(s0)
    12dc:	00090c13          	mv	s8,s2
    12e0:	44098a63          	beqz	s3,1734 <core_bench_list+0x1340>
    12e4:	0089a023          	sw	s0,0(s3)
    12e8:	00040993          	mv	s3,s0
    12ec:	18058463          	beqz	a1,1474 <core_bench_list+0x1080>
    12f0:	00100813          	li	a6,1
    12f4:	00058413          	mv	s0,a1
    12f8:	0d048863          	beq	s1,a6,13c8 <core_bench_list+0xfd4>
    12fc:	00200a13          	li	s4,2
    1300:	0b448663          	beq	s1,s4,13ac <core_bench_list+0xfb8>
    1304:	00300513          	li	a0,3
    1308:	08a48463          	beq	s1,a0,1390 <core_bench_list+0xf9c>
    130c:	00400893          	li	a7,4
    1310:	07148263          	beq	s1,a7,1374 <core_bench_list+0xf80>
    1314:	00500713          	li	a4,5
    1318:	04e48063          	beq	s1,a4,1358 <core_bench_list+0xf64>
    131c:	00600f93          	li	t6,6
    1320:	01f48e63          	beq	s1,t6,133c <core_bench_list+0xf48>
    1324:	0005a403          	lw	s0,0(a1)
    1328:	fffc0c13          	addi	s8,s8,-1
    132c:	44098463          	beqz	s3,1774 <core_bench_list+0x1380>
    1330:	00b9a023          	sw	a1,0(s3)
    1334:	00058993          	mv	s3,a1
    1338:	12040e63          	beqz	s0,1474 <core_bench_list+0x1080>
    133c:	00042e83          	lw	t4,0(s0)
    1340:	fffc0c13          	addi	s8,s8,-1
    1344:	42098463          	beqz	s3,176c <core_bench_list+0x1378>
    1348:	0089a023          	sw	s0,0(s3)
    134c:	00040993          	mv	s3,s0
    1350:	120e8263          	beqz	t4,1474 <core_bench_list+0x1080>
    1354:	000e8413          	mv	s0,t4
    1358:	00042f03          	lw	t5,0(s0)
    135c:	fffc0c13          	addi	s8,s8,-1
    1360:	3e098a63          	beqz	s3,1754 <core_bench_list+0x1360>
    1364:	0089a023          	sw	s0,0(s3)
    1368:	00040993          	mv	s3,s0
    136c:	100f0463          	beqz	t5,1474 <core_bench_list+0x1080>
    1370:	000f0413          	mv	s0,t5
    1374:	00042383          	lw	t2,0(s0)
    1378:	fffc0c13          	addi	s8,s8,-1
    137c:	3c098863          	beqz	s3,174c <core_bench_list+0x1358>
    1380:	0089a023          	sw	s0,0(s3)
    1384:	00040993          	mv	s3,s0
    1388:	0e038663          	beqz	t2,1474 <core_bench_list+0x1080>
    138c:	00038413          	mv	s0,t2
    1390:	00042283          	lw	t0,0(s0)
    1394:	fffc0c13          	addi	s8,s8,-1
    1398:	3a098663          	beqz	s3,1744 <core_bench_list+0x1350>
    139c:	0089a023          	sw	s0,0(s3)
    13a0:	00040993          	mv	s3,s0
    13a4:	0c028863          	beqz	t0,1474 <core_bench_list+0x1080>
    13a8:	00028413          	mv	s0,t0
    13ac:	00042b03          	lw	s6,0(s0)
    13b0:	fffc0c13          	addi	s8,s8,-1
    13b4:	38098463          	beqz	s3,173c <core_bench_list+0x1348>
    13b8:	0089a023          	sw	s0,0(s3)
    13bc:	00040993          	mv	s3,s0
    13c0:	0a0b0a63          	beqz	s6,1474 <core_bench_list+0x1080>
    13c4:	000b0413          	mv	s0,s6
    13c8:	00042603          	lw	a2,0(s0)
    13cc:	fffc0c13          	addi	s8,s8,-1
    13d0:	32098263          	beqz	s3,16f4 <core_bench_list+0x1300>
    13d4:	0089a023          	sw	s0,0(s3)
    13d8:	380c0263          	beqz	s8,175c <core_bench_list+0x1368>
    13dc:	00040993          	mv	s3,s0
    13e0:	08060a63          	beqz	a2,1474 <core_bench_list+0x1080>
    13e4:	00062e03          	lw	t3,0(a2)
    13e8:	30040a63          	beqz	s0,16fc <core_bench_list+0x1308>
    13ec:	00c42023          	sw	a2,0(s0)
    13f0:	00060993          	mv	s3,a2
    13f4:	080e0063          	beqz	t3,1474 <core_bench_list+0x1080>
    13f8:	000e2403          	lw	s0,0(t3)
    13fc:	30060463          	beqz	a2,1704 <core_bench_list+0x1310>
    1400:	01c62023          	sw	t3,0(a2)
    1404:	000e0993          	mv	s3,t3
    1408:	06040663          	beqz	s0,1474 <core_bench_list+0x1080>
    140c:	00042783          	lw	a5,0(s0)
    1410:	2e0e0e63          	beqz	t3,170c <core_bench_list+0x1318>
    1414:	008e2023          	sw	s0,0(t3)
    1418:	00040993          	mv	s3,s0
    141c:	04078c63          	beqz	a5,1474 <core_bench_list+0x1080>
    1420:	0007ab83          	lw	s7,0(a5)
    1424:	2e040863          	beqz	s0,1714 <core_bench_list+0x1320>
    1428:	00f42023          	sw	a5,0(s0)
    142c:	00078993          	mv	s3,a5
    1430:	040b8263          	beqz	s7,1474 <core_bench_list+0x1080>
    1434:	000ba683          	lw	a3,0(s7)
    1438:	2e078263          	beqz	a5,171c <core_bench_list+0x1328>
    143c:	0177a023          	sw	s7,0(a5)
    1440:	000b8993          	mv	s3,s7
    1444:	02068863          	beqz	a3,1474 <core_bench_list+0x1080>
    1448:	0006a303          	lw	t1,0(a3)
    144c:	2e0b8063          	beqz	s7,172c <core_bench_list+0x1338>
    1450:	00dba023          	sw	a3,0(s7)
    1454:	00068993          	mv	s3,a3
    1458:	00030e63          	beqz	t1,1474 <core_bench_list+0x1080>
    145c:	00032403          	lw	s0,0(t1)
    1460:	ff9c0c13          	addi	s8,s8,-7
    1464:	2c068063          	beqz	a3,1724 <core_bench_list+0x1330>
    1468:	0066a023          	sw	t1,0(a3)
    146c:	00030993          	mv	s3,t1
    1470:	f4041ce3          	bnez	s0,13c8 <core_bench_list+0xfd4>
    1474:	00812483          	lw	s1,8(sp)
    1478:	0009a023          	sw	zero,0(s3)
    147c:	47a48263          	beq	s1,s10,18e0 <core_bench_list+0x14ec>
    1480:	001d9d93          	slli	s11,s11,0x1
    1484:	000c8413          	mv	s0,s9
    1488:	cc5ff06f          	j	114c <core_bench_list+0xd58>
    148c:	00092583          	lw	a1,0(s2)
    1490:	fff48493          	addi	s1,s1,-1
    1494:	02098063          	beqz	s3,14b4 <core_bench_list+0x10c0>
    1498:	0129a023          	sw	s2,0(s3)
    149c:	1a048063          	beqz	s1,163c <core_bench_list+0x1248>
    14a0:	00090993          	mv	s3,s2
    14a4:	00058913          	mv	s2,a1
    14a8:	00092583          	lw	a1,0(s2)
    14ac:	fff48493          	addi	s1,s1,-1
    14b0:	fe0994e3          	bnez	s3,1498 <core_bench_list+0x10a4>
    14b4:	18048263          	beqz	s1,1638 <core_bench_list+0x1244>
    14b8:	00090c93          	mv	s9,s2
    14bc:	fe5ff06f          	j	14a0 <core_bench_list+0x10ac>
    14c0:	183a388b          	th.extu	a7,s4,6,3
    14c4:	00489713          	slli	a4,a7,0x4
    14c8:	00e88eb3          	add	t4,a7,a4
    14cc:	007a7f93          	andi	t6,s4,7
    14d0:	038ad783          	lhu	a5,56(s5)
    14d4:	000e8713          	mv	a4,t4
    14d8:	0c0f8a63          	beqz	t6,15ac <core_bench_list+0x11b8>
    14dc:	0baf8663          	beq	t6,s10,1588 <core_bench_list+0x1194>
    14e0:	3c0a350b          	th.extu	a0,s4,15,0
    14e4:	000a0b13          	mv	s6,s4
    14e8:	00078593          	mv	a1,a5
    14ec:	230080ef          	jal	971c <crcu16>
    14f0:	07fb7613          	andi	a2,s6,127
    14f4:	f00a7693          	andi	a3,s4,-256
    14f8:	00d66e33          	or	t3,a2,a3
    14fc:	080e6793          	ori	a5,t3,128
    1500:	02aa9c23          	sh	a0,56(s5)
    1504:	00f41423          	sh	a5,8(s0)
    1508:	d9764ee3          	blt	a2,s7,12a4 <core_bench_list+0xeb0>
    150c:	00092303          	lw	t1,0(s2)
    1510:	fff48493          	addi	s1,s1,-1
    1514:	12098a63          	beqz	s3,1648 <core_bench_list+0x1254>
    1518:	0129a023          	sw	s2,0(s3)
    151c:	16905463          	blez	s1,1684 <core_bench_list+0x1290>
    1520:	00090993          	mv	s3,s2
    1524:	00030913          	mv	s2,t1
    1528:	00891a03          	lh	s4,8(s2)
    152c:	080a7e93          	andi	t4,s4,128
    1530:	d40e9ee3          	bnez	t4,128c <core_bench_list+0xe98>
    1534:	183a3f0b          	th.extu	t5,s4,6,3
    1538:	004f1393          	slli	t2,t5,0x4
    153c:	007f0633          	add	a2,t5,t2
    1540:	007a7293          	andi	t0,s4,7
    1544:	038ad783          	lhu	a5,56(s5)
    1548:	00060713          	mv	a4,a2
    154c:	0a028c63          	beqz	t0,1604 <core_bench_list+0x1210>
    1550:	09a28863          	beq	t0,s10,15e0 <core_bench_list+0x11ec>
    1554:	3c0a350b          	th.extu	a0,s4,15,0
    1558:	000a0b13          	mv	s6,s4
    155c:	00078593          	mv	a1,a5
    1560:	1bc080ef          	jal	971c <crcu16>
    1564:	07fb7b93          	andi	s7,s6,127
    1568:	f00a7313          	andi	t1,s4,-256
    156c:	006be5b3          	or	a1,s7,t1
    1570:	0805e813          	ori	a6,a1,128
    1574:	02aa9c23          	sh	a0,56(s5)
    1578:	01091423          	sh	a6,8(s2)
    157c:	d15ff06f          	j	1290 <core_bench_list+0xe9c>
    1580:	00040c93          	mv	s9,s0
    1584:	d31ff06f          	j	12b4 <core_bench_list+0xec0>
    1588:	01012503          	lw	a0,16(sp)
    158c:	00078613          	mv	a2,a5
    1590:	000e8593          	mv	a1,t4
    1594:	719020ef          	jal	44ac <core_bench_matrix>
    1598:	03cad283          	lhu	t0,60(s5)
    159c:	00050b13          	mv	s6,a0
    15a0:	0c028663          	beqz	t0,166c <core_bench_list+0x1278>
    15a4:	038ad783          	lhu	a5,56(s5)
    15a8:	f41ff06f          	j	14e8 <core_bench_list+0x10f4>
    15ac:	02100f13          	li	t5,33
    15b0:	01df6463          	bltu	t5,t4,15b8 <core_bench_list+0x11c4>
    15b4:	02200713          	li	a4,34
    15b8:	002a9683          	lh	a3,2(s5)
    15bc:	000a9603          	lh	a2,0(s5)
    15c0:	014aa583          	lw	a1,20(s5)
    15c4:	018aa503          	lw	a0,24(s5)
    15c8:	1dc070ef          	jal	87a4 <core_bench_state>
    15cc:	03ead383          	lhu	t2,62(s5)
    15d0:	00050b13          	mv	s6,a0
    15d4:	08038063          	beqz	t2,1654 <core_bench_list+0x1260>
    15d8:	038ad783          	lhu	a5,56(s5)
    15dc:	f0dff06f          	j	14e8 <core_bench_list+0x10f4>
    15e0:	01012503          	lw	a0,16(sp)
    15e4:	00078613          	mv	a2,a5
    15e8:	00070593          	mv	a1,a4
    15ec:	6c1020ef          	jal	44ac <core_bench_matrix>
    15f0:	03cad783          	lhu	a5,60(s5)
    15f4:	00050b13          	mv	s6,a0
    15f8:	06078463          	beqz	a5,1660 <core_bench_list+0x126c>
    15fc:	038ad783          	lhu	a5,56(s5)
    1600:	f5dff06f          	j	155c <core_bench_list+0x1168>
    1604:	02100693          	li	a3,33
    1608:	00c6e463          	bltu	a3,a2,1610 <core_bench_list+0x121c>
    160c:	02200713          	li	a4,34
    1610:	002a9683          	lh	a3,2(s5)
    1614:	000a9603          	lh	a2,0(s5)
    1618:	014aa583          	lw	a1,20(s5)
    161c:	018aa503          	lw	a0,24(s5)
    1620:	184070ef          	jal	87a4 <core_bench_state>
    1624:	03eade03          	lhu	t3,62(s5)
    1628:	00050b13          	mv	s6,a0
    162c:	040e0663          	beqz	t3,1678 <core_bench_list+0x1284>
    1630:	038ad783          	lhu	a5,56(s5)
    1634:	f29ff06f          	j	155c <core_bench_list+0x1168>
    1638:	00090c93          	mv	s9,s2
    163c:	b20410e3          	bnez	s0,115c <core_bench_list+0xd68>
    1640:	00090993          	mv	s3,s2
    1644:	e31ff06f          	j	1474 <core_bench_list+0x1080>
    1648:	08905e63          	blez	s1,16e4 <core_bench_list+0x12f0>
    164c:	00090c93          	mv	s9,s2
    1650:	ed1ff06f          	j	1520 <core_bench_list+0x112c>
    1654:	038ad783          	lhu	a5,56(s5)
    1658:	02aa9f23          	sh	a0,62(s5)
    165c:	e8dff06f          	j	14e8 <core_bench_list+0x10f4>
    1660:	038ad783          	lhu	a5,56(s5)
    1664:	02aa9e23          	sh	a0,60(s5)
    1668:	ef5ff06f          	j	155c <core_bench_list+0x1168>
    166c:	038ad783          	lhu	a5,56(s5)
    1670:	02aa9e23          	sh	a0,60(s5)
    1674:	e75ff06f          	j	14e8 <core_bench_list+0x10f4>
    1678:	038ad783          	lhu	a5,56(s5)
    167c:	02aa9f23          	sh	a0,62(s5)
    1680:	eddff06f          	j	155c <core_bench_list+0x1168>
    1684:	00090993          	mv	s3,s2
    1688:	00030913          	mv	s2,t1
    168c:	c3804ce3          	bgtz	s8,12c4 <core_bench_list+0xed0>
    1690:	00098913          	mv	s2,s3
    1694:	ac0414e3          	bnez	s0,115c <core_bench_list+0xd68>
    1698:	fa9ff06f          	j	1640 <core_bench_list+0x124c>
    169c:	00098f93          	mv	t6,s3
    16a0:	fff48493          	addi	s1,s1,-1
    16a4:	00090993          	mv	s3,s2
    16a8:	00092903          	lw	s2,0(s2)
    16ac:	020f8063          	beqz	t6,16cc <core_bench_list+0x12d8>
    16b0:	013fa023          	sw	s3,0(t6)
    16b4:	c00486e3          	beqz	s1,12c0 <core_bench_list+0xecc>
    16b8:	00098f93          	mv	t6,s3
    16bc:	fff48493          	addi	s1,s1,-1
    16c0:	00090993          	mv	s3,s2
    16c4:	00092903          	lw	s2,0(s2)
    16c8:	fe0f94e3          	bnez	t6,16b0 <core_bench_list+0x12bc>
    16cc:	00048663          	beqz	s1,16d8 <core_bench_list+0x12e4>
    16d0:	00098c93          	mv	s9,s3
    16d4:	fe5ff06f          	j	16b8 <core_bench_list+0x12c4>
    16d8:	00098c93          	mv	s9,s3
    16dc:	00000413          	li	s0,0
    16e0:	be1ff06f          	j	12c0 <core_bench_list+0xecc>
    16e4:	00090c93          	mv	s9,s2
    16e8:	00090993          	mv	s3,s2
    16ec:	00030913          	mv	s2,t1
    16f0:	bd1ff06f          	j	12c0 <core_bench_list+0xecc>
    16f4:	00040c93          	mv	s9,s0
    16f8:	ce1ff06f          	j	13d8 <core_bench_list+0xfe4>
    16fc:	00060c93          	mv	s9,a2
    1700:	cf1ff06f          	j	13f0 <core_bench_list+0xffc>
    1704:	000e0c93          	mv	s9,t3
    1708:	cfdff06f          	j	1404 <core_bench_list+0x1010>
    170c:	00040c93          	mv	s9,s0
    1710:	d09ff06f          	j	1418 <core_bench_list+0x1024>
    1714:	00078c93          	mv	s9,a5
    1718:	d15ff06f          	j	142c <core_bench_list+0x1038>
    171c:	000b8c93          	mv	s9,s7
    1720:	d21ff06f          	j	1440 <core_bench_list+0x104c>
    1724:	00030c93          	mv	s9,t1
    1728:	d45ff06f          	j	146c <core_bench_list+0x1078>
    172c:	00068c93          	mv	s9,a3
    1730:	d25ff06f          	j	1454 <core_bench_list+0x1060>
    1734:	00040c93          	mv	s9,s0
    1738:	bb1ff06f          	j	12e8 <core_bench_list+0xef4>
    173c:	00040c93          	mv	s9,s0
    1740:	c7dff06f          	j	13bc <core_bench_list+0xfc8>
    1744:	00040c93          	mv	s9,s0
    1748:	c59ff06f          	j	13a0 <core_bench_list+0xfac>
    174c:	00040c93          	mv	s9,s0
    1750:	c35ff06f          	j	1384 <core_bench_list+0xf90>
    1754:	00040c93          	mv	s9,s0
    1758:	c11ff06f          	j	1368 <core_bench_list+0xf74>
    175c:	00040913          	mv	s2,s0
    1760:	00060413          	mv	s0,a2
    1764:	9e041ce3          	bnez	s0,115c <core_bench_list+0xd68>
    1768:	ed9ff06f          	j	1640 <core_bench_list+0x124c>
    176c:	00040c93          	mv	s9,s0
    1770:	bddff06f          	j	134c <core_bench_list+0xf58>
    1774:	00058c93          	mv	s9,a1
    1778:	bbdff06f          	j	1334 <core_bench_list+0xf40>
    177c:	00042303          	lw	t1,0(s0)
    1780:	00030513          	mv	a0,t1
    1784:	00030463          	beqz	t1,178c <core_bench_list+0x1398>
    1788:	fb5fe06f          	j	73c <core_bench_list+0x348>
    178c:	85cff06f          	j	7e8 <core_bench_list+0x3f4>
    1790:	01c12f83          	lw	t6,28(sp)
    1794:	00170713          	addi	a4,a4,1
    1798:	3c07270b          	th.ext	a4,a4,15,0
    179c:	01e6a223          	sw	t5,4(a3)
    17a0:	000f0413          	mv	s0,t5
    17a4:	d9f71663          	bne	a4,t6,d30 <core_bench_list+0x93c>
    17a8:	00261413          	slli	s0,a2,0x2
    17ac:	40640eb3          	sub	t4,s0,t1
    17b0:	01de0f33          	add	t5,t3,t4
    17b4:	3c0f378b          	th.extu	a5,t5,15,0
    17b8:	00f12623          	sw	a5,12(sp)
    17bc:	00068413          	mv	s0,a3
    17c0:	ca0ff06f          	j	c60 <core_bench_list+0x86c>
    17c4:	00028413          	mv	s0,t0
    17c8:	d40ff06f          	j	d08 <core_bench_list+0x914>
    17cc:	00028793          	mv	a5,t0
    17d0:	dfcff06f          	j	dcc <core_bench_list+0x9d8>
    17d4:	00040513          	mv	a0,s0
    17d8:	00c0006f          	j	17e4 <core_bench_list+0x13f0>
    17dc:	00052503          	lw	a0,0(a0)
    17e0:	f8050ee3          	beqz	a0,177c <core_bench_list+0x1388>
    17e4:	00854f03          	lbu	t5,8(a0)
    17e8:	01412383          	lw	t2,20(sp)
    17ec:	fe7f18e3          	bne	t5,t2,17dc <core_bench_list+0x13e8>
    17f0:	00042303          	lw	t1,0(s0)
    17f4:	f49fe06f          	j	73c <core_bench_list+0x348>
    17f8:	00058713          	mv	a4,a1
    17fc:	00000813          	li	a6,0
    1800:	00000313          	li	t1,0
    1804:	00000613          	li	a2,0
    1808:	00000e13          	li	t3,0
    180c:	00100e93          	li	t4,1
    1810:	01d30333          	add	t1,t1,t4
    1814:	b9d80a63          	beq	a6,t4,ba8 <core_bench_list+0x7b4>
    1818:	00068293          	mv	t0,a3
    181c:	00040693          	mv	a3,s0
    1820:	00028413          	mv	s0,t0
    1824:	00442e83          	lw	t4,4(s0)
    1828:	00100813          	li	a6,1
    182c:	b90ff06f          	j	bbc <core_bench_list+0x7c8>
    1830:	01812603          	lw	a2,24(sp)
    1834:	00062023          	sw	zero,0(a2)
    1838:	00062223          	sw	zero,4(a2)
    183c:	0c05cc63          	bltz	a1,1914 <core_bench_list+0x1520>
    1840:	00000693          	li	a3,0
    1844:	c79fe06f          	j	4bc <core_bench_list+0xc8>
    1848:	000f8793          	mv	a5,t6
    184c:	8b5ff06f          	j	1100 <core_bench_list+0xd0c>
    1850:	00261413          	slli	s0,a2,0x2
    1854:	40640633          	sub	a2,s0,t1
    1858:	00ce0e33          	add	t3,t3,a2
    185c:	3c0e330b          	th.extu	t1,t3,15,0
    1860:	00612623          	sw	t1,12(sp)
    1864:	00068413          	mv	s0,a3
    1868:	dddfe06f          	j	644 <core_bench_list+0x250>
    186c:	00080413          	mv	s0,a6
    1870:	d04ff06f          	j	d74 <core_bench_list+0x980>
    1874:	00028413          	mv	s0,t0
    1878:	ce8ff06f          	j	d60 <core_bench_list+0x96c>
    187c:	01812503          	lw	a0,24(sp)
    1880:	00052023          	sw	zero,0(a0)
    1884:	00052223          	sw	zero,4(a0)
    1888:	00b04463          	bgtz	a1,1890 <core_bench_list+0x149c>
    188c:	e59fe06f          	j	6e4 <core_bench_list+0x2f0>
    1890:	04912a23          	sw	s1,84(sp)
    1894:	05212823          	sw	s2,80(sp)
    1898:	05312623          	sw	s3,76(sp)
    189c:	05412423          	sw	s4,72(sp)
    18a0:	05512223          	sw	s5,68(sp)
    18a4:	05612023          	sw	s6,64(sp)
    18a8:	03712e23          	sw	s7,60(sp)
    18ac:	03812c23          	sw	s8,56(sp)
    18b0:	03912a23          	sw	s9,52(sp)
    18b4:	03a12823          	sw	s10,48(sp)
    18b8:	03b12623          	sw	s11,44(sp)
    18bc:	00002023          	sw	zero,0(zero) # 0 <_start>
    18c0:	00100073          	ebreak
    18c4:	00040693          	mv	a3,s0
    18c8:	00130313          	addi	t1,t1,1
    18cc:	00000413          	li	s0,0
    18d0:	ad8ff06f          	j	ba8 <core_bench_list+0x7b4>
    18d4:	00b12e23          	sw	a1,28(sp)
    18d8:	00012623          	sw	zero,12(sp)
    18dc:	d69fe06f          	j	644 <core_bench_list+0x250>
    18e0:	000c8413          	mv	s0,s9
    18e4:	05412483          	lw	s1,84(sp)
    18e8:	05012903          	lw	s2,80(sp)
    18ec:	04c12983          	lw	s3,76(sp)
    18f0:	04812a03          	lw	s4,72(sp)
    18f4:	04412a83          	lw	s5,68(sp)
    18f8:	04012b03          	lw	s6,64(sp)
    18fc:	03c12b83          	lw	s7,60(sp)
    1900:	03812c03          	lw	s8,56(sp)
    1904:	03412c83          	lw	s9,52(sp)
    1908:	03012d03          	lw	s10,48(sp)
    190c:	02c12d83          	lw	s11,44(sp)
    1910:	dd5fe06f          	j	6e4 <core_bench_list+0x2f0>
    1914:	00000693          	li	a3,0
    1918:	01d05463          	blez	t4,1920 <core_bench_list+0x152c>
    191c:	c31fe06f          	j	54c <core_bench_list+0x158>
    1920:	01812403          	lw	s0,24(sp)
    1924:	00b12e23          	sw	a1,28(sp)
    1928:	00012a23          	sw	zero,20(sp)
    192c:	00042023          	sw	zero,0(s0)
    1930:	00042223          	sw	zero,4(s0)
    1934:	00012623          	sw	zero,12(sp)
    1938:	00000413          	li	s0,0
    193c:	da9fe06f          	j	6e4 <core_bench_list+0x2f0>
    1940:	00130313          	addi	t1,t1,1
    1944:	ee1ff06f          	j	1824 <core_bench_list+0x1430>
    1948:	04912a23          	sw	s1,84(sp)
    194c:	05212823          	sw	s2,80(sp)
    1950:	05312623          	sw	s3,76(sp)
    1954:	05412423          	sw	s4,72(sp)
    1958:	05512223          	sw	s5,68(sp)
    195c:	05612023          	sw	s6,64(sp)
    1960:	03712e23          	sw	s7,60(sp)
    1964:	03812c23          	sw	s8,56(sp)
    1968:	03912a23          	sw	s9,52(sp)
    196c:	03a12823          	sw	s10,48(sp)
    1970:	03b12623          	sw	s11,44(sp)
    1974:	00002023          	sw	zero,0(zero) # 0 <_start>
    1978:	00100073          	ebreak

0000197c <core_list_init>:
    197c:	ccccd7b7          	lui	a5,0xccccd
    1980:	ccd78293          	addi	t0,a5,-819 # cccccccd <_stack_top+0xcccb8ccd>
    1984:	025536b3          	mulhu	a3,a0,t0
    1988:	00008337          	lui	t1,0x8
    198c:	08030393          	addi	t2,t1,128 # 8080 <matrix_mul_vect+0xec>
    1990:	00058713          	mv	a4,a1
    1994:	0075a423          	sw	t2,8(a1)
    1998:	0005a023          	sw	zero,0(a1)
    199c:	0005a223          	sw	zero,4(a1)
    19a0:	01858793          	addi	a5,a1,24
    19a4:	00c70e13          	addi	t3,a4,12
    19a8:	0046d513          	srli	a0,a3,0x4
    19ac:	ffe50293          	addi	t0,a0,-2
    19b0:	2052a5b3          	sh1add	a1,t0,t0
    19b4:	20e5c333          	sh2add	t1,a1,a4
    19b8:	2062c8b3          	sh2add	a7,t0,t1
    19bc:	5467fae3          	bgeu	a5,t1,2710 <core_list_init+0xd94>
    19c0:	00830593          	addi	a1,t1,8
    19c4:	5515fce3          	bgeu	a1,a7,271c <core_list_init+0xda0>
    19c8:	80000837          	lui	a6,0x80000
    19cc:	fff80e93          	addi	t4,a6,-1 # 7fffffff <_stack_top+0x7ffebfff>
    19d0:	00072623          	sw	zero,12(a4)
    19d4:	00e72823          	sw	a4,16(a4)
    19d8:	01c72023          	sw	t3,0(a4)
    19dc:	01d72a23          	sw	t4,20(a4)
    19e0:	56028663          	beqz	t0,1f4c <core_list_init+0x5d0>
    19e4:	ffff8f37          	lui	t5,0xffff8
    19e8:	0072ff93          	andi	t6,t0,7
    19ec:	ffff4393          	not	t2,t5
    19f0:	00000693          	li	a3,0
    19f4:	280f8a63          	beqz	t6,1c88 <core_list_init+0x30c>
    19f8:	00100513          	li	a0,1
    19fc:	22af8863          	beq	t6,a0,1c2c <core_list_init+0x2b0>
    1a00:	00200e13          	li	t3,2
    1a04:	1dcf8863          	beq	t6,t3,1bd4 <core_list_init+0x258>
    1a08:	00300813          	li	a6,3
    1a0c:	170f8863          	beq	t6,a6,1b7c <core_list_init+0x200>
    1a10:	00400e93          	li	t4,4
    1a14:	11df8863          	beq	t6,t4,1b24 <core_list_init+0x1a8>
    1a18:	00500f13          	li	t5,5
    1a1c:	0bef8863          	beq	t6,t5,1acc <core_list_init+0x150>
    1a20:	00600513          	li	a0,6
    1a24:	04af8863          	beq	t6,a0,1a74 <core_list_init+0xf8>
    1a28:	00c78f93          	addi	t6,a5,12
    1a2c:	046ff263          	bgeu	t6,t1,1a70 <core_list_init+0xf4>
    1a30:	00458e13          	addi	t3,a1,4
    1a34:	031e7e63          	bgeu	t3,a7,1a70 <core_list_init+0xf4>
    1a38:	00072583          	lw	a1,0(a4)
    1a3c:	00361693          	slli	a3,a2,0x3
    1a40:	0786f813          	andi	a6,a3,120
    1a44:	00881e93          	slli	t4,a6,0x8
    1a48:	00b7a023          	sw	a1,0(a5)
    1a4c:	00e7a223          	sw	a4,4(a5)
    1a50:	01d80f33          	add	t5,a6,t4
    1a54:	00058463          	beqz	a1,1a5c <core_list_init+0xe0>
    1a58:	00f5a223          	sw	a5,4(a1)
    1a5c:	00f72023          	sw	a5,0(a4)
    1a60:	01e79423          	sh	t5,8(a5)
    1a64:	00779523          	sh	t2,10(a5)
    1a68:	000e0593          	mv	a1,t3
    1a6c:	000f8793          	mv	a5,t6
    1a70:	00100693          	li	a3,1
    1a74:	00c78513          	addi	a0,a5,12
    1a78:	04657863          	bgeu	a0,t1,1ac8 <core_list_init+0x14c>
    1a7c:	00458813          	addi	a6,a1,4
    1a80:	05187463          	bgeu	a6,a7,1ac8 <core_list_init+0x14c>
    1a84:	00c6cfb3          	xor	t6,a3,a2
    1a88:	003f9593          	slli	a1,t6,0x3
    1a8c:	00072e03          	lw	t3,0(a4)
    1a90:	0785fe93          	andi	t4,a1,120
    1a94:	0076ff13          	andi	t5,a3,7
    1a98:	01eee5b3          	or	a1,t4,t5
    1a9c:	00859f93          	slli	t6,a1,0x8
    1aa0:	01c7a023          	sw	t3,0(a5)
    1aa4:	00e7a223          	sw	a4,4(a5)
    1aa8:	01f58eb3          	add	t4,a1,t6
    1aac:	000e0463          	beqz	t3,1ab4 <core_list_init+0x138>
    1ab0:	00fe2223          	sw	a5,4(t3)
    1ab4:	00f72023          	sw	a5,0(a4)
    1ab8:	01d79423          	sh	t4,8(a5)
    1abc:	00779523          	sh	t2,10(a5)
    1ac0:	00080593          	mv	a1,a6
    1ac4:	00050793          	mv	a5,a0
    1ac8:	00168693          	addi	a3,a3,1
    1acc:	00c78513          	addi	a0,a5,12
    1ad0:	04657863          	bgeu	a0,t1,1b20 <core_list_init+0x1a4>
    1ad4:	00458813          	addi	a6,a1,4
    1ad8:	05187463          	bgeu	a6,a7,1b20 <core_list_init+0x1a4>
    1adc:	00c6ce33          	xor	t3,a3,a2
    1ae0:	003e1f13          	slli	t5,t3,0x3
    1ae4:	00072e83          	lw	t4,0(a4)
    1ae8:	078f7593          	andi	a1,t5,120
    1aec:	0076ff93          	andi	t6,a3,7
    1af0:	01f5ee33          	or	t3,a1,t6
    1af4:	008e1f13          	slli	t5,t3,0x8
    1af8:	01d7a023          	sw	t4,0(a5)
    1afc:	00e7a223          	sw	a4,4(a5)
    1b00:	01ee05b3          	add	a1,t3,t5
    1b04:	000e8463          	beqz	t4,1b0c <core_list_init+0x190>
    1b08:	00fea223          	sw	a5,4(t4)
    1b0c:	00f72023          	sw	a5,0(a4)
    1b10:	00b79423          	sh	a1,8(a5)
    1b14:	00779523          	sh	t2,10(a5)
    1b18:	00080593          	mv	a1,a6
    1b1c:	00050793          	mv	a5,a0
    1b20:	00168693          	addi	a3,a3,1
    1b24:	00c78513          	addi	a0,a5,12
    1b28:	04657863          	bgeu	a0,t1,1b78 <core_list_init+0x1fc>
    1b2c:	00458813          	addi	a6,a1,4
    1b30:	05187463          	bgeu	a6,a7,1b78 <core_list_init+0x1fc>
    1b34:	00c6ceb3          	xor	t4,a3,a2
    1b38:	003e9f93          	slli	t6,t4,0x3
    1b3c:	00072e03          	lw	t3,0(a4)
    1b40:	078fff13          	andi	t5,t6,120
    1b44:	0076f593          	andi	a1,a3,7
    1b48:	00bf6eb3          	or	t4,t5,a1
    1b4c:	008e9f93          	slli	t6,t4,0x8
    1b50:	01c7a023          	sw	t3,0(a5)
    1b54:	00e7a223          	sw	a4,4(a5)
    1b58:	01fe8f33          	add	t5,t4,t6
    1b5c:	000e0463          	beqz	t3,1b64 <core_list_init+0x1e8>
    1b60:	00fe2223          	sw	a5,4(t3)
    1b64:	00f72023          	sw	a5,0(a4)
    1b68:	01e79423          	sh	t5,8(a5)
    1b6c:	00779523          	sh	t2,10(a5)
    1b70:	00080593          	mv	a1,a6
    1b74:	00050793          	mv	a5,a0
    1b78:	00168693          	addi	a3,a3,1
    1b7c:	00c78513          	addi	a0,a5,12
    1b80:	04657863          	bgeu	a0,t1,1bd0 <core_list_init+0x254>
    1b84:	00458813          	addi	a6,a1,4
    1b88:	05187463          	bgeu	a6,a7,1bd0 <core_list_init+0x254>
    1b8c:	00c6ce33          	xor	t3,a3,a2
    1b90:	003e1593          	slli	a1,t3,0x3
    1b94:	00072e83          	lw	t4,0(a4)
    1b98:	0785ff13          	andi	t5,a1,120
    1b9c:	0076ff93          	andi	t6,a3,7
    1ba0:	01ff6e33          	or	t3,t5,t6
    1ba4:	008e1593          	slli	a1,t3,0x8
    1ba8:	01d7a023          	sw	t4,0(a5)
    1bac:	00e7a223          	sw	a4,4(a5)
    1bb0:	00be0f33          	add	t5,t3,a1
    1bb4:	000e8463          	beqz	t4,1bbc <core_list_init+0x240>
    1bb8:	00fea223          	sw	a5,4(t4)
    1bbc:	00f72023          	sw	a5,0(a4)
    1bc0:	01e79423          	sh	t5,8(a5)
    1bc4:	00779523          	sh	t2,10(a5)
    1bc8:	00080593          	mv	a1,a6
    1bcc:	00050793          	mv	a5,a0
    1bd0:	00168693          	addi	a3,a3,1
    1bd4:	00c78513          	addi	a0,a5,12
    1bd8:	04657863          	bgeu	a0,t1,1c28 <core_list_init+0x2ac>
    1bdc:	00458813          	addi	a6,a1,4
    1be0:	05187463          	bgeu	a6,a7,1c28 <core_list_init+0x2ac>
    1be4:	00c6ceb3          	xor	t4,a3,a2
    1be8:	003e9f93          	slli	t6,t4,0x3
    1bec:	00072e03          	lw	t3,0(a4)
    1bf0:	078ff593          	andi	a1,t6,120
    1bf4:	0076ff13          	andi	t5,a3,7
    1bf8:	01e5eeb3          	or	t4,a1,t5
    1bfc:	008e9f93          	slli	t6,t4,0x8
    1c00:	01c7a023          	sw	t3,0(a5)
    1c04:	00e7a223          	sw	a4,4(a5)
    1c08:	01fe85b3          	add	a1,t4,t6
    1c0c:	000e0463          	beqz	t3,1c14 <core_list_init+0x298>
    1c10:	00fe2223          	sw	a5,4(t3)
    1c14:	00f72023          	sw	a5,0(a4)
    1c18:	00b79423          	sh	a1,8(a5)
    1c1c:	00779523          	sh	t2,10(a5)
    1c20:	00080593          	mv	a1,a6
    1c24:	00050793          	mv	a5,a0
    1c28:	00168693          	addi	a3,a3,1
    1c2c:	00c78513          	addi	a0,a5,12
    1c30:	04657863          	bgeu	a0,t1,1c80 <core_list_init+0x304>
    1c34:	00458813          	addi	a6,a1,4
    1c38:	05187463          	bgeu	a6,a7,1c80 <core_list_init+0x304>
    1c3c:	00c6ce33          	xor	t3,a3,a2
    1c40:	003e1f13          	slli	t5,t3,0x3
    1c44:	00072e83          	lw	t4,0(a4)
    1c48:	078f7593          	andi	a1,t5,120
    1c4c:	0076ff93          	andi	t6,a3,7
    1c50:	01f5ee33          	or	t3,a1,t6
    1c54:	008e1f13          	slli	t5,t3,0x8
    1c58:	01d7a023          	sw	t4,0(a5)
    1c5c:	00e7a223          	sw	a4,4(a5)
    1c60:	01ee05b3          	add	a1,t3,t5
    1c64:	000e8463          	beqz	t4,1c6c <core_list_init+0x2f0>
    1c68:	00fea223          	sw	a5,4(t4)
    1c6c:	00f72023          	sw	a5,0(a4)
    1c70:	00b79423          	sh	a1,8(a5)
    1c74:	00779523          	sh	t2,10(a5)
    1c78:	00080593          	mv	a1,a6
    1c7c:	00050793          	mv	a5,a0
    1c80:	00168693          	addi	a3,a3,1
    1c84:	2cd28463          	beq	t0,a3,1f4c <core_list_init+0x5d0>
    1c88:	00c78513          	addi	a0,a5,12
    1c8c:	04657863          	bgeu	a0,t1,1cdc <core_list_init+0x360>
    1c90:	00458813          	addi	a6,a1,4
    1c94:	05187463          	bgeu	a6,a7,1cdc <core_list_init+0x360>
    1c98:	00c6ceb3          	xor	t4,a3,a2
    1c9c:	003e9f93          	slli	t6,t4,0x3
    1ca0:	00072e03          	lw	t3,0(a4)
    1ca4:	078fff13          	andi	t5,t6,120
    1ca8:	0076f593          	andi	a1,a3,7
    1cac:	00bf6eb3          	or	t4,t5,a1
    1cb0:	008e9f93          	slli	t6,t4,0x8
    1cb4:	01c7a023          	sw	t3,0(a5)
    1cb8:	00e7a223          	sw	a4,4(a5)
    1cbc:	01fe8f33          	add	t5,t4,t6
    1cc0:	000e0463          	beqz	t3,1cc8 <core_list_init+0x34c>
    1cc4:	00fe2223          	sw	a5,4(t3)
    1cc8:	00f72023          	sw	a5,0(a4)
    1ccc:	01e79423          	sh	t5,8(a5)
    1cd0:	00779523          	sh	t2,10(a5)
    1cd4:	00080593          	mv	a1,a6
    1cd8:	00050793          	mv	a5,a0
    1cdc:	00c78513          	addi	a0,a5,12
    1ce0:	00168693          	addi	a3,a3,1
    1ce4:	04657863          	bgeu	a0,t1,1d34 <core_list_init+0x3b8>
    1ce8:	00458813          	addi	a6,a1,4
    1cec:	05187463          	bgeu	a6,a7,1d34 <core_list_init+0x3b8>
    1cf0:	00c6ce33          	xor	t3,a3,a2
    1cf4:	003e1593          	slli	a1,t3,0x3
    1cf8:	00072e83          	lw	t4,0(a4)
    1cfc:	0785ff13          	andi	t5,a1,120
    1d00:	0076ff93          	andi	t6,a3,7
    1d04:	01ff6e33          	or	t3,t5,t6
    1d08:	008e1593          	slli	a1,t3,0x8
    1d0c:	01d7a023          	sw	t4,0(a5)
    1d10:	00e7a223          	sw	a4,4(a5)
    1d14:	00be0f33          	add	t5,t3,a1
    1d18:	000e8463          	beqz	t4,1d20 <core_list_init+0x3a4>
    1d1c:	00fea223          	sw	a5,4(t4)
    1d20:	00f72023          	sw	a5,0(a4)
    1d24:	01e79423          	sh	t5,8(a5)
    1d28:	00779523          	sh	t2,10(a5)
    1d2c:	00080593          	mv	a1,a6
    1d30:	00050793          	mv	a5,a0
    1d34:	00c78513          	addi	a0,a5,12
    1d38:	04657a63          	bgeu	a0,t1,1d8c <core_list_init+0x410>
    1d3c:	00458813          	addi	a6,a1,4
    1d40:	05187663          	bgeu	a6,a7,1d8c <core_list_init+0x410>
    1d44:	00168f93          	addi	t6,a3,1
    1d48:	00cfceb3          	xor	t4,t6,a2
    1d4c:	003e9e13          	slli	t3,t4,0x3
    1d50:	00072f03          	lw	t5,0(a4)
    1d54:	078e7593          	andi	a1,t3,120
    1d58:	007fff93          	andi	t6,t6,7
    1d5c:	01f5eeb3          	or	t4,a1,t6
    1d60:	008e9e13          	slli	t3,t4,0x8
    1d64:	01e7a023          	sw	t5,0(a5)
    1d68:	00e7a223          	sw	a4,4(a5)
    1d6c:	01ce85b3          	add	a1,t4,t3
    1d70:	000f0463          	beqz	t5,1d78 <core_list_init+0x3fc>
    1d74:	00ff2223          	sw	a5,4(t5) # ffff8004 <_stack_top+0xfffe4004>
    1d78:	00f72023          	sw	a5,0(a4)
    1d7c:	00b79423          	sh	a1,8(a5)
    1d80:	00779523          	sh	t2,10(a5)
    1d84:	00080593          	mv	a1,a6
    1d88:	00050793          	mv	a5,a0
    1d8c:	00c78513          	addi	a0,a5,12
    1d90:	04657a63          	bgeu	a0,t1,1de4 <core_list_init+0x468>
    1d94:	00458813          	addi	a6,a1,4
    1d98:	05187663          	bgeu	a6,a7,1de4 <core_list_init+0x468>
    1d9c:	00268f13          	addi	t5,a3,2
    1da0:	00cf4fb3          	xor	t6,t5,a2
    1da4:	003f9e13          	slli	t3,t6,0x3
    1da8:	00072e83          	lw	t4,0(a4)
    1dac:	078e7593          	andi	a1,t3,120
    1db0:	007f7f13          	andi	t5,t5,7
    1db4:	01e5efb3          	or	t6,a1,t5
    1db8:	008f9e13          	slli	t3,t6,0x8
    1dbc:	01d7a023          	sw	t4,0(a5)
    1dc0:	00e7a223          	sw	a4,4(a5)
    1dc4:	01cf85b3          	add	a1,t6,t3
    1dc8:	000e8463          	beqz	t4,1dd0 <core_list_init+0x454>
    1dcc:	00fea223          	sw	a5,4(t4)
    1dd0:	00f72023          	sw	a5,0(a4)
    1dd4:	00b79423          	sh	a1,8(a5)
    1dd8:	00779523          	sh	t2,10(a5)
    1ddc:	00080593          	mv	a1,a6
    1de0:	00050793          	mv	a5,a0
    1de4:	00c78513          	addi	a0,a5,12
    1de8:	04657a63          	bgeu	a0,t1,1e3c <core_list_init+0x4c0>
    1dec:	00458813          	addi	a6,a1,4
    1df0:	05187663          	bgeu	a6,a7,1e3c <core_list_init+0x4c0>
    1df4:	00368f13          	addi	t5,a3,3
    1df8:	00cf4eb3          	xor	t4,t5,a2
    1dfc:	003e9f93          	slli	t6,t4,0x3
    1e00:	00072e83          	lw	t4,0(a4)
    1e04:	078ff593          	andi	a1,t6,120
    1e08:	007f7e13          	andi	t3,t5,7
    1e0c:	01c5ef33          	or	t5,a1,t3
    1e10:	008f1f93          	slli	t6,t5,0x8
    1e14:	01d7a023          	sw	t4,0(a5)
    1e18:	00e7a223          	sw	a4,4(a5)
    1e1c:	01ff05b3          	add	a1,t5,t6
    1e20:	000e8463          	beqz	t4,1e28 <core_list_init+0x4ac>
    1e24:	00fea223          	sw	a5,4(t4)
    1e28:	00f72023          	sw	a5,0(a4)
    1e2c:	00b79423          	sh	a1,8(a5)
    1e30:	00779523          	sh	t2,10(a5)
    1e34:	00080593          	mv	a1,a6
    1e38:	00050793          	mv	a5,a0
    1e3c:	00c78513          	addi	a0,a5,12
    1e40:	04657a63          	bgeu	a0,t1,1e94 <core_list_init+0x518>
    1e44:	00458813          	addi	a6,a1,4
    1e48:	05187663          	bgeu	a6,a7,1e94 <core_list_init+0x518>
    1e4c:	00468e13          	addi	t3,a3,4
    1e50:	00ce4eb3          	xor	t4,t3,a2
    1e54:	003e9f13          	slli	t5,t4,0x3
    1e58:	00072f83          	lw	t6,0(a4)
    1e5c:	078f7593          	andi	a1,t5,120
    1e60:	007e7e13          	andi	t3,t3,7
    1e64:	01c5eeb3          	or	t4,a1,t3
    1e68:	008e9f13          	slli	t5,t4,0x8
    1e6c:	01f7a023          	sw	t6,0(a5)
    1e70:	00e7a223          	sw	a4,4(a5)
    1e74:	01ee85b3          	add	a1,t4,t5
    1e78:	000f8463          	beqz	t6,1e80 <core_list_init+0x504>
    1e7c:	00ffa223          	sw	a5,4(t6)
    1e80:	00f72023          	sw	a5,0(a4)
    1e84:	00b79423          	sh	a1,8(a5)
    1e88:	00779523          	sh	t2,10(a5)
    1e8c:	00080593          	mv	a1,a6
    1e90:	00050793          	mv	a5,a0
    1e94:	00c78513          	addi	a0,a5,12
    1e98:	04657a63          	bgeu	a0,t1,1eec <core_list_init+0x570>
    1e9c:	00458813          	addi	a6,a1,4
    1ea0:	05187663          	bgeu	a6,a7,1eec <core_list_init+0x570>
    1ea4:	00568f93          	addi	t6,a3,5
    1ea8:	00cfce33          	xor	t3,t6,a2
    1eac:	003e1f13          	slli	t5,t3,0x3
    1eb0:	00072e83          	lw	t4,0(a4)
    1eb4:	078f7593          	andi	a1,t5,120
    1eb8:	007fff93          	andi	t6,t6,7
    1ebc:	01f5ef33          	or	t5,a1,t6
    1ec0:	008f1e13          	slli	t3,t5,0x8
    1ec4:	01d7a023          	sw	t4,0(a5)
    1ec8:	00e7a223          	sw	a4,4(a5)
    1ecc:	01cf05b3          	add	a1,t5,t3
    1ed0:	000e8463          	beqz	t4,1ed8 <core_list_init+0x55c>
    1ed4:	00fea223          	sw	a5,4(t4)
    1ed8:	00f72023          	sw	a5,0(a4)
    1edc:	00b79423          	sh	a1,8(a5)
    1ee0:	00779523          	sh	t2,10(a5)
    1ee4:	00080593          	mv	a1,a6
    1ee8:	00050793          	mv	a5,a0
    1eec:	00c78513          	addi	a0,a5,12
    1ef0:	04657a63          	bgeu	a0,t1,1f44 <core_list_init+0x5c8>
    1ef4:	00458813          	addi	a6,a1,4
    1ef8:	05187663          	bgeu	a6,a7,1f44 <core_list_init+0x5c8>
    1efc:	00668f93          	addi	t6,a3,6
    1f00:	00cfceb3          	xor	t4,t6,a2
    1f04:	003e9f13          	slli	t5,t4,0x3
    1f08:	00072e83          	lw	t4,0(a4)
    1f0c:	078f7593          	andi	a1,t5,120
    1f10:	007ffe13          	andi	t3,t6,7
    1f14:	01c5efb3          	or	t6,a1,t3
    1f18:	008f9f13          	slli	t5,t6,0x8
    1f1c:	01d7a023          	sw	t4,0(a5)
    1f20:	00e7a223          	sw	a4,4(a5)
    1f24:	01ef85b3          	add	a1,t6,t5
    1f28:	000e8463          	beqz	t4,1f30 <core_list_init+0x5b4>
    1f2c:	00fea223          	sw	a5,4(t4)
    1f30:	00f72023          	sw	a5,0(a4)
    1f34:	00b79423          	sh	a1,8(a5)
    1f38:	00779523          	sh	t2,10(a5)
    1f3c:	00080593          	mv	a1,a6
    1f40:	00050793          	mv	a5,a0
    1f44:	00768693          	addi	a3,a3,7
    1f48:	d4d290e3          	bne	t0,a3,1c88 <core_list_init+0x30c>
    1f4c:	00072e03          	lw	t3,0(a4)
    1f50:	000e2803          	lw	a6,0(t3)
    1f54:	06080a63          	beqz	a6,1fc8 <core_list_init+0x64c>
    1f58:	ccccd337          	lui	t1,0xccccd
    1f5c:	ccd30893          	addi	a7,t1,-819 # cccccccd <_stack_top+0xcccb8ccd>
    1f60:	0312b2b3          	mulhu	t0,t0,a7
    1f64:	000043b7          	lui	t2,0x4
    1f68:	fff38313          	addi	t1,t2,-1 # 3fff <main+0xc03>
    1f6c:	00100693          	li	a3,1
    1f70:	20000893          	li	a7,512
    1f74:	0022d393          	srli	t2,t0,0x2
    1f78:	0276f463          	bgeu	a3,t2,1fa0 <core_list_init+0x624>
    1f7c:	00082783          	lw	a5,0(a6)
    1f80:	00068f13          	mv	t5,a3
    1f84:	01ee1523          	sh	t5,10(t3)
    1f88:	00168693          	addi	a3,a3,1
    1f8c:	10088893          	addi	a7,a7,256
    1f90:	00080e13          	mv	t3,a6
    1f94:	02078a63          	beqz	a5,1fc8 <core_list_init+0x64c>
    1f98:	00078813          	mv	a6,a5
    1f9c:	fe76e0e3          	bltu	a3,t2,1f7c <core_list_init+0x600>
    1fa0:	00c6ceb3          	xor	t4,a3,a2
    1fa4:	7008f513          	andi	a0,a7,1792
    1fa8:	00082783          	lw	a5,0(a6)
    1fac:	00aeefb3          	or	t6,t4,a0
    1fb0:	006fff33          	and	t5,t6,t1
    1fb4:	01ee1523          	sh	t5,10(t3)
    1fb8:	00168693          	addi	a3,a3,1
    1fbc:	10088893          	addi	a7,a7,256
    1fc0:	00080e13          	mv	t3,a6
    1fc4:	fc079ae3          	bnez	a5,1f98 <core_list_init+0x61c>
    1fc8:	00100e93          	li	t4,1
    1fcc:	000e8f93          	mv	t6,t4
    1fd0:	00000513          	li	a0,0
    1fd4:	00000793          	li	a5,0
    1fd8:	00000f13          	li	t5,0
    1fdc:	007ef593          	andi	a1,t4,7
    1fe0:	001f0f13          	addi	t5,t5,1
    1fe4:	00070613          	mv	a2,a4
    1fe8:	00000693          	li	a3,0
    1fec:	08058463          	beqz	a1,2074 <core_list_init+0x6f8>
    1ff0:	0fd6d663          	bge	a3,t4,20dc <core_list_init+0x760>
    1ff4:	00072603          	lw	a2,0(a4)
    1ff8:	00100693          	li	a3,1
    1ffc:	0e060063          	beqz	a2,20dc <core_list_init+0x760>
    2000:	06d58a63          	beq	a1,a3,2074 <core_list_init+0x6f8>
    2004:	00200813          	li	a6,2
    2008:	07058063          	beq	a1,a6,2068 <core_list_init+0x6ec>
    200c:	00300313          	li	t1,3
    2010:	04658663          	beq	a1,t1,205c <core_list_init+0x6e0>
    2014:	00400293          	li	t0,4
    2018:	02558c63          	beq	a1,t0,2050 <core_list_init+0x6d4>
    201c:	00500393          	li	t2,5
    2020:	02758263          	beq	a1,t2,2044 <core_list_init+0x6c8>
    2024:	00600893          	li	a7,6
    2028:	01158863          	beq	a1,a7,2038 <core_list_init+0x6bc>
    202c:	00062603          	lw	a2,0(a2)
    2030:	00080693          	mv	a3,a6
    2034:	0a060463          	beqz	a2,20dc <core_list_init+0x760>
    2038:	00062603          	lw	a2,0(a2)
    203c:	00168693          	addi	a3,a3,1
    2040:	08060e63          	beqz	a2,20dc <core_list_init+0x760>
    2044:	00062603          	lw	a2,0(a2)
    2048:	00168693          	addi	a3,a3,1
    204c:	08060863          	beqz	a2,20dc <core_list_init+0x760>
    2050:	00062603          	lw	a2,0(a2)
    2054:	00168693          	addi	a3,a3,1
    2058:	08060263          	beqz	a2,20dc <core_list_init+0x760>
    205c:	00062603          	lw	a2,0(a2)
    2060:	00168693          	addi	a3,a3,1
    2064:	06060c63          	beqz	a2,20dc <core_list_init+0x760>
    2068:	00062603          	lw	a2,0(a2)
    206c:	00168693          	addi	a3,a3,1
    2070:	06060663          	beqz	a2,20dc <core_list_init+0x760>
    2074:	07d6d463          	bge	a3,t4,20dc <core_list_init+0x760>
    2078:	00062603          	lw	a2,0(a2)
    207c:	00168693          	addi	a3,a3,1
    2080:	00068e13          	mv	t3,a3
    2084:	04060c63          	beqz	a2,20dc <core_list_init+0x760>
    2088:	00062603          	lw	a2,0(a2)
    208c:	00168693          	addi	a3,a3,1
    2090:	04060663          	beqz	a2,20dc <core_list_init+0x760>
    2094:	00062603          	lw	a2,0(a2)
    2098:	002e0693          	addi	a3,t3,2
    209c:	04060063          	beqz	a2,20dc <core_list_init+0x760>
    20a0:	00062603          	lw	a2,0(a2)
    20a4:	003e0693          	addi	a3,t3,3
    20a8:	02060a63          	beqz	a2,20dc <core_list_init+0x760>
    20ac:	00062603          	lw	a2,0(a2)
    20b0:	004e0693          	addi	a3,t3,4
    20b4:	02060463          	beqz	a2,20dc <core_list_init+0x760>
    20b8:	00062603          	lw	a2,0(a2)
    20bc:	005e0693          	addi	a3,t3,5
    20c0:	00060e63          	beqz	a2,20dc <core_list_init+0x760>
    20c4:	00062603          	lw	a2,0(a2)
    20c8:	006e0693          	addi	a3,t3,6
    20cc:	00060863          	beqz	a2,20dc <core_list_init+0x760>
    20d0:	00062603          	lw	a2,0(a2)
    20d4:	007e0693          	addi	a3,t3,7
    20d8:	f8061ee3          	bnez	a2,2074 <core_list_init+0x6f8>
    20dc:	000e8893          	mv	a7,t4
    20e0:	20d05c63          	blez	a3,22f8 <core_list_init+0x97c>
    20e4:	26089863          	bnez	a7,2354 <core_list_init+0x9d8>
    20e8:	fff68593          	addi	a1,a3,-1
    20ec:	0075f393          	andi	t2,a1,7
    20f0:	0e038a63          	beqz	t2,21e4 <core_list_init+0x868>
    20f4:	00072303          	lw	t1,0(a4)
    20f8:	1e078063          	beqz	a5,22d8 <core_list_init+0x95c>
    20fc:	00e7a023          	sw	a4,0(a5)
    2100:	00100e13          	li	t3,1
    2104:	00070793          	mv	a5,a4
    2108:	00058693          	mv	a3,a1
    210c:	00030713          	mv	a4,t1
    2110:	0dc38a63          	beq	t2,t3,21e4 <core_list_init+0x868>
    2114:	00200293          	li	t0,2
    2118:	0a538863          	beq	t2,t0,21c8 <core_list_init+0x84c>
    211c:	00300813          	li	a6,3
    2120:	09038663          	beq	t2,a6,21ac <core_list_init+0x830>
    2124:	00400e13          	li	t3,4
    2128:	07c38463          	beq	t2,t3,2190 <core_list_init+0x814>
    212c:	00500293          	li	t0,5
    2130:	04538263          	beq	t2,t0,2174 <core_list_init+0x7f8>
    2134:	00600813          	li	a6,6
    2138:	03038063          	beq	t2,a6,2158 <core_list_init+0x7dc>
    213c:	00032303          	lw	t1,0(t1)
    2140:	fff58593          	addi	a1,a1,-1
    2144:	18078a63          	beqz	a5,22d8 <core_list_init+0x95c>
    2148:	00e7a023          	sw	a4,0(a5)
    214c:	00058693          	mv	a3,a1
    2150:	00070793          	mv	a5,a4
    2154:	00030713          	mv	a4,t1
    2158:	00032303          	lw	t1,0(t1)
    215c:	fff58593          	addi	a1,a1,-1
    2160:	16078c63          	beqz	a5,22d8 <core_list_init+0x95c>
    2164:	00e7a023          	sw	a4,0(a5)
    2168:	00058693          	mv	a3,a1
    216c:	00070793          	mv	a5,a4
    2170:	00030713          	mv	a4,t1
    2174:	00032303          	lw	t1,0(t1)
    2178:	fff58593          	addi	a1,a1,-1
    217c:	14078e63          	beqz	a5,22d8 <core_list_init+0x95c>
    2180:	00e7a023          	sw	a4,0(a5)
    2184:	00058693          	mv	a3,a1
    2188:	00070793          	mv	a5,a4
    218c:	00030713          	mv	a4,t1
    2190:	00032303          	lw	t1,0(t1)
    2194:	fff58593          	addi	a1,a1,-1
    2198:	14078063          	beqz	a5,22d8 <core_list_init+0x95c>
    219c:	00e7a023          	sw	a4,0(a5)
    21a0:	00058693          	mv	a3,a1
    21a4:	00070793          	mv	a5,a4
    21a8:	00030713          	mv	a4,t1
    21ac:	00032303          	lw	t1,0(t1)
    21b0:	fff58593          	addi	a1,a1,-1
    21b4:	12078263          	beqz	a5,22d8 <core_list_init+0x95c>
    21b8:	00e7a023          	sw	a4,0(a5)
    21bc:	00058693          	mv	a3,a1
    21c0:	00070793          	mv	a5,a4
    21c4:	00030713          	mv	a4,t1
    21c8:	00032303          	lw	t1,0(t1)
    21cc:	fff58593          	addi	a1,a1,-1
    21d0:	10078463          	beqz	a5,22d8 <core_list_init+0x95c>
    21d4:	00e7a023          	sw	a4,0(a5)
    21d8:	00058693          	mv	a3,a1
    21dc:	00070793          	mv	a5,a4
    21e0:	00030713          	mv	a4,t1
    21e4:	00072303          	lw	t1,0(a4)
    21e8:	fff68593          	addi	a1,a3,-1
    21ec:	0e078663          	beqz	a5,22d8 <core_list_init+0x95c>
    21f0:	00e7a023          	sw	a4,0(a5)
    21f4:	00070793          	mv	a5,a4
    21f8:	18058863          	beqz	a1,2388 <core_list_init+0xa0c>
    21fc:	00058693          	mv	a3,a1
    2200:	00058393          	mv	t2,a1
    2204:	00030713          	mv	a4,t1
    2208:	fff58593          	addi	a1,a1,-1
    220c:	00032303          	lw	t1,0(t1)
    2210:	0c078463          	beqz	a5,22d8 <core_list_init+0x95c>
    2214:	00e7a023          	sw	a4,0(a5)
    2218:	00070e13          	mv	t3,a4
    221c:	00058693          	mv	a3,a1
    2220:	00030713          	mv	a4,t1
    2224:	fff58593          	addi	a1,a1,-1
    2228:	00032303          	lw	t1,0(t1)
    222c:	0a0e0663          	beqz	t3,22d8 <core_list_init+0x95c>
    2230:	00ee2023          	sw	a4,0(t3)
    2234:	00070293          	mv	t0,a4
    2238:	ffe38693          	addi	a3,t2,-2
    223c:	00030713          	mv	a4,t1
    2240:	ffd38593          	addi	a1,t2,-3
    2244:	00032303          	lw	t1,0(t1)
    2248:	08028863          	beqz	t0,22d8 <core_list_init+0x95c>
    224c:	00e2a023          	sw	a4,0(t0)
    2250:	00070813          	mv	a6,a4
    2254:	00058693          	mv	a3,a1
    2258:	00030713          	mv	a4,t1
    225c:	ffc38593          	addi	a1,t2,-4
    2260:	00032303          	lw	t1,0(t1)
    2264:	06080a63          	beqz	a6,22d8 <core_list_init+0x95c>
    2268:	00e82023          	sw	a4,0(a6)
    226c:	00070793          	mv	a5,a4
    2270:	00058693          	mv	a3,a1
    2274:	00030713          	mv	a4,t1
    2278:	ffb38593          	addi	a1,t2,-5
    227c:	00032303          	lw	t1,0(t1)
    2280:	04078c63          	beqz	a5,22d8 <core_list_init+0x95c>
    2284:	00e7a023          	sw	a4,0(a5)
    2288:	00070e13          	mv	t3,a4
    228c:	00058693          	mv	a3,a1
    2290:	00030713          	mv	a4,t1
    2294:	ffa38593          	addi	a1,t2,-6
    2298:	00032303          	lw	t1,0(t1)
    229c:	020e0e63          	beqz	t3,22d8 <core_list_init+0x95c>
    22a0:	00ee2023          	sw	a4,0(t3)
    22a4:	00070293          	mv	t0,a4
    22a8:	00058693          	mv	a3,a1
    22ac:	00030713          	mv	a4,t1
    22b0:	ff938593          	addi	a1,t2,-7
    22b4:	00032303          	lw	t1,0(t1)
    22b8:	02028063          	beqz	t0,22d8 <core_list_init+0x95c>
    22bc:	00e2a023          	sw	a4,0(t0)
    22c0:	00070793          	mv	a5,a4
    22c4:	00058693          	mv	a3,a1
    22c8:	00030713          	mv	a4,t1
    22cc:	00072303          	lw	t1,0(a4)
    22d0:	fff68593          	addi	a1,a3,-1
    22d4:	f0079ee3          	bnez	a5,21f0 <core_list_init+0x874>
    22d8:	0a058663          	beqz	a1,2384 <core_list_init+0xa08>
    22dc:	00070513          	mv	a0,a4
    22e0:	00070813          	mv	a6,a4
    22e4:	00032703          	lw	a4,0(t1)
    22e8:	ffe68693          	addi	a3,a3,-2
    22ec:	00030793          	mv	a5,t1
    22f0:	00f82023          	sw	a5,0(a6)
    22f4:	ded048e3          	bgtz	a3,20e4 <core_list_init+0x768>
    22f8:	00078813          	mv	a6,a5
    22fc:	00060793          	mv	a5,a2
    2300:	2b105663          	blez	a7,25ac <core_list_init+0xc30>
    2304:	24078063          	beqz	a5,2544 <core_list_init+0xbc8>
    2308:	08068a63          	beqz	a3,239c <core_list_init+0xa20>
    230c:	00a79e03          	lh	t3,10(a5)
    2310:	00871283          	lh	t0,8(a4)
    2314:	00a71303          	lh	t1,10(a4)
    2318:	f002f393          	andi	t2,t0,-256
    231c:	3c82b60b          	th.extu	a2,t0,15,8
    2320:	00c3e5b3          	or	a1,t2,a2
    2324:	00b71423          	sh	a1,8(a4)
    2328:	00879283          	lh	t0,8(a5)
    232c:	f002f393          	andi	t2,t0,-256
    2330:	3c82b60b          	th.extu	a2,t0,15,8
    2334:	00c3e5b3          	or	a1,t2,a2
    2338:	00b79423          	sh	a1,8(a5)
    233c:	226e5663          	bge	t3,t1,2568 <core_list_init+0xbec>
    2340:	0007a603          	lw	a2,0(a5)
    2344:	fff88893          	addi	a7,a7,-1
    2348:	fa0814e3          	bnez	a6,22f0 <core_list_init+0x974>
    234c:	00078513          	mv	a0,a5
    2350:	d91ff06f          	j	20e0 <core_list_init+0x764>
    2354:	00060c63          	beqz	a2,236c <core_list_init+0x9f0>
    2358:	23c0006f          	j	2594 <core_list_init+0xc18>
    235c:	00e7a023          	sw	a4,0(a5)
    2360:	28068463          	beqz	a3,25e8 <core_list_init+0xc6c>
    2364:	00070793          	mv	a5,a4
    2368:	00058713          	mv	a4,a1
    236c:	00072583          	lw	a1,0(a4)
    2370:	fff68693          	addi	a3,a3,-1
    2374:	fe0794e3          	bnez	a5,235c <core_list_init+0x9e0>
    2378:	2a068863          	beqz	a3,2628 <core_list_init+0xcac>
    237c:	00070513          	mv	a0,a4
    2380:	fe5ff06f          	j	2364 <core_list_init+0x9e8>
    2384:	00070513          	mv	a0,a4
    2388:	00070813          	mv	a6,a4
    238c:	1a060c63          	beqz	a2,2544 <core_list_init+0xbc8>
    2390:	00070793          	mv	a5,a4
    2394:	00060713          	mv	a4,a2
    2398:	c45ff06f          	j	1fdc <core_list_init+0x660>
    239c:	fff88693          	addi	a3,a7,-1
    23a0:	0076f713          	andi	a4,a3,7
    23a4:	0e070a63          	beqz	a4,2498 <core_list_init+0xb1c>
    23a8:	0007a283          	lw	t0,0(a5)
    23ac:	00068893          	mv	a7,a3
    23b0:	26080863          	beqz	a6,2620 <core_list_init+0xca4>
    23b4:	00f82023          	sw	a5,0(a6)
    23b8:	00078813          	mv	a6,a5
    23bc:	18028463          	beqz	t0,2544 <core_list_init+0xbc8>
    23c0:	00100393          	li	t2,1
    23c4:	00028793          	mv	a5,t0
    23c8:	0c770863          	beq	a4,t2,2498 <core_list_init+0xb1c>
    23cc:	00200613          	li	a2,2
    23d0:	0ac70663          	beq	a4,a2,247c <core_list_init+0xb00>
    23d4:	00300593          	li	a1,3
    23d8:	08b70463          	beq	a4,a1,2460 <core_list_init+0xae4>
    23dc:	00400313          	li	t1,4
    23e0:	06670263          	beq	a4,t1,2444 <core_list_init+0xac8>
    23e4:	00500e13          	li	t3,5
    23e8:	05c70063          	beq	a4,t3,2428 <core_list_init+0xaac>
    23ec:	00600693          	li	a3,6
    23f0:	00d70e63          	beq	a4,a3,240c <core_list_init+0xa90>
    23f4:	0002a783          	lw	a5,0(t0)
    23f8:	fff88893          	addi	a7,a7,-1
    23fc:	30080663          	beqz	a6,2708 <core_list_init+0xd8c>
    2400:	00582023          	sw	t0,0(a6)
    2404:	00028813          	mv	a6,t0
    2408:	12078e63          	beqz	a5,2544 <core_list_init+0xbc8>
    240c:	0007a703          	lw	a4,0(a5)
    2410:	fff88893          	addi	a7,a7,-1
    2414:	24080263          	beqz	a6,2658 <core_list_init+0xcdc>
    2418:	00f82023          	sw	a5,0(a6)
    241c:	00078813          	mv	a6,a5
    2420:	00070793          	mv	a5,a4
    2424:	12070063          	beqz	a4,2544 <core_list_init+0xbc8>
    2428:	0007a283          	lw	t0,0(a5)
    242c:	fff88893          	addi	a7,a7,-1
    2430:	22080063          	beqz	a6,2650 <core_list_init+0xcd4>
    2434:	00f82023          	sw	a5,0(a6)
    2438:	00078813          	mv	a6,a5
    243c:	00028793          	mv	a5,t0
    2440:	10028263          	beqz	t0,2544 <core_list_init+0xbc8>
    2444:	0007a383          	lw	t2,0(a5)
    2448:	fff88893          	addi	a7,a7,-1
    244c:	1e080e63          	beqz	a6,2648 <core_list_init+0xccc>
    2450:	00f82023          	sw	a5,0(a6)
    2454:	00078813          	mv	a6,a5
    2458:	00038793          	mv	a5,t2
    245c:	0e038463          	beqz	t2,2544 <core_list_init+0xbc8>
    2460:	0007a603          	lw	a2,0(a5)
    2464:	fff88893          	addi	a7,a7,-1
    2468:	1c080c63          	beqz	a6,2640 <core_list_init+0xcc4>
    246c:	00f82023          	sw	a5,0(a6)
    2470:	00078813          	mv	a6,a5
    2474:	00060793          	mv	a5,a2
    2478:	0c060663          	beqz	a2,2544 <core_list_init+0xbc8>
    247c:	0007a583          	lw	a1,0(a5)
    2480:	fff88893          	addi	a7,a7,-1
    2484:	1a080a63          	beqz	a6,2638 <core_list_init+0xcbc>
    2488:	00f82023          	sw	a5,0(a6)
    248c:	00078813          	mv	a6,a5
    2490:	00058793          	mv	a5,a1
    2494:	0a058863          	beqz	a1,2544 <core_list_init+0xbc8>
    2498:	0007a603          	lw	a2,0(a5)
    249c:	fff88893          	addi	a7,a7,-1
    24a0:	12080463          	beqz	a6,25c8 <core_list_init+0xc4c>
    24a4:	00f82023          	sw	a5,0(a6)
    24a8:	12088463          	beqz	a7,25d0 <core_list_init+0xc54>
    24ac:	00078813          	mv	a6,a5
    24b0:	08060a63          	beqz	a2,2544 <core_list_init+0xbc8>
    24b4:	00062303          	lw	t1,0(a2)
    24b8:	12078063          	beqz	a5,25d8 <core_list_init+0xc5c>
    24bc:	00c7a023          	sw	a2,0(a5)
    24c0:	00060813          	mv	a6,a2
    24c4:	08030063          	beqz	t1,2544 <core_list_init+0xbc8>
    24c8:	00032783          	lw	a5,0(t1)
    24cc:	10060a63          	beqz	a2,25e0 <core_list_init+0xc64>
    24d0:	00662023          	sw	t1,0(a2)
    24d4:	00030813          	mv	a6,t1
    24d8:	06078663          	beqz	a5,2544 <core_list_init+0xbc8>
    24dc:	0007ae03          	lw	t3,0(a5)
    24e0:	10030c63          	beqz	t1,25f8 <core_list_init+0xc7c>
    24e4:	00f32023          	sw	a5,0(t1)
    24e8:	00078813          	mv	a6,a5
    24ec:	040e0c63          	beqz	t3,2544 <core_list_init+0xbc8>
    24f0:	000e2703          	lw	a4,0(t3)
    24f4:	10078663          	beqz	a5,2600 <core_list_init+0xc84>
    24f8:	01c7a023          	sw	t3,0(a5)
    24fc:	000e0813          	mv	a6,t3
    2500:	04070263          	beqz	a4,2544 <core_list_init+0xbc8>
    2504:	00072283          	lw	t0,0(a4)
    2508:	100e0063          	beqz	t3,2608 <core_list_init+0xc8c>
    250c:	00ee2023          	sw	a4,0(t3)
    2510:	00070813          	mv	a6,a4
    2514:	02028863          	beqz	t0,2544 <core_list_init+0xbc8>
    2518:	0002a683          	lw	a3,0(t0)
    251c:	0e070a63          	beqz	a4,2610 <core_list_init+0xc94>
    2520:	00572023          	sw	t0,0(a4)
    2524:	00028813          	mv	a6,t0
    2528:	00068e63          	beqz	a3,2544 <core_list_init+0xbc8>
    252c:	0006a783          	lw	a5,0(a3)
    2530:	ff988893          	addi	a7,a7,-7
    2534:	0e028263          	beqz	t0,2618 <core_list_init+0xc9c>
    2538:	00d2a023          	sw	a3,0(t0)
    253c:	00068813          	mv	a6,a3
    2540:	f4079ce3          	bnez	a5,2498 <core_list_init+0xb1c>
    2544:	00082023          	sw	zero,0(a6)
    2548:	13ff0063          	beq	t5,t6,2668 <core_list_init+0xcec>
    254c:	10050a63          	beqz	a0,2660 <core_list_init+0xce4>
    2550:	00050613          	mv	a2,a0
    2554:	001e9e93          	slli	t4,t4,0x1
    2558:	00000513          	li	a0,0
    255c:	00000713          	li	a4,0
    2560:	00000f13          	li	t5,0
    2564:	e2dff06f          	j	2390 <core_list_init+0xa14>
    2568:	00072303          	lw	t1,0(a4)
    256c:	fff68693          	addi	a3,a3,-1
    2570:	00080c63          	beqz	a6,2588 <core_list_init+0xc0c>
    2574:	00e82023          	sw	a4,0(a6)
    2578:	02d05463          	blez	a3,25a0 <core_list_init+0xc24>
    257c:	00070813          	mv	a6,a4
    2580:	00030713          	mv	a4,t1
    2584:	d8dff06f          	j	2310 <core_list_init+0x994>
    2588:	02d05863          	blez	a3,25b8 <core_list_init+0xc3c>
    258c:	00070513          	mv	a0,a4
    2590:	fedff06f          	j	257c <core_list_init+0xc00>
    2594:	00078813          	mv	a6,a5
    2598:	00060793          	mv	a5,a2
    259c:	d71ff06f          	j	230c <core_list_init+0x990>
    25a0:	00070813          	mv	a6,a4
    25a4:	00030713          	mv	a4,t1
    25a8:	d5104ee3          	bgtz	a7,2304 <core_list_init+0x988>
    25ac:	00080713          	mv	a4,a6
    25b0:	00078613          	mv	a2,a5
    25b4:	dd5ff06f          	j	2388 <core_list_init+0xa0c>
    25b8:	00070513          	mv	a0,a4
    25bc:	00070813          	mv	a6,a4
    25c0:	00030713          	mv	a4,t1
    25c4:	d3dff06f          	j	2300 <core_list_init+0x984>
    25c8:	00078513          	mv	a0,a5
    25cc:	ee0890e3          	bnez	a7,24ac <core_list_init+0xb30>
    25d0:	00078713          	mv	a4,a5
    25d4:	db5ff06f          	j	2388 <core_list_init+0xa0c>
    25d8:	00060513          	mv	a0,a2
    25dc:	ee5ff06f          	j	24c0 <core_list_init+0xb44>
    25e0:	00030513          	mv	a0,t1
    25e4:	ef1ff06f          	j	24d4 <core_list_init+0xb58>
    25e8:	00070813          	mv	a6,a4
    25ec:	00000793          	li	a5,0
    25f0:	00058713          	mv	a4,a1
    25f4:	d0dff06f          	j	2300 <core_list_init+0x984>
    25f8:	00078513          	mv	a0,a5
    25fc:	eedff06f          	j	24e8 <core_list_init+0xb6c>
    2600:	000e0513          	mv	a0,t3
    2604:	ef9ff06f          	j	24fc <core_list_init+0xb80>
    2608:	00070513          	mv	a0,a4
    260c:	f05ff06f          	j	2510 <core_list_init+0xb94>
    2610:	00028513          	mv	a0,t0
    2614:	f11ff06f          	j	2524 <core_list_init+0xba8>
    2618:	00068513          	mv	a0,a3
    261c:	f21ff06f          	j	253c <core_list_init+0xbc0>
    2620:	00078513          	mv	a0,a5
    2624:	d95ff06f          	j	23b8 <core_list_init+0xa3c>
    2628:	00070513          	mv	a0,a4
    262c:	00070813          	mv	a6,a4
    2630:	00058713          	mv	a4,a1
    2634:	ccdff06f          	j	2300 <core_list_init+0x984>
    2638:	00078513          	mv	a0,a5
    263c:	e51ff06f          	j	248c <core_list_init+0xb10>
    2640:	00078513          	mv	a0,a5
    2644:	e2dff06f          	j	2470 <core_list_init+0xaf4>
    2648:	00078513          	mv	a0,a5
    264c:	e09ff06f          	j	2454 <core_list_init+0xad8>
    2650:	00078513          	mv	a0,a5
    2654:	de5ff06f          	j	2438 <core_list_init+0xabc>
    2658:	00078513          	mv	a0,a5
    265c:	dc1ff06f          	j	241c <core_list_init+0xaa0>
    2660:	00002023          	sw	zero,0(zero) # 0 <_start>
    2664:	00100073          	ebreak
    2668:	00050e13          	mv	t3,a0
    266c:	00000793          	li	a5,0
    2670:	08050263          	beqz	a0,26f4 <core_list_init+0xd78>
    2674:	000e2f83          	lw	t6,0(t3)
    2678:	00fe2223          	sw	a5,4(t3)
    267c:	000e0793          	mv	a5,t3
    2680:	060f8a63          	beqz	t6,26f4 <core_list_init+0xd78>
    2684:	000fa603          	lw	a2,0(t6)
    2688:	01cfa223          	sw	t3,4(t6)
    268c:	000f8793          	mv	a5,t6
    2690:	06060263          	beqz	a2,26f4 <core_list_init+0xd78>
    2694:	00062683          	lw	a3,0(a2)
    2698:	01f62223          	sw	t6,4(a2)
    269c:	00060793          	mv	a5,a2
    26a0:	04068a63          	beqz	a3,26f4 <core_list_init+0xd78>
    26a4:	0006a703          	lw	a4,0(a3)
    26a8:	00c6a223          	sw	a2,4(a3)
    26ac:	00068793          	mv	a5,a3
    26b0:	04070263          	beqz	a4,26f4 <core_list_init+0xd78>
    26b4:	00072883          	lw	a7,0(a4)
    26b8:	00d72223          	sw	a3,4(a4)
    26bc:	00070793          	mv	a5,a4
    26c0:	02088a63          	beqz	a7,26f4 <core_list_init+0xd78>
    26c4:	0008a383          	lw	t2,0(a7)
    26c8:	00e8a223          	sw	a4,4(a7)
    26cc:	00088793          	mv	a5,a7
    26d0:	02038263          	beqz	t2,26f4 <core_list_init+0xd78>
    26d4:	0003a803          	lw	a6,0(t2)
    26d8:	0113a223          	sw	a7,4(t2)
    26dc:	00038793          	mv	a5,t2
    26e0:	00080a63          	beqz	a6,26f4 <core_list_init+0xd78>
    26e4:	00082e03          	lw	t3,0(a6)
    26e8:	00782223          	sw	t2,4(a6)
    26ec:	00080793          	mv	a5,a6
    26f0:	f80e12e3          	bnez	t3,2674 <core_list_init+0xcf8>
    26f4:	000102b7          	lui	t0,0x10
    26f8:	00c28593          	addi	a1,t0,12 # 1000c <core_cached_prev_head>
    26fc:	00a5a023          	sw	a0,0(a1)
    2700:	00f5a223          	sw	a5,4(a1)
    2704:	00008067          	ret
    2708:	00028513          	mv	a0,t0
    270c:	cf9ff06f          	j	2404 <core_list_init+0xa88>
    2710:	000e0793          	mv	a5,t3
    2714:	00430593          	addi	a1,t1,4
    2718:	ac8ff06f          	j	19e0 <core_list_init+0x64>
    271c:	000e0793          	mv	a5,t3
    2720:	00430593          	addi	a1,t1,4
    2724:	abcff06f          	j	19e0 <core_list_init+0x64>

00002728 <core_list_insert_new>:
    2728:	00062803          	lw	a6,0(a2)
    272c:	00c80893          	addi	a7,a6,12
    2730:	04e8f463          	bgeu	a7,a4,2778 <core_list_insert_new+0x50>
    2734:	0006a703          	lw	a4,0(a3)
    2738:	00470293          	addi	t0,a4,4
    273c:	04f2f463          	bgeu	t0,a5,2784 <core_list_insert_new+0x5c>
    2740:	01162023          	sw	a7,0(a2)
    2744:	00052783          	lw	a5,0(a0)
    2748:	00a82223          	sw	a0,4(a6)
    274c:	00f82023          	sw	a5,0(a6)
    2750:	00078463          	beqz	a5,2758 <core_list_insert_new+0x30>
    2754:	0107a223          	sw	a6,4(a5)
    2758:	00059603          	lh	a2,0(a1)
    275c:	00259303          	lh	t1,2(a1)
    2760:	01052023          	sw	a6,0(a0)
    2764:	0056a023          	sw	t0,0(a3)
    2768:	00c81423          	sh	a2,8(a6)
    276c:	00681523          	sh	t1,10(a6)
    2770:	00080513          	mv	a0,a6
    2774:	00008067          	ret
    2778:	00000813          	li	a6,0
    277c:	00080513          	mv	a0,a6
    2780:	00008067          	ret
    2784:	00000813          	li	a6,0
    2788:	00080513          	mv	a0,a6
    278c:	00008067          	ret

00002790 <core_list_remove>:
    2790:	00050793          	mv	a5,a0
    2794:	00052503          	lw	a0,0(a0)
    2798:	0087a703          	lw	a4,8(a5)
    279c:	00852683          	lw	a3,8(a0)
    27a0:	00d7a423          	sw	a3,8(a5)
    27a4:	00e52423          	sw	a4,8(a0)
    27a8:	0007a283          	lw	t0,0(a5)
    27ac:	0002a303          	lw	t1,0(t0)
    27b0:	0067a023          	sw	t1,0(a5)
    27b4:	00052023          	sw	zero,0(a0)
    27b8:	00008067          	ret

000027bc <core_list_undo_remove>:
    27bc:	0085a683          	lw	a3,8(a1)
    27c0:	00852703          	lw	a4,8(a0)
    27c4:	0005a783          	lw	a5,0(a1)
    27c8:	00d52423          	sw	a3,8(a0)
    27cc:	00e5a423          	sw	a4,8(a1)
    27d0:	00f52023          	sw	a5,0(a0)
    27d4:	00a5a023          	sw	a0,0(a1)
    27d8:	00008067          	ret

000027dc <core_list_find>:
    27dc:	00259303          	lh	t1,2(a1)
    27e0:	02034063          	bltz	t1,2800 <core_list_find+0x24>
    27e4:	00051863          	bnez	a0,27f4 <core_list_find+0x18>
    27e8:	00008067          	ret
    27ec:	00052503          	lw	a0,0(a0)
    27f0:	02050663          	beqz	a0,281c <core_list_find+0x40>
    27f4:	00a51283          	lh	t0,10(a0)
    27f8:	fe629ae3          	bne	t0,t1,27ec <core_list_find+0x10>
    27fc:	00008067          	ret
    2800:	00050e63          	beqz	a0,281c <core_list_find+0x40>
    2804:	00059703          	lh	a4,0(a1)
    2808:	00c0006f          	j	2814 <core_list_find+0x38>
    280c:	00052503          	lw	a0,0(a0)
    2810:	00050663          	beqz	a0,281c <core_list_find+0x40>
    2814:	00854783          	lbu	a5,8(a0)
    2818:	fee79ae3          	bne	a5,a4,280c <core_list_find+0x30>
    281c:	00008067          	ret

00002820 <core_list_reverse>:
    2820:	08050c63          	beqz	a0,28b8 <core_list_reverse+0x98>
    2824:	00052783          	lw	a5,0(a0)
    2828:	00000813          	li	a6,0
    282c:	01052023          	sw	a6,0(a0)
    2830:	08078463          	beqz	a5,28b8 <core_list_reverse+0x98>
    2834:	0007a703          	lw	a4,0(a5)
    2838:	00a7a023          	sw	a0,0(a5)
    283c:	00078513          	mv	a0,a5
    2840:	06070e63          	beqz	a4,28bc <core_list_reverse+0x9c>
    2844:	00072683          	lw	a3,0(a4)
    2848:	00f72023          	sw	a5,0(a4)
    284c:	00070513          	mv	a0,a4
    2850:	06068463          	beqz	a3,28b8 <core_list_reverse+0x98>
    2854:	0006a283          	lw	t0,0(a3)
    2858:	00e6a023          	sw	a4,0(a3)
    285c:	00068513          	mv	a0,a3
    2860:	04028c63          	beqz	t0,28b8 <core_list_reverse+0x98>
    2864:	0002a303          	lw	t1,0(t0)
    2868:	00d2a023          	sw	a3,0(t0)
    286c:	00028513          	mv	a0,t0
    2870:	04030463          	beqz	t1,28b8 <core_list_reverse+0x98>
    2874:	00032383          	lw	t2,0(t1)
    2878:	00532023          	sw	t0,0(t1)
    287c:	00030513          	mv	a0,t1
    2880:	02038c63          	beqz	t2,28b8 <core_list_reverse+0x98>
    2884:	0003a583          	lw	a1,0(t2)
    2888:	0063a023          	sw	t1,0(t2)
    288c:	00038513          	mv	a0,t2
    2890:	02058463          	beqz	a1,28b8 <core_list_reverse+0x98>
    2894:	0005a603          	lw	a2,0(a1)
    2898:	0075a023          	sw	t2,0(a1)
    289c:	00058513          	mv	a0,a1
    28a0:	00058813          	mv	a6,a1
    28a4:	00060a63          	beqz	a2,28b8 <core_list_reverse+0x98>
    28a8:	00060513          	mv	a0,a2
    28ac:	00052783          	lw	a5,0(a0)
    28b0:	01052023          	sw	a6,0(a0)
    28b4:	f80790e3          	bnez	a5,2834 <core_list_reverse+0x14>
    28b8:	00008067          	ret
    28bc:	00008067          	ret

000028c0 <core_list_mergesort>:
    28c0:	fc010113          	addi	sp,sp,-64
    28c4:	03612023          	sw	s6,32(sp)
    28c8:	01712e23          	sw	s7,28(sp)
    28cc:	01812c23          	sw	s8,24(sp)
    28d0:	01a12823          	sw	s10,16(sp)
    28d4:	00100c13          	li	s8,1
    28d8:	02112e23          	sw	ra,60(sp)
    28dc:	02812c23          	sw	s0,56(sp)
    28e0:	02912a23          	sw	s1,52(sp)
    28e4:	03212823          	sw	s2,48(sp)
    28e8:	03312623          	sw	s3,44(sp)
    28ec:	03412423          	sw	s4,40(sp)
    28f0:	03512223          	sw	s5,36(sp)
    28f4:	01912a23          	sw	s9,20(sp)
    28f8:	01b12623          	sw	s11,12(sp)
    28fc:	00058b93          	mv	s7,a1
    2900:	00060b13          	mv	s6,a2
    2904:	000c0d13          	mv	s10,s8
    2908:	1a050a63          	beqz	a0,2abc <core_list_mergesort+0x1fc>
    290c:	00000c93          	li	s9,0
    2910:	00000913          	li	s2,0
    2914:	00000a93          	li	s5,0
    2918:	007c7693          	andi	a3,s8,7
    291c:	001c8c93          	addi	s9,s9,1
    2920:	00050793          	mv	a5,a0
    2924:	00000493          	li	s1,0
    2928:	08068463          	beqz	a3,29b0 <core_list_mergesort+0xf0>
    292c:	0f805663          	blez	s8,2a18 <core_list_mergesort+0x158>
    2930:	00052783          	lw	a5,0(a0)
    2934:	00100493          	li	s1,1
    2938:	0e078063          	beqz	a5,2a18 <core_list_mergesort+0x158>
    293c:	06968a63          	beq	a3,s1,29b0 <core_list_mergesort+0xf0>
    2940:	00200613          	li	a2,2
    2944:	06c68063          	beq	a3,a2,29a4 <core_list_mergesort+0xe4>
    2948:	00300593          	li	a1,3
    294c:	04b68663          	beq	a3,a1,2998 <core_list_mergesort+0xd8>
    2950:	00400293          	li	t0,4
    2954:	02568c63          	beq	a3,t0,298c <core_list_mergesort+0xcc>
    2958:	00500313          	li	t1,5
    295c:	02668263          	beq	a3,t1,2980 <core_list_mergesort+0xc0>
    2960:	00600393          	li	t2,6
    2964:	00768863          	beq	a3,t2,2974 <core_list_mergesort+0xb4>
    2968:	0007a783          	lw	a5,0(a5)
    296c:	00060493          	mv	s1,a2
    2970:	0a078463          	beqz	a5,2a18 <core_list_mergesort+0x158>
    2974:	0007a783          	lw	a5,0(a5)
    2978:	00148493          	addi	s1,s1,1
    297c:	08078e63          	beqz	a5,2a18 <core_list_mergesort+0x158>
    2980:	0007a783          	lw	a5,0(a5)
    2984:	00148493          	addi	s1,s1,1
    2988:	08078863          	beqz	a5,2a18 <core_list_mergesort+0x158>
    298c:	0007a783          	lw	a5,0(a5)
    2990:	00148493          	addi	s1,s1,1
    2994:	08078263          	beqz	a5,2a18 <core_list_mergesort+0x158>
    2998:	0007a783          	lw	a5,0(a5)
    299c:	00148493          	addi	s1,s1,1
    29a0:	06078c63          	beqz	a5,2a18 <core_list_mergesort+0x158>
    29a4:	0007a783          	lw	a5,0(a5)
    29a8:	00148493          	addi	s1,s1,1
    29ac:	06078663          	beqz	a5,2a18 <core_list_mergesort+0x158>
    29b0:	0784d463          	bge	s1,s8,2a18 <core_list_mergesort+0x158>
    29b4:	0007a783          	lw	a5,0(a5)
    29b8:	00148493          	addi	s1,s1,1
    29bc:	00048413          	mv	s0,s1
    29c0:	04078c63          	beqz	a5,2a18 <core_list_mergesort+0x158>
    29c4:	0007a783          	lw	a5,0(a5)
    29c8:	00148493          	addi	s1,s1,1
    29cc:	04078663          	beqz	a5,2a18 <core_list_mergesort+0x158>
    29d0:	0007a783          	lw	a5,0(a5)
    29d4:	00240493          	addi	s1,s0,2
    29d8:	04078063          	beqz	a5,2a18 <core_list_mergesort+0x158>
    29dc:	0007a783          	lw	a5,0(a5)
    29e0:	00340493          	addi	s1,s0,3
    29e4:	02078a63          	beqz	a5,2a18 <core_list_mergesort+0x158>
    29e8:	0007a783          	lw	a5,0(a5)
    29ec:	00440493          	addi	s1,s0,4
    29f0:	02078463          	beqz	a5,2a18 <core_list_mergesort+0x158>
    29f4:	0007a783          	lw	a5,0(a5)
    29f8:	00540493          	addi	s1,s0,5
    29fc:	00078e63          	beqz	a5,2a18 <core_list_mergesort+0x158>
    2a00:	0007a783          	lw	a5,0(a5)
    2a04:	00640493          	addi	s1,s0,6
    2a08:	00078863          	beqz	a5,2a18 <core_list_mergesort+0x158>
    2a0c:	0007a783          	lw	a5,0(a5)
    2a10:	00740493          	addi	s1,s0,7
    2a14:	f8079ee3          	bnez	a5,29b0 <core_list_mergesort+0xf0>
    2a18:	00090413          	mv	s0,s2
    2a1c:	000c0a13          	mv	s4,s8
    2a20:	00050913          	mv	s2,a0
    2a24:	00078513          	mv	a0,a5
    2a28:	06905263          	blez	s1,2a8c <core_list_mergesort+0x1cc>
    2a2c:	080a0c63          	beqz	s4,2ac4 <core_list_mergesort+0x204>
    2a30:	48051863          	bnez	a0,2ec0 <core_list_mergesort+0x600>
    2a34:	00092503          	lw	a0,0(s2)
    2a38:	fff48493          	addi	s1,s1,-1
    2a3c:	54040e63          	beqz	s0,2f98 <core_list_mergesort+0x6d8>
    2a40:	01242023          	sw	s2,0(s0)
    2a44:	54049e63          	bnez	s1,2fa0 <core_list_mergesort+0x6e0>
    2a48:	00090993          	mv	s3,s2
    2a4c:	00000413          	li	s0,0
    2a50:	00050913          	mv	s2,a0
    2a54:	05405263          	blez	s4,2a98 <core_list_mergesort+0x1d8>
    2a58:	04040863          	beqz	s0,2aa8 <core_list_mergesort+0x1e8>
    2a5c:	08048e63          	beqz	s1,2af8 <core_list_mergesort+0x238>
    2a60:	00840d93          	addi	s11,s0,8
    2a64:	000b0613          	mv	a2,s6
    2a68:	000d8593          	mv	a1,s11
    2a6c:	00890513          	addi	a0,s2,8
    2a70:	000b80e7          	jalr	s7
    2a74:	24a05663          	blez	a0,2cc0 <core_list_mergesort+0x400>
    2a78:	00042503          	lw	a0,0(s0)
    2a7c:	fffa0a13          	addi	s4,s4,-1
    2a80:	06099863          	bnez	s3,2af0 <core_list_mergesort+0x230>
    2a84:	00040a93          	mv	s5,s0
    2a88:	fa9042e3          	bgtz	s1,2a2c <core_list_mergesort+0x16c>
    2a8c:	00040993          	mv	s3,s0
    2a90:	00050413          	mv	s0,a0
    2a94:	fd4042e3          	bgtz	s4,2a58 <core_list_mergesort+0x198>
    2a98:	00098913          	mv	s2,s3
    2a9c:	00040513          	mv	a0,s0
    2aa0:	e6051ce3          	bnez	a0,2918 <core_list_mergesort+0x58>
    2aa4:	00090993          	mv	s3,s2
    2aa8:	0009a023          	sw	zero,0(s3)
    2aac:	4bac8263          	beq	s9,s10,2f50 <core_list_mergesort+0x690>
    2ab0:	000a8513          	mv	a0,s5
    2ab4:	001c1c13          	slli	s8,s8,0x1
    2ab8:	e4051ae3          	bnez	a0,290c <core_list_mergesort+0x4c>
    2abc:	00002023          	sw	zero,0(zero) # 0 <_start>
    2ac0:	00100073          	ebreak
    2ac4:	fff48313          	addi	t1,s1,-1
    2ac8:	00737893          	andi	a7,t1,7
    2acc:	30088463          	beqz	a7,2dd4 <core_list_mergesort+0x514>
    2ad0:	00092603          	lw	a2,0(s2)
    2ad4:	20040c63          	beqz	s0,2cec <core_list_mergesort+0x42c>
    2ad8:	01242023          	sw	s2,0(s0)
    2adc:	fc0302e3          	beqz	t1,2aa0 <core_list_mergesort+0x1e0>
    2ae0:	00090993          	mv	s3,s2
    2ae4:	00062903          	lw	s2,0(a2)
    2ae8:	ffe48493          	addi	s1,s1,-2
    2aec:	00060413          	mv	s0,a2
    2af0:	0089a023          	sw	s0,0(s3)
    2af4:	f35ff06f          	j	2a28 <core_list_mergesort+0x168>
    2af8:	fffa0813          	addi	a6,s4,-1
    2afc:	00787893          	andi	a7,a6,7
    2b00:	0e088a63          	beqz	a7,2bf4 <core_list_mergesort+0x334>
    2b04:	00042903          	lw	s2,0(s0)
    2b08:	00080a13          	mv	s4,a6
    2b0c:	40098a63          	beqz	s3,2f20 <core_list_mergesort+0x660>
    2b10:	0089a023          	sw	s0,0(s3)
    2b14:	00040993          	mv	s3,s0
    2b18:	f80908e3          	beqz	s2,2aa8 <core_list_mergesort+0x1e8>
    2b1c:	00100e13          	li	t3,1
    2b20:	00090413          	mv	s0,s2
    2b24:	0dc88863          	beq	a7,t3,2bf4 <core_list_mergesort+0x334>
    2b28:	00200e93          	li	t4,2
    2b2c:	0bd88663          	beq	a7,t4,2bd8 <core_list_mergesort+0x318>
    2b30:	00300f13          	li	t5,3
    2b34:	09e88463          	beq	a7,t5,2bbc <core_list_mergesort+0x2fc>
    2b38:	00400f93          	li	t6,4
    2b3c:	07f88263          	beq	a7,t6,2ba0 <core_list_mergesort+0x2e0>
    2b40:	00500693          	li	a3,5
    2b44:	04d88063          	beq	a7,a3,2b84 <core_list_mergesort+0x2c4>
    2b48:	00600613          	li	a2,6
    2b4c:	00c88e63          	beq	a7,a2,2b68 <core_list_mergesort+0x2a8>
    2b50:	00092403          	lw	s0,0(s2)
    2b54:	fffa0a13          	addi	s4,s4,-1
    2b58:	42098c63          	beqz	s3,2f90 <core_list_mergesort+0x6d0>
    2b5c:	0129a023          	sw	s2,0(s3)
    2b60:	00090993          	mv	s3,s2
    2b64:	f40402e3          	beqz	s0,2aa8 <core_list_mergesort+0x1e8>
    2b68:	00042583          	lw	a1,0(s0)
    2b6c:	fffa0a13          	addi	s4,s4,-1
    2b70:	3c098c63          	beqz	s3,2f48 <core_list_mergesort+0x688>
    2b74:	0089a023          	sw	s0,0(s3)
    2b78:	00040993          	mv	s3,s0
    2b7c:	f20586e3          	beqz	a1,2aa8 <core_list_mergesort+0x1e8>
    2b80:	00058413          	mv	s0,a1
    2b84:	00042283          	lw	t0,0(s0)
    2b88:	fffa0a13          	addi	s4,s4,-1
    2b8c:	3a098a63          	beqz	s3,2f40 <core_list_mergesort+0x680>
    2b90:	0089a023          	sw	s0,0(s3)
    2b94:	00040993          	mv	s3,s0
    2b98:	f00288e3          	beqz	t0,2aa8 <core_list_mergesort+0x1e8>
    2b9c:	00028413          	mv	s0,t0
    2ba0:	00042303          	lw	t1,0(s0)
    2ba4:	fffa0a13          	addi	s4,s4,-1
    2ba8:	38098863          	beqz	s3,2f38 <core_list_mergesort+0x678>
    2bac:	0089a023          	sw	s0,0(s3)
    2bb0:	00040993          	mv	s3,s0
    2bb4:	ee030ae3          	beqz	t1,2aa8 <core_list_mergesort+0x1e8>
    2bb8:	00030413          	mv	s0,t1
    2bbc:	00042383          	lw	t2,0(s0)
    2bc0:	fffa0a13          	addi	s4,s4,-1
    2bc4:	36098663          	beqz	s3,2f30 <core_list_mergesort+0x670>
    2bc8:	0089a023          	sw	s0,0(s3)
    2bcc:	00040993          	mv	s3,s0
    2bd0:	ec038ce3          	beqz	t2,2aa8 <core_list_mergesort+0x1e8>
    2bd4:	00038413          	mv	s0,t2
    2bd8:	00042783          	lw	a5,0(s0)
    2bdc:	fffa0a13          	addi	s4,s4,-1
    2be0:	34098463          	beqz	s3,2f28 <core_list_mergesort+0x668>
    2be4:	0089a023          	sw	s0,0(s3)
    2be8:	00040993          	mv	s3,s0
    2bec:	ea078ee3          	beqz	a5,2aa8 <core_list_mergesort+0x1e8>
    2bf0:	00078413          	mv	s0,a5
    2bf4:	00042503          	lw	a0,0(s0)
    2bf8:	fffa0a13          	addi	s4,s4,-1
    2bfc:	0a098863          	beqz	s3,2cac <core_list_mergesort+0x3ec>
    2c00:	0089a023          	sw	s0,0(s3)
    2c04:	0a0a0863          	beqz	s4,2cb4 <core_list_mergesort+0x3f4>
    2c08:	00040993          	mv	s3,s0
    2c0c:	e8050ee3          	beqz	a0,2aa8 <core_list_mergesort+0x1e8>
    2c10:	00052483          	lw	s1,0(a0)
    2c14:	2c040a63          	beqz	s0,2ee8 <core_list_mergesort+0x628>
    2c18:	00a42023          	sw	a0,0(s0)
    2c1c:	00050993          	mv	s3,a0
    2c20:	e80484e3          	beqz	s1,2aa8 <core_list_mergesort+0x1e8>
    2c24:	0004a403          	lw	s0,0(s1)
    2c28:	2c050463          	beqz	a0,2ef0 <core_list_mergesort+0x630>
    2c2c:	00952023          	sw	s1,0(a0)
    2c30:	00048993          	mv	s3,s1
    2c34:	e6040ae3          	beqz	s0,2aa8 <core_list_mergesort+0x1e8>
    2c38:	00042503          	lw	a0,0(s0)
    2c3c:	2a048e63          	beqz	s1,2ef8 <core_list_mergesort+0x638>
    2c40:	0084a023          	sw	s0,0(s1)
    2c44:	00040993          	mv	s3,s0
    2c48:	e60500e3          	beqz	a0,2aa8 <core_list_mergesort+0x1e8>
    2c4c:	00052d83          	lw	s11,0(a0)
    2c50:	2a040863          	beqz	s0,2f00 <core_list_mergesort+0x640>
    2c54:	00a42023          	sw	a0,0(s0)
    2c58:	00050993          	mv	s3,a0
    2c5c:	e40d86e3          	beqz	s11,2aa8 <core_list_mergesort+0x1e8>
    2c60:	000da803          	lw	a6,0(s11)
    2c64:	2a050263          	beqz	a0,2f08 <core_list_mergesort+0x648>
    2c68:	01b52023          	sw	s11,0(a0)
    2c6c:	000d8993          	mv	s3,s11
    2c70:	e2080ce3          	beqz	a6,2aa8 <core_list_mergesort+0x1e8>
    2c74:	00082703          	lw	a4,0(a6)
    2c78:	280d8c63          	beqz	s11,2f10 <core_list_mergesort+0x650>
    2c7c:	010da023          	sw	a6,0(s11)
    2c80:	00080993          	mv	s3,a6
    2c84:	e20702e3          	beqz	a4,2aa8 <core_list_mergesort+0x1e8>
    2c88:	00072403          	lw	s0,0(a4)
    2c8c:	ff9a0a13          	addi	s4,s4,-7
    2c90:	28080463          	beqz	a6,2f18 <core_list_mergesort+0x658>
    2c94:	00e82023          	sw	a4,0(a6)
    2c98:	00070993          	mv	s3,a4
    2c9c:	e00406e3          	beqz	s0,2aa8 <core_list_mergesort+0x1e8>
    2ca0:	00042503          	lw	a0,0(s0)
    2ca4:	fffa0a13          	addi	s4,s4,-1
    2ca8:	f4099ce3          	bnez	s3,2c00 <core_list_mergesort+0x340>
    2cac:	00040a93          	mv	s5,s0
    2cb0:	f40a1ce3          	bnez	s4,2c08 <core_list_mergesort+0x348>
    2cb4:	00040913          	mv	s2,s0
    2cb8:	c60510e3          	bnez	a0,2918 <core_list_mergesort+0x58>
    2cbc:	de9ff06f          	j	2aa4 <core_list_mergesort+0x1e4>
    2cc0:	00092703          	lw	a4,0(s2)
    2cc4:	fff48493          	addi	s1,s1,-1
    2cc8:	00098c63          	beqz	s3,2ce0 <core_list_mergesort+0x420>
    2ccc:	0129a023          	sw	s2,0(s3)
    2cd0:	1e905e63          	blez	s1,2ecc <core_list_mergesort+0x60c>
    2cd4:	00090993          	mv	s3,s2
    2cd8:	00070913          	mv	s2,a4
    2cdc:	d89ff06f          	j	2a64 <core_list_mergesort+0x1a4>
    2ce0:	1e905c63          	blez	s1,2ed8 <core_list_mergesort+0x618>
    2ce4:	00090a93          	mv	s5,s2
    2ce8:	fedff06f          	j	2cd4 <core_list_mergesort+0x414>
    2cec:	00100e13          	li	t3,1
    2cf0:	00090a93          	mv	s5,s2
    2cf4:	00090413          	mv	s0,s2
    2cf8:	00030493          	mv	s1,t1
    2cfc:	00060913          	mv	s2,a2
    2d00:	0dc88a63          	beq	a7,t3,2dd4 <core_list_mergesort+0x514>
    2d04:	00200e93          	li	t4,2
    2d08:	0bd88863          	beq	a7,t4,2db8 <core_list_mergesort+0x4f8>
    2d0c:	00300f13          	li	t5,3
    2d10:	09e88663          	beq	a7,t5,2d9c <core_list_mergesort+0x4dc>
    2d14:	00400f93          	li	t6,4
    2d18:	07f88463          	beq	a7,t6,2d80 <core_list_mergesort+0x4c0>
    2d1c:	00500693          	li	a3,5
    2d20:	04d88263          	beq	a7,a3,2d64 <core_list_mergesort+0x4a4>
    2d24:	00600593          	li	a1,6
    2d28:	02b88063          	beq	a7,a1,2d48 <core_list_mergesort+0x488>
    2d2c:	00062603          	lw	a2,0(a2)
    2d30:	fff30313          	addi	t1,t1,-1
    2d34:	da0a92e3          	bnez	s5,2ad8 <core_list_mergesort+0x218>
    2d38:	00090a93          	mv	s5,s2
    2d3c:	00090413          	mv	s0,s2
    2d40:	00030493          	mv	s1,t1
    2d44:	00060913          	mv	s2,a2
    2d48:	00062603          	lw	a2,0(a2)
    2d4c:	fff30313          	addi	t1,t1,-1
    2d50:	d80414e3          	bnez	s0,2ad8 <core_list_mergesort+0x218>
    2d54:	00090a93          	mv	s5,s2
    2d58:	00090413          	mv	s0,s2
    2d5c:	00030493          	mv	s1,t1
    2d60:	00060913          	mv	s2,a2
    2d64:	00062603          	lw	a2,0(a2)
    2d68:	fff30313          	addi	t1,t1,-1
    2d6c:	d60416e3          	bnez	s0,2ad8 <core_list_mergesort+0x218>
    2d70:	00090a93          	mv	s5,s2
    2d74:	00090413          	mv	s0,s2
    2d78:	00030493          	mv	s1,t1
    2d7c:	00060913          	mv	s2,a2
    2d80:	00062603          	lw	a2,0(a2)
    2d84:	fff30313          	addi	t1,t1,-1
    2d88:	d40418e3          	bnez	s0,2ad8 <core_list_mergesort+0x218>
    2d8c:	00090a93          	mv	s5,s2
    2d90:	00090413          	mv	s0,s2
    2d94:	00030493          	mv	s1,t1
    2d98:	00060913          	mv	s2,a2
    2d9c:	00062603          	lw	a2,0(a2)
    2da0:	fff30313          	addi	t1,t1,-1
    2da4:	d2041ae3          	bnez	s0,2ad8 <core_list_mergesort+0x218>
    2da8:	00090a93          	mv	s5,s2
    2dac:	00090413          	mv	s0,s2
    2db0:	00030493          	mv	s1,t1
    2db4:	00060913          	mv	s2,a2
    2db8:	00062603          	lw	a2,0(a2)
    2dbc:	fff30313          	addi	t1,t1,-1
    2dc0:	d0041ce3          	bnez	s0,2ad8 <core_list_mergesort+0x218>
    2dc4:	00090a93          	mv	s5,s2
    2dc8:	00090413          	mv	s0,s2
    2dcc:	00030493          	mv	s1,t1
    2dd0:	00060913          	mv	s2,a2
    2dd4:	00092603          	lw	a2,0(s2)
    2dd8:	fff48313          	addi	t1,s1,-1
    2ddc:	ce041ee3          	bnez	s0,2ad8 <core_list_mergesort+0x218>
    2de0:	00090a93          	mv	s5,s2
    2de4:	00090413          	mv	s0,s2
    2de8:	ca030ce3          	beqz	t1,2aa0 <core_list_mergesort+0x1e0>
    2dec:	00030493          	mv	s1,t1
    2df0:	00030293          	mv	t0,t1
    2df4:	00060913          	mv	s2,a2
    2df8:	fff30313          	addi	t1,t1,-1
    2dfc:	00062603          	lw	a2,0(a2)
    2e00:	cc0a9ce3          	bnez	s5,2ad8 <core_list_mergesort+0x218>
    2e04:	00090a93          	mv	s5,s2
    2e08:	00030493          	mv	s1,t1
    2e0c:	00090413          	mv	s0,s2
    2e10:	fff30313          	addi	t1,t1,-1
    2e14:	00060913          	mv	s2,a2
    2e18:	00062603          	lw	a2,0(a2)
    2e1c:	ca0a9ee3          	bnez	s5,2ad8 <core_list_mergesort+0x218>
    2e20:	00090a93          	mv	s5,s2
    2e24:	00090413          	mv	s0,s2
    2e28:	ffe28493          	addi	s1,t0,-2
    2e2c:	00060913          	mv	s2,a2
    2e30:	ffd28313          	addi	t1,t0,-3
    2e34:	00062603          	lw	a2,0(a2)
    2e38:	ca0a90e3          	bnez	s5,2ad8 <core_list_mergesort+0x218>
    2e3c:	00090a93          	mv	s5,s2
    2e40:	00030493          	mv	s1,t1
    2e44:	00090413          	mv	s0,s2
    2e48:	ffc28313          	addi	t1,t0,-4
    2e4c:	00060913          	mv	s2,a2
    2e50:	00062603          	lw	a2,0(a2)
    2e54:	c80a92e3          	bnez	s5,2ad8 <core_list_mergesort+0x218>
    2e58:	00090a93          	mv	s5,s2
    2e5c:	00030493          	mv	s1,t1
    2e60:	00090413          	mv	s0,s2
    2e64:	ffb28313          	addi	t1,t0,-5
    2e68:	00060913          	mv	s2,a2
    2e6c:	00062603          	lw	a2,0(a2)
    2e70:	c60a94e3          	bnez	s5,2ad8 <core_list_mergesort+0x218>
    2e74:	00090a93          	mv	s5,s2
    2e78:	00030493          	mv	s1,t1
    2e7c:	00090413          	mv	s0,s2
    2e80:	ffa28313          	addi	t1,t0,-6
    2e84:	00060913          	mv	s2,a2
    2e88:	00062603          	lw	a2,0(a2)
    2e8c:	c40a96e3          	bnez	s5,2ad8 <core_list_mergesort+0x218>
    2e90:	00090a93          	mv	s5,s2
    2e94:	00030493          	mv	s1,t1
    2e98:	00090413          	mv	s0,s2
    2e9c:	ff928313          	addi	t1,t0,-7
    2ea0:	00060913          	mv	s2,a2
    2ea4:	00062603          	lw	a2,0(a2)
    2ea8:	c20a98e3          	bnez	s5,2ad8 <core_list_mergesort+0x218>
    2eac:	00090a93          	mv	s5,s2
    2eb0:	00090413          	mv	s0,s2
    2eb4:	00030493          	mv	s1,t1
    2eb8:	00060913          	mv	s2,a2
    2ebc:	f19ff06f          	j	2dd4 <core_list_mergesort+0x514>
    2ec0:	00040993          	mv	s3,s0
    2ec4:	00050413          	mv	s0,a0
    2ec8:	b99ff06f          	j	2a60 <core_list_mergesort+0x1a0>
    2ecc:	00090993          	mv	s3,s2
    2ed0:	00070913          	mv	s2,a4
    2ed4:	b81ff06f          	j	2a54 <core_list_mergesort+0x194>
    2ed8:	00090993          	mv	s3,s2
    2edc:	00090a93          	mv	s5,s2
    2ee0:	00070913          	mv	s2,a4
    2ee4:	b71ff06f          	j	2a54 <core_list_mergesort+0x194>
    2ee8:	00050a93          	mv	s5,a0
    2eec:	d31ff06f          	j	2c1c <core_list_mergesort+0x35c>
    2ef0:	00048a93          	mv	s5,s1
    2ef4:	d3dff06f          	j	2c30 <core_list_mergesort+0x370>
    2ef8:	00040a93          	mv	s5,s0
    2efc:	d49ff06f          	j	2c44 <core_list_mergesort+0x384>
    2f00:	00050a93          	mv	s5,a0
    2f04:	d55ff06f          	j	2c58 <core_list_mergesort+0x398>
    2f08:	000d8a93          	mv	s5,s11
    2f0c:	d61ff06f          	j	2c6c <core_list_mergesort+0x3ac>
    2f10:	00080a93          	mv	s5,a6
    2f14:	d6dff06f          	j	2c80 <core_list_mergesort+0x3c0>
    2f18:	00070a93          	mv	s5,a4
    2f1c:	d7dff06f          	j	2c98 <core_list_mergesort+0x3d8>
    2f20:	00040a93          	mv	s5,s0
    2f24:	bf1ff06f          	j	2b14 <core_list_mergesort+0x254>
    2f28:	00040a93          	mv	s5,s0
    2f2c:	cbdff06f          	j	2be8 <core_list_mergesort+0x328>
    2f30:	00040a93          	mv	s5,s0
    2f34:	c99ff06f          	j	2bcc <core_list_mergesort+0x30c>
    2f38:	00040a93          	mv	s5,s0
    2f3c:	c75ff06f          	j	2bb0 <core_list_mergesort+0x2f0>
    2f40:	00040a93          	mv	s5,s0
    2f44:	c51ff06f          	j	2b94 <core_list_mergesort+0x2d4>
    2f48:	00040a93          	mv	s5,s0
    2f4c:	c2dff06f          	j	2b78 <core_list_mergesort+0x2b8>
    2f50:	03c12083          	lw	ra,60(sp)
    2f54:	03812403          	lw	s0,56(sp)
    2f58:	03412483          	lw	s1,52(sp)
    2f5c:	03012903          	lw	s2,48(sp)
    2f60:	02c12983          	lw	s3,44(sp)
    2f64:	02812a03          	lw	s4,40(sp)
    2f68:	02012b03          	lw	s6,32(sp)
    2f6c:	01c12b83          	lw	s7,28(sp)
    2f70:	01812c03          	lw	s8,24(sp)
    2f74:	01412c83          	lw	s9,20(sp)
    2f78:	01012d03          	lw	s10,16(sp)
    2f7c:	00c12d83          	lw	s11,12(sp)
    2f80:	000a8513          	mv	a0,s5
    2f84:	02412a83          	lw	s5,36(sp)
    2f88:	04010113          	addi	sp,sp,64
    2f8c:	00008067          	ret
    2f90:	00090a93          	mv	s5,s2
    2f94:	bcdff06f          	j	2b60 <core_list_mergesort+0x2a0>
    2f98:	00048a63          	beqz	s1,2fac <core_list_mergesort+0x6ec>
    2f9c:	00090a93          	mv	s5,s2
    2fa0:	00090413          	mv	s0,s2
    2fa4:	00050913          	mv	s2,a0
    2fa8:	a8dff06f          	j	2a34 <core_list_mergesort+0x174>
    2fac:	00090993          	mv	s3,s2
    2fb0:	00090a93          	mv	s5,s2
    2fb4:	00050913          	mv	s2,a0
    2fb8:	a9dff06f          	j	2a54 <core_list_mergesort+0x194>

00002fbc <iterate>:
    2fbc:	fe010113          	addi	sp,sp,-32
    2fc0:	01212823          	sw	s2,16(sp)
    2fc4:	01c52903          	lw	s2,28(a0)
    2fc8:	00112e23          	sw	ra,28(sp)
    2fcc:	02052c23          	sw	zero,56(a0)
    2fd0:	02052e23          	sw	zero,60(a0)
    2fd4:	3c090463          	beqz	s2,339c <iterate+0x3e0>
    2fd8:	00812c23          	sw	s0,24(sp)
    2fdc:	00912a23          	sw	s1,20(sp)
    2fe0:	01312623          	sw	s3,12(sp)
    2fe4:	00797793          	andi	a5,s2,7
    2fe8:	00050413          	mv	s0,a0
    2fec:	00000493          	li	s1,0
    2ff0:	1a078e63          	beqz	a5,31ac <iterate+0x1f0>
    2ff4:	00100993          	li	s3,1
    2ff8:	17378c63          	beq	a5,s3,3170 <iterate+0x1b4>
    2ffc:	00200713          	li	a4,2
    3000:	12e78c63          	beq	a5,a4,3138 <iterate+0x17c>
    3004:	00300293          	li	t0,3
    3008:	0e578c63          	beq	a5,t0,3100 <iterate+0x144>
    300c:	00400313          	li	t1,4
    3010:	0a678c63          	beq	a5,t1,30c8 <iterate+0x10c>
    3014:	00500393          	li	t2,5
    3018:	06778c63          	beq	a5,t2,3090 <iterate+0xd4>
    301c:	00600593          	li	a1,6
    3020:	02b78c63          	beq	a5,a1,3058 <iterate+0x9c>
    3024:	00098593          	mv	a1,s3
    3028:	bccfd0ef          	jal	3f4 <core_bench_list>
    302c:	03845483          	lhu	s1,56(s0)
    3030:	5095050b          	.insn	4, 0x5095050b
    3034:	fff00593          	li	a1,-1
    3038:	02a41c23          	sh	a0,56(s0)
    303c:	00040513          	mv	a0,s0
    3040:	bb4fd0ef          	jal	3f4 <core_bench_list>
    3044:	03845603          	lhu	a2,56(s0)
    3048:	50c5068b          	.insn	4, 0x50c5068b
    304c:	02d41c23          	sh	a3,56(s0)
    3050:	02d41d23          	sh	a3,58(s0)
    3054:	00098493          	mv	s1,s3
    3058:	00100593          	li	a1,1
    305c:	00040513          	mv	a0,s0
    3060:	b94fd0ef          	jal	3f4 <core_bench_list>
    3064:	03845803          	lhu	a6,56(s0)
    3068:	5105088b          	.insn	4, 0x5105088b
    306c:	fff00593          	li	a1,-1
    3070:	03141c23          	sh	a7,56(s0)
    3074:	00040513          	mv	a0,s0
    3078:	b7cfd0ef          	jal	3f4 <core_bench_list>
    307c:	03845e03          	lhu	t3,56(s0)
    3080:	51c50e8b          	.insn	4, 0x51c50e8b
    3084:	03d41c23          	sh	t4,56(s0)
    3088:	36048663          	beqz	s1,33f4 <iterate+0x438>
    308c:	00148493          	addi	s1,s1,1
    3090:	00100593          	li	a1,1
    3094:	00040513          	mv	a0,s0
    3098:	b5cfd0ef          	jal	3f4 <core_bench_list>
    309c:	03845f03          	lhu	t5,56(s0)
    30a0:	51e50f8b          	.insn	4, 0x51e50f8b
    30a4:	fff00593          	li	a1,-1
    30a8:	03f41c23          	sh	t6,56(s0)
    30ac:	00040513          	mv	a0,s0
    30b0:	b44fd0ef          	jal	3f4 <core_bench_list>
    30b4:	03845783          	lhu	a5,56(s0)
    30b8:	50f5098b          	.insn	4, 0x50f5098b
    30bc:	03341c23          	sh	s3,56(s0)
    30c0:	30048e63          	beqz	s1,33dc <iterate+0x420>
    30c4:	00148493          	addi	s1,s1,1
    30c8:	00100593          	li	a1,1
    30cc:	00040513          	mv	a0,s0
    30d0:	b24fd0ef          	jal	3f4 <core_bench_list>
    30d4:	03845703          	lhu	a4,56(s0)
    30d8:	50e5028b          	.insn	4, 0x50e5028b
    30dc:	fff00593          	li	a1,-1
    30e0:	02541c23          	sh	t0,56(s0)
    30e4:	00040513          	mv	a0,s0
    30e8:	b0cfd0ef          	jal	3f4 <core_bench_list>
    30ec:	03845303          	lhu	t1,56(s0)
    30f0:	5065038b          	.insn	4, 0x5065038b
    30f4:	02741c23          	sh	t2,56(s0)
    30f8:	2c048c63          	beqz	s1,33d0 <iterate+0x414>
    30fc:	00148493          	addi	s1,s1,1
    3100:	00100593          	li	a1,1
    3104:	00040513          	mv	a0,s0
    3108:	aecfd0ef          	jal	3f4 <core_bench_list>
    310c:	03845583          	lhu	a1,56(s0)
    3110:	50b5050b          	.insn	4, 0x50b5050b
    3114:	fff00593          	li	a1,-1
    3118:	02a41c23          	sh	a0,56(s0)
    311c:	00040513          	mv	a0,s0
    3120:	ad4fd0ef          	jal	3f4 <core_bench_list>
    3124:	03845603          	lhu	a2,56(s0)
    3128:	50c5068b          	.insn	4, 0x50c5068b
    312c:	02d41c23          	sh	a3,56(s0)
    3130:	28048c63          	beqz	s1,33c8 <iterate+0x40c>
    3134:	00148493          	addi	s1,s1,1
    3138:	00100593          	li	a1,1
    313c:	00040513          	mv	a0,s0
    3140:	ab4fd0ef          	jal	3f4 <core_bench_list>
    3144:	03845803          	lhu	a6,56(s0)
    3148:	5105088b          	.insn	4, 0x5105088b
    314c:	fff00593          	li	a1,-1
    3150:	03141c23          	sh	a7,56(s0)
    3154:	00040513          	mv	a0,s0
    3158:	a9cfd0ef          	jal	3f4 <core_bench_list>
    315c:	03845e03          	lhu	t3,56(s0)
    3160:	51c50e8b          	.insn	4, 0x51c50e8b
    3164:	03d41c23          	sh	t4,56(s0)
    3168:	24048c63          	beqz	s1,33c0 <iterate+0x404>
    316c:	00148493          	addi	s1,s1,1
    3170:	00100593          	li	a1,1
    3174:	00040513          	mv	a0,s0
    3178:	a7cfd0ef          	jal	3f4 <core_bench_list>
    317c:	03845f03          	lhu	t5,56(s0)
    3180:	51e50f8b          	.insn	4, 0x51e50f8b
    3184:	fff00593          	li	a1,-1
    3188:	03f41c23          	sh	t6,56(s0)
    318c:	00040513          	mv	a0,s0
    3190:	a64fd0ef          	jal	3f4 <core_bench_list>
    3194:	03845783          	lhu	a5,56(s0)
    3198:	50f5098b          	.insn	4, 0x50f5098b
    319c:	03341c23          	sh	s3,56(s0)
    31a0:	20048863          	beqz	s1,33b0 <iterate+0x3f4>
    31a4:	00148493          	addi	s1,s1,1
    31a8:	22990e63          	beq	s2,s1,33e4 <iterate+0x428>
    31ac:	00100593          	li	a1,1
    31b0:	00040513          	mv	a0,s0
    31b4:	a40fd0ef          	jal	3f4 <core_bench_list>
    31b8:	03845703          	lhu	a4,56(s0)
    31bc:	50e5028b          	.insn	4, 0x50e5028b
    31c0:	fff00593          	li	a1,-1
    31c4:	02541c23          	sh	t0,56(s0)
    31c8:	00040513          	mv	a0,s0
    31cc:	a28fd0ef          	jal	3f4 <core_bench_list>
    31d0:	03845303          	lhu	t1,56(s0)
    31d4:	5065038b          	.insn	4, 0x5065038b
    31d8:	02741c23          	sh	t2,56(s0)
    31dc:	00049463          	bnez	s1,31e4 <iterate+0x228>
    31e0:	02741d23          	sh	t2,58(s0)
    31e4:	00100593          	li	a1,1
    31e8:	00040513          	mv	a0,s0
    31ec:	00b484b3          	add	s1,s1,a1
    31f0:	a04fd0ef          	jal	3f4 <core_bench_list>
    31f4:	03845583          	lhu	a1,56(s0)
    31f8:	50b5050b          	.insn	4, 0x50b5050b
    31fc:	fff00593          	li	a1,-1
    3200:	02a41c23          	sh	a0,56(s0)
    3204:	00040513          	mv	a0,s0
    3208:	9ecfd0ef          	jal	3f4 <core_bench_list>
    320c:	03845603          	lhu	a2,56(s0)
    3210:	50c5068b          	.insn	4, 0x50c5068b
    3214:	02d41c23          	sh	a3,56(s0)
    3218:	00049463          	bnez	s1,3220 <iterate+0x264>
    321c:	02d41d23          	sh	a3,58(s0)
    3220:	00100593          	li	a1,1
    3224:	00040513          	mv	a0,s0
    3228:	00b489b3          	add	s3,s1,a1
    322c:	9c8fd0ef          	jal	3f4 <core_bench_list>
    3230:	03845803          	lhu	a6,56(s0)
    3234:	5105088b          	.insn	4, 0x5105088b
    3238:	fff00593          	li	a1,-1
    323c:	03141c23          	sh	a7,56(s0)
    3240:	00040513          	mv	a0,s0
    3244:	9b0fd0ef          	jal	3f4 <core_bench_list>
    3248:	03845e03          	lhu	t3,56(s0)
    324c:	51c50e8b          	.insn	4, 0x51c50e8b
    3250:	03d41c23          	sh	t4,56(s0)
    3254:	00099463          	bnez	s3,325c <iterate+0x2a0>
    3258:	03d41d23          	sh	t4,58(s0)
    325c:	00100593          	li	a1,1
    3260:	00040513          	mv	a0,s0
    3264:	990fd0ef          	jal	3f4 <core_bench_list>
    3268:	03845f03          	lhu	t5,56(s0)
    326c:	00248993          	addi	s3,s1,2
    3270:	51e50f8b          	.insn	4, 0x51e50f8b
    3274:	fff00593          	li	a1,-1
    3278:	03f41c23          	sh	t6,56(s0)
    327c:	00040513          	mv	a0,s0
    3280:	974fd0ef          	jal	3f4 <core_bench_list>
    3284:	03845783          	lhu	a5,56(s0)
    3288:	50f5070b          	.insn	4, 0x50f5070b
    328c:	02e41c23          	sh	a4,56(s0)
    3290:	00099463          	bnez	s3,3298 <iterate+0x2dc>
    3294:	02e41d23          	sh	a4,58(s0)
    3298:	00100593          	li	a1,1
    329c:	00040513          	mv	a0,s0
    32a0:	954fd0ef          	jal	3f4 <core_bench_list>
    32a4:	03845283          	lhu	t0,56(s0)
    32a8:	00348993          	addi	s3,s1,3
    32ac:	5055030b          	.insn	4, 0x5055030b
    32b0:	fff00593          	li	a1,-1
    32b4:	02641c23          	sh	t1,56(s0)
    32b8:	00040513          	mv	a0,s0
    32bc:	938fd0ef          	jal	3f4 <core_bench_list>
    32c0:	03845383          	lhu	t2,56(s0)
    32c4:	5075058b          	.insn	4, 0x5075058b
    32c8:	02b41c23          	sh	a1,56(s0)
    32cc:	00099463          	bnez	s3,32d4 <iterate+0x318>
    32d0:	02b41d23          	sh	a1,58(s0)
    32d4:	00100593          	li	a1,1
    32d8:	00040513          	mv	a0,s0
    32dc:	918fd0ef          	jal	3f4 <core_bench_list>
    32e0:	03845603          	lhu	a2,56(s0)
    32e4:	00448993          	addi	s3,s1,4
    32e8:	50c5050b          	.insn	4, 0x50c5050b
    32ec:	fff00593          	li	a1,-1
    32f0:	02a41c23          	sh	a0,56(s0)
    32f4:	00040513          	mv	a0,s0
    32f8:	8fcfd0ef          	jal	3f4 <core_bench_list>
    32fc:	03845683          	lhu	a3,56(s0)
    3300:	50d5080b          	.insn	4, 0x50d5080b
    3304:	03041c23          	sh	a6,56(s0)
    3308:	00099463          	bnez	s3,3310 <iterate+0x354>
    330c:	03041d23          	sh	a6,58(s0)
    3310:	00100593          	li	a1,1
    3314:	00040513          	mv	a0,s0
    3318:	8dcfd0ef          	jal	3f4 <core_bench_list>
    331c:	03845883          	lhu	a7,56(s0)
    3320:	00548993          	addi	s3,s1,5
    3324:	51150e0b          	.insn	4, 0x51150e0b
    3328:	fff00593          	li	a1,-1
    332c:	03c41c23          	sh	t3,56(s0)
    3330:	00040513          	mv	a0,s0
    3334:	8c0fd0ef          	jal	3f4 <core_bench_list>
    3338:	03845e83          	lhu	t4,56(s0)
    333c:	51d50f0b          	.insn	4, 0x51d50f0b
    3340:	03e41c23          	sh	t5,56(s0)
    3344:	00099463          	bnez	s3,334c <iterate+0x390>
    3348:	03e41d23          	sh	t5,58(s0)
    334c:	00100593          	li	a1,1
    3350:	00040513          	mv	a0,s0
    3354:	8a0fd0ef          	jal	3f4 <core_bench_list>
    3358:	03845f83          	lhu	t6,56(s0)
    335c:	00648993          	addi	s3,s1,6
    3360:	51f5078b          	.insn	4, 0x51f5078b
    3364:	fff00593          	li	a1,-1
    3368:	02f41c23          	sh	a5,56(s0)
    336c:	00040513          	mv	a0,s0
    3370:	884fd0ef          	jal	3f4 <core_bench_list>
    3374:	03845703          	lhu	a4,56(s0)
    3378:	50e5028b          	.insn	4, 0x50e5028b
    337c:	02541c23          	sh	t0,56(s0)
    3380:	00099463          	bnez	s3,3388 <iterate+0x3cc>
    3384:	02541d23          	sh	t0,58(s0)
    3388:	00748493          	addi	s1,s1,7
    338c:	e29910e3          	bne	s2,s1,31ac <iterate+0x1f0>
    3390:	01812403          	lw	s0,24(sp)
    3394:	01412483          	lw	s1,20(sp)
    3398:	00c12983          	lw	s3,12(sp)
    339c:	01c12083          	lw	ra,28(sp)
    33a0:	01012903          	lw	s2,16(sp)
    33a4:	00000513          	li	a0,0
    33a8:	02010113          	addi	sp,sp,32
    33ac:	00008067          	ret
    33b0:	03341d23          	sh	s3,58(s0)
    33b4:	00148493          	addi	s1,s1,1
    33b8:	de991ae3          	bne	s2,s1,31ac <iterate+0x1f0>
    33bc:	0280006f          	j	33e4 <iterate+0x428>
    33c0:	03d41d23          	sh	t4,58(s0)
    33c4:	da9ff06f          	j	316c <iterate+0x1b0>
    33c8:	02d41d23          	sh	a3,58(s0)
    33cc:	d69ff06f          	j	3134 <iterate+0x178>
    33d0:	02741d23          	sh	t2,58(s0)
    33d4:	00148493          	addi	s1,s1,1
    33d8:	d29ff06f          	j	3100 <iterate+0x144>
    33dc:	03341d23          	sh	s3,58(s0)
    33e0:	ce5ff06f          	j	30c4 <iterate+0x108>
    33e4:	01812403          	lw	s0,24(sp)
    33e8:	01412483          	lw	s1,20(sp)
    33ec:	00c12983          	lw	s3,12(sp)
    33f0:	fadff06f          	j	339c <iterate+0x3e0>
    33f4:	03d41d23          	sh	t4,58(s0)
    33f8:	c95ff06f          	j	308c <iterate+0xd0>

000033fc <main>:
    33fc:	f7010113          	addi	sp,sp,-144
    3400:	00810613          	addi	a2,sp,8
    3404:	00410593          	addi	a1,sp,4
    3408:	04e10513          	addi	a0,sp,78
    340c:	08112623          	sw	ra,140(sp)
    3410:	08812423          	sw	s0,136(sp)
    3414:	08912223          	sw	s1,132(sp)
    3418:	09212023          	sw	s2,128(sp)
    341c:	07312e23          	sw	s3,124(sp)
    3420:	07412c23          	sw	s4,120(sp)
    3424:	07512a23          	sw	s5,116(sp)
    3428:	07812423          	sw	s8,104(sp)
    342c:	07912223          	sw	s9,100(sp)
    3430:	00012223          	sw	zero,4(sp)
    3434:	514060ef          	jal	9948 <portable_init>
    3438:	00100513          	li	a0,1
    343c:	160060ef          	jal	959c <get_seed_32>
    3440:	00a11623          	sh	a0,12(sp)
    3444:	00200513          	li	a0,2
    3448:	154060ef          	jal	959c <get_seed_32>
    344c:	00a11723          	sh	a0,14(sp)
    3450:	00300513          	li	a0,3
    3454:	148060ef          	jal	959c <get_seed_32>
    3458:	00a11823          	sh	a0,16(sp)
    345c:	00400513          	li	a0,4
    3460:	13c060ef          	jal	959c <get_seed_32>
    3464:	02a12423          	sw	a0,40(sp)
    3468:	00500513          	li	a0,5
    346c:	130060ef          	jal	959c <get_seed_32>
    3470:	00051463          	bnez	a0,3478 <main+0x7c>
    3474:	00700513          	li	a0,7
    3478:	00c12783          	lw	a5,12(sp)
    347c:	02a12623          	sw	a0,44(sp)
    3480:	76078a63          	beqz	a5,3bf4 <main+0x7f8>
    3484:	00100713          	li	a4,1
    3488:	00e79463          	bne	a5,a4,3490 <main+0x94>
    348c:	7e90006f          	j	4474 <main+0x1078>
    3490:	00010637          	lui	a2,0x10
    3494:	01460a93          	addi	s5,a2,20 # 10014 <static_memblk>
    3498:	00157993          	andi	s3,a0,1
    349c:	04011623          	sh	zero,76(sp)
    34a0:	01512a23          	sw	s5,20(sp)
    34a4:	00257693          	andi	a3,a0,2
    34a8:	00098913          	mv	s2,s3
    34ac:	10069a63          	bnez	a3,35c0 <main+0x1c4>
    34b0:	00457513          	andi	a0,a0,4
    34b4:	16050663          	beqz	a0,3620 <main+0x224>
    34b8:	00198893          	addi	a7,s3,1
    34bc:	3c08b58b          	th.extu	a1,a7,15,0
    34c0:	7d000513          	li	a0,2000
    34c4:	7c5080ef          	jal	c488 <__hidden___udivsi3>
    34c8:	02a12223          	sw	a0,36(sp)
    34cc:	00098463          	beqz	s3,34d4 <main+0xd8>
    34d0:	6d50006f          	j	43a4 <main+0xfa8>
    34d4:	02a90f33          	mul	t5,s2,a0
    34d8:	01ea8fb3          	add	t6,s5,t5
    34dc:	03f12023          	sw	t6,32(sp)
    34e0:	02c12483          	lw	s1,44(sp)
    34e4:	0014f713          	andi	a4,s1,1
    34e8:	00070e63          	beqz	a4,3504 <main+0x108>
    34ec:	00c11603          	lh	a2,12(sp)
    34f0:	01812583          	lw	a1,24(sp)
    34f4:	02412503          	lw	a0,36(sp)
    34f8:	c84fe0ef          	jal	197c <core_list_init>
    34fc:	02c12483          	lw	s1,44(sp)
    3500:	02a12823          	sw	a0,48(sp)
    3504:	0024f293          	andi	t0,s1,2
    3508:	12029663          	bnez	t0,3634 <main+0x238>
    350c:	0044f593          	andi	a1,s1,4
    3510:	00058a63          	beqz	a1,3524 <main+0x128>
    3514:	02012603          	lw	a2,32(sp)
    3518:	00c11583          	lh	a1,12(sp)
    351c:	02412503          	lw	a0,36(sp)
    3520:	2d5050ef          	jal	8ff4 <core_init_state>
    3524:	02812603          	lw	a2,40(sp)
    3528:	12060a63          	beqz	a2,365c <main+0x260>
    352c:	00c10a13          	addi	s4,sp,12
    3530:	2b4060ef          	jal	97e4 <start_time>
    3534:	000a0513          	mv	a0,s4
    3538:	a85ff0ef          	jal	2fbc <iterate>
    353c:	344060ef          	jal	9880 <stop_time>
    3540:	3dc060ef          	jal	991c <get_time>
    3544:	00050c13          	mv	s8,a0
    3548:	00c15a03          	lhu	s4,12(sp)
    354c:	00000393          	li	t2,0
    3550:	507a058b          	.insn	4, 0x507a058b
    3554:	00e15983          	lhu	s3,14(sp)
    3558:	3c05b60b          	th.extu	a2,a1,15,0
    355c:	50c9868b          	.insn	4, 0x50c9868b
    3560:	01015803          	lhu	a6,16(sp)
    3564:	3c06b50b          	th.extu	a0,a3,15,0
    3568:	50a80c8b          	.insn	4, 0x50a80c8b
    356c:	02415883          	lhu	a7,36(sp)
    3570:	3c0cb90b          	th.extu	s2,s9,15,0
    3574:	51288e0b          	.insn	4, 0x51288e0b
    3578:	00008eb7          	lui	t4,0x8
    357c:	3c0e3a8b          	th.extu	s5,t3,15,0
    3580:	b05e8f13          	addi	t5,t4,-1275 # 7b05 <matrix_sum+0x215>
    3584:	01ea9463          	bne	s5,t5,358c <main+0x190>
    3588:	6c50006f          	j	444c <main+0x1050>
    358c:	515f6463          	bltu	t5,s5,3a94 <main+0x698>
    3590:	000023b7          	lui	t2,0x2
    3594:	8f238593          	addi	a1,t2,-1806 # 18f2 <core_bench_list+0x14fe>
    3598:	00ba9463          	bne	s5,a1,35a0 <main+0x1a4>
    359c:	69d0006f          	j	4438 <main+0x103c>
    35a0:	000059b7          	lui	s3,0x5
    35a4:	eaf98693          	addi	a3,s3,-337 # 4eaf <core_bench_matrix+0xa03>
    35a8:	5eda90e3          	bne	s5,a3,4388 <main+0xf8c>
    35ac:	0000c537          	lui	a0,0xc
    35b0:	59050513          	addi	a0,a0,1424 # c590 <__modsi3+0x8c>
    35b4:	3e0060ef          	jal	9994 <ee_printf>
    35b8:	00200c93          	li	s9,2
    35bc:	5000006f          	j	3abc <main+0x6c0>
    35c0:	00198a13          	addi	s4,s3,1
    35c4:	00457413          	andi	s0,a0,4
    35c8:	3c0a3c0b          	th.extu	s8,s4,15,0
    35cc:	02040c63          	beqz	s0,3604 <main+0x208>
    35d0:	00298c93          	addi	s9,s3,2
    35d4:	3c0cb58b          	th.extu	a1,s9,15,0
    35d8:	7d000513          	li	a0,2000
    35dc:	6ad080ef          	jal	c488 <__hidden___udivsi3>
    35e0:	02a12223          	sw	a0,36(sp)
    35e4:	5a099ae3          	bnez	s3,4398 <main+0xf9c>
    35e8:	00400413          	li	s0,4
    35ec:	02a90e33          	mul	t3,s2,a0
    35f0:	000c0913          	mv	s2,s8
    35f4:	01ca8eb3          	add	t4,s5,t3
    35f8:	01d12e23          	sw	t4,28(sp)
    35fc:	ee0402e3          	beqz	s0,34e0 <main+0xe4>
    3600:	ed5ff06f          	j	34d4 <main+0xd8>
    3604:	000c0593          	mv	a1,s8
    3608:	7d000513          	li	a0,2000
    360c:	67d080ef          	jal	c488 <__hidden___udivsi3>
    3610:	02a12223          	sw	a0,36(sp)
    3614:	fc098ce3          	beqz	s3,35ec <main+0x1f0>
    3618:	01512c23          	sw	s5,24(sp)
    361c:	fd1ff06f          	j	35ec <main+0x1f0>
    3620:	7d000813          	li	a6,2000
    3624:	03012223          	sw	a6,36(sp)
    3628:	ea098ce3          	beqz	s3,34e0 <main+0xe4>
    362c:	01512c23          	sw	s5,24(sp)
    3630:	eb1ff06f          	j	34e0 <main+0xe4>
    3634:	00e11783          	lh	a5,14(sp)
    3638:	00c11303          	lh	t1,12(sp)
    363c:	01c12583          	lw	a1,28(sp)
    3640:	02412503          	lw	a0,36(sp)
    3644:	01079393          	slli	t2,a5,0x10
    3648:	0063e633          	or	a2,t2,t1
    364c:	03410693          	addi	a3,sp,52
    3650:	5a9030ef          	jal	73f8 <core_init_matrix>
    3654:	02c12483          	lw	s1,44(sp)
    3658:	eb5ff06f          	j	350c <main+0x110>
    365c:	00100a93          	li	s5,1
    3660:	03512423          	sw	s5,40(sp)
    3664:	00c10a13          	addi	s4,sp,12
    3668:	02812683          	lw	a3,40(sp)
    366c:	00000413          	li	s0,0
    3670:	20d6c9b3          	sh2add	s3,a3,a3
    3674:	00199513          	slli	a0,s3,0x1
    3678:	02a12423          	sw	a0,40(sp)
    367c:	168060ef          	jal	97e4 <start_time>
    3680:	02812c03          	lw	s8,40(sp)
    3684:	04012223          	sw	zero,68(sp)
    3688:	04012423          	sw	zero,72(sp)
    368c:	3a0c0863          	beqz	s8,3a3c <main+0x640>
    3690:	007c7813          	andi	a6,s8,7
    3694:	1c080263          	beqz	a6,3858 <main+0x45c>
    3698:	00100c93          	li	s9,1
    369c:	17980e63          	beq	a6,s9,3818 <main+0x41c>
    36a0:	00200893          	li	a7,2
    36a4:	13180e63          	beq	a6,a7,37e0 <main+0x3e4>
    36a8:	00300e13          	li	t3,3
    36ac:	0fc80e63          	beq	a6,t3,37a8 <main+0x3ac>
    36b0:	00400913          	li	s2,4
    36b4:	0b280e63          	beq	a6,s2,3770 <main+0x374>
    36b8:	00500e93          	li	t4,5
    36bc:	07d80e63          	beq	a6,t4,3738 <main+0x33c>
    36c0:	00600f13          	li	t5,6
    36c4:	03e80e63          	beq	a6,t5,3700 <main+0x304>
    36c8:	000c8593          	mv	a1,s9
    36cc:	000a0513          	mv	a0,s4
    36d0:	d25fc0ef          	jal	3f4 <core_bench_list>
    36d4:	04415403          	lhu	s0,68(sp)
    36d8:	50850f8b          	.insn	4, 0x50850f8b
    36dc:	fff00593          	li	a1,-1
    36e0:	000a0513          	mv	a0,s4
    36e4:	05f11223          	sh	t6,68(sp)
    36e8:	d0dfc0ef          	jal	3f4 <core_bench_list>
    36ec:	04415703          	lhu	a4,68(sp)
    36f0:	50e5028b          	.insn	4, 0x50e5028b
    36f4:	04511223          	sh	t0,68(sp)
    36f8:	04511323          	sh	t0,70(sp)
    36fc:	000c8413          	mv	s0,s9
    3700:	00100593          	li	a1,1
    3704:	000a0513          	mv	a0,s4
    3708:	cedfc0ef          	jal	3f4 <core_bench_list>
    370c:	04415783          	lhu	a5,68(sp)
    3710:	50f5030b          	.insn	4, 0x50f5030b
    3714:	fff00593          	li	a1,-1
    3718:	000a0513          	mv	a0,s4
    371c:	04611223          	sh	t1,68(sp)
    3720:	cd5fc0ef          	jal	3f4 <core_bench_list>
    3724:	04415383          	lhu	t2,68(sp)
    3728:	5075048b          	.insn	4, 0x5075048b
    372c:	04911223          	sh	s1,68(sp)
    3730:	34040e63          	beqz	s0,3a8c <main+0x690>
    3734:	00140413          	addi	s0,s0,1
    3738:	00100593          	li	a1,1
    373c:	000a0513          	mv	a0,s4
    3740:	cb5fc0ef          	jal	3f4 <core_bench_list>
    3744:	04415583          	lhu	a1,68(sp)
    3748:	50b5060b          	.insn	4, 0x50b5060b
    374c:	fff00593          	li	a1,-1
    3750:	000a0513          	mv	a0,s4
    3754:	04c11223          	sh	a2,68(sp)
    3758:	c9dfc0ef          	jal	3f4 <core_bench_list>
    375c:	04415a83          	lhu	s5,68(sp)
    3760:	5155068b          	.insn	4, 0x5155068b
    3764:	04d11223          	sh	a3,68(sp)
    3768:	30040e63          	beqz	s0,3a84 <main+0x688>
    376c:	00140413          	addi	s0,s0,1
    3770:	00100593          	li	a1,1
    3774:	000a0513          	mv	a0,s4
    3778:	c7dfc0ef          	jal	3f4 <core_bench_list>
    377c:	04415983          	lhu	s3,68(sp)
    3780:	5135050b          	.insn	4, 0x5135050b
    3784:	fff00593          	li	a1,-1
    3788:	04a11223          	sh	a0,68(sp)
    378c:	000a0513          	mv	a0,s4
    3790:	c65fc0ef          	jal	3f4 <core_bench_list>
    3794:	04415803          	lhu	a6,68(sp)
    3798:	51050c8b          	.insn	4, 0x51050c8b
    379c:	05911223          	sh	s9,68(sp)
    37a0:	2c040e63          	beqz	s0,3a7c <main+0x680>
    37a4:	00140413          	addi	s0,s0,1
    37a8:	00100593          	li	a1,1
    37ac:	000a0513          	mv	a0,s4
    37b0:	c45fc0ef          	jal	3f4 <core_bench_list>
    37b4:	04415883          	lhu	a7,68(sp)
    37b8:	51150e0b          	.insn	4, 0x51150e0b
    37bc:	fff00593          	li	a1,-1
    37c0:	000a0513          	mv	a0,s4
    37c4:	05c11223          	sh	t3,68(sp)
    37c8:	c2dfc0ef          	jal	3f4 <core_bench_list>
    37cc:	04415903          	lhu	s2,68(sp)
    37d0:	51250e8b          	.insn	4, 0x51250e8b
    37d4:	05d11223          	sh	t4,68(sp)
    37d8:	28040e63          	beqz	s0,3a74 <main+0x678>
    37dc:	00140413          	addi	s0,s0,1
    37e0:	00100593          	li	a1,1
    37e4:	000a0513          	mv	a0,s4
    37e8:	c0dfc0ef          	jal	3f4 <core_bench_list>
    37ec:	04415f03          	lhu	t5,68(sp)
    37f0:	51e50f8b          	.insn	4, 0x51e50f8b
    37f4:	fff00593          	li	a1,-1
    37f8:	000a0513          	mv	a0,s4
    37fc:	05f11223          	sh	t6,68(sp)
    3800:	bf5fc0ef          	jal	3f4 <core_bench_list>
    3804:	04415703          	lhu	a4,68(sp)
    3808:	50e5028b          	.insn	4, 0x50e5028b
    380c:	04511223          	sh	t0,68(sp)
    3810:	24040e63          	beqz	s0,3a6c <main+0x670>
    3814:	00140413          	addi	s0,s0,1
    3818:	00100593          	li	a1,1
    381c:	000a0513          	mv	a0,s4
    3820:	bd5fc0ef          	jal	3f4 <core_bench_list>
    3824:	04415783          	lhu	a5,68(sp)
    3828:	50f5030b          	.insn	4, 0x50f5030b
    382c:	fff00593          	li	a1,-1
    3830:	000a0513          	mv	a0,s4
    3834:	04611223          	sh	t1,68(sp)
    3838:	bbdfc0ef          	jal	3f4 <core_bench_list>
    383c:	04415383          	lhu	t2,68(sp)
    3840:	5075048b          	.insn	4, 0x5075048b
    3844:	04911223          	sh	s1,68(sp)
    3848:	00041463          	bnez	s0,3850 <main+0x454>
    384c:	04911323          	sh	s1,70(sp)
    3850:	00140413          	addi	s0,s0,1
    3854:	1e8c0463          	beq	s8,s0,3a3c <main+0x640>
    3858:	00100593          	li	a1,1
    385c:	000a0513          	mv	a0,s4
    3860:	b95fc0ef          	jal	3f4 <core_bench_list>
    3864:	04415583          	lhu	a1,68(sp)
    3868:	50b5060b          	.insn	4, 0x50b5060b
    386c:	fff00593          	li	a1,-1
    3870:	000a0513          	mv	a0,s4
    3874:	04c11223          	sh	a2,68(sp)
    3878:	b7dfc0ef          	jal	3f4 <core_bench_list>
    387c:	04415a83          	lhu	s5,68(sp)
    3880:	5155068b          	.insn	4, 0x5155068b
    3884:	04d11223          	sh	a3,68(sp)
    3888:	00041463          	bnez	s0,3890 <main+0x494>
    388c:	04d11323          	sh	a3,70(sp)
    3890:	00100593          	li	a1,1
    3894:	000a0513          	mv	a0,s4
    3898:	00b40433          	add	s0,s0,a1
    389c:	b59fc0ef          	jal	3f4 <core_bench_list>
    38a0:	04415983          	lhu	s3,68(sp)
    38a4:	5135050b          	.insn	4, 0x5135050b
    38a8:	fff00593          	li	a1,-1
    38ac:	04a11223          	sh	a0,68(sp)
    38b0:	000a0513          	mv	a0,s4
    38b4:	b41fc0ef          	jal	3f4 <core_bench_list>
    38b8:	04415803          	lhu	a6,68(sp)
    38bc:	51050c8b          	.insn	4, 0x51050c8b
    38c0:	05911223          	sh	s9,68(sp)
    38c4:	00041463          	bnez	s0,38cc <main+0x4d0>
    38c8:	05911323          	sh	s9,70(sp)
    38cc:	00100593          	li	a1,1
    38d0:	000a0513          	mv	a0,s4
    38d4:	00b40933          	add	s2,s0,a1
    38d8:	b1dfc0ef          	jal	3f4 <core_bench_list>
    38dc:	04415883          	lhu	a7,68(sp)
    38e0:	51150e0b          	.insn	4, 0x51150e0b
    38e4:	fff00593          	li	a1,-1
    38e8:	000a0513          	mv	a0,s4
    38ec:	05c11223          	sh	t3,68(sp)
    38f0:	b05fc0ef          	jal	3f4 <core_bench_list>
    38f4:	04415e83          	lhu	t4,68(sp)
    38f8:	51d50f0b          	.insn	4, 0x51d50f0b
    38fc:	05e11223          	sh	t5,68(sp)
    3900:	00091463          	bnez	s2,3908 <main+0x50c>
    3904:	05e11323          	sh	t5,70(sp)
    3908:	00100593          	li	a1,1
    390c:	000a0513          	mv	a0,s4
    3910:	ae5fc0ef          	jal	3f4 <core_bench_list>
    3914:	04415f83          	lhu	t6,68(sp)
    3918:	00240493          	addi	s1,s0,2
    391c:	51f5070b          	.insn	4, 0x51f5070b
    3920:	fff00593          	li	a1,-1
    3924:	000a0513          	mv	a0,s4
    3928:	04e11223          	sh	a4,68(sp)
    392c:	ac9fc0ef          	jal	3f4 <core_bench_list>
    3930:	04415283          	lhu	t0,68(sp)
    3934:	5055078b          	.insn	4, 0x5055078b
    3938:	04f11223          	sh	a5,68(sp)
    393c:	00049463          	bnez	s1,3944 <main+0x548>
    3940:	04f11323          	sh	a5,70(sp)
    3944:	00100593          	li	a1,1
    3948:	000a0513          	mv	a0,s4
    394c:	aa9fc0ef          	jal	3f4 <core_bench_list>
    3950:	04415303          	lhu	t1,68(sp)
    3954:	00340a93          	addi	s5,s0,3
    3958:	5065038b          	.insn	4, 0x5065038b
    395c:	fff00593          	li	a1,-1
    3960:	000a0513          	mv	a0,s4
    3964:	04711223          	sh	t2,68(sp)
    3968:	a8dfc0ef          	jal	3f4 <core_bench_list>
    396c:	04415583          	lhu	a1,68(sp)
    3970:	50b5060b          	.insn	4, 0x50b5060b
    3974:	04c11223          	sh	a2,68(sp)
    3978:	000a9463          	bnez	s5,3980 <main+0x584>
    397c:	04c11323          	sh	a2,70(sp)
    3980:	00100593          	li	a1,1
    3984:	000a0513          	mv	a0,s4
    3988:	a6dfc0ef          	jal	3f4 <core_bench_list>
    398c:	04415683          	lhu	a3,68(sp)
    3990:	00440993          	addi	s3,s0,4
    3994:	50d5050b          	.insn	4, 0x50d5050b
    3998:	fff00593          	li	a1,-1
    399c:	04a11223          	sh	a0,68(sp)
    39a0:	000a0513          	mv	a0,s4
    39a4:	a51fc0ef          	jal	3f4 <core_bench_list>
    39a8:	04415803          	lhu	a6,68(sp)
    39ac:	51050c8b          	.insn	4, 0x51050c8b
    39b0:	05911223          	sh	s9,68(sp)
    39b4:	00099463          	bnez	s3,39bc <main+0x5c0>
    39b8:	05911323          	sh	s9,70(sp)
    39bc:	00100593          	li	a1,1
    39c0:	000a0513          	mv	a0,s4
    39c4:	a31fc0ef          	jal	3f4 <core_bench_list>
    39c8:	04415883          	lhu	a7,68(sp)
    39cc:	00540913          	addi	s2,s0,5
    39d0:	51150e0b          	.insn	4, 0x51150e0b
    39d4:	fff00593          	li	a1,-1
    39d8:	000a0513          	mv	a0,s4
    39dc:	05c11223          	sh	t3,68(sp)
    39e0:	a15fc0ef          	jal	3f4 <core_bench_list>
    39e4:	04415e83          	lhu	t4,68(sp)
    39e8:	51d50f0b          	.insn	4, 0x51d50f0b
    39ec:	05e11223          	sh	t5,68(sp)
    39f0:	00091463          	bnez	s2,39f8 <main+0x5fc>
    39f4:	05e11323          	sh	t5,70(sp)
    39f8:	00100593          	li	a1,1
    39fc:	000a0513          	mv	a0,s4
    3a00:	9f5fc0ef          	jal	3f4 <core_bench_list>
    3a04:	04415f83          	lhu	t6,68(sp)
    3a08:	00640493          	addi	s1,s0,6
    3a0c:	51f5070b          	.insn	4, 0x51f5070b
    3a10:	fff00593          	li	a1,-1
    3a14:	000a0513          	mv	a0,s4
    3a18:	04e11223          	sh	a4,68(sp)
    3a1c:	9d9fc0ef          	jal	3f4 <core_bench_list>
    3a20:	04415283          	lhu	t0,68(sp)
    3a24:	5055078b          	.insn	4, 0x5055078b
    3a28:	04f11223          	sh	a5,68(sp)
    3a2c:	00049463          	bnez	s1,3a34 <main+0x638>
    3a30:	04f11323          	sh	a5,70(sp)
    3a34:	00740413          	addi	s0,s0,7
    3a38:	e28c10e3          	bne	s8,s0,3858 <main+0x45c>
    3a3c:	645050ef          	jal	9880 <stop_time>
    3a40:	6dd050ef          	jal	991c <get_time>
    3a44:	6f1050ef          	jal	9934 <time_in_secs>
    3a48:	c20500e3          	beqz	a0,3668 <main+0x26c>
    3a4c:	00050593          	mv	a1,a0
    3a50:	00a00513          	li	a0,10
    3a54:	235080ef          	jal	c488 <__hidden___udivsi3>
    3a58:	02812c03          	lw	s8,40(sp)
    3a5c:	00150a93          	addi	s5,a0,1
    3a60:	035c0333          	mul	t1,s8,s5
    3a64:	02612423          	sw	t1,40(sp)
    3a68:	ac9ff06f          	j	3530 <main+0x134>
    3a6c:	04511323          	sh	t0,70(sp)
    3a70:	da5ff06f          	j	3814 <main+0x418>
    3a74:	05d11323          	sh	t4,70(sp)
    3a78:	d65ff06f          	j	37dc <main+0x3e0>
    3a7c:	05911323          	sh	s9,70(sp)
    3a80:	d25ff06f          	j	37a4 <main+0x3a8>
    3a84:	04d11323          	sh	a3,70(sp)
    3a88:	ce5ff06f          	j	376c <main+0x370>
    3a8c:	04911323          	sh	s1,70(sp)
    3a90:	ca5ff06f          	j	3734 <main+0x338>
    3a94:	00009fb7          	lui	t6,0x9
    3a98:	a02f8713          	addi	a4,t6,-1534 # 8a02 <core_bench_state+0x25e>
    3a9c:	1cea82e3          	beq	s5,a4,4460 <main+0x1064>
    3aa0:	0000f7b7          	lui	a5,0xf
    3aa4:	9f578413          	addi	s0,a5,-1547 # e9f5 <_data_load_start+0x194d>
    3aa8:	168a9063          	bne	s5,s0,3c08 <main+0x80c>
    3aac:	0000c337          	lui	t1,0xc
    3ab0:	5c430513          	addi	a0,t1,1476 # c5c4 <__modsi3+0xc0>
    3ab4:	6e1050ef          	jal	9994 <ee_printf>
    3ab8:	00300c93          	li	s9,3
    3abc:	000104b7          	lui	s1,0x10
    3ac0:	0004a803          	lw	a6,0(s1) # 10000 <default_num_contexts>
    3ac4:	1c080ae3          	beqz	a6,4498 <main+0x109c>
    3ac8:	07712623          	sw	s7,108(sp)
    3acc:	0000dbb7          	lui	s7,0xd
    3ad0:	07a12023          	sw	s10,96(sp)
    3ad4:	c28b8b93          	addi	s7,s7,-984 # cc28 <list_known_crc>
    3ad8:	0000cd37          	lui	s10,0xc
    3adc:	07612823          	sw	s6,112(sp)
    3ae0:	05b12e23          	sw	s11,92(sp)
    3ae4:	217cab33          	sh1add	s6,s9,s7
    3ae8:	620d0d93          	addi	s11,s10,1568 # c620 <__modsi3+0x11c>
    3aec:	00000a13          	li	s4,0
    3af0:	00000413          	li	s0,0
    3af4:	0000cd37          	lui	s10,0xc
    3af8:	0280006f          	j	3b20 <main+0x724>
    3afc:	008906b3          	add	a3,s2,s0
    3b00:	2026c833          	sh2add	a6,a3,sp
    3b04:	04c85f83          	lhu	t6,76(a6)
    3b08:	0004a703          	lw	a4,0(s1)
    3b0c:	00140413          	addi	s0,s0,1
    3b10:	014f8933          	add	s2,t6,s4
    3b14:	3c04340b          	th.extu	s0,s0,15,0
    3b18:	00090a13          	mv	s4,s2
    3b1c:	0ce47263          	bgeu	s0,a4,3be0 <main+0x7e4>
    3b20:	00441913          	slli	s2,s0,0x4
    3b24:	008908b3          	add	a7,s2,s0
    3b28:	05010e13          	addi	t3,sp,80
    3b2c:	21c8c9b3          	sh2add	s3,a7,t3
    3b30:	fdc9a783          	lw	a5,-36(s3)
    3b34:	fe099e23          	sh	zero,-4(s3)
    3b38:	0017fe93          	andi	t4,a5,1
    3b3c:	020e8663          	beqz	t4,3b68 <main+0x76c>
    3b40:	ff69d603          	lhu	a2,-10(s3)
    3b44:	a39bc68b          	th.lrhu	a3,s7,s9,1
    3b48:	02d60063          	beq	a2,a3,3b68 <main+0x76c>
    3b4c:	00040593          	mv	a1,s0
    3b50:	000d8513          	mv	a0,s11
    3b54:	641050ef          	jal	9994 <ee_printf>
    3b58:	ffc9df03          	lhu	t5,-4(s3)
    3b5c:	fdc9a783          	lw	a5,-36(s3)
    3b60:	001f0f93          	addi	t6,t5,1
    3b64:	fff99e23          	sh	t6,-4(s3)
    3b68:	0027f713          	andi	a4,a5,2
    3b6c:	02070c63          	beqz	a4,3ba4 <main+0x7a8>
    3b70:	008902b3          	add	t0,s2,s0
    3b74:	05010313          	addi	t1,sp,80
    3b78:	2062c9b3          	sh2add	s3,t0,t1
    3b7c:	ff89d603          	lhu	a2,-8(s3)
    3b80:	00cb5683          	lhu	a3,12(s6)
    3b84:	02d60063          	beq	a2,a3,3ba4 <main+0x7a8>
    3b88:	00040593          	mv	a1,s0
    3b8c:	650d0513          	addi	a0,s10,1616 # c650 <__modsi3+0x14c>
    3b90:	605050ef          	jal	9994 <ee_printf>
    3b94:	ffc9d383          	lhu	t2,-4(s3)
    3b98:	fdc9a783          	lw	a5,-36(s3)
    3b9c:	00138593          	addi	a1,t2,1
    3ba0:	feb99e23          	sh	a1,-4(s3)
    3ba4:	0047f613          	andi	a2,a5,4
    3ba8:	f4060ae3          	beqz	a2,3afc <main+0x700>
    3bac:	00890933          	add	s2,s2,s0
    3bb0:	05010893          	addi	a7,sp,80
    3bb4:	211949b3          	sh2add	s3,s2,a7
    3bb8:	ffa9d603          	lhu	a2,-6(s3)
    3bbc:	018b5683          	lhu	a3,24(s6)
    3bc0:	7ed61663          	bne	a2,a3,43ac <main+0xfb0>
    3bc4:	ffc9df83          	lhu	t6,-4(s3)
    3bc8:	0004a703          	lw	a4,0(s1)
    3bcc:	00140413          	addi	s0,s0,1
    3bd0:	014f8933          	add	s2,t6,s4
    3bd4:	3c04340b          	th.extu	s0,s0,15,0
    3bd8:	00090a13          	mv	s4,s2
    3bdc:	f4e462e3          	bltu	s0,a4,3b20 <main+0x724>
    3be0:	07012b03          	lw	s6,112(sp)
    3be4:	06c12b83          	lw	s7,108(sp)
    3be8:	06012d03          	lw	s10,96(sp)
    3bec:	05c12d83          	lw	s11,92(sp)
    3bf0:	0240006f          	j	3c14 <main+0x818>
    3bf4:	01011483          	lh	s1,16(sp)
    3bf8:	88049ce3          	bnez	s1,3490 <main+0x94>
    3bfc:	06600593          	li	a1,102
    3c00:	00b11823          	sh	a1,16(sp)
    3c04:	88dff06f          	j	3490 <main+0x94>
    3c08:	00010a37          	lui	s4,0x10
    3c0c:	fffa0913          	addi	s2,s4,-1 # ffff <_data_load_start+0x2f57>
    3c10:	000104b7          	lui	s1,0x10
    3c14:	331050ef          	jal	9744 <check_data_types>
    3c18:	02412583          	lw	a1,36(sp)
    3c1c:	0000c2b7          	lui	t0,0xc
    3c20:	012509b3          	add	s3,a0,s2
    3c24:	6b428513          	addi	a0,t0,1716 # c6b4 <__modsi3+0x1b0>
    3c28:	56d050ef          	jal	9994 <ee_printf>
    3c2c:	0000c337          	lui	t1,0xc
    3c30:	000c0593          	mv	a1,s8
    3c34:	6cc30513          	addi	a0,t1,1740 # c6cc <__modsi3+0x1c8>
    3c38:	55d050ef          	jal	9994 <ee_printf>
    3c3c:	000c0513          	mv	a0,s8
    3c40:	4f5050ef          	jal	9934 <time_in_secs>
    3c44:	0000c3b7          	lui	t2,0xc
    3c48:	00050593          	mv	a1,a0
    3c4c:	6e438513          	addi	a0,t2,1764 # c6e4 <__modsi3+0x1e0>
    3c50:	545050ef          	jal	9994 <ee_printf>
    3c54:	000c0513          	mv	a0,s8
    3c58:	4dd050ef          	jal	9934 <time_in_secs>
    3c5c:	78051c63          	bnez	a0,43f4 <main+0xff8>
    3c60:	000c0513          	mv	a0,s8
    3c64:	4d1050ef          	jal	9934 <time_in_secs>
    3c68:	00900c13          	li	s8,9
    3c6c:	76ac7a63          	bgeu	s8,a0,43e0 <main+0xfe4>
    3c70:	02812803          	lw	a6,40(sp)
    3c74:	0004a883          	lw	a7,0(s1) # 10000 <default_num_contexts>
    3c78:	0000c537          	lui	a0,0xc
    3c7c:	75450513          	addi	a0,a0,1876 # c754 <__modsi3+0x250>
    3c80:	031805b3          	mul	a1,a6,a7
    3c84:	0000d437          	lui	s0,0xd
    3c88:	3c09aa0b          	th.ext	s4,s3,15,0
    3c8c:	509050ef          	jal	9994 <ee_printf>
    3c90:	0000ce37          	lui	t3,0xc
    3c94:	0000ceb7          	lui	t4,0xc
    3c98:	76ce0593          	addi	a1,t3,1900 # c76c <__modsi3+0x268>
    3c9c:	778e8513          	addi	a0,t4,1912 # c778 <__modsi3+0x274>
    3ca0:	4f5050ef          	jal	9994 <ee_printf>
    3ca4:	0000cf37          	lui	t5,0xc
    3ca8:	0000dfb7          	lui	t6,0xd
    3cac:	790f0593          	addi	a1,t5,1936 # c790 <__modsi3+0x28c>
    3cb0:	97cf8513          	addi	a0,t6,-1668 # c97c <__modsi3+0x478>
    3cb4:	4e1050ef          	jal	9994 <ee_printf>
    3cb8:	0000d737          	lui	a4,0xd
    3cbc:	99470593          	addi	a1,a4,-1644 # c994 <__modsi3+0x490>
    3cc0:	9a040513          	addi	a0,s0,-1632 # c9a0 <__modsi3+0x49c>
    3cc4:	4d1050ef          	jal	9994 <ee_printf>
    3cc8:	000a8593          	mv	a1,s5
    3ccc:	0000dab7          	lui	s5,0xd
    3cd0:	9b8a8513          	addi	a0,s5,-1608 # c9b8 <__modsi3+0x4b4>
    3cd4:	4c1050ef          	jal	9994 <ee_printf>
    3cd8:	02c12c03          	lw	s8,44(sp)
    3cdc:	001c7c93          	andi	s9,s8,1
    3ce0:	180c8c63          	beqz	s9,3e78 <main+0xa7c>
    3ce4:	0004a283          	lw	t0,0(s1)
    3ce8:	18028863          	beqz	t0,3e78 <main+0xa7c>
    3cec:	0000d337          	lui	t1,0xd
    3cf0:	9d430913          	addi	s2,t1,-1580 # c9d4 <__modsi3+0x4d0>
    3cf4:	00000c93          	li	s9,0
    3cf8:	004c9393          	slli	t2,s9,0x4
    3cfc:	019385b3          	add	a1,t2,s9
    3d00:	2025c633          	sh2add	a2,a1,sp
    3d04:	04665603          	lhu	a2,70(a2)
    3d08:	000c8593          	mv	a1,s9
    3d0c:	00090513          	mv	a0,s2
    3d10:	485050ef          	jal	9994 <ee_printf>
    3d14:	001c8693          	addi	a3,s9,1
    3d18:	3c06b98b          	th.extu	s3,a3,15,0
    3d1c:	0004ac03          	lw	s8,0(s1)
    3d20:	00499813          	slli	a6,s3,0x4
    3d24:	013808b3          	add	a7,a6,s3
    3d28:	05010e13          	addi	t3,sp,80
    3d2c:	00090513          	mv	a0,s2
    3d30:	21c8ceb3          	sh2add	t4,a7,t3
    3d34:	00098593          	mv	a1,s3
    3d38:	1389fe63          	bgeu	s3,s8,3e74 <main+0xa78>
    3d3c:	ff6ed603          	lhu	a2,-10(t4)
    3d40:	05010c93          	addi	s9,sp,80
    3d44:	451050ef          	jal	9994 <ee_printf>
    3d48:	00198f93          	addi	t6,s3,1
    3d4c:	3c0fb40b          	th.extu	s0,t6,15,0
    3d50:	0004af03          	lw	t5,0(s1)
    3d54:	00441713          	slli	a4,s0,0x4
    3d58:	00870ab3          	add	s5,a4,s0
    3d5c:	00090513          	mv	a0,s2
    3d60:	219ac2b3          	sh2add	t0,s5,s9
    3d64:	00040593          	mv	a1,s0
    3d68:	11e47663          	bgeu	s0,t5,3e74 <main+0xa78>
    3d6c:	ff62d603          	lhu	a2,-10(t0)
    3d70:	425050ef          	jal	9994 <ee_printf>
    3d74:	00140393          	addi	t2,s0,1
    3d78:	3c03bc0b          	th.extu	s8,t2,15,0
    3d7c:	0004a303          	lw	t1,0(s1)
    3d80:	004c1593          	slli	a1,s8,0x4
    3d84:	018587b3          	add	a5,a1,s8
    3d88:	05010613          	addi	a2,sp,80
    3d8c:	00090513          	mv	a0,s2
    3d90:	20c7c6b3          	sh2add	a3,a5,a2
    3d94:	000c0593          	mv	a1,s8
    3d98:	0c6c7e63          	bgeu	s8,t1,3e74 <main+0xa78>
    3d9c:	ff66d603          	lhu	a2,-10(a3)
    3da0:	3f5050ef          	jal	9994 <ee_printf>
    3da4:	001c0813          	addi	a6,s8,1
    3da8:	3c08340b          	th.extu	s0,a6,15,0
    3dac:	0004a983          	lw	s3,0(s1)
    3db0:	00441893          	slli	a7,s0,0x4
    3db4:	00888e33          	add	t3,a7,s0
    3db8:	05010e93          	addi	t4,sp,80
    3dbc:	00090513          	mv	a0,s2
    3dc0:	21de4f33          	sh2add	t5,t3,t4
    3dc4:	00040593          	mv	a1,s0
    3dc8:	0b347663          	bgeu	s0,s3,3e74 <main+0xa78>
    3dcc:	ff6f5603          	lhu	a2,-10(t5)
    3dd0:	3c5050ef          	jal	9994 <ee_printf>
    3dd4:	00140713          	addi	a4,s0,1
    3dd8:	3c073a8b          	th.extu	s5,a4,15,0
    3ddc:	0004af83          	lw	t6,0(s1)
    3de0:	004a9c93          	slli	s9,s5,0x4
    3de4:	015c82b3          	add	t0,s9,s5
    3de8:	05010313          	addi	t1,sp,80
    3dec:	00090513          	mv	a0,s2
    3df0:	2062c3b3          	sh2add	t2,t0,t1
    3df4:	000a8593          	mv	a1,s5
    3df8:	07fafe63          	bgeu	s5,t6,3e74 <main+0xa78>
    3dfc:	ff63d603          	lhu	a2,-10(t2)
    3e00:	395050ef          	jal	9994 <ee_printf>
    3e04:	001a8593          	addi	a1,s5,1
    3e08:	3c05b98b          	th.extu	s3,a1,15,0
    3e0c:	0004ac03          	lw	s8,0(s1)
    3e10:	00499793          	slli	a5,s3,0x4
    3e14:	01378633          	add	a2,a5,s3
    3e18:	05010693          	addi	a3,sp,80
    3e1c:	00090513          	mv	a0,s2
    3e20:	20d64833          	sh2add	a6,a2,a3
    3e24:	00098593          	mv	a1,s3
    3e28:	0589f663          	bgeu	s3,s8,3e74 <main+0xa78>
    3e2c:	ff685603          	lhu	a2,-10(a6)
    3e30:	00198413          	addi	s0,s3,1
    3e34:	3c043a8b          	th.extu	s5,s0,15,0
    3e38:	35d050ef          	jal	9994 <ee_printf>
    3e3c:	0004a883          	lw	a7,0(s1)
    3e40:	004a9e13          	slli	t3,s5,0x4
    3e44:	015e0eb3          	add	t4,t3,s5
    3e48:	05010f13          	addi	t5,sp,80
    3e4c:	00090513          	mv	a0,s2
    3e50:	21eecfb3          	sh2add	t6,t4,t5
    3e54:	000a8593          	mv	a1,s5
    3e58:	011afe63          	bgeu	s5,a7,3e74 <main+0xa78>
    3e5c:	ff6fd603          	lhu	a2,-10(t6)
    3e60:	335050ef          	jal	9994 <ee_printf>
    3e64:	0004a503          	lw	a0,0(s1)
    3e68:	001a8713          	addi	a4,s5,1
    3e6c:	3c073c8b          	th.extu	s9,a4,15,0
    3e70:	e8ace4e3          	bltu	s9,a0,3cf8 <main+0x8fc>
    3e74:	02c12c03          	lw	s8,44(sp)
    3e78:	002c7913          	andi	s2,s8,2
    3e7c:	18090c63          	beqz	s2,4014 <main+0xc18>
    3e80:	0004a283          	lw	t0,0(s1)
    3e84:	60028e63          	beqz	t0,44a0 <main+0x10a4>
    3e88:	0000d3b7          	lui	t2,0xd
    3e8c:	9f038c13          	addi	s8,t2,-1552 # c9f0 <__modsi3+0x4ec>
    3e90:	00000413          	li	s0,0
    3e94:	00441593          	slli	a1,s0,0x4
    3e98:	008589b3          	add	s3,a1,s0
    3e9c:	2029c633          	sh2add	a2,s3,sp
    3ea0:	04865603          	lhu	a2,72(a2)
    3ea4:	00040593          	mv	a1,s0
    3ea8:	000c0513          	mv	a0,s8
    3eac:	2e9050ef          	jal	9994 <ee_printf>
    3eb0:	00140693          	addi	a3,s0,1
    3eb4:	3c06b40b          	th.extu	s0,a3,15,0
    3eb8:	0004a803          	lw	a6,0(s1)
    3ebc:	00441893          	slli	a7,s0,0x4
    3ec0:	00888ab3          	add	s5,a7,s0
    3ec4:	05010e13          	addi	t3,sp,80
    3ec8:	000c0513          	mv	a0,s8
    3ecc:	21caceb3          	sh2add	t4,s5,t3
    3ed0:	00040593          	mv	a1,s0
    3ed4:	13047e63          	bgeu	s0,a6,4010 <main+0xc14>
    3ed8:	ff8ed603          	lhu	a2,-8(t4)
    3edc:	2b9050ef          	jal	9994 <ee_printf>
    3ee0:	00140f93          	addi	t6,s0,1
    3ee4:	3c0fbc8b          	th.extu	s9,t6,15,0
    3ee8:	0004af03          	lw	t5,0(s1)
    3eec:	004c9713          	slli	a4,s9,0x4
    3ef0:	01970933          	add	s2,a4,s9
    3ef4:	05010293          	addi	t0,sp,80
    3ef8:	000c0513          	mv	a0,s8
    3efc:	20594333          	sh2add	t1,s2,t0
    3f00:	000c8593          	mv	a1,s9
    3f04:	11ecf663          	bgeu	s9,t5,4010 <main+0xc14>
    3f08:	ff835603          	lhu	a2,-8(t1)
    3f0c:	289050ef          	jal	9994 <ee_printf>
    3f10:	001c8593          	addi	a1,s9,1
    3f14:	3c05b98b          	th.extu	s3,a1,15,0
    3f18:	0004a383          	lw	t2,0(s1)
    3f1c:	00499793          	slli	a5,s3,0x4
    3f20:	01378633          	add	a2,a5,s3
    3f24:	05010813          	addi	a6,sp,80
    3f28:	000c0513          	mv	a0,s8
    3f2c:	210646b3          	sh2add	a3,a2,a6
    3f30:	00098593          	mv	a1,s3
    3f34:	0c79fe63          	bgeu	s3,t2,4010 <main+0xc14>
    3f38:	ff86d603          	lhu	a2,-8(a3)
    3f3c:	00198413          	addi	s0,s3,1
    3f40:	3c043a8b          	th.extu	s5,s0,15,0
    3f44:	251050ef          	jal	9994 <ee_printf>
    3f48:	0004a883          	lw	a7,0(s1)
    3f4c:	004a9e13          	slli	t3,s5,0x4
    3f50:	015e0eb3          	add	t4,t3,s5
    3f54:	05010f13          	addi	t5,sp,80
    3f58:	000c0513          	mv	a0,s8
    3f5c:	21eecfb3          	sh2add	t6,t4,t5
    3f60:	000a8593          	mv	a1,s5
    3f64:	0b1af663          	bgeu	s5,a7,4010 <main+0xc14>
    3f68:	ff8fd603          	lhu	a2,-8(t6)
    3f6c:	229050ef          	jal	9994 <ee_printf>
    3f70:	001a8713          	addi	a4,s5,1
    3f74:	3c07390b          	th.extu	s2,a4,15,0
    3f78:	0004ac83          	lw	s9,0(s1)
    3f7c:	00491293          	slli	t0,s2,0x4
    3f80:	01228333          	add	t1,t0,s2
    3f84:	05010393          	addi	t2,sp,80
    3f88:	000c0513          	mv	a0,s8
    3f8c:	207349b3          	sh2add	s3,t1,t2
    3f90:	00090593          	mv	a1,s2
    3f94:	07997e63          	bgeu	s2,s9,4010 <main+0xc14>
    3f98:	ff89d603          	lhu	a2,-8(s3)
    3f9c:	1f9050ef          	jal	9994 <ee_printf>
    3fa0:	00190593          	addi	a1,s2,1
    3fa4:	3c05b40b          	th.extu	s0,a1,15,0
    3fa8:	0004a603          	lw	a2,0(s1)
    3fac:	00441793          	slli	a5,s0,0x4
    3fb0:	00878833          	add	a6,a5,s0
    3fb4:	05010693          	addi	a3,sp,80
    3fb8:	000c0513          	mv	a0,s8
    3fbc:	20d848b3          	sh2add	a7,a6,a3
    3fc0:	00040593          	mv	a1,s0
    3fc4:	04c47663          	bgeu	s0,a2,4010 <main+0xc14>
    3fc8:	ff88d603          	lhu	a2,-8(a7)
    3fcc:	1c9050ef          	jal	9994 <ee_printf>
    3fd0:	00140e13          	addi	t3,s0,1
    3fd4:	3c0e3c8b          	th.extu	s9,t3,15,0
    3fd8:	0004aa83          	lw	s5,0(s1)
    3fdc:	004c9e93          	slli	t4,s9,0x4
    3fe0:	019e8f33          	add	t5,t4,s9
    3fe4:	05010f93          	addi	t6,sp,80
    3fe8:	000c0513          	mv	a0,s8
    3fec:	21ff4733          	sh2add	a4,t5,t6
    3ff0:	000c8593          	mv	a1,s9
    3ff4:	015cfe63          	bgeu	s9,s5,4010 <main+0xc14>
    3ff8:	ff875603          	lhu	a2,-8(a4)
    3ffc:	001c8913          	addi	s2,s9,1
    4000:	3c09340b          	th.extu	s0,s2,15,0
    4004:	191050ef          	jal	9994 <ee_printf>
    4008:	0004a503          	lw	a0,0(s1)
    400c:	e8a464e3          	bltu	s0,a0,3e94 <main+0xa98>
    4010:	02c12c03          	lw	s8,44(sp)
    4014:	004c7293          	andi	t0,s8,4
    4018:	18028a63          	beqz	t0,41ac <main+0xdb0>
    401c:	0004a303          	lw	t1,0(s1)
    4020:	30030e63          	beqz	t1,433c <main+0xf40>
    4024:	0000d3b7          	lui	t2,0xd
    4028:	a0c38993          	addi	s3,t2,-1524 # ca0c <__modsi3+0x508>
    402c:	00000a93          	li	s5,0
    4030:	004a9613          	slli	a2,s5,0x4
    4034:	015605b3          	add	a1,a2,s5
    4038:	2025c833          	sh2add	a6,a1,sp
    403c:	04a85603          	lhu	a2,74(a6)
    4040:	000a8593          	mv	a1,s5
    4044:	00098513          	mv	a0,s3
    4048:	14d050ef          	jal	9994 <ee_printf>
    404c:	001a8693          	addi	a3,s5,1
    4050:	3c06ba8b          	th.extu	s5,a3,15,0
    4054:	0004a883          	lw	a7,0(s1)
    4058:	004a9e13          	slli	t3,s5,0x4
    405c:	015e0cb3          	add	s9,t3,s5
    4060:	05010e93          	addi	t4,sp,80
    4064:	00098513          	mv	a0,s3
    4068:	21dccf33          	sh2add	t5,s9,t4
    406c:	000a8593          	mv	a1,s5
    4070:	131afe63          	bgeu	s5,a7,41ac <main+0xdb0>
    4074:	ffaf5603          	lhu	a2,-6(t5)
    4078:	11d050ef          	jal	9994 <ee_printf>
    407c:	001a8713          	addi	a4,s5,1
    4080:	3c07390b          	th.extu	s2,a4,15,0
    4084:	0004af83          	lw	t6,0(s1)
    4088:	00491413          	slli	s0,s2,0x4
    408c:	01240c33          	add	s8,s0,s2
    4090:	05010293          	addi	t0,sp,80
    4094:	00098513          	mv	a0,s3
    4098:	205c4333          	sh2add	t1,s8,t0
    409c:	00090593          	mv	a1,s2
    40a0:	11f97663          	bgeu	s2,t6,41ac <main+0xdb0>
    40a4:	ffa35603          	lhu	a2,-6(t1)
    40a8:	0ed050ef          	jal	9994 <ee_printf>
    40ac:	00190613          	addi	a2,s2,1
    40b0:	3c063a8b          	th.extu	s5,a2,15,0
    40b4:	0004a383          	lw	t2,0(s1)
    40b8:	004a9593          	slli	a1,s5,0x4
    40bc:	015587b3          	add	a5,a1,s5
    40c0:	05010813          	addi	a6,sp,80
    40c4:	00098513          	mv	a0,s3
    40c8:	2107c8b3          	sh2add	a7,a5,a6
    40cc:	000a8593          	mv	a1,s5
    40d0:	0c7afe63          	bgeu	s5,t2,41ac <main+0xdb0>
    40d4:	ffa8d603          	lhu	a2,-6(a7)
    40d8:	0bd050ef          	jal	9994 <ee_printf>
    40dc:	001a8693          	addi	a3,s5,1
    40e0:	3c06bc8b          	th.extu	s9,a3,15,0
    40e4:	0004ae03          	lw	t3,0(s1)
    40e8:	004c9e93          	slli	t4,s9,0x4
    40ec:	019e8f33          	add	t5,t4,s9
    40f0:	05010f93          	addi	t6,sp,80
    40f4:	00098513          	mv	a0,s3
    40f8:	21ff4733          	sh2add	a4,t5,t6
    40fc:	000c8593          	mv	a1,s9
    4100:	0bccf663          	bgeu	s9,t3,41ac <main+0xdb0>
    4104:	ffa75603          	lhu	a2,-6(a4)
    4108:	001c8413          	addi	s0,s9,1
    410c:	3c043c0b          	th.extu	s8,s0,15,0
    4110:	085050ef          	jal	9994 <ee_printf>
    4114:	0004a903          	lw	s2,0(s1)
    4118:	004c1293          	slli	t0,s8,0x4
    411c:	01828333          	add	t1,t0,s8
    4120:	05010393          	addi	t2,sp,80
    4124:	00098513          	mv	a0,s3
    4128:	20734633          	sh2add	a2,t1,t2
    412c:	000c0593          	mv	a1,s8
    4130:	072c7e63          	bgeu	s8,s2,41ac <main+0xdb0>
    4134:	ffa65603          	lhu	a2,-6(a2)
    4138:	05d050ef          	jal	9994 <ee_printf>
    413c:	001c0593          	addi	a1,s8,1
    4140:	3c05bc8b          	th.extu	s9,a1,15,0
    4144:	0004aa83          	lw	s5,0(s1)
    4148:	004c9793          	slli	a5,s9,0x4
    414c:	01978833          	add	a6,a5,s9
    4150:	05010893          	addi	a7,sp,80
    4154:	00098513          	mv	a0,s3
    4158:	21184e33          	sh2add	t3,a6,a7
    415c:	000c8593          	mv	a1,s9
    4160:	055cf663          	bgeu	s9,s5,41ac <main+0xdb0>
    4164:	ffae5603          	lhu	a2,-6(t3)
    4168:	02d050ef          	jal	9994 <ee_printf>
    416c:	001c8693          	addi	a3,s9,1
    4170:	3c06b90b          	th.extu	s2,a3,15,0
    4174:	0004ae83          	lw	t4,0(s1)
    4178:	00491f13          	slli	t5,s2,0x4
    417c:	012f0fb3          	add	t6,t5,s2
    4180:	05010713          	addi	a4,sp,80
    4184:	00098513          	mv	a0,s3
    4188:	20efc433          	sh2add	s0,t6,a4
    418c:	00090593          	mv	a1,s2
    4190:	01d97e63          	bgeu	s2,t4,41ac <main+0xdb0>
    4194:	ffa45603          	lhu	a2,-6(s0)
    4198:	00190c13          	addi	s8,s2,1
    419c:	3c0c3a8b          	th.extu	s5,s8,15,0
    41a0:	7f4050ef          	jal	9994 <ee_printf>
    41a4:	0004a503          	lw	a0,0(s1)
    41a8:	e8aae4e3          	bltu	s5,a0,4030 <main+0xc34>
    41ac:	0004a983          	lw	s3,0(s1)
    41b0:	18098663          	beqz	s3,433c <main+0xf40>
    41b4:	0000d2b7          	lui	t0,0xd
    41b8:	a2828c93          	addi	s9,t0,-1496 # ca28 <__modsi3+0x524>
    41bc:	00000a93          	li	s5,0
    41c0:	004a9313          	slli	t1,s5,0x4
    41c4:	015303b3          	add	t2,t1,s5
    41c8:	2023c5b3          	sh2add	a1,t2,sp
    41cc:	0445d603          	lhu	a2,68(a1)
    41d0:	000c8513          	mv	a0,s9
    41d4:	000a8593          	mv	a1,s5
    41d8:	7bc050ef          	jal	9994 <ee_printf>
    41dc:	001a8793          	addi	a5,s5,1
    41e0:	3c07b90b          	th.extu	s2,a5,15,0
    41e4:	0004a803          	lw	a6,0(s1)
    41e8:	00491893          	slli	a7,s2,0x4
    41ec:	01288e33          	add	t3,a7,s2
    41f0:	05010e93          	addi	t4,sp,80
    41f4:	000c8513          	mv	a0,s9
    41f8:	21de46b3          	sh2add	a3,t3,t4
    41fc:	00090593          	mv	a1,s2
    4200:	13097e63          	bgeu	s2,a6,433c <main+0xf40>
    4204:	ff46d603          	lhu	a2,-12(a3)
    4208:	05010a93          	addi	s5,sp,80
    420c:	788050ef          	jal	9994 <ee_printf>
    4210:	00190f93          	addi	t6,s2,1
    4214:	3c0fb40b          	th.extu	s0,t6,15,0
    4218:	0004af03          	lw	t5,0(s1)
    421c:	00441713          	slli	a4,s0,0x4
    4220:	00870c33          	add	s8,a4,s0
    4224:	000c8513          	mv	a0,s9
    4228:	215c49b3          	sh2add	s3,s8,s5
    422c:	00040593          	mv	a1,s0
    4230:	11e47663          	bgeu	s0,t5,433c <main+0xf40>
    4234:	ff49d603          	lhu	a2,-12(s3)
    4238:	75c050ef          	jal	9994 <ee_printf>
    423c:	00140313          	addi	t1,s0,1
    4240:	3c03390b          	th.extu	s2,t1,15,0
    4244:	0004a283          	lw	t0,0(s1)
    4248:	00491393          	slli	t2,s2,0x4
    424c:	05010593          	addi	a1,sp,80
    4250:	01238633          	add	a2,t2,s2
    4254:	20b64833          	sh2add	a6,a2,a1
    4258:	000c8513          	mv	a0,s9
    425c:	00090593          	mv	a1,s2
    4260:	0c597e63          	bgeu	s2,t0,433c <main+0xf40>
    4264:	ff485603          	lhu	a2,-12(a6)
    4268:	72c050ef          	jal	9994 <ee_printf>
    426c:	00190793          	addi	a5,s2,1
    4270:	3c07b40b          	th.extu	s0,a5,15,0
    4274:	0004a883          	lw	a7,0(s1)
    4278:	00441e13          	slli	t3,s0,0x4
    427c:	008e0eb3          	add	t4,t3,s0
    4280:	05010693          	addi	a3,sp,80
    4284:	000c8513          	mv	a0,s9
    4288:	20decf33          	sh2add	t5,t4,a3
    428c:	00040593          	mv	a1,s0
    4290:	0b147663          	bgeu	s0,a7,433c <main+0xf40>
    4294:	ff4f5603          	lhu	a2,-12(t5)
    4298:	6fc050ef          	jal	9994 <ee_printf>
    429c:	00140713          	addi	a4,s0,1
    42a0:	3c073c0b          	th.extu	s8,a4,15,0
    42a4:	0004af83          	lw	t6,0(s1)
    42a8:	004c1a93          	slli	s5,s8,0x4
    42ac:	018a89b3          	add	s3,s5,s8
    42b0:	05010293          	addi	t0,sp,80
    42b4:	000c8513          	mv	a0,s9
    42b8:	2059c333          	sh2add	t1,s3,t0
    42bc:	000c0593          	mv	a1,s8
    42c0:	07fc7e63          	bgeu	s8,t6,433c <main+0xf40>
    42c4:	ff435603          	lhu	a2,-12(t1)
    42c8:	6cc050ef          	jal	9994 <ee_printf>
    42cc:	001c0393          	addi	t2,s8,1
    42d0:	3c03b40b          	th.extu	s0,t2,15,0
    42d4:	0004a903          	lw	s2,0(s1)
    42d8:	00441613          	slli	a2,s0,0x4
    42dc:	008605b3          	add	a1,a2,s0
    42e0:	05010813          	addi	a6,sp,80
    42e4:	2105c8b3          	sh2add	a7,a1,a6
    42e8:	000c8513          	mv	a0,s9
    42ec:	00040593          	mv	a1,s0
    42f0:	05247663          	bgeu	s0,s2,433c <main+0xf40>
    42f4:	ff48d603          	lhu	a2,-12(a7)
    42f8:	69c050ef          	jal	9994 <ee_printf>
    42fc:	00140793          	addi	a5,s0,1
    4300:	3c07bc0b          	th.extu	s8,a5,15,0
    4304:	0004ae03          	lw	t3,0(s1)
    4308:	004c1e93          	slli	t4,s8,0x4
    430c:	018e8f33          	add	t5,t4,s8
    4310:	05010693          	addi	a3,sp,80
    4314:	000c8513          	mv	a0,s9
    4318:	20df4fb3          	sh2add	t6,t5,a3
    431c:	000c0593          	mv	a1,s8
    4320:	01cc7e63          	bgeu	s8,t3,433c <main+0xf40>
    4324:	ff4fd603          	lhu	a2,-12(t6)
    4328:	66c050ef          	jal	9994 <ee_printf>
    432c:	0004a503          	lw	a0,0(s1)
    4330:	001c0713          	addi	a4,s8,1
    4334:	3c073a8b          	th.extu	s5,a4,15,0
    4338:	e8aae4e3          	bltu	s5,a0,41c0 <main+0xdc4>
    433c:	080a0a63          	beqz	s4,43d0 <main+0xfd4>
    4340:	0f405463          	blez	s4,4428 <main+0x102c>
    4344:	0000da37          	lui	s4,0xd
    4348:	af4a0513          	addi	a0,s4,-1292 # caf4 <__modsi3+0x5f0>
    434c:	648050ef          	jal	9994 <ee_printf>
    4350:	04e10513          	addi	a0,sp,78
    4354:	614050ef          	jal	9968 <portable_fini>
    4358:	08c12083          	lw	ra,140(sp)
    435c:	08812403          	lw	s0,136(sp)
    4360:	08412483          	lw	s1,132(sp)
    4364:	08012903          	lw	s2,128(sp)
    4368:	07c12983          	lw	s3,124(sp)
    436c:	07812a03          	lw	s4,120(sp)
    4370:	07412a83          	lw	s5,116(sp)
    4374:	06812c03          	lw	s8,104(sp)
    4378:	06412c83          	lw	s9,100(sp)
    437c:	00000513          	li	a0,0
    4380:	09010113          	addi	sp,sp,144
    4384:	00008067          	ret
    4388:	00010cb7          	lui	s9,0x10
    438c:	fffc8913          	addi	s2,s9,-1 # ffff <_data_load_start+0x2f57>
    4390:	000104b7          	lui	s1,0x10
    4394:	881ff06f          	j	3c14 <main+0x818>
    4398:	01512c23          	sw	s5,24(sp)
    439c:	00400413          	li	s0,4
    43a0:	a4cff06f          	j	35ec <main+0x1f0>
    43a4:	01512c23          	sw	s5,24(sp)
    43a8:	92cff06f          	j	34d4 <main+0xd8>
    43ac:	0000ce37          	lui	t3,0xc
    43b0:	684e0513          	addi	a0,t3,1668 # c684 <__modsi3+0x180>
    43b4:	00040593          	mv	a1,s0
    43b8:	5dc050ef          	jal	9994 <ee_printf>
    43bc:	ffc9de83          	lhu	t4,-4(s3)
    43c0:	001e8f13          	addi	t5,t4,1
    43c4:	3c0f3f8b          	th.extu	t6,t5,15,0
    43c8:	fff99e23          	sh	t6,-4(s3)
    43cc:	f3cff06f          	j	3b08 <main+0x70c>
    43d0:	0000dcb7          	lui	s9,0xd
    43d4:	a44c8513          	addi	a0,s9,-1468 # ca44 <__modsi3+0x540>
    43d8:	5bc050ef          	jal	9994 <ee_printf>
    43dc:	f75ff06f          	j	4350 <main+0xf54>
    43e0:	0000c6b7          	lui	a3,0xc
    43e4:	71468513          	addi	a0,a3,1812 # c714 <__modsi3+0x210>
    43e8:	5ac050ef          	jal	9994 <ee_printf>
    43ec:	00198993          	addi	s3,s3,1
    43f0:	881ff06f          	j	3c70 <main+0x874>
    43f4:	02812583          	lw	a1,40(sp)
    43f8:	0004a783          	lw	a5,0(s1) # 10000 <default_num_contexts>
    43fc:	000c0513          	mv	a0,s8
    4400:	02f58933          	mul	s2,a1,a5
    4404:	530050ef          	jal	9934 <time_in_secs>
    4408:	00050593          	mv	a1,a0
    440c:	00090513          	mv	a0,s2
    4410:	078080ef          	jal	c488 <__hidden___udivsi3>
    4414:	0000c637          	lui	a2,0xc
    4418:	00050593          	mv	a1,a0
    441c:	6fc60513          	addi	a0,a2,1788 # c6fc <__modsi3+0x1f8>
    4420:	574050ef          	jal	9994 <ee_printf>
    4424:	83dff06f          	j	3c60 <main+0x864>
    4428:	0000d4b7          	lui	s1,0xd
    442c:	a9048513          	addi	a0,s1,-1392 # ca90 <__modsi3+0x58c>
    4430:	564050ef          	jal	9994 <ee_printf>
    4434:	f1dff06f          	j	4350 <main+0xf54>
    4438:	0000c637          	lui	a2,0xc
    443c:	5f460513          	addi	a0,a2,1524 # c5f4 <__modsi3+0xf0>
    4440:	554050ef          	jal	9994 <ee_printf>
    4444:	00400c93          	li	s9,4
    4448:	e74ff06f          	j	3abc <main+0x6c0>
    444c:	0000c4b7          	lui	s1,0xc
    4450:	56448513          	addi	a0,s1,1380 # c564 <__modsi3+0x60>
    4454:	540050ef          	jal	9994 <ee_printf>
    4458:	00100c93          	li	s9,1
    445c:	e60ff06f          	j	3abc <main+0x6c0>
    4460:	0000c2b7          	lui	t0,0xc
    4464:	53428513          	addi	a0,t0,1332 # c534 <__modsi3+0x30>
    4468:	52c050ef          	jal	9994 <ee_printf>
    446c:	00000c93          	li	s9,0
    4470:	e4cff06f          	j	3abc <main+0x6c0>
    4474:	01011283          	lh	t0,16(sp)
    4478:	00028463          	beqz	t0,4480 <main+0x1084>
    447c:	814ff06f          	j	3490 <main+0x94>
    4480:	34153337          	lui	t1,0x34153
    4484:	41530393          	addi	t2,t1,1045 # 34153415 <_stack_top+0x3413f415>
    4488:	06600413          	li	s0,102
    448c:	00712623          	sw	t2,12(sp)
    4490:	00811823          	sh	s0,16(sp)
    4494:	ffdfe06f          	j	3490 <main+0x94>
    4498:	00000913          	li	s2,0
    449c:	f78ff06f          	j	3c14 <main+0x818>
    44a0:	004c7313          	andi	t1,s8,4
    44a4:	d00304e3          	beqz	t1,41ac <main+0xdb0>
    44a8:	e95ff06f          	j	433c <main+0xf40>

000044ac <core_bench_matrix>:
    44ac:	00052803          	lw	a6,0(a0)
    44b0:	fc010113          	addi	sp,sp,-64
    44b4:	01b12623          	sw	s11,12(sp)
    44b8:	02112e23          	sw	ra,60(sp)
    44bc:	00060d93          	mv	s11,a2
    44c0:	00081463          	bnez	a6,44c8 <core_bench_matrix+0x1c>
    44c4:	7580106f          	j	5c1c <core_bench_matrix+0x1770>
    44c8:	03412423          	sw	s4,40(sp)
    44cc:	00452a03          	lw	s4,4(a0)
    44d0:	03512223          	sw	s5,36(sp)
    44d4:	01912a23          	sw	s9,20(sp)
    44d8:	00852a83          	lw	s5,8(a0)
    44dc:	00c52c83          	lw	s9,12(a0)
    44e0:	03212823          	sw	s2,48(sp)
    44e4:	01812c23          	sw	s8,24(sp)
    44e8:	fffff937          	lui	s2,0xfffff
    44ec:	21482c33          	sh1add	s8,a6,s4
    44f0:	02812c23          	sw	s0,56(sp)
    44f4:	03312623          	sw	s3,44(sp)
    44f8:	01a12823          	sw	s10,16(sp)
    44fc:	02912a23          	sw	s1,52(sp)
    4500:	03612023          	sw	s6,32(sp)
    4504:	01712e23          	sw	s7,28(sp)
    4508:	00058993          	mv	s3,a1
    450c:	0125e933          	or	s2,a1,s2
    4510:	000c0693          	mv	a3,s8
    4514:	00181413          	slli	s0,a6,0x1
    4518:	00000d13          	li	s10,0
    451c:	ffe40713          	addi	a4,s0,-2
    4520:	00175293          	srli	t0,a4,0x1
    4524:	00128313          	addi	t1,t0,1
    4528:	00737393          	andi	t2,t1,7
    452c:	408687b3          	sub	a5,a3,s0
    4530:	0a038463          	beqz	t2,45d8 <core_bench_matrix+0x12c>
    4534:	00100613          	li	a2,1
    4538:	08c38663          	beq	t2,a2,45c4 <core_bench_matrix+0x118>
    453c:	00200493          	li	s1,2
    4540:	06938a63          	beq	t2,s1,45b4 <core_bench_matrix+0x108>
    4544:	00300513          	li	a0,3
    4548:	04a38e63          	beq	t2,a0,45a4 <core_bench_matrix+0xf8>
    454c:	00400593          	li	a1,4
    4550:	04b38263          	beq	t2,a1,4594 <core_bench_matrix+0xe8>
    4554:	00500893          	li	a7,5
    4558:	03138663          	beq	t2,a7,4584 <core_bench_matrix+0xd8>
    455c:	00600b13          	li	s6,6
    4560:	01638a63          	beq	t2,s6,4574 <core_bench_matrix+0xc8>
    4564:	0007db83          	lhu	s7,0(a5)
    4568:	00278793          	addi	a5,a5,2
    456c:	01798e33          	add	t3,s3,s7
    4570:	ffc79f23          	sh	t3,-2(a5)
    4574:	0007de83          	lhu	t4,0(a5)
    4578:	00278793          	addi	a5,a5,2
    457c:	01d98f33          	add	t5,s3,t4
    4580:	ffe79f23          	sh	t5,-2(a5)
    4584:	0007df83          	lhu	t6,0(a5)
    4588:	00278793          	addi	a5,a5,2
    458c:	01f98733          	add	a4,s3,t6
    4590:	fee79f23          	sh	a4,-2(a5)
    4594:	0007d283          	lhu	t0,0(a5)
    4598:	00278793          	addi	a5,a5,2
    459c:	00598333          	add	t1,s3,t0
    45a0:	fe679f23          	sh	t1,-2(a5)
    45a4:	0007d383          	lhu	t2,0(a5)
    45a8:	00278793          	addi	a5,a5,2
    45ac:	00798633          	add	a2,s3,t2
    45b0:	fec79f23          	sh	a2,-2(a5)
    45b4:	0007d483          	lhu	s1,0(a5)
    45b8:	00278793          	addi	a5,a5,2
    45bc:	00998533          	add	a0,s3,s1
    45c0:	fea79f23          	sh	a0,-2(a5)
    45c4:	0007d583          	lhu	a1,0(a5)
    45c8:	00278793          	addi	a5,a5,2
    45cc:	00b988b3          	add	a7,s3,a1
    45d0:	ff179f23          	sh	a7,-2(a5)
    45d4:	06d78663          	beq	a5,a3,4640 <core_bench_matrix+0x194>
    45d8:	0007db03          	lhu	s6,0(a5)
    45dc:	0027db83          	lhu	s7,2(a5)
    45e0:	0047df03          	lhu	t5,4(a5)
    45e4:	0067df83          	lhu	t6,6(a5)
    45e8:	0087d283          	lhu	t0,8(a5)
    45ec:	00a7d383          	lhu	t2,10(a5)
    45f0:	00c7d603          	lhu	a2,12(a5)
    45f4:	00e7d703          	lhu	a4,14(a5)
    45f8:	01698eb3          	add	t4,s3,s6
    45fc:	01798e33          	add	t3,s3,s7
    4600:	01e98333          	add	t1,s3,t5
    4604:	01f984b3          	add	s1,s3,t6
    4608:	00598533          	add	a0,s3,t0
    460c:	007985b3          	add	a1,s3,t2
    4610:	00c988b3          	add	a7,s3,a2
    4614:	00e98b33          	add	s6,s3,a4
    4618:	01d79023          	sh	t4,0(a5)
    461c:	01c79123          	sh	t3,2(a5)
    4620:	00679223          	sh	t1,4(a5)
    4624:	00979323          	sh	s1,6(a5)
    4628:	00a79423          	sh	a0,8(a5)
    462c:	00b79523          	sh	a1,10(a5)
    4630:	01179623          	sh	a7,12(a5)
    4634:	01679723          	sh	s6,14(a5)
    4638:	01078793          	addi	a5,a5,16
    463c:	f8d79ee3          	bne	a5,a3,45d8 <core_bench_matrix+0x12c>
    4640:	001d0493          	addi	s1,s10,1
    4644:	008786b3          	add	a3,a5,s0
    4648:	00980663          	beq	a6,s1,4654 <core_bench_matrix+0x1a8>
    464c:	00048d13          	mv	s10,s1
    4650:	ecdff06f          	j	451c <core_bench_matrix+0x70>
    4654:	00249b93          	slli	s7,s1,0x2
    4658:	000c8b13          	mv	s6,s9
    465c:	000c8613          	mv	a2,s9
    4660:	000a0693          	mv	a3,s4
    4664:	00000313          	li	t1,0
    4668:	0074f813          	andi	a6,s1,7
    466c:	00000793          	li	a5,0
    4670:	0a080463          	beqz	a6,4718 <core_bench_matrix+0x26c>
    4674:	00100f13          	li	t5,1
    4678:	09e80663          	beq	a6,t5,4704 <core_bench_matrix+0x258>
    467c:	00200f93          	li	t6,2
    4680:	07f80a63          	beq	a6,t6,46f4 <core_bench_matrix+0x248>
    4684:	00300293          	li	t0,3
    4688:	04580e63          	beq	a6,t0,46e4 <core_bench_matrix+0x238>
    468c:	00400393          	li	t2,4
    4690:	04780263          	beq	a6,t2,46d4 <core_bench_matrix+0x228>
    4694:	00500713          	li	a4,5
    4698:	02e80663          	beq	a6,a4,46c4 <core_bench_matrix+0x218>
    469c:	00600e93          	li	t4,6
    46a0:	01d80a63          	beq	a6,t4,46b4 <core_bench_matrix+0x208>
    46a4:	00069e03          	lh	t3,0(a3)
    46a8:	000f0793          	mv	a5,t5
    46ac:	033e0533          	mul	a0,t3,s3
    46b0:	00a62023          	sw	a0,0(a2)
    46b4:	22f6c58b          	th.lrh	a1,a3,a5,1
    46b8:	033588b3          	mul	a7,a1,s3
    46bc:	44f6588b          	th.srw	a7,a2,a5,2
    46c0:	00178793          	addi	a5,a5,1
    46c4:	22f6c80b          	th.lrh	a6,a3,a5,1
    46c8:	03380f33          	mul	t5,a6,s3
    46cc:	44f65f0b          	th.srw	t5,a2,a5,2
    46d0:	00178793          	addi	a5,a5,1
    46d4:	22f6cf8b          	th.lrh	t6,a3,a5,1
    46d8:	033f82b3          	mul	t0,t6,s3
    46dc:	44f6528b          	th.srw	t0,a2,a5,2
    46e0:	00178793          	addi	a5,a5,1
    46e4:	22f6c38b          	th.lrh	t2,a3,a5,1
    46e8:	03338733          	mul	a4,t2,s3
    46ec:	44f6570b          	th.srw	a4,a2,a5,2
    46f0:	00178793          	addi	a5,a5,1
    46f4:	22f6ce8b          	th.lrh	t4,a3,a5,1
    46f8:	033e8e33          	mul	t3,t4,s3
    46fc:	44f65e0b          	th.srw	t3,a2,a5,2
    4700:	00178793          	addi	a5,a5,1
    4704:	22f6c50b          	th.lrh	a0,a3,a5,1
    4708:	033505b3          	mul	a1,a0,s3
    470c:	44f6558b          	th.srw	a1,a2,a5,2
    4710:	00178793          	addi	a5,a5,1
    4714:	08978463          	beq	a5,s1,479c <core_bench_matrix+0x2f0>
    4718:	22f6c88b          	th.lrh	a7,a3,a5,1
    471c:	00178393          	addi	t2,a5,1
    4720:	2276ce8b          	th.lrh	t4,a3,t2,1
    4724:	03388533          	mul	a0,a7,s3
    4728:	00278e13          	addi	t3,a5,2
    472c:	23c6c70b          	th.lrh	a4,a3,t3,1
    4730:	00378293          	addi	t0,a5,3
    4734:	2256c88b          	th.lrh	a7,a3,t0,1
    4738:	00478f93          	addi	t6,a5,4
    473c:	23f6c80b          	th.lrh	a6,a3,t6,1
    4740:	00578f13          	addi	t5,a5,5
    4744:	033e85b3          	mul	a1,t4,s3
    4748:	44f6550b          	th.srw	a0,a2,a5,2
    474c:	23e6c50b          	th.lrh	a0,a3,t5,1
    4750:	00678e93          	addi	t4,a5,6
    4754:	4476558b          	th.srw	a1,a2,t2,2
    4758:	033703b3          	mul	t2,a4,s3
    475c:	23d6c58b          	th.lrh	a1,a3,t4,1
    4760:	033888b3          	mul	a7,a7,s3
    4764:	45c6538b          	th.srw	t2,a2,t3,2
    4768:	00778e13          	addi	t3,a5,7
    476c:	23c6c70b          	th.lrh	a4,a3,t3,1
    4770:	00878793          	addi	a5,a5,8
    4774:	4456588b          	th.srw	a7,a2,t0,2
    4778:	033802b3          	mul	t0,a6,s3
    477c:	03350833          	mul	a6,a0,s3
    4780:	45f6528b          	th.srw	t0,a2,t6,2
    4784:	03358fb3          	mul	t6,a1,s3
    4788:	45e6580b          	th.srw	a6,a2,t5,2
    478c:	03370f33          	mul	t5,a4,s3
    4790:	45d65f8b          	th.srw	t6,a2,t4,2
    4794:	45c65f0b          	th.srw	t5,a2,t3,2
    4798:	f89790e3          	bne	a5,s1,4718 <core_bench_matrix+0x26c>
    479c:	008686b3          	add	a3,a3,s0
    47a0:	01760633          	add	a2,a2,s7
    47a4:	01a30663          	beq	t1,s10,47b0 <core_bench_matrix+0x304>
    47a8:	00130313          	addi	t1,t1,1
    47ac:	ebdff06f          	j	4668 <core_bench_matrix+0x1bc>
    47b0:	017c8633          	add	a2,s9,s7
    47b4:	00000813          	li	a6,0
    47b8:	00000793          	li	a5,0
    47bc:	00000513          	li	a0,0
    47c0:	00000593          	li	a1,0
    47c4:	ffcb8313          	addi	t1,s7,-4
    47c8:	00235393          	srli	t2,t1,0x2
    47cc:	00138e93          	addi	t4,t2,1
    47d0:	007efe13          	andi	t3,t4,7
    47d4:	41760733          	sub	a4,a2,s7
    47d8:	1c0e0463          	beqz	t3,49a0 <core_bench_matrix+0x4f4>
    47dc:	00100893          	li	a7,1
    47e0:	0f1e0463          	beq	t3,a7,48c8 <core_bench_matrix+0x41c>
    47e4:	00200293          	li	t0,2
    47e8:	0c5e0063          	beq	t3,t0,48a8 <core_bench_matrix+0x3fc>
    47ec:	00300f93          	li	t6,3
    47f0:	09fe0e63          	beq	t3,t6,488c <core_bench_matrix+0x3e0>
    47f4:	00400f13          	li	t5,4
    47f8:	07ee0a63          	beq	t3,t5,486c <core_bench_matrix+0x3c0>
    47fc:	00500693          	li	a3,5
    4800:	04de0663          	beq	t3,a3,484c <core_bench_matrix+0x3a0>
    4804:	00600313          	li	t1,6
    4808:	026e0263          	beq	t3,t1,482c <core_bench_matrix+0x380>
    480c:	00080393          	mv	t2,a6
    4810:	00072803          	lw	a6,0(a4)
    4814:	010787b3          	add	a5,a5,a6
    4818:	00f94463          	blt	s2,a5,4820 <core_bench_matrix+0x374>
    481c:	3cc0106f          	j	5be8 <core_bench_matrix+0x173c>
    4820:	00a50513          	addi	a0,a0,10
    4824:	00000793          	li	a5,0
    4828:	00470713          	addi	a4,a4,4
    482c:	00080e13          	mv	t3,a6
    4830:	00072803          	lw	a6,0(a4)
    4834:	010787b3          	add	a5,a5,a6
    4838:	24f95663          	bge	s2,a5,4a84 <core_bench_matrix+0x5d8>
    483c:	00a50293          	addi	t0,a0,10
    4840:	00000793          	li	a5,0
    4844:	00028513          	mv	a0,t0
    4848:	00470713          	addi	a4,a4,4
    484c:	00080f93          	mv	t6,a6
    4850:	00072803          	lw	a6,0(a4)
    4854:	010787b3          	add	a5,a5,a6
    4858:	22f95063          	bge	s2,a5,4a78 <core_bench_matrix+0x5cc>
    485c:	00a50693          	addi	a3,a0,10
    4860:	00000793          	li	a5,0
    4864:	00068513          	mv	a0,a3
    4868:	00470713          	addi	a4,a4,4
    486c:	00080313          	mv	t1,a6
    4870:	00072803          	lw	a6,0(a4)
    4874:	010787b3          	add	a5,a5,a6
    4878:	1ef95a63          	bge	s2,a5,4a6c <core_bench_matrix+0x5c0>
    487c:	00a50e93          	addi	t4,a0,10
    4880:	00000793          	li	a5,0
    4884:	000e8513          	mv	a0,t4
    4888:	00470713          	addi	a4,a4,4
    488c:	00080e13          	mv	t3,a6
    4890:	00072803          	lw	a6,0(a4)
    4894:	010787b3          	add	a5,a5,a6
    4898:	1cf95463          	bge	s2,a5,4a60 <core_bench_matrix+0x5b4>
    489c:	00a50513          	addi	a0,a0,10
    48a0:	00000793          	li	a5,0
    48a4:	00470713          	addi	a4,a4,4
    48a8:	00080293          	mv	t0,a6
    48ac:	00072803          	lw	a6,0(a4)
    48b0:	010787b3          	add	a5,a5,a6
    48b4:	1af95063          	bge	s2,a5,4a54 <core_bench_matrix+0x5a8>
    48b8:	00a50f13          	addi	t5,a0,10
    48bc:	00000793          	li	a5,0
    48c0:	000f0513          	mv	a0,t5
    48c4:	00470713          	addi	a4,a4,4
    48c8:	00080693          	mv	a3,a6
    48cc:	00072803          	lw	a6,0(a4)
    48d0:	010787b3          	add	a5,a5,a6
    48d4:	16f95a63          	bge	s2,a5,4a48 <core_bench_matrix+0x59c>
    48d8:	00a50393          	addi	t2,a0,10
    48dc:	00000793          	li	a5,0
    48e0:	00470713          	addi	a4,a4,4
    48e4:	3c03a50b          	th.ext	a0,t2,15,0
    48e8:	0ae61c63          	bne	a2,a4,49a0 <core_bench_matrix+0x4f4>
    48ec:	01760633          	add	a2,a2,s7
    48f0:	1ba58063          	beq	a1,s10,4a90 <core_bench_matrix+0x5e4>
    48f4:	00158593          	addi	a1,a1,1
    48f8:	ecdff06f          	j	47c4 <core_bench_matrix+0x318>
    48fc:	00472283          	lw	t0,4(a4)
    4900:	01d82833          	slt	a6,a6,t4
    4904:	01050e33          	add	t3,a0,a6
    4908:	00578fb3          	add	t6,a5,t0
    490c:	00470713          	addi	a4,a4,4
    4910:	0bf95a63          	bge	s2,t6,49c4 <core_bench_matrix+0x518>
    4914:	00472503          	lw	a0,4(a4)
    4918:	00000f93          	li	t6,0
    491c:	00ae0f13          	addi	t5,t3,10
    4920:	00af8333          	add	t1,t6,a0
    4924:	0a695a63          	bge	s2,t1,49d8 <core_bench_matrix+0x52c>
    4928:	00872e83          	lw	t4,8(a4)
    492c:	00000313          	li	t1,0
    4930:	00af0393          	addi	t2,t5,10
    4934:	01d30833          	add	a6,t1,t4
    4938:	0b095a63          	bge	s2,a6,49ec <core_bench_matrix+0x540>
    493c:	00c72f83          	lw	t6,12(a4)
    4940:	00000813          	li	a6,0
    4944:	00a38293          	addi	t0,t2,10
    4948:	01f807b3          	add	a5,a6,t6
    494c:	0af95a63          	bge	s2,a5,4a00 <core_bench_matrix+0x554>
    4950:	01072303          	lw	t1,16(a4)
    4954:	00000793          	li	a5,0
    4958:	00a28f13          	addi	t5,t0,10
    495c:	006783b3          	add	t2,a5,t1
    4960:	0a795a63          	bge	s2,t2,4a14 <core_bench_matrix+0x568>
    4964:	01472e83          	lw	t4,20(a4)
    4968:	00000393          	li	t2,0
    496c:	00af0693          	addi	a3,t5,10
    4970:	01d38e33          	add	t3,t2,t4
    4974:	0bc95a63          	bge	s2,t3,4a28 <core_bench_matrix+0x57c>
    4978:	01872803          	lw	a6,24(a4)
    497c:	00000e13          	li	t3,0
    4980:	00a68293          	addi	t0,a3,10
    4984:	010e07b3          	add	a5,t3,a6
    4988:	0af95a63          	bge	s2,a5,4a3c <core_bench_matrix+0x590>
    498c:	00a28893          	addi	a7,t0,10
    4990:	00000793          	li	a5,0
    4994:	01c70713          	addi	a4,a4,28
    4998:	3c08a50b          	th.ext	a0,a7,15,0
    499c:	f4e608e3          	beq	a2,a4,48ec <core_bench_matrix+0x440>
    49a0:	00072e83          	lw	t4,0(a4)
    49a4:	01d787b3          	add	a5,a5,t4
    49a8:	f4f95ae3          	bge	s2,a5,48fc <core_bench_matrix+0x450>
    49ac:	00472283          	lw	t0,4(a4)
    49b0:	00000793          	li	a5,0
    49b4:	00a50e13          	addi	t3,a0,10
    49b8:	00578fb3          	add	t6,a5,t0
    49bc:	00470713          	addi	a4,a4,4
    49c0:	f5f94ae3          	blt	s2,t6,4914 <core_bench_matrix+0x468>
    49c4:	00472503          	lw	a0,4(a4)
    49c8:	005ea8b3          	slt	a7,t4,t0
    49cc:	011e0f33          	add	t5,t3,a7
    49d0:	00af8333          	add	t1,t6,a0
    49d4:	f4694ae3          	blt	s2,t1,4928 <core_bench_matrix+0x47c>
    49d8:	00872e83          	lw	t4,8(a4)
    49dc:	00a2a6b3          	slt	a3,t0,a0
    49e0:	00df03b3          	add	t2,t5,a3
    49e4:	01d30833          	add	a6,t1,t4
    49e8:	f5094ae3          	blt	s2,a6,493c <core_bench_matrix+0x490>
    49ec:	00c72f83          	lw	t6,12(a4)
    49f0:	01d52e33          	slt	t3,a0,t4
    49f4:	01c382b3          	add	t0,t2,t3
    49f8:	01f807b3          	add	a5,a6,t6
    49fc:	f4f94ae3          	blt	s2,a5,4950 <core_bench_matrix+0x4a4>
    4a00:	01072303          	lw	t1,16(a4)
    4a04:	01fea8b3          	slt	a7,t4,t6
    4a08:	01128f33          	add	t5,t0,a7
    4a0c:	006783b3          	add	t2,a5,t1
    4a10:	f4794ae3          	blt	s2,t2,4964 <core_bench_matrix+0x4b8>
    4a14:	01472e83          	lw	t4,20(a4)
    4a18:	006fa533          	slt	a0,t6,t1
    4a1c:	00af06b3          	add	a3,t5,a0
    4a20:	01d38e33          	add	t3,t2,t4
    4a24:	f5c94ae3          	blt	s2,t3,4978 <core_bench_matrix+0x4cc>
    4a28:	01d32833          	slt	a6,t1,t4
    4a2c:	010682b3          	add	t0,a3,a6
    4a30:	01872803          	lw	a6,24(a4)
    4a34:	010e07b3          	add	a5,t3,a6
    4a38:	f4f94ae3          	blt	s2,a5,498c <core_bench_matrix+0x4e0>
    4a3c:	010eafb3          	slt	t6,t4,a6
    4a40:	01f288b3          	add	a7,t0,t6
    4a44:	f51ff06f          	j	4994 <core_bench_matrix+0x4e8>
    4a48:	0106a333          	slt	t1,a3,a6
    4a4c:	006503b3          	add	t2,a0,t1
    4a50:	e91ff06f          	j	48e0 <core_bench_matrix+0x434>
    4a54:	0102afb3          	slt	t6,t0,a6
    4a58:	01f50f33          	add	t5,a0,t6
    4a5c:	e65ff06f          	j	48c0 <core_bench_matrix+0x414>
    4a60:	010e28b3          	slt	a7,t3,a6
    4a64:	01150533          	add	a0,a0,a7
    4a68:	e3dff06f          	j	48a4 <core_bench_matrix+0x3f8>
    4a6c:	010323b3          	slt	t2,t1,a6
    4a70:	00750eb3          	add	t4,a0,t2
    4a74:	e11ff06f          	j	4884 <core_bench_matrix+0x3d8>
    4a78:	010faf33          	slt	t5,t6,a6
    4a7c:	01e506b3          	add	a3,a0,t5
    4a80:	de5ff06f          	j	4864 <core_bench_matrix+0x3b8>
    4a84:	010e28b3          	slt	a7,t3,a6
    4a88:	011502b3          	add	t0,a0,a7
    4a8c:	db9ff06f          	j	4844 <core_bench_matrix+0x398>
    4a90:	00000593          	li	a1,0
    4a94:	4a1040ef          	jal	9734 <crc16>
    4a98:	00050593          	mv	a1,a0
    4a9c:	000a0613          	mv	a2,s4
    4aa0:	00000513          	li	a0,0
    4aa4:	0074ff13          	andi	t5,s1,7
    4aa8:	00000893          	li	a7,0
    4aac:	00000793          	li	a5,0
    4ab0:	0c0f0063          	beqz	t5,4b70 <core_bench_matrix+0x6c4>
    4ab4:	00100313          	li	t1,1
    4ab8:	0a6f0063          	beq	t5,t1,4b58 <core_bench_matrix+0x6ac>
    4abc:	00200393          	li	t2,2
    4ac0:	087f0263          	beq	t5,t2,4b44 <core_bench_matrix+0x698>
    4ac4:	00300693          	li	a3,3
    4ac8:	06df0463          	beq	t5,a3,4b30 <core_bench_matrix+0x684>
    4acc:	00400e93          	li	t4,4
    4ad0:	05df0663          	beq	t5,t4,4b1c <core_bench_matrix+0x670>
    4ad4:	00500e13          	li	t3,5
    4ad8:	03cf0863          	beq	t5,t3,4b08 <core_bench_matrix+0x65c>
    4adc:	00600293          	li	t0,6
    4ae0:	005f0a63          	beq	t5,t0,4af4 <core_bench_matrix+0x648>
    4ae4:	00061803          	lh	a6,0(a2)
    4ae8:	000a9f83          	lh	t6,0(s5)
    4aec:	00030793          	mv	a5,t1
    4af0:	03f808b3          	mul	a7,a6,t6
    4af4:	22f6470b          	th.lrh	a4,a2,a5,1
    4af8:	22facf0b          	th.lrh	t5,s5,a5,1
    4afc:	00178793          	addi	a5,a5,1
    4b00:	03e70333          	mul	t1,a4,t5
    4b04:	006888b3          	add	a7,a7,t1
    4b08:	22f6438b          	th.lrh	t2,a2,a5,1
    4b0c:	22fac68b          	th.lrh	a3,s5,a5,1
    4b10:	00178793          	addi	a5,a5,1
    4b14:	02d38eb3          	mul	t4,t2,a3
    4b18:	01d888b3          	add	a7,a7,t4
    4b1c:	22f64e0b          	th.lrh	t3,a2,a5,1
    4b20:	22fac28b          	th.lrh	t0,s5,a5,1
    4b24:	00178793          	addi	a5,a5,1
    4b28:	025e0833          	mul	a6,t3,t0
    4b2c:	010888b3          	add	a7,a7,a6
    4b30:	22f64f8b          	th.lrh	t6,a2,a5,1
    4b34:	22fac70b          	th.lrh	a4,s5,a5,1
    4b38:	00178793          	addi	a5,a5,1
    4b3c:	02ef8f33          	mul	t5,t6,a4
    4b40:	01e888b3          	add	a7,a7,t5
    4b44:	22f6430b          	th.lrh	t1,a2,a5,1
    4b48:	22fac38b          	th.lrh	t2,s5,a5,1
    4b4c:	00178793          	addi	a5,a5,1
    4b50:	027306b3          	mul	a3,t1,t2
    4b54:	00d888b3          	add	a7,a7,a3
    4b58:	22f64e8b          	th.lrh	t4,a2,a5,1
    4b5c:	22face0b          	th.lrh	t3,s5,a5,1
    4b60:	00178793          	addi	a5,a5,1
    4b64:	03ce82b3          	mul	t0,t4,t3
    4b68:	005888b3          	add	a7,a7,t0
    4b6c:	0a978463          	beq	a5,s1,4c14 <core_bench_matrix+0x768>
    4b70:	00178f13          	addi	t5,a5,1
    4b74:	22f64f8b          	th.lrh	t6,a2,a5,1
    4b78:	22fac70b          	th.lrh	a4,s5,a5,1
    4b7c:	00278313          	addi	t1,a5,2
    4b80:	23eac38b          	th.lrh	t2,s5,t5,1
    4b84:	23e6480b          	th.lrh	a6,a2,t5,1
    4b88:	226ace8b          	th.lrh	t4,s5,t1,1
    4b8c:	2266468b          	th.lrh	a3,a2,t1,1
    4b90:	02ef8733          	mul	a4,t6,a4
    4b94:	00378e13          	addi	t3,a5,3
    4b98:	23c6428b          	th.lrh	t0,a2,t3,1
    4b9c:	23cace0b          	th.lrh	t3,s5,t3,1
    4ba0:	00478f93          	addi	t6,a5,4
    4ba4:	00578f13          	addi	t5,a5,5
    4ba8:	23f6430b          	th.lrh	t1,a2,t6,1
    4bac:	23facf8b          	th.lrh	t6,s5,t6,1
    4bb0:	02780833          	mul	a6,a6,t2
    4bb4:	00e883b3          	add	t2,a7,a4
    4bb8:	23e6488b          	th.lrh	a7,a2,t5,1
    4bbc:	23eacf0b          	th.lrh	t5,s5,t5,1
    4bc0:	03d686b3          	mul	a3,a3,t4
    4bc4:	00678e93          	addi	t4,a5,6
    4bc8:	01038733          	add	a4,t2,a6
    4bcc:	23dac38b          	th.lrh	t2,s5,t4,1
    4bd0:	23d6480b          	th.lrh	a6,a2,t4,1
    4bd4:	03c282b3          	mul	t0,t0,t3
    4bd8:	00778e13          	addi	t3,a5,7
    4bdc:	00d70733          	add	a4,a4,a3
    4be0:	23cace8b          	th.lrh	t4,s5,t3,1
    4be4:	23c6468b          	th.lrh	a3,a2,t3,1
    4be8:	00878793          	addi	a5,a5,8
    4bec:	03f30333          	mul	t1,t1,t6
    4bf0:	00570fb3          	add	t6,a4,t0
    4bf4:	03e888b3          	mul	a7,a7,t5
    4bf8:	006f8f33          	add	t5,t6,t1
    4bfc:	02780833          	mul	a6,a6,t2
    4c00:	011f03b3          	add	t2,t5,a7
    4c04:	03d682b3          	mul	t0,a3,t4
    4c08:	01038733          	add	a4,t2,a6
    4c0c:	005708b3          	add	a7,a4,t0
    4c10:	f69790e3          	bne	a5,s1,4b70 <core_bench_matrix+0x6c4>
    4c14:	44acd88b          	th.srw	a7,s9,a0,2
    4c18:	00860633          	add	a2,a2,s0
    4c1c:	01a50663          	beq	a0,s10,4c28 <core_bench_matrix+0x77c>
    4c20:	00150513          	addi	a0,a0,1
    4c24:	e81ff06f          	j	4aa4 <core_bench_matrix+0x5f8>
    4c28:	000c8613          	mv	a2,s9
    4c2c:	00000893          	li	a7,0
    4c30:	00000793          	li	a5,0
    4c34:	00000513          	li	a0,0
    4c38:	00000813          	li	a6,0
    4c3c:	00088d13          	mv	s10,a7
    4c40:	00062883          	lw	a7,0(a2)
    4c44:	fff48e13          	addi	t3,s1,-1
    4c48:	007e7693          	andi	a3,t3,7
    4c4c:	011787b3          	add	a5,a5,a7
    4c50:	64f958e3          	bge	s2,a5,5aa0 <core_bench_matrix+0x15f4>
    4c54:	00a50513          	addi	a0,a0,10
    4c58:	00000793          	li	a5,0
    4c5c:	00100713          	li	a4,1
    4c60:	3c05250b          	th.ext	a0,a0,15,0
    4c64:	10977863          	bgeu	a4,s1,4d74 <core_bench_matrix+0x8c8>
    4c68:	26068ae3          	beqz	a3,56dc <core_bench_matrix+0x1230>
    4c6c:	0ee68263          	beq	a3,a4,4d50 <core_bench_matrix+0x8a4>
    4c70:	00200313          	li	t1,2
    4c74:	0c668063          	beq	a3,t1,4d34 <core_bench_matrix+0x888>
    4c78:	00300f93          	li	t6,3
    4c7c:	09f68c63          	beq	a3,t6,4d14 <core_bench_matrix+0x868>
    4c80:	00400f13          	li	t5,4
    4c84:	07e68863          	beq	a3,t5,4cf4 <core_bench_matrix+0x848>
    4c88:	00500393          	li	t2,5
    4c8c:	04768463          	beq	a3,t2,4cd4 <core_bench_matrix+0x828>
    4c90:	00600293          	li	t0,6
    4c94:	02568263          	beq	a3,t0,4cb8 <core_bench_matrix+0x80c>
    4c98:	00088d13          	mv	s10,a7
    4c9c:	44e6488b          	th.lrw	a7,a2,a4,2
    4ca0:	011787b3          	add	a5,a5,a7
    4ca4:	76f946e3          	blt	s2,a5,5c10 <core_bench_matrix+0x1764>
    4ca8:	011d2e33          	slt	t3,s10,a7
    4cac:	01c506b3          	add	a3,a0,t3
    4cb0:	00068513          	mv	a0,a3
    4cb4:	00170713          	addi	a4,a4,1
    4cb8:	00088e93          	mv	t4,a7
    4cbc:	44e6488b          	th.lrw	a7,a2,a4,2
    4cc0:	011787b3          	add	a5,a5,a7
    4cc4:	6cf958e3          	bge	s2,a5,5b94 <core_bench_matrix+0x16e8>
    4cc8:	00a50513          	addi	a0,a0,10
    4ccc:	00000793          	li	a5,0
    4cd0:	00170713          	addi	a4,a4,1
    4cd4:	00088f93          	mv	t6,a7
    4cd8:	44e6488b          	th.lrw	a7,a2,a4,2
    4cdc:	011787b3          	add	a5,a5,a7
    4ce0:	66f95ae3          	bge	s2,a5,5b54 <core_bench_matrix+0x16a8>
    4ce4:	00a50393          	addi	t2,a0,10
    4ce8:	00000793          	li	a5,0
    4cec:	00038513          	mv	a0,t2
    4cf0:	00170713          	addi	a4,a4,1
    4cf4:	00088293          	mv	t0,a7
    4cf8:	44e6488b          	th.lrw	a7,a2,a4,2
    4cfc:	011787b3          	add	a5,a5,a7
    4d00:	62f95ee3          	bge	s2,a5,5b3c <core_bench_matrix+0x1690>
    4d04:	00a50e13          	addi	t3,a0,10
    4d08:	00000793          	li	a5,0
    4d0c:	000e0513          	mv	a0,t3
    4d10:	00170713          	addi	a4,a4,1
    4d14:	00088693          	mv	a3,a7
    4d18:	44e6488b          	th.lrw	a7,a2,a4,2
    4d1c:	011787b3          	add	a5,a5,a7
    4d20:	5ef95ce3          	bge	s2,a5,5b18 <core_bench_matrix+0x166c>
    4d24:	00a50313          	addi	t1,a0,10
    4d28:	00000793          	li	a5,0
    4d2c:	00030513          	mv	a0,t1
    4d30:	00170713          	addi	a4,a4,1
    4d34:	00088f93          	mv	t6,a7
    4d38:	44e6488b          	th.lrw	a7,a2,a4,2
    4d3c:	011787b3          	add	a5,a5,a7
    4d40:	5af95ee3          	bge	s2,a5,5afc <core_bench_matrix+0x1650>
    4d44:	00a50513          	addi	a0,a0,10
    4d48:	00000793          	li	a5,0
    4d4c:	00170713          	addi	a4,a4,1
    4d50:	00088393          	mv	t2,a7
    4d54:	44e6488b          	th.lrw	a7,a2,a4,2
    4d58:	011787b3          	add	a5,a5,a7
    4d5c:	54f95ee3          	bge	s2,a5,5ab8 <core_bench_matrix+0x160c>
    4d60:	00a50d13          	addi	s10,a0,10
    4d64:	00000793          	li	a5,0
    4d68:	00170713          	addi	a4,a4,1
    4d6c:	3c0d250b          	th.ext	a0,s10,15,0
    4d70:	169766e3          	bltu	a4,s1,56dc <core_bench_matrix+0x1230>
    4d74:	00180813          	addi	a6,a6,1
    4d78:	01760633          	add	a2,a2,s7
    4d7c:	ec9860e3          	bltu	a6,s1,4c3c <core_bench_matrix+0x790>
    4d80:	1b5040ef          	jal	9734 <crc16>
    4d84:	00050593          	mv	a1,a0
    4d88:	000a0813          	mv	a6,s4
    4d8c:	000c8313          	mv	t1,s9
    4d90:	00000e13          	li	t3,0
    4d94:	000a8893          	mv	a7,s5
    4d98:	00000513          	li	a0,0
    4d9c:	00081e83          	lh	t4,0(a6)
    4da0:	00089683          	lh	a3,0(a7)
    4da4:	fff48f93          	addi	t6,s1,-1
    4da8:	00100793          	li	a5,1
    4dac:	02de86b3          	mul	a3,t4,a3
    4db0:	007ff393          	andi	t2,t6,7
    4db4:	00888733          	add	a4,a7,s0
    4db8:	1897fa63          	bgeu	a5,s1,4f4c <core_bench_matrix+0xaa0>
    4dbc:	0c038e63          	beqz	t2,4e98 <core_bench_matrix+0x9ec>
    4dc0:	0af38e63          	beq	t2,a5,4e7c <core_bench_matrix+0x9d0>
    4dc4:	00200293          	li	t0,2
    4dc8:	08538e63          	beq	t2,t0,4e64 <core_bench_matrix+0x9b8>
    4dcc:	00300f13          	li	t5,3
    4dd0:	07e38e63          	beq	t2,t5,4e4c <core_bench_matrix+0x9a0>
    4dd4:	00400d13          	li	s10,4
    4dd8:	05a38e63          	beq	t2,s10,4e34 <core_bench_matrix+0x988>
    4ddc:	00500613          	li	a2,5
    4de0:	02c38e63          	beq	t2,a2,4e1c <core_bench_matrix+0x970>
    4de4:	00600e93          	li	t4,6
    4de8:	01d38e63          	beq	t2,t4,4e04 <core_bench_matrix+0x958>
    4dec:	00281f83          	lh	t6,2(a6)
    4df0:	2088c38b          	th.lrh	t2,a7,s0,0
    4df4:	00028793          	mv	a5,t0
    4df8:	00870733          	add	a4,a4,s0
    4dfc:	027f82b3          	mul	t0,t6,t2
    4e00:	005686b3          	add	a3,a3,t0
    4e04:	22f84f0b          	th.lrh	t5,a6,a5,1
    4e08:	00071d03          	lh	s10,0(a4)
    4e0c:	00178793          	addi	a5,a5,1
    4e10:	00870733          	add	a4,a4,s0
    4e14:	03af0633          	mul	a2,t5,s10
    4e18:	00c686b3          	add	a3,a3,a2
    4e1c:	22f84f8b          	th.lrh	t6,a6,a5,1
    4e20:	00071e83          	lh	t4,0(a4)
    4e24:	00178793          	addi	a5,a5,1
    4e28:	00870733          	add	a4,a4,s0
    4e2c:	03df83b3          	mul	t2,t6,t4
    4e30:	007686b3          	add	a3,a3,t2
    4e34:	22f8428b          	th.lrh	t0,a6,a5,1
    4e38:	00071f03          	lh	t5,0(a4)
    4e3c:	00178793          	addi	a5,a5,1
    4e40:	00870733          	add	a4,a4,s0
    4e44:	03e28d33          	mul	s10,t0,t5
    4e48:	01a686b3          	add	a3,a3,s10
    4e4c:	22f8460b          	th.lrh	a2,a6,a5,1
    4e50:	00071f83          	lh	t6,0(a4)
    4e54:	00178793          	addi	a5,a5,1
    4e58:	00870733          	add	a4,a4,s0
    4e5c:	03f60eb3          	mul	t4,a2,t6
    4e60:	01d686b3          	add	a3,a3,t4
    4e64:	22f8438b          	th.lrh	t2,a6,a5,1
    4e68:	00071283          	lh	t0,0(a4)
    4e6c:	00178793          	addi	a5,a5,1
    4e70:	00870733          	add	a4,a4,s0
    4e74:	02538f33          	mul	t5,t2,t0
    4e78:	01e686b3          	add	a3,a3,t5
    4e7c:	22f84d0b          	th.lrh	s10,a6,a5,1
    4e80:	00071603          	lh	a2,0(a4)
    4e84:	00178793          	addi	a5,a5,1
    4e88:	00870733          	add	a4,a4,s0
    4e8c:	02cd0fb3          	mul	t6,s10,a2
    4e90:	01f686b3          	add	a3,a3,t6
    4e94:	0a97fc63          	bgeu	a5,s1,4f4c <core_bench_matrix+0xaa0>
    4e98:	22f84d0b          	th.lrh	s10,a6,a5,1
    4e9c:	00071e83          	lh	t4,0(a4)
    4ea0:	00178393          	addi	t2,a5,1
    4ea4:	20874f0b          	th.lrh	t5,a4,s0,0
    4ea8:	2278438b          	th.lrh	t2,a6,t2,1
    4eac:	03dd0633          	mul	a2,s10,t4
    4eb0:	00278293          	addi	t0,a5,2
    4eb4:	22874d0b          	th.lrh	s10,a4,s0,1
    4eb8:	2258428b          	th.lrh	t0,a6,t0,1
    4ebc:	00478e93          	addi	t4,a5,4
    4ec0:	20e42733          	sh1add	a4,s0,a4
    4ec4:	00378f93          	addi	t6,a5,3
    4ec8:	23f84f8b          	th.lrh	t6,a6,t6,1
    4ecc:	03e383b3          	mul	t2,t2,t5
    4ed0:	23d84f0b          	th.lrh	t5,a6,t4,1
    4ed4:	00c686b3          	add	a3,a3,a2
    4ed8:	2087460b          	th.lrh	a2,a4,s0,0
    4edc:	03a28eb3          	mul	t4,t0,s10
    4ee0:	007686b3          	add	a3,a3,t2
    4ee4:	2287438b          	th.lrh	t2,a4,s0,1
    4ee8:	00578293          	addi	t0,a5,5
    4eec:	20e42733          	sh1add	a4,s0,a4
    4ef0:	2258428b          	th.lrh	t0,a6,t0,1
    4ef4:	02cf8d33          	mul	s10,t6,a2
    4ef8:	20874f8b          	th.lrh	t6,a4,s0,0
    4efc:	01d68633          	add	a2,a3,t4
    4f00:	00678e93          	addi	t4,a5,6
    4f04:	00778693          	addi	a3,a5,7
    4f08:	23d84e8b          	th.lrh	t4,a6,t4,1
    4f0c:	22d8468b          	th.lrh	a3,a6,a3,1
    4f10:	00878793          	addi	a5,a5,8
    4f14:	027f03b3          	mul	t2,t5,t2
    4f18:	22874f0b          	th.lrh	t5,a4,s0,1
    4f1c:	20e42733          	sh1add	a4,s0,a4
    4f20:	01a60d33          	add	s10,a2,s10
    4f24:	03f28fb3          	mul	t6,t0,t6
    4f28:	2087428b          	th.lrh	t0,a4,s0,0
    4f2c:	007d0633          	add	a2,s10,t2
    4f30:	20e42733          	sh1add	a4,s0,a4
    4f34:	03ee8eb3          	mul	t4,t4,t5
    4f38:	01f603b3          	add	t2,a2,t6
    4f3c:	02568d33          	mul	s10,a3,t0
    4f40:	01d38f33          	add	t5,t2,t4
    4f44:	01af06b3          	add	a3,t5,s10
    4f48:	f497e8e3          	bltu	a5,s1,4e98 <core_bench_matrix+0x9ec>
    4f4c:	44a3568b          	th.srw	a3,t1,a0,2
    4f50:	00150513          	addi	a0,a0,1
    4f54:	00288893          	addi	a7,a7,2
    4f58:	e49562e3          	bltu	a0,s1,4d9c <core_bench_matrix+0x8f0>
    4f5c:	001e0e13          	addi	t3,t3,1
    4f60:	01730333          	add	t1,t1,s7
    4f64:	00880833          	add	a6,a6,s0
    4f68:	e29e66e3          	bltu	t3,s1,4d94 <core_bench_matrix+0x8e8>
    4f6c:	000c8613          	mv	a2,s9
    4f70:	00000893          	li	a7,0
    4f74:	00000793          	li	a5,0
    4f78:	00000513          	li	a0,0
    4f7c:	00000813          	li	a6,0
    4f80:	00088713          	mv	a4,a7
    4f84:	00062883          	lw	a7,0(a2)
    4f88:	fff48693          	addi	a3,s1,-1
    4f8c:	0076ff93          	andi	t6,a3,7
    4f90:	011787b3          	add	a5,a5,a7
    4f94:	30f95ce3          	bge	s2,a5,5aac <core_bench_matrix+0x1600>
    4f98:	00a50513          	addi	a0,a0,10
    4f9c:	00000793          	li	a5,0
    4fa0:	00100713          	li	a4,1
    4fa4:	3c05250b          	th.ext	a0,a0,15,0
    4fa8:	10977863          	bgeu	a4,s1,50b8 <core_bench_matrix+0xc0c>
    4fac:	0a0f86e3          	beqz	t6,5858 <core_bench_matrix+0x13ac>
    4fb0:	0eef8263          	beq	t6,a4,5094 <core_bench_matrix+0xbe8>
    4fb4:	00200e93          	li	t4,2
    4fb8:	0ddf8063          	beq	t6,t4,5078 <core_bench_matrix+0xbcc>
    4fbc:	00300393          	li	t2,3
    4fc0:	087f8c63          	beq	t6,t2,5058 <core_bench_matrix+0xbac>
    4fc4:	00400d13          	li	s10,4
    4fc8:	07af8863          	beq	t6,s10,5038 <core_bench_matrix+0xb8c>
    4fcc:	00500f13          	li	t5,5
    4fd0:	05ef8463          	beq	t6,t5,5018 <core_bench_matrix+0xb6c>
    4fd4:	00600e13          	li	t3,6
    4fd8:	03cf8263          	beq	t6,t3,4ffc <core_bench_matrix+0xb50>
    4fdc:	00088313          	mv	t1,a7
    4fe0:	44e6488b          	th.lrw	a7,a2,a4,2
    4fe4:	011787b3          	add	a5,a5,a7
    4fe8:	40f94ee3          	blt	s2,a5,5c04 <core_bench_matrix+0x1758>
    4fec:	011326b3          	slt	a3,t1,a7
    4ff0:	00d50fb3          	add	t6,a0,a3
    4ff4:	000f8513          	mv	a0,t6
    4ff8:	00170713          	addi	a4,a4,1
    4ffc:	00088293          	mv	t0,a7
    5000:	44e6488b          	th.lrw	a7,a2,a4,2
    5004:	011787b3          	add	a5,a5,a7
    5008:	36f95ee3          	bge	s2,a5,5b84 <core_bench_matrix+0x16d8>
    500c:	00a50513          	addi	a0,a0,10
    5010:	00000793          	li	a5,0
    5014:	00170713          	addi	a4,a4,1
    5018:	00088393          	mv	t2,a7
    501c:	44e6488b          	th.lrw	a7,a2,a4,2
    5020:	011787b3          	add	a5,a5,a7
    5024:	34f954e3          	bge	s2,a5,5b6c <core_bench_matrix+0x16c0>
    5028:	00a50f13          	addi	t5,a0,10
    502c:	00000793          	li	a5,0
    5030:	000f0513          	mv	a0,t5
    5034:	00170713          	addi	a4,a4,1
    5038:	00088e13          	mv	t3,a7
    503c:	44e6488b          	th.lrw	a7,a2,a4,2
    5040:	011787b3          	add	a5,a5,a7
    5044:	2ef956e3          	bge	s2,a5,5b30 <core_bench_matrix+0x1684>
    5048:	00a50693          	addi	a3,a0,10
    504c:	00000793          	li	a5,0
    5050:	00068513          	mv	a0,a3
    5054:	00170713          	addi	a4,a4,1
    5058:	00088f93          	mv	t6,a7
    505c:	44e6488b          	th.lrw	a7,a2,a4,2
    5060:	011787b3          	add	a5,a5,a7
    5064:	2cf950e3          	bge	s2,a5,5b24 <core_bench_matrix+0x1678>
    5068:	00a50e93          	addi	t4,a0,10
    506c:	00000793          	li	a5,0
    5070:	000e8513          	mv	a0,t4
    5074:	00170713          	addi	a4,a4,1
    5078:	00088393          	mv	t2,a7
    507c:	44e6488b          	th.lrw	a7,a2,a4,2
    5080:	011787b3          	add	a5,a5,a7
    5084:	24f95ce3          	bge	s2,a5,5adc <core_bench_matrix+0x1630>
    5088:	00a50513          	addi	a0,a0,10
    508c:	00000793          	li	a5,0
    5090:	00170713          	addi	a4,a4,1
    5094:	00088f13          	mv	t5,a7
    5098:	44e6488b          	th.lrw	a7,a2,a4,2
    509c:	011787b3          	add	a5,a5,a7
    50a0:	22f952e3          	bge	s2,a5,5ac4 <core_bench_matrix+0x1618>
    50a4:	00a50313          	addi	t1,a0,10
    50a8:	00000793          	li	a5,0
    50ac:	00170713          	addi	a4,a4,1
    50b0:	3c03250b          	th.ext	a0,t1,15,0
    50b4:	7a976263          	bltu	a4,s1,5858 <core_bench_matrix+0x13ac>
    50b8:	00180813          	addi	a6,a6,1
    50bc:	01760633          	add	a2,a2,s7
    50c0:	ec9860e3          	bltu	a6,s1,4f80 <core_bench_matrix+0xad4>
    50c4:	670040ef          	jal	9734 <crc16>
    50c8:	00050593          	mv	a1,a0
    50cc:	000a0893          	mv	a7,s4
    50d0:	00000513          	li	a0,0
    50d4:	000a8313          	mv	t1,s5
    50d8:	00000e13          	li	t3,0
    50dc:	00089f83          	lh	t6,0(a7)
    50e0:	00031283          	lh	t0,0(t1)
    50e4:	fff48693          	addi	a3,s1,-1
    50e8:	00100793          	li	a5,1
    50ec:	025f8eb3          	mul	t4,t6,t0
    50f0:	0076f393          	andi	t2,a3,7
    50f4:	00830733          	add	a4,t1,s0
    50f8:	142ebd0b          	th.extu	s10,t4,5,2
    50fc:	2c5ebf0b          	th.extu	t5,t4,11,5
    5100:	03ed06b3          	mul	a3,s10,t5
    5104:	2497f463          	bgeu	a5,s1,534c <core_bench_matrix+0xea0>
    5108:	12038863          	beqz	t2,5238 <core_bench_matrix+0xd8c>
    510c:	10f38263          	beq	t2,a5,5210 <core_bench_matrix+0xd64>
    5110:	00200813          	li	a6,2
    5114:	0d038c63          	beq	t2,a6,51ec <core_bench_matrix+0xd40>
    5118:	00300613          	li	a2,3
    511c:	0ac38663          	beq	t2,a2,51c8 <core_bench_matrix+0xd1c>
    5120:	00400f93          	li	t6,4
    5124:	09f38063          	beq	t2,t6,51a4 <core_bench_matrix+0xcf8>
    5128:	00500293          	li	t0,5
    512c:	04538a63          	beq	t2,t0,5180 <core_bench_matrix+0xcd4>
    5130:	00600e93          	li	t4,6
    5134:	03d38463          	beq	t2,t4,515c <core_bench_matrix+0xcb0>
    5138:	00289383          	lh	t2,2(a7)
    513c:	20834d0b          	th.lrh	s10,t1,s0,0
    5140:	00080793          	mv	a5,a6
    5144:	00870733          	add	a4,a4,s0
    5148:	03a38f33          	mul	t5,t2,s10
    514c:	142f380b          	th.extu	a6,t5,5,2
    5150:	2c5f360b          	th.extu	a2,t5,11,5
    5154:	02c80fb3          	mul	t6,a6,a2
    5158:	01f686b3          	add	a3,a3,t6
    515c:	22f8c28b          	th.lrh	t0,a7,a5,1
    5160:	00071e83          	lh	t4,0(a4)
    5164:	00178793          	addi	a5,a5,1
    5168:	00870733          	add	a4,a4,s0
    516c:	03d283b3          	mul	t2,t0,t4
    5170:	1423bd0b          	th.extu	s10,t2,5,2
    5174:	2c53bf0b          	th.extu	t5,t2,11,5
    5178:	03ed0833          	mul	a6,s10,t5
    517c:	010686b3          	add	a3,a3,a6
    5180:	22f8c60b          	th.lrh	a2,a7,a5,1
    5184:	00071f83          	lh	t6,0(a4)
    5188:	00178793          	addi	a5,a5,1
    518c:	00870733          	add	a4,a4,s0
    5190:	03f602b3          	mul	t0,a2,t6
    5194:	1422be8b          	th.extu	t4,t0,5,2
    5198:	2c52b38b          	th.extu	t2,t0,11,5
    519c:	027e8d33          	mul	s10,t4,t2
    51a0:	01a686b3          	add	a3,a3,s10
    51a4:	22f8cf0b          	th.lrh	t5,a7,a5,1
    51a8:	00071803          	lh	a6,0(a4)
    51ac:	00178793          	addi	a5,a5,1
    51b0:	00870733          	add	a4,a4,s0
    51b4:	030f0633          	mul	a2,t5,a6
    51b8:	14263f8b          	th.extu	t6,a2,5,2
    51bc:	2c56328b          	th.extu	t0,a2,11,5
    51c0:	025f8eb3          	mul	t4,t6,t0
    51c4:	01d686b3          	add	a3,a3,t4
    51c8:	22f8c38b          	th.lrh	t2,a7,a5,1
    51cc:	00071d03          	lh	s10,0(a4)
    51d0:	00178793          	addi	a5,a5,1
    51d4:	00870733          	add	a4,a4,s0
    51d8:	03a38f33          	mul	t5,t2,s10
    51dc:	142f380b          	th.extu	a6,t5,5,2
    51e0:	2c5f360b          	th.extu	a2,t5,11,5
    51e4:	02c80fb3          	mul	t6,a6,a2
    51e8:	01f686b3          	add	a3,a3,t6
    51ec:	22f8c28b          	th.lrh	t0,a7,a5,1
    51f0:	00071e83          	lh	t4,0(a4)
    51f4:	00178793          	addi	a5,a5,1
    51f8:	00870733          	add	a4,a4,s0
    51fc:	03d283b3          	mul	t2,t0,t4
    5200:	1423bd0b          	th.extu	s10,t2,5,2
    5204:	2c53bf0b          	th.extu	t5,t2,11,5
    5208:	03ed0833          	mul	a6,s10,t5
    520c:	010686b3          	add	a3,a3,a6
    5210:	22f8c60b          	th.lrh	a2,a7,a5,1
    5214:	00071f83          	lh	t6,0(a4)
    5218:	00178793          	addi	a5,a5,1
    521c:	00870733          	add	a4,a4,s0
    5220:	03f602b3          	mul	t0,a2,t6
    5224:	1422be8b          	th.extu	t4,t0,5,2
    5228:	2c52b38b          	th.extu	t2,t0,11,5
    522c:	027e8d33          	mul	s10,t4,t2
    5230:	01a686b3          	add	a3,a3,s10
    5234:	1097fc63          	bgeu	a5,s1,534c <core_bench_matrix+0xea0>
    5238:	00071f03          	lh	t5,0(a4)
    523c:	22f8c80b          	th.lrh	a6,a7,a5,1
    5240:	00178613          	addi	a2,a5,1
    5244:	22c8ce8b          	th.lrh	t4,a7,a2,1
    5248:	03e80833          	mul	a6,a6,t5
    524c:	20874d0b          	th.lrh	s10,a4,s0,0
    5250:	00278f93          	addi	t6,a5,2
    5254:	20e423b3          	sh1add	t2,s0,a4
    5258:	23f8c28b          	th.lrh	t0,a7,t6,1
    525c:	22874f8b          	th.lrh	t6,a4,s0,1
    5260:	00378713          	addi	a4,a5,3
    5264:	22e8cf0b          	th.lrh	t5,a7,a4,1
    5268:	1428360b          	th.extu	a2,a6,5,2
    526c:	2c58380b          	th.extu	a6,a6,11,5
    5270:	03ae8d33          	mul	s10,t4,s10
    5274:	2083ce8b          	th.lrh	t4,t2,s0,0
    5278:	03060633          	mul	a2,a2,a6
    527c:	00c68633          	add	a2,a3,a2
    5280:	142d368b          	th.extu	a3,s10,5,2
    5284:	2c5d3d0b          	th.extu	s10,s10,11,5
    5288:	03f282b3          	mul	t0,t0,t6
    528c:	00478f93          	addi	t6,a5,4
    5290:	23f8c70b          	th.lrh	a4,a7,t6,1
    5294:	03a686b3          	mul	a3,a3,s10
    5298:	03df0f33          	mul	t5,t5,t4
    529c:	2283ce8b          	th.lrh	t4,t2,s0,1
    52a0:	207423b3          	sh1add	t2,s0,t2
    52a4:	2083c80b          	th.lrh	a6,t2,s0,0
    52a8:	2283cd0b          	th.lrh	s10,t2,s0,1
    52ac:	00d60633          	add	a2,a2,a3
    52b0:	00778693          	addi	a3,a5,7
    52b4:	03d70fb3          	mul	t6,a4,t4
    52b8:	00578713          	addi	a4,a5,5
    52bc:	22e8ce8b          	th.lrh	t4,a7,a4,1
    52c0:	00678713          	addi	a4,a5,6
    52c4:	00878793          	addi	a5,a5,8
    52c8:	030e8eb3          	mul	t4,t4,a6
    52cc:	22e8c80b          	th.lrh	a6,a7,a4,1
    52d0:	20742733          	sh1add	a4,s0,t2
    52d4:	1422b38b          	th.extu	t2,t0,5,2
    52d8:	2c52b28b          	th.extu	t0,t0,11,5
    52dc:	03a80833          	mul	a6,a6,s10
    52e0:	22d8cd0b          	th.lrh	s10,a7,a3,1
    52e4:	025382b3          	mul	t0,t2,t0
    52e8:	2087438b          	th.lrh	t2,a4,s0,0
    52ec:	20e42733          	sh1add	a4,s0,a4
    52f0:	027d06b3          	mul	a3,s10,t2
    52f4:	142f3d0b          	th.extu	s10,t5,5,2
    52f8:	2c5f3f0b          	th.extu	t5,t5,11,5
    52fc:	142fb38b          	th.extu	t2,t6,5,2
    5300:	2c5fbf8b          	th.extu	t6,t6,11,5
    5304:	00560633          	add	a2,a2,t0
    5308:	142eb28b          	th.extu	t0,t4,5,2
    530c:	2c5ebe8b          	th.extu	t4,t4,11,5
    5310:	03ed0d33          	mul	s10,s10,t5
    5314:	1426bf0b          	th.extu	t5,a3,5,2
    5318:	2c56b68b          	th.extu	a3,a3,11,5
    531c:	03f383b3          	mul	t2,t2,t6
    5320:	01a60633          	add	a2,a2,s10
    5324:	14283f8b          	th.extu	t6,a6,5,2
    5328:	2c58380b          	th.extu	a6,a6,11,5
    532c:	03d28d33          	mul	s10,t0,t4
    5330:	007602b3          	add	t0,a2,t2
    5334:	030f8eb3          	mul	t4,t6,a6
    5338:	01a283b3          	add	t2,t0,s10
    533c:	02df0fb3          	mul	t6,t5,a3
    5340:	01d38633          	add	a2,t2,t4
    5344:	01f606b3          	add	a3,a2,t6
    5348:	ee97e8e3          	bltu	a5,s1,5238 <core_bench_matrix+0xd8c>
    534c:	45ccd68b          	th.srw	a3,s9,t3,2
    5350:	001e0e13          	addi	t3,t3,1
    5354:	00230313          	addi	t1,t1,2
    5358:	d89e62e3          	bltu	t3,s1,50dc <core_bench_matrix+0xc30>
    535c:	00150513          	addi	a0,a0,1
    5360:	017c8cb3          	add	s9,s9,s7
    5364:	008888b3          	add	a7,a7,s0
    5368:	d69566e3          	bltu	a0,s1,50d4 <core_bench_matrix+0xc28>
    536c:	00000813          	li	a6,0
    5370:	00000793          	li	a5,0
    5374:	00000513          	li	a0,0
    5378:	00000613          	li	a2,0
    537c:	00080313          	mv	t1,a6
    5380:	000b2803          	lw	a6,0(s6)
    5384:	fff48e13          	addi	t3,s1,-1
    5388:	007e7a93          	andi	s5,t3,7
    538c:	010787b3          	add	a5,a5,a6
    5390:	70f95263          	bge	s2,a5,5a94 <core_bench_matrix+0x15e8>
    5394:	00a50f13          	addi	t5,a0,10
    5398:	00000793          	li	a5,0
    539c:	00100713          	li	a4,1
    53a0:	3c0f250b          	th.ext	a0,t5,15,0
    53a4:	10977863          	bgeu	a4,s1,54b4 <core_bench_matrix+0x1008>
    53a8:	620a8663          	beqz	s5,59d4 <core_bench_matrix+0x1528>
    53ac:	0eea8263          	beq	s5,a4,5490 <core_bench_matrix+0xfe4>
    53b0:	00200693          	li	a3,2
    53b4:	0cda8063          	beq	s5,a3,5474 <core_bench_matrix+0xfc8>
    53b8:	00300d13          	li	s10,3
    53bc:	09aa8c63          	beq	s5,s10,5454 <core_bench_matrix+0xfa8>
    53c0:	00400293          	li	t0,4
    53c4:	065a8863          	beq	s5,t0,5434 <core_bench_matrix+0xf88>
    53c8:	00500e93          	li	t4,5
    53cc:	05da8463          	beq	s5,t4,5414 <core_bench_matrix+0xf68>
    53d0:	00600393          	li	t2,6
    53d4:	027a8063          	beq	s5,t2,53f4 <core_bench_matrix+0xf48>
    53d8:	00080f93          	mv	t6,a6
    53dc:	44eb480b          	th.lrw	a6,s6,a4,2
    53e0:	010787b3          	add	a5,a5,a6
    53e4:	00f958e3          	bge	s2,a5,5bf4 <core_bench_matrix+0x1748>
    53e8:	00a50513          	addi	a0,a0,10
    53ec:	00000793          	li	a5,0
    53f0:	00170713          	addi	a4,a4,1
    53f4:	00080893          	mv	a7,a6
    53f8:	44eb480b          	th.lrw	a6,s6,a4,2
    53fc:	010787b3          	add	a5,a5,a6
    5400:	76f95c63          	bge	s2,a5,5b78 <core_bench_matrix+0x16cc>
    5404:	00a50e13          	addi	t3,a0,10
    5408:	00000793          	li	a5,0
    540c:	000e0513          	mv	a0,t3
    5410:	00170713          	addi	a4,a4,1
    5414:	00080a93          	mv	s5,a6
    5418:	44eb480b          	th.lrw	a6,s6,a4,2
    541c:	010787b3          	add	a5,a5,a6
    5420:	74f95063          	bge	s2,a5,5b60 <core_bench_matrix+0x16b4>
    5424:	00a50693          	addi	a3,a0,10
    5428:	00000793          	li	a5,0
    542c:	00068513          	mv	a0,a3
    5430:	00170713          	addi	a4,a4,1
    5434:	00080d13          	mv	s10,a6
    5438:	44eb480b          	th.lrw	a6,s6,a4,2
    543c:	010787b3          	add	a5,a5,a6
    5440:	70f95463          	bge	s2,a5,5b48 <core_bench_matrix+0x169c>
    5444:	00a50e93          	addi	t4,a0,10
    5448:	00000793          	li	a5,0
    544c:	000e8513          	mv	a0,t4
    5450:	00170713          	addi	a4,a4,1
    5454:	00080393          	mv	t2,a6
    5458:	44eb480b          	th.lrw	a6,s6,a4,2
    545c:	010787b3          	add	a5,a5,a6
    5460:	6af95663          	bge	s2,a5,5b0c <core_bench_matrix+0x1660>
    5464:	00a50c93          	addi	s9,a0,10
    5468:	00000793          	li	a5,0
    546c:	000c8513          	mv	a0,s9
    5470:	00170713          	addi	a4,a4,1
    5474:	00080893          	mv	a7,a6
    5478:	44eb480b          	th.lrw	a6,s6,a4,2
    547c:	010787b3          	add	a5,a5,a6
    5480:	66f95663          	bge	s2,a5,5aec <core_bench_matrix+0x1640>
    5484:	00a50513          	addi	a0,a0,10
    5488:	00000793          	li	a5,0
    548c:	00170713          	addi	a4,a4,1
    5490:	00080e13          	mv	t3,a6
    5494:	44eb480b          	th.lrw	a6,s6,a4,2
    5498:	010787b3          	add	a5,a5,a6
    549c:	62f95a63          	bge	s2,a5,5ad0 <core_bench_matrix+0x1624>
    54a0:	00a50f13          	addi	t5,a0,10
    54a4:	00000793          	li	a5,0
    54a8:	00170713          	addi	a4,a4,1
    54ac:	3c0f250b          	th.ext	a0,t5,15,0
    54b0:	52976263          	bltu	a4,s1,59d4 <core_bench_matrix+0x1528>
    54b4:	00160613          	addi	a2,a2,1
    54b8:	017b0b33          	add	s6,s6,s7
    54bc:	ec9660e3          	bltu	a2,s1,537c <core_bench_matrix+0xed0>
    54c0:	274040ef          	jal	9734 <crc16>
    54c4:	00000613          	li	a2,0
    54c8:	000a5583          	lhu	a1,0(s4)
    54cc:	fff48393          	addi	t2,s1,-1
    54d0:	00100793          	li	a5,1
    54d4:	41358fb3          	sub	t6,a1,s3
    54d8:	01fa1023          	sh	t6,0(s4)
    54dc:	0073fc93          	andi	s9,t2,7
    54e0:	1297f663          	bgeu	a5,s1,560c <core_bench_matrix+0x1160>
    54e4:	0a0c8263          	beqz	s9,5588 <core_bench_matrix+0x10dc>
    54e8:	08fc8663          	beq	s9,a5,5574 <core_bench_matrix+0x10c8>
    54ec:	00200893          	li	a7,2
    54f0:	071c8a63          	beq	s9,a7,5564 <core_bench_matrix+0x10b8>
    54f4:	00300313          	li	t1,3
    54f8:	046c8e63          	beq	s9,t1,5554 <core_bench_matrix+0x10a8>
    54fc:	00400e13          	li	t3,4
    5500:	05cc8263          	beq	s9,t3,5544 <core_bench_matrix+0x1098>
    5504:	00500a93          	li	s5,5
    5508:	035c8663          	beq	s9,s5,5534 <core_bench_matrix+0x1088>
    550c:	00600f13          	li	t5,6
    5510:	01ec8a63          	beq	s9,t5,5524 <core_bench_matrix+0x1078>
    5514:	002a5d03          	lhu	s10,2(s4)
    5518:	00088793          	mv	a5,a7
    551c:	413d06b3          	sub	a3,s10,s3
    5520:	00da1123          	sh	a3,2(s4)
    5524:	a2fa480b          	th.lrhu	a6,s4,a5,1
    5528:	413802b3          	sub	t0,a6,s3
    552c:	22fa528b          	th.srh	t0,s4,a5,1
    5530:	00178793          	addi	a5,a5,1
    5534:	a2fa4e8b          	th.lrhu	t4,s4,a5,1
    5538:	413e8733          	sub	a4,t4,s3
    553c:	22fa570b          	th.srh	a4,s4,a5,1
    5540:	00178793          	addi	a5,a5,1
    5544:	a2fa490b          	th.lrhu	s2,s4,a5,1
    5548:	41390bb3          	sub	s7,s2,s3
    554c:	22fa5b8b          	th.srh	s7,s4,a5,1
    5550:	00178793          	addi	a5,a5,1
    5554:	a2fa4b0b          	th.lrhu	s6,s4,a5,1
    5558:	413b05b3          	sub	a1,s6,s3
    555c:	22fa558b          	th.srh	a1,s4,a5,1
    5560:	00178793          	addi	a5,a5,1
    5564:	a2fa438b          	th.lrhu	t2,s4,a5,1
    5568:	41338fb3          	sub	t6,t2,s3
    556c:	22fa5f8b          	th.srh	t6,s4,a5,1
    5570:	00178793          	addi	a5,a5,1
    5574:	a2fa4c8b          	th.lrhu	s9,s4,a5,1
    5578:	413c88b3          	sub	a7,s9,s3
    557c:	22fa588b          	th.srh	a7,s4,a5,1
    5580:	00178793          	addi	a5,a5,1
    5584:	0897f463          	bgeu	a5,s1,560c <core_bench_matrix+0x1160>
    5588:	a2fa430b          	th.lrhu	t1,s4,a5,1
    558c:	00178e13          	addi	t3,a5,1
    5590:	00278a93          	addi	s5,a5,2
    5594:	41330f33          	sub	t5,t1,s3
    5598:	22fa5f0b          	th.srh	t5,s4,a5,1
    559c:	a3ca4d0b          	th.lrhu	s10,s4,t3,1
    55a0:	00378293          	addi	t0,a5,3
    55a4:	00478e93          	addi	t4,a5,4
    55a8:	413d06b3          	sub	a3,s10,s3
    55ac:	23ca568b          	th.srh	a3,s4,t3,1
    55b0:	a35a470b          	th.lrhu	a4,s4,s5,1
    55b4:	00578813          	addi	a6,a5,5
    55b8:	00678913          	addi	s2,a5,6
    55bc:	41370bb3          	sub	s7,a4,s3
    55c0:	235a5b8b          	th.srh	s7,s4,s5,1
    55c4:	a25a4b0b          	th.lrhu	s6,s4,t0,1
    55c8:	00778593          	addi	a1,a5,7
    55cc:	00878793          	addi	a5,a5,8
    55d0:	413b03b3          	sub	t2,s6,s3
    55d4:	225a538b          	th.srh	t2,s4,t0,1
    55d8:	a3da4f8b          	th.lrhu	t6,s4,t4,1
    55dc:	413f8cb3          	sub	s9,t6,s3
    55e0:	23da5c8b          	th.srh	s9,s4,t4,1
    55e4:	a30a488b          	th.lrhu	a7,s4,a6,1
    55e8:	41388333          	sub	t1,a7,s3
    55ec:	230a530b          	th.srh	t1,s4,a6,1
    55f0:	a32a4e0b          	th.lrhu	t3,s4,s2,1
    55f4:	413e0ab3          	sub	s5,t3,s3
    55f8:	232a5a8b          	th.srh	s5,s4,s2,1
    55fc:	a2ba4f0b          	th.lrhu	t5,s4,a1,1
    5600:	413f0d33          	sub	s10,t5,s3
    5604:	22ba5d0b          	th.srh	s10,s4,a1,1
    5608:	f897e0e3          	bltu	a5,s1,5588 <core_bench_matrix+0x10dc>
    560c:	00160613          	addi	a2,a2,1
    5610:	000c0a13          	mv	s4,s8
    5614:	58967863          	bgeu	a2,s1,5ba4 <core_bench_matrix+0x16f8>
    5618:	008c0c33          	add	s8,s8,s0
    561c:	eadff06f          	j	54c8 <core_bench_matrix+0x101c>
    5620:	00170713          	addi	a4,a4,1
    5624:	44e64e8b          	th.lrw	t4,a2,a4,2
    5628:	01c8a8b3          	slt	a7,a7,t3
    562c:	011506b3          	add	a3,a0,a7
    5630:	01d78fb3          	add	t6,a5,t4
    5634:	0df95663          	bge	s2,t6,5700 <core_bench_matrix+0x1254>
    5638:	00170513          	addi	a0,a4,1
    563c:	44a6438b          	th.lrw	t2,a2,a0,2
    5640:	00000f93          	li	t6,0
    5644:	00a68f13          	addi	t5,a3,10
    5648:	007f82b3          	add	t0,t6,t2
    564c:	0c595663          	bge	s2,t0,5718 <core_bench_matrix+0x126c>
    5650:	00270893          	addi	a7,a4,2
    5654:	45164e8b          	th.lrw	t4,a2,a7,2
    5658:	00000293          	li	t0,0
    565c:	00af0e13          	addi	t3,t5,10
    5660:	01d287b3          	add	a5,t0,t4
    5664:	0cf95663          	bge	s2,a5,5730 <core_bench_matrix+0x1284>
    5668:	00370313          	addi	t1,a4,3
    566c:	44664f0b          	th.lrw	t5,a2,t1,2
    5670:	00000793          	li	a5,0
    5674:	00ae0f93          	addi	t6,t3,10
    5678:	01e78533          	add	a0,a5,t5
    567c:	0ca95663          	bge	s2,a0,5748 <core_bench_matrix+0x129c>
    5680:	00470d13          	addi	s10,a4,4
    5684:	45a64e0b          	th.lrw	t3,a2,s10,2
    5688:	00000513          	li	a0,0
    568c:	00af8293          	addi	t0,t6,10
    5690:	01c508b3          	add	a7,a0,t3
    5694:	0d195663          	bge	s2,a7,5760 <core_bench_matrix+0x12b4>
    5698:	00570793          	addi	a5,a4,5
    569c:	44f64f8b          	th.lrw	t6,a2,a5,2
    56a0:	00000893          	li	a7,0
    56a4:	00a28693          	addi	a3,t0,10
    56a8:	01f88333          	add	t1,a7,t6
    56ac:	0c695663          	bge	s2,t1,5778 <core_bench_matrix+0x12cc>
    56b0:	00670513          	addi	a0,a4,6
    56b4:	44a6488b          	th.lrw	a7,a2,a0,2
    56b8:	00000313          	li	t1,0
    56bc:	00a68393          	addi	t2,a3,10
    56c0:	011307b3          	add	a5,t1,a7
    56c4:	0cf95663          	bge	s2,a5,5790 <core_bench_matrix+0x12e4>
    56c8:	00a38d13          	addi	s10,t2,10
    56cc:	00000793          	li	a5,0
    56d0:	00770713          	addi	a4,a4,7
    56d4:	3c0d250b          	th.ext	a0,s10,15,0
    56d8:	e8977e63          	bgeu	a4,s1,4d74 <core_bench_matrix+0x8c8>
    56dc:	44e64e0b          	th.lrw	t3,a2,a4,2
    56e0:	01c787b3          	add	a5,a5,t3
    56e4:	f2f95ee3          	bge	s2,a5,5620 <core_bench_matrix+0x1174>
    56e8:	00170713          	addi	a4,a4,1
    56ec:	44e64e8b          	th.lrw	t4,a2,a4,2
    56f0:	00000793          	li	a5,0
    56f4:	00a50693          	addi	a3,a0,10
    56f8:	01d78fb3          	add	t6,a5,t4
    56fc:	f3f94ee3          	blt	s2,t6,5638 <core_bench_matrix+0x118c>
    5700:	00170513          	addi	a0,a4,1
    5704:	44a6438b          	th.lrw	t2,a2,a0,2
    5708:	01de2333          	slt	t1,t3,t4
    570c:	00668f33          	add	t5,a3,t1
    5710:	007f82b3          	add	t0,t6,t2
    5714:	f2594ee3          	blt	s2,t0,5650 <core_bench_matrix+0x11a4>
    5718:	00270893          	addi	a7,a4,2
    571c:	007ead33          	slt	s10,t4,t2
    5720:	45164e8b          	th.lrw	t4,a2,a7,2
    5724:	01af0e33          	add	t3,t5,s10
    5728:	01d287b3          	add	a5,t0,t4
    572c:	f2f94ee3          	blt	s2,a5,5668 <core_bench_matrix+0x11bc>
    5730:	00370313          	addi	t1,a4,3
    5734:	44664f0b          	th.lrw	t5,a2,t1,2
    5738:	01d3a6b3          	slt	a3,t2,t4
    573c:	00de0fb3          	add	t6,t3,a3
    5740:	01e78533          	add	a0,a5,t5
    5744:	f2a94ee3          	blt	s2,a0,5680 <core_bench_matrix+0x11d4>
    5748:	00470d13          	addi	s10,a4,4
    574c:	45a64e0b          	th.lrw	t3,a2,s10,2
    5750:	01eea3b3          	slt	t2,t4,t5
    5754:	007f82b3          	add	t0,t6,t2
    5758:	01c508b3          	add	a7,a0,t3
    575c:	f3194ee3          	blt	s2,a7,5698 <core_bench_matrix+0x11ec>
    5760:	00570793          	addi	a5,a4,5
    5764:	44f64f8b          	th.lrw	t6,a2,a5,2
    5768:	01cf2eb3          	slt	t4,t5,t3
    576c:	01d286b3          	add	a3,t0,t4
    5770:	01f88333          	add	t1,a7,t6
    5774:	f2694ee3          	blt	s2,t1,56b0 <core_bench_matrix+0x1204>
    5778:	00670513          	addi	a0,a4,6
    577c:	44a6488b          	th.lrw	a7,a2,a0,2
    5780:	01fe2f33          	slt	t5,t3,t6
    5784:	01e683b3          	add	t2,a3,t5
    5788:	011307b3          	add	a5,t1,a7
    578c:	f2f94ee3          	blt	s2,a5,56c8 <core_bench_matrix+0x121c>
    5790:	011fa2b3          	slt	t0,t6,a7
    5794:	00538d33          	add	s10,t2,t0
    5798:	f39ff06f          	j	56d0 <core_bench_matrix+0x1224>
    579c:	00170713          	addi	a4,a4,1
    57a0:	44e6428b          	th.lrw	t0,a2,a4,2
    57a4:	01f8a8b3          	slt	a7,a7,t6
    57a8:	011506b3          	add	a3,a0,a7
    57ac:	00578eb3          	add	t4,a5,t0
    57b0:	0dd95663          	bge	s2,t4,587c <core_bench_matrix+0x13d0>
    57b4:	00170513          	addi	a0,a4,1
    57b8:	44a64f0b          	th.lrw	t5,a2,a0,2
    57bc:	00000e93          	li	t4,0
    57c0:	00a68d13          	addi	s10,a3,10
    57c4:	01ee8e33          	add	t3,t4,t5
    57c8:	0dc95663          	bge	s2,t3,5894 <core_bench_matrix+0x13e8>
    57cc:	00270893          	addi	a7,a4,2
    57d0:	4516428b          	th.lrw	t0,a2,a7,2
    57d4:	00000e13          	li	t3,0
    57d8:	00ad0f93          	addi	t6,s10,10
    57dc:	005e07b3          	add	a5,t3,t0
    57e0:	0cf95663          	bge	s2,a5,58ac <core_bench_matrix+0x1400>
    57e4:	00370393          	addi	t2,a4,3
    57e8:	44764d0b          	th.lrw	s10,a2,t2,2
    57ec:	00000793          	li	a5,0
    57f0:	00af8e93          	addi	t4,t6,10
    57f4:	01a78533          	add	a0,a5,s10
    57f8:	0ca95663          	bge	s2,a0,58c4 <core_bench_matrix+0x1418>
    57fc:	00470313          	addi	t1,a4,4
    5800:	44664f8b          	th.lrw	t6,a2,t1,2
    5804:	00000513          	li	a0,0
    5808:	00ae8e13          	addi	t3,t4,10
    580c:	01f508b3          	add	a7,a0,t6
    5810:	0d195663          	bge	s2,a7,58dc <core_bench_matrix+0x1430>
    5814:	00570793          	addi	a5,a4,5
    5818:	44f64e8b          	th.lrw	t4,a2,a5,2
    581c:	00000893          	li	a7,0
    5820:	00ae0693          	addi	a3,t3,10
    5824:	01d883b3          	add	t2,a7,t4
    5828:	0c795663          	bge	s2,t2,58f4 <core_bench_matrix+0x1448>
    582c:	00670513          	addi	a0,a4,6
    5830:	44a6488b          	th.lrw	a7,a2,a0,2
    5834:	00000393          	li	t2,0
    5838:	00a68f13          	addi	t5,a3,10
    583c:	011387b3          	add	a5,t2,a7
    5840:	0cf95663          	bge	s2,a5,590c <core_bench_matrix+0x1460>
    5844:	00af0313          	addi	t1,t5,10
    5848:	00000793          	li	a5,0
    584c:	00770713          	addi	a4,a4,7
    5850:	3c03250b          	th.ext	a0,t1,15,0
    5854:	869772e3          	bgeu	a4,s1,50b8 <core_bench_matrix+0xc0c>
    5858:	44e64f8b          	th.lrw	t6,a2,a4,2
    585c:	01f787b3          	add	a5,a5,t6
    5860:	f2f95ee3          	bge	s2,a5,579c <core_bench_matrix+0x12f0>
    5864:	00170713          	addi	a4,a4,1
    5868:	44e6428b          	th.lrw	t0,a2,a4,2
    586c:	00000793          	li	a5,0
    5870:	00a50693          	addi	a3,a0,10
    5874:	00578eb3          	add	t4,a5,t0
    5878:	f3d94ee3          	blt	s2,t4,57b4 <core_bench_matrix+0x1308>
    587c:	00170513          	addi	a0,a4,1
    5880:	44a64f0b          	th.lrw	t5,a2,a0,2
    5884:	005fa3b3          	slt	t2,t6,t0
    5888:	00768d33          	add	s10,a3,t2
    588c:	01ee8e33          	add	t3,t4,t5
    5890:	f3c94ee3          	blt	s2,t3,57cc <core_bench_matrix+0x1320>
    5894:	00270893          	addi	a7,a4,2
    5898:	01e2a333          	slt	t1,t0,t5
    589c:	4516428b          	th.lrw	t0,a2,a7,2
    58a0:	006d0fb3          	add	t6,s10,t1
    58a4:	005e07b3          	add	a5,t3,t0
    58a8:	f2f94ee3          	blt	s2,a5,57e4 <core_bench_matrix+0x1338>
    58ac:	00370393          	addi	t2,a4,3
    58b0:	44764d0b          	th.lrw	s10,a2,t2,2
    58b4:	005f26b3          	slt	a3,t5,t0
    58b8:	00df8eb3          	add	t4,t6,a3
    58bc:	01a78533          	add	a0,a5,s10
    58c0:	f2a94ee3          	blt	s2,a0,57fc <core_bench_matrix+0x1350>
    58c4:	00470313          	addi	t1,a4,4
    58c8:	44664f8b          	th.lrw	t6,a2,t1,2
    58cc:	01a2af33          	slt	t5,t0,s10
    58d0:	01ee8e33          	add	t3,t4,t5
    58d4:	01f508b3          	add	a7,a0,t6
    58d8:	f3194ee3          	blt	s2,a7,5814 <core_bench_matrix+0x1368>
    58dc:	00570793          	addi	a5,a4,5
    58e0:	44f64e8b          	th.lrw	t4,a2,a5,2
    58e4:	01fd22b3          	slt	t0,s10,t6
    58e8:	005e06b3          	add	a3,t3,t0
    58ec:	01d883b3          	add	t2,a7,t4
    58f0:	f2794ee3          	blt	s2,t2,582c <core_bench_matrix+0x1380>
    58f4:	00670513          	addi	a0,a4,6
    58f8:	44a6488b          	th.lrw	a7,a2,a0,2
    58fc:	01dfad33          	slt	s10,t6,t4
    5900:	01a68f33          	add	t5,a3,s10
    5904:	011387b3          	add	a5,t2,a7
    5908:	f2f94ee3          	blt	s2,a5,5844 <core_bench_matrix+0x1398>
    590c:	011eae33          	slt	t3,t4,a7
    5910:	01cf0333          	add	t1,t5,t3
    5914:	f39ff06f          	j	584c <core_bench_matrix+0x13a0>
    5918:	00170713          	addi	a4,a4,1
    591c:	44eb428b          	th.lrw	t0,s6,a4,2
    5920:	01a82833          	slt	a6,a6,s10
    5924:	010506b3          	add	a3,a0,a6
    5928:	00578eb3          	add	t4,a5,t0
    592c:	0dd95663          	bge	s2,t4,59f8 <core_bench_matrix+0x154c>
    5930:	00170c93          	addi	s9,a4,1
    5934:	459b488b          	th.lrw	a7,s6,s9,2
    5938:	00000e93          	li	t4,0
    593c:	00a68f93          	addi	t6,a3,10
    5940:	011e8333          	add	t1,t4,a7
    5944:	0c695663          	bge	s2,t1,5a10 <core_bench_matrix+0x1564>
    5948:	00270a93          	addi	s5,a4,2
    594c:	455b4f0b          	th.lrw	t5,s6,s5,2
    5950:	00000313          	li	t1,0
    5954:	00af8e13          	addi	t3,t6,10
    5958:	01e30d33          	add	s10,t1,t5
    595c:	0da95663          	bge	s2,s10,5a28 <core_bench_matrix+0x157c>
    5960:	00370793          	addi	a5,a4,3
    5964:	44fb428b          	th.lrw	t0,s6,a5,2
    5968:	00000d13          	li	s10,0
    596c:	00ae0693          	addi	a3,t3,10
    5970:	005d0eb3          	add	t4,s10,t0
    5974:	0dd95663          	bge	s2,t4,5a40 <core_bench_matrix+0x1594>
    5978:	00470c93          	addi	s9,a4,4
    597c:	459b488b          	th.lrw	a7,s6,s9,2
    5980:	00000e93          	li	t4,0
    5984:	00a68f93          	addi	t6,a3,10
    5988:	011e8333          	add	t1,t4,a7
    598c:	0c695663          	bge	s2,t1,5a58 <core_bench_matrix+0x15ac>
    5990:	00570a93          	addi	s5,a4,5
    5994:	455b4f0b          	th.lrw	t5,s6,s5,2
    5998:	00000313          	li	t1,0
    599c:	00af8e13          	addi	t3,t6,10
    59a0:	01e30d33          	add	s10,t1,t5
    59a4:	0da95663          	bge	s2,s10,5a70 <core_bench_matrix+0x15c4>
    59a8:	00670793          	addi	a5,a4,6
    59ac:	44fb480b          	th.lrw	a6,s6,a5,2
    59b0:	00000d13          	li	s10,0
    59b4:	00ae0693          	addi	a3,t3,10
    59b8:	010d07b3          	add	a5,s10,a6
    59bc:	0cf95663          	bge	s2,a5,5a88 <core_bench_matrix+0x15dc>
    59c0:	00a68e93          	addi	t4,a3,10
    59c4:	00000793          	li	a5,0
    59c8:	00770713          	addi	a4,a4,7
    59cc:	3c0ea50b          	th.ext	a0,t4,15,0
    59d0:	ae9772e3          	bgeu	a4,s1,54b4 <core_bench_matrix+0x1008>
    59d4:	44eb4d0b          	th.lrw	s10,s6,a4,2
    59d8:	01a787b3          	add	a5,a5,s10
    59dc:	f2f95ee3          	bge	s2,a5,5918 <core_bench_matrix+0x146c>
    59e0:	00170713          	addi	a4,a4,1
    59e4:	44eb428b          	th.lrw	t0,s6,a4,2
    59e8:	00000793          	li	a5,0
    59ec:	00a50693          	addi	a3,a0,10
    59f0:	00578eb3          	add	t4,a5,t0
    59f4:	f3d94ee3          	blt	s2,t4,5930 <core_bench_matrix+0x1484>
    59f8:	00170c93          	addi	s9,a4,1
    59fc:	459b488b          	th.lrw	a7,s6,s9,2
    5a00:	005d23b3          	slt	t2,s10,t0
    5a04:	00768fb3          	add	t6,a3,t2
    5a08:	011e8333          	add	t1,t4,a7
    5a0c:	f2694ee3          	blt	s2,t1,5948 <core_bench_matrix+0x149c>
    5a10:	00270a93          	addi	s5,a4,2
    5a14:	455b4f0b          	th.lrw	t5,s6,s5,2
    5a18:	0112a533          	slt	a0,t0,a7
    5a1c:	00af8e33          	add	t3,t6,a0
    5a20:	01e30d33          	add	s10,t1,t5
    5a24:	f3a94ee3          	blt	s2,s10,5960 <core_bench_matrix+0x14b4>
    5a28:	00370793          	addi	a5,a4,3
    5a2c:	44fb428b          	th.lrw	t0,s6,a5,2
    5a30:	01e8a833          	slt	a6,a7,t5
    5a34:	010e06b3          	add	a3,t3,a6
    5a38:	005d0eb3          	add	t4,s10,t0
    5a3c:	f3d94ee3          	blt	s2,t4,5978 <core_bench_matrix+0x14cc>
    5a40:	00470c93          	addi	s9,a4,4
    5a44:	459b488b          	th.lrw	a7,s6,s9,2
    5a48:	005f23b3          	slt	t2,t5,t0
    5a4c:	00768fb3          	add	t6,a3,t2
    5a50:	011e8333          	add	t1,t4,a7
    5a54:	f2694ee3          	blt	s2,t1,5990 <core_bench_matrix+0x14e4>
    5a58:	00570a93          	addi	s5,a4,5
    5a5c:	455b4f0b          	th.lrw	t5,s6,s5,2
    5a60:	0112a533          	slt	a0,t0,a7
    5a64:	00af8e33          	add	t3,t6,a0
    5a68:	01e30d33          	add	s10,t1,t5
    5a6c:	f3a94ee3          	blt	s2,s10,59a8 <core_bench_matrix+0x14fc>
    5a70:	01e8a833          	slt	a6,a7,t5
    5a74:	00670793          	addi	a5,a4,6
    5a78:	010e06b3          	add	a3,t3,a6
    5a7c:	44fb480b          	th.lrw	a6,s6,a5,2
    5a80:	010d07b3          	add	a5,s10,a6
    5a84:	f2f94ee3          	blt	s2,a5,59c0 <core_bench_matrix+0x1514>
    5a88:	010f22b3          	slt	t0,t5,a6
    5a8c:	00568eb3          	add	t4,a3,t0
    5a90:	f39ff06f          	j	59c8 <core_bench_matrix+0x151c>
    5a94:	01032733          	slt	a4,t1,a6
    5a98:	00e50f33          	add	t5,a0,a4
    5a9c:	901ff06f          	j	539c <core_bench_matrix+0xef0>
    5aa0:	011d2eb3          	slt	t4,s10,a7
    5aa4:	01d50533          	add	a0,a0,t4
    5aa8:	9b4ff06f          	j	4c5c <core_bench_matrix+0x7b0>
    5aac:	011722b3          	slt	t0,a4,a7
    5ab0:	00550533          	add	a0,a0,t0
    5ab4:	cecff06f          	j	4fa0 <core_bench_matrix+0xaf4>
    5ab8:	0113a2b3          	slt	t0,t2,a7
    5abc:	00550d33          	add	s10,a0,t0
    5ac0:	aa8ff06f          	j	4d68 <core_bench_matrix+0x8bc>
    5ac4:	011f2e33          	slt	t3,t5,a7
    5ac8:	01c50333          	add	t1,a0,t3
    5acc:	de0ff06f          	j	50ac <core_bench_matrix+0xc00>
    5ad0:	010e2ab3          	slt	s5,t3,a6
    5ad4:	01550f33          	add	t5,a0,s5
    5ad8:	9d1ff06f          	j	54a8 <core_bench_matrix+0xffc>
    5adc:	0113ad33          	slt	s10,t2,a7
    5ae0:	01a50533          	add	a0,a0,s10
    5ae4:	00170713          	addi	a4,a4,1
    5ae8:	dacff06f          	j	5094 <core_bench_matrix+0xbe8>
    5aec:	0108a333          	slt	t1,a7,a6
    5af0:	00650533          	add	a0,a0,t1
    5af4:	00170713          	addi	a4,a4,1
    5af8:	999ff06f          	j	5490 <core_bench_matrix+0xfe4>
    5afc:	011faf33          	slt	t5,t6,a7
    5b00:	01e50533          	add	a0,a0,t5
    5b04:	00170713          	addi	a4,a4,1
    5b08:	a48ff06f          	j	4d50 <core_bench_matrix+0x8a4>
    5b0c:	0103afb3          	slt	t6,t2,a6
    5b10:	01f50cb3          	add	s9,a0,t6
    5b14:	959ff06f          	j	546c <core_bench_matrix+0xfc0>
    5b18:	0116aeb3          	slt	t4,a3,a7
    5b1c:	01d50333          	add	t1,a0,t4
    5b20:	a0cff06f          	j	4d2c <core_bench_matrix+0x880>
    5b24:	011fa2b3          	slt	t0,t6,a7
    5b28:	00550eb3          	add	t4,a0,t0
    5b2c:	d44ff06f          	j	5070 <core_bench_matrix+0xbc4>
    5b30:	011e2333          	slt	t1,t3,a7
    5b34:	006506b3          	add	a3,a0,t1
    5b38:	d18ff06f          	j	5050 <core_bench_matrix+0xba4>
    5b3c:	0112ad33          	slt	s10,t0,a7
    5b40:	01a50e33          	add	t3,a0,s10
    5b44:	9c8ff06f          	j	4d0c <core_bench_matrix+0x860>
    5b48:	010d22b3          	slt	t0,s10,a6
    5b4c:	00550eb3          	add	t4,a0,t0
    5b50:	8fdff06f          	j	544c <core_bench_matrix+0xfa0>
    5b54:	011faf33          	slt	t5,t6,a7
    5b58:	01e503b3          	add	t2,a0,t5
    5b5c:	990ff06f          	j	4cec <core_bench_matrix+0x840>
    5b60:	010aaf33          	slt	t5,s5,a6
    5b64:	01e506b3          	add	a3,a0,t5
    5b68:	8c5ff06f          	j	542c <core_bench_matrix+0xf80>
    5b6c:	0113ad33          	slt	s10,t2,a7
    5b70:	01a50f33          	add	t5,a0,s10
    5b74:	cbcff06f          	j	5030 <core_bench_matrix+0xb84>
    5b78:	0108a333          	slt	t1,a7,a6
    5b7c:	00650e33          	add	t3,a0,t1
    5b80:	88dff06f          	j	540c <core_bench_matrix+0xf60>
    5b84:	0112aeb3          	slt	t4,t0,a7
    5b88:	01d50533          	add	a0,a0,t4
    5b8c:	00170713          	addi	a4,a4,1
    5b90:	c88ff06f          	j	5018 <core_bench_matrix+0xb6c>
    5b94:	011ea333          	slt	t1,t4,a7
    5b98:	00650533          	add	a0,a0,t1
    5b9c:	00170713          	addi	a4,a4,1
    5ba0:	934ff06f          	j	4cd4 <core_bench_matrix+0x828>
    5ba4:	03812403          	lw	s0,56(sp)
    5ba8:	03412483          	lw	s1,52(sp)
    5bac:	03012903          	lw	s2,48(sp)
    5bb0:	02c12983          	lw	s3,44(sp)
    5bb4:	02812a03          	lw	s4,40(sp)
    5bb8:	02412a83          	lw	s5,36(sp)
    5bbc:	02012b03          	lw	s6,32(sp)
    5bc0:	01c12b83          	lw	s7,28(sp)
    5bc4:	01812c03          	lw	s8,24(sp)
    5bc8:	01412c83          	lw	s9,20(sp)
    5bcc:	01012d03          	lw	s10,16(sp)
    5bd0:	03c12083          	lw	ra,60(sp)
    5bd4:	000d8593          	mv	a1,s11
    5bd8:	00c12d83          	lw	s11,12(sp)
    5bdc:	3c05250b          	th.ext	a0,a0,15,0
    5be0:	04010113          	addi	sp,sp,64
    5be4:	3510306f          	j	9734 <crc16>
    5be8:	0103aeb3          	slt	t4,t2,a6
    5bec:	01d50533          	add	a0,a0,t4
    5bf0:	c39fe06f          	j	4828 <core_bench_matrix+0x37c>
    5bf4:	010facb3          	slt	s9,t6,a6
    5bf8:	01950533          	add	a0,a0,s9
    5bfc:	00170713          	addi	a4,a4,1
    5c00:	ff4ff06f          	j	53f4 <core_bench_matrix+0xf48>
    5c04:	00a50f93          	addi	t6,a0,10
    5c08:	00000793          	li	a5,0
    5c0c:	be8ff06f          	j	4ff4 <core_bench_matrix+0xb48>
    5c10:	00a50693          	addi	a3,a0,10
    5c14:	00000793          	li	a5,0
    5c18:	898ff06f          	j	4cb0 <core_bench_matrix+0x804>
    5c1c:	00000593          	li	a1,0
    5c20:	00000513          	li	a0,0
    5c24:	311030ef          	jal	9734 <crc16>
    5c28:	00050593          	mv	a1,a0
    5c2c:	00000513          	li	a0,0
    5c30:	305030ef          	jal	9734 <crc16>
    5c34:	00050593          	mv	a1,a0
    5c38:	00000513          	li	a0,0
    5c3c:	2f9030ef          	jal	9734 <crc16>
    5c40:	00050593          	mv	a1,a0
    5c44:	00000513          	li	a0,0
    5c48:	2ed030ef          	jal	9734 <crc16>
    5c4c:	03c12083          	lw	ra,60(sp)
    5c50:	000d8593          	mv	a1,s11
    5c54:	00c12d83          	lw	s11,12(sp)
    5c58:	3c05250b          	th.ext	a0,a0,15,0
    5c5c:	04010113          	addi	sp,sp,64
    5c60:	2d50306f          	j	9734 <crc16>

00005c64 <matrix_test>:
    5c64:	fc010113          	addi	sp,sp,-64
    5c68:	02112e23          	sw	ra,60(sp)
    5c6c:	00051463          	bnez	a0,5c74 <matrix_test+0x10>
    5c70:	74c0106f          	j	73bc <matrix_test+0x1758>
    5c74:	03212823          	sw	s2,48(sp)
    5c78:	fffff937          	lui	s2,0xfffff
    5c7c:	02812c23          	sw	s0,56(sp)
    5c80:	03312623          	sw	s3,44(sp)
    5c84:	03412423          	sw	s4,40(sp)
    5c88:	03512223          	sw	s5,36(sp)
    5c8c:	01812c23          	sw	s8,24(sp)
    5c90:	01912a23          	sw	s9,20(sp)
    5c94:	01a12823          	sw	s10,16(sp)
    5c98:	00068a93          	mv	s5,a3
    5c9c:	02912a23          	sw	s1,52(sp)
    5ca0:	03612023          	sw	s6,32(sp)
    5ca4:	01712e23          	sw	s7,28(sp)
    5ca8:	01b12623          	sw	s11,12(sp)
    5cac:	00058c93          	mv	s9,a1
    5cb0:	00060c13          	mv	s8,a2
    5cb4:	00070993          	mv	s3,a4
    5cb8:	01276933          	or	s2,a4,s2
    5cbc:	00151413          	slli	s0,a0,0x1
    5cc0:	00060a13          	mv	s4,a2
    5cc4:	20c526b3          	sh1add	a3,a0,a2
    5cc8:	00000d13          	li	s10,0
    5ccc:	ffe40713          	addi	a4,s0,-2
    5cd0:	00175293          	srli	t0,a4,0x1
    5cd4:	00128313          	addi	t1,t0,1
    5cd8:	00737393          	andi	t2,t1,7
    5cdc:	408687b3          	sub	a5,a3,s0
    5ce0:	0a038463          	beqz	t2,5d88 <matrix_test+0x124>
    5ce4:	00100613          	li	a2,1
    5ce8:	08c38663          	beq	t2,a2,5d74 <matrix_test+0x110>
    5cec:	00200493          	li	s1,2
    5cf0:	06938a63          	beq	t2,s1,5d64 <matrix_test+0x100>
    5cf4:	00300593          	li	a1,3
    5cf8:	04b38e63          	beq	t2,a1,5d54 <matrix_test+0xf0>
    5cfc:	00400813          	li	a6,4
    5d00:	05038263          	beq	t2,a6,5d44 <matrix_test+0xe0>
    5d04:	00500893          	li	a7,5
    5d08:	03138663          	beq	t2,a7,5d34 <matrix_test+0xd0>
    5d0c:	00600b13          	li	s6,6
    5d10:	01638a63          	beq	t2,s6,5d24 <matrix_test+0xc0>
    5d14:	0007db83          	lhu	s7,0(a5)
    5d18:	00278793          	addi	a5,a5,2
    5d1c:	01798db3          	add	s11,s3,s7
    5d20:	ffb79f23          	sh	s11,-2(a5)
    5d24:	0007de03          	lhu	t3,0(a5)
    5d28:	00278793          	addi	a5,a5,2
    5d2c:	01c98eb3          	add	t4,s3,t3
    5d30:	ffd79f23          	sh	t4,-2(a5)
    5d34:	0007df03          	lhu	t5,0(a5)
    5d38:	00278793          	addi	a5,a5,2
    5d3c:	01e98fb3          	add	t6,s3,t5
    5d40:	fff79f23          	sh	t6,-2(a5)
    5d44:	0007d703          	lhu	a4,0(a5)
    5d48:	00278793          	addi	a5,a5,2
    5d4c:	00e982b3          	add	t0,s3,a4
    5d50:	fe579f23          	sh	t0,-2(a5)
    5d54:	0007d303          	lhu	t1,0(a5)
    5d58:	00278793          	addi	a5,a5,2
    5d5c:	006983b3          	add	t2,s3,t1
    5d60:	fe779f23          	sh	t2,-2(a5)
    5d64:	0007d603          	lhu	a2,0(a5)
    5d68:	00278793          	addi	a5,a5,2
    5d6c:	00c984b3          	add	s1,s3,a2
    5d70:	fe979f23          	sh	s1,-2(a5)
    5d74:	0007d583          	lhu	a1,0(a5)
    5d78:	00278793          	addi	a5,a5,2
    5d7c:	00b98833          	add	a6,s3,a1
    5d80:	ff079f23          	sh	a6,-2(a5)
    5d84:	06f68663          	beq	a3,a5,5df0 <matrix_test+0x18c>
    5d88:	0007db03          	lhu	s6,0(a5)
    5d8c:	0027db83          	lhu	s7,2(a5)
    5d90:	0047dd83          	lhu	s11,4(a5)
    5d94:	0067d883          	lhu	a7,6(a5)
    5d98:	0087df03          	lhu	t5,8(a5)
    5d9c:	00a7df83          	lhu	t6,10(a5)
    5da0:	00c7d283          	lhu	t0,12(a5)
    5da4:	00e7d703          	lhu	a4,14(a5)
    5da8:	01698eb3          	add	t4,s3,s6
    5dac:	01798e33          	add	t3,s3,s7
    5db0:	01b98333          	add	t1,s3,s11
    5db4:	011983b3          	add	t2,s3,a7
    5db8:	01e984b3          	add	s1,s3,t5
    5dbc:	01f985b3          	add	a1,s3,t6
    5dc0:	00598633          	add	a2,s3,t0
    5dc4:	00e98833          	add	a6,s3,a4
    5dc8:	01d79023          	sh	t4,0(a5)
    5dcc:	01c79123          	sh	t3,2(a5)
    5dd0:	00679223          	sh	t1,4(a5)
    5dd4:	00779323          	sh	t2,6(a5)
    5dd8:	00979423          	sh	s1,8(a5)
    5ddc:	00b79523          	sh	a1,10(a5)
    5de0:	00c79623          	sh	a2,12(a5)
    5de4:	01079723          	sh	a6,14(a5)
    5de8:	01078793          	addi	a5,a5,16
    5dec:	f8f69ee3          	bne	a3,a5,5d88 <matrix_test+0x124>
    5df0:	001d0493          	addi	s1,s10,1
    5df4:	008686b3          	add	a3,a3,s0
    5df8:	00950663          	beq	a0,s1,5e04 <matrix_test+0x1a0>
    5dfc:	00048d13          	mv	s10,s1
    5e00:	ecdff06f          	j	5ccc <matrix_test+0x68>
    5e04:	00249b93          	slli	s7,s1,0x2
    5e08:	000c8b13          	mv	s6,s9
    5e0c:	000c8693          	mv	a3,s9
    5e10:	000c0713          	mv	a4,s8
    5e14:	00000313          	li	t1,0
    5e18:	0074fd93          	andi	s11,s1,7
    5e1c:	00000793          	li	a5,0
    5e20:	0a0d8463          	beqz	s11,5ec8 <matrix_test+0x264>
    5e24:	00100893          	li	a7,1
    5e28:	091d8663          	beq	s11,a7,5eb4 <matrix_test+0x250>
    5e2c:	00200513          	li	a0,2
    5e30:	06ad8a63          	beq	s11,a0,5ea4 <matrix_test+0x240>
    5e34:	00300f13          	li	t5,3
    5e38:	05ed8e63          	beq	s11,t5,5e94 <matrix_test+0x230>
    5e3c:	00400f93          	li	t6,4
    5e40:	05fd8263          	beq	s11,t6,5e84 <matrix_test+0x220>
    5e44:	00500293          	li	t0,5
    5e48:	025d8663          	beq	s11,t0,5e74 <matrix_test+0x210>
    5e4c:	00600e93          	li	t4,6
    5e50:	01dd8a63          	beq	s11,t4,5e64 <matrix_test+0x200>
    5e54:	00071e03          	lh	t3,0(a4)
    5e58:	00088793          	mv	a5,a7
    5e5c:	033e03b3          	mul	t2,t3,s3
    5e60:	0076a023          	sw	t2,0(a3)
    5e64:	22f7458b          	th.lrh	a1,a4,a5,1
    5e68:	03358633          	mul	a2,a1,s3
    5e6c:	44f6d60b          	th.srw	a2,a3,a5,2
    5e70:	00178793          	addi	a5,a5,1
    5e74:	22f7480b          	th.lrh	a6,a4,a5,1
    5e78:	03380db3          	mul	s11,a6,s3
    5e7c:	44f6dd8b          	th.srw	s11,a3,a5,2
    5e80:	00178793          	addi	a5,a5,1
    5e84:	22f7488b          	th.lrh	a7,a4,a5,1
    5e88:	03388533          	mul	a0,a7,s3
    5e8c:	44f6d50b          	th.srw	a0,a3,a5,2
    5e90:	00178793          	addi	a5,a5,1
    5e94:	22f74f0b          	th.lrh	t5,a4,a5,1
    5e98:	033f0fb3          	mul	t6,t5,s3
    5e9c:	44f6df8b          	th.srw	t6,a3,a5,2
    5ea0:	00178793          	addi	a5,a5,1
    5ea4:	22f7428b          	th.lrh	t0,a4,a5,1
    5ea8:	03328eb3          	mul	t4,t0,s3
    5eac:	44f6de8b          	th.srw	t4,a3,a5,2
    5eb0:	00178793          	addi	a5,a5,1
    5eb4:	22f74e0b          	th.lrh	t3,a4,a5,1
    5eb8:	033e03b3          	mul	t2,t3,s3
    5ebc:	44f6d38b          	th.srw	t2,a3,a5,2
    5ec0:	00178793          	addi	a5,a5,1
    5ec4:	08978463          	beq	a5,s1,5f4c <matrix_test+0x2e8>
    5ec8:	22f7480b          	th.lrh	a6,a4,a5,1
    5ecc:	00178d93          	addi	s11,a5,1
    5ed0:	23b7458b          	th.lrh	a1,a4,s11,1
    5ed4:	03380eb3          	mul	t4,a6,s3
    5ed8:	00278393          	addi	t2,a5,2
    5edc:	2277460b          	th.lrh	a2,a4,t2,1
    5ee0:	00378293          	addi	t0,a5,3
    5ee4:	00478f93          	addi	t6,a5,4
    5ee8:	00578f13          	addi	t5,a5,5
    5eec:	2257488b          	th.lrh	a7,a4,t0,1
    5ef0:	23f7480b          	th.lrh	a6,a4,t6,1
    5ef4:	23e7450b          	th.lrh	a0,a4,t5,1
    5ef8:	03358e33          	mul	t3,a1,s3
    5efc:	44f6de8b          	th.srw	t4,a3,a5,2
    5f00:	00678e93          	addi	t4,a5,6
    5f04:	23d7458b          	th.lrh	a1,a4,t4,1
    5f08:	45b6de0b          	th.srw	t3,a3,s11,2
    5f0c:	03360db3          	mul	s11,a2,s3
    5f10:	00778e13          	addi	t3,a5,7
    5f14:	23c7460b          	th.lrh	a2,a4,t3,1
    5f18:	00878793          	addi	a5,a5,8
    5f1c:	4476dd8b          	th.srw	s11,a3,t2,2
    5f20:	033883b3          	mul	t2,a7,s3
    5f24:	033808b3          	mul	a7,a6,s3
    5f28:	4456d38b          	th.srw	t2,a3,t0,2
    5f2c:	033502b3          	mul	t0,a0,s3
    5f30:	45f6d88b          	th.srw	a7,a3,t6,2
    5f34:	03358fb3          	mul	t6,a1,s3
    5f38:	45e6d28b          	th.srw	t0,a3,t5,2
    5f3c:	03360833          	mul	a6,a2,s3
    5f40:	45d6df8b          	th.srw	t6,a3,t4,2
    5f44:	45c6d80b          	th.srw	a6,a3,t3,2
    5f48:	f89790e3          	bne	a5,s1,5ec8 <matrix_test+0x264>
    5f4c:	00870733          	add	a4,a4,s0
    5f50:	017686b3          	add	a3,a3,s7
    5f54:	01a30663          	beq	t1,s10,5f60 <matrix_test+0x2fc>
    5f58:	00130313          	addi	t1,t1,1
    5f5c:	ebdff06f          	j	5e18 <matrix_test+0x1b4>
    5f60:	017c8633          	add	a2,s9,s7
    5f64:	00000813          	li	a6,0
    5f68:	00000793          	li	a5,0
    5f6c:	00000513          	li	a0,0
    5f70:	00000593          	li	a1,0
    5f74:	ffcb8313          	addi	t1,s7,-4
    5f78:	00235f13          	srli	t5,t1,0x2
    5f7c:	001f0e93          	addi	t4,t5,1
    5f80:	007efd93          	andi	s11,t4,7
    5f84:	41760733          	sub	a4,a2,s7
    5f88:	1c0d8463          	beqz	s11,6150 <matrix_test+0x4ec>
    5f8c:	00100e13          	li	t3,1
    5f90:	0fcd8463          	beq	s11,t3,6078 <matrix_test+0x414>
    5f94:	00200393          	li	t2,2
    5f98:	0c7d8063          	beq	s11,t2,6058 <matrix_test+0x3f4>
    5f9c:	00300893          	li	a7,3
    5fa0:	091d8e63          	beq	s11,a7,603c <matrix_test+0x3d8>
    5fa4:	00400293          	li	t0,4
    5fa8:	065d8a63          	beq	s11,t0,601c <matrix_test+0x3b8>
    5fac:	00500f93          	li	t6,5
    5fb0:	05fd8663          	beq	s11,t6,5ffc <matrix_test+0x398>
    5fb4:	00600693          	li	a3,6
    5fb8:	02dd8263          	beq	s11,a3,5fdc <matrix_test+0x378>
    5fbc:	00080313          	mv	t1,a6
    5fc0:	00072803          	lw	a6,0(a4)
    5fc4:	010787b3          	add	a5,a5,a6
    5fc8:	00f94463          	blt	s2,a5,5fd0 <matrix_test+0x36c>
    5fcc:	3c00106f          	j	738c <matrix_test+0x1728>
    5fd0:	00a50513          	addi	a0,a0,10
    5fd4:	00000793          	li	a5,0
    5fd8:	00470713          	addi	a4,a4,4
    5fdc:	00080e93          	mv	t4,a6
    5fe0:	00072803          	lw	a6,0(a4)
    5fe4:	010787b3          	add	a5,a5,a6
    5fe8:	24f95663          	bge	s2,a5,6234 <matrix_test+0x5d0>
    5fec:	00a50e13          	addi	t3,a0,10
    5ff0:	00000793          	li	a5,0
    5ff4:	000e0513          	mv	a0,t3
    5ff8:	00470713          	addi	a4,a4,4
    5ffc:	00080393          	mv	t2,a6
    6000:	00072803          	lw	a6,0(a4)
    6004:	010787b3          	add	a5,a5,a6
    6008:	22f95063          	bge	s2,a5,6228 <matrix_test+0x5c4>
    600c:	00a50293          	addi	t0,a0,10
    6010:	00000793          	li	a5,0
    6014:	00028513          	mv	a0,t0
    6018:	00470713          	addi	a4,a4,4
    601c:	00080f93          	mv	t6,a6
    6020:	00072803          	lw	a6,0(a4)
    6024:	010787b3          	add	a5,a5,a6
    6028:	1ef95a63          	bge	s2,a5,621c <matrix_test+0x5b8>
    602c:	00a50313          	addi	t1,a0,10
    6030:	00000793          	li	a5,0
    6034:	00030513          	mv	a0,t1
    6038:	00470713          	addi	a4,a4,4
    603c:	00080f13          	mv	t5,a6
    6040:	00072803          	lw	a6,0(a4)
    6044:	010787b3          	add	a5,a5,a6
    6048:	1cf95463          	bge	s2,a5,6210 <matrix_test+0x5ac>
    604c:	00a50513          	addi	a0,a0,10
    6050:	00000793          	li	a5,0
    6054:	00470713          	addi	a4,a4,4
    6058:	00080d93          	mv	s11,a6
    605c:	00072803          	lw	a6,0(a4)
    6060:	010787b3          	add	a5,a5,a6
    6064:	1af95063          	bge	s2,a5,6204 <matrix_test+0x5a0>
    6068:	00a50393          	addi	t2,a0,10
    606c:	00000793          	li	a5,0
    6070:	00038513          	mv	a0,t2
    6074:	00470713          	addi	a4,a4,4
    6078:	00080893          	mv	a7,a6
    607c:	00072803          	lw	a6,0(a4)
    6080:	010787b3          	add	a5,a5,a6
    6084:	16f95a63          	bge	s2,a5,61f8 <matrix_test+0x594>
    6088:	00a50f93          	addi	t6,a0,10
    608c:	00000793          	li	a5,0
    6090:	00470713          	addi	a4,a4,4
    6094:	3c0fa50b          	th.ext	a0,t6,15,0
    6098:	0ae61c63          	bne	a2,a4,6150 <matrix_test+0x4ec>
    609c:	01760633          	add	a2,a2,s7
    60a0:	1ba58063          	beq	a1,s10,6240 <matrix_test+0x5dc>
    60a4:	00158593          	addi	a1,a1,1
    60a8:	ecdff06f          	j	5f74 <matrix_test+0x310>
    60ac:	00472f03          	lw	t5,4(a4)
    60b0:	00682833          	slt	a6,a6,t1
    60b4:	010506b3          	add	a3,a0,a6
    60b8:	01e78eb3          	add	t4,a5,t5
    60bc:	00470713          	addi	a4,a4,4
    60c0:	0bd95a63          	bge	s2,t4,6174 <matrix_test+0x510>
    60c4:	00472e03          	lw	t3,4(a4)
    60c8:	00000e93          	li	t4,0
    60cc:	00a68d93          	addi	s11,a3,10
    60d0:	01ce83b3          	add	t2,t4,t3
    60d4:	0a795a63          	bge	s2,t2,6188 <matrix_test+0x524>
    60d8:	00872f83          	lw	t6,8(a4)
    60dc:	00000393          	li	t2,0
    60e0:	00ad8293          	addi	t0,s11,10
    60e4:	01f38333          	add	t1,t2,t6
    60e8:	0a695a63          	bge	s2,t1,619c <matrix_test+0x538>
    60ec:	00c72f03          	lw	t5,12(a4)
    60f0:	00000313          	li	t1,0
    60f4:	00a28693          	addi	a3,t0,10
    60f8:	01e307b3          	add	a5,t1,t5
    60fc:	0af95a63          	bge	s2,a5,61b0 <matrix_test+0x54c>
    6100:	01072e03          	lw	t3,16(a4)
    6104:	00000793          	li	a5,0
    6108:	00a68d93          	addi	s11,a3,10
    610c:	01c783b3          	add	t2,a5,t3
    6110:	0a795a63          	bge	s2,t2,61c4 <matrix_test+0x560>
    6114:	01472283          	lw	t0,20(a4)
    6118:	00000393          	li	t2,0
    611c:	00ad8893          	addi	a7,s11,10
    6120:	00538fb3          	add	t6,t2,t0
    6124:	0bf95a63          	bge	s2,t6,61d8 <matrix_test+0x574>
    6128:	01872803          	lw	a6,24(a4)
    612c:	00000f93          	li	t6,0
    6130:	00a88693          	addi	a3,a7,10
    6134:	010f87b3          	add	a5,t6,a6
    6138:	0af95a63          	bge	s2,a5,61ec <matrix_test+0x588>
    613c:	00a68e93          	addi	t4,a3,10
    6140:	00000793          	li	a5,0
    6144:	01c70713          	addi	a4,a4,28
    6148:	3c0ea50b          	th.ext	a0,t4,15,0
    614c:	f4e608e3          	beq	a2,a4,609c <matrix_test+0x438>
    6150:	00072303          	lw	t1,0(a4)
    6154:	006787b3          	add	a5,a5,t1
    6158:	f4f95ae3          	bge	s2,a5,60ac <matrix_test+0x448>
    615c:	00472f03          	lw	t5,4(a4)
    6160:	00000793          	li	a5,0
    6164:	00a50693          	addi	a3,a0,10
    6168:	01e78eb3          	add	t4,a5,t5
    616c:	00470713          	addi	a4,a4,4
    6170:	f5d94ae3          	blt	s2,t4,60c4 <matrix_test+0x460>
    6174:	00472e03          	lw	t3,4(a4)
    6178:	01e32533          	slt	a0,t1,t5
    617c:	00a68db3          	add	s11,a3,a0
    6180:	01ce83b3          	add	t2,t4,t3
    6184:	f4794ae3          	blt	s2,t2,60d8 <matrix_test+0x474>
    6188:	00872f83          	lw	t6,8(a4)
    618c:	01cf28b3          	slt	a7,t5,t3
    6190:	011d82b3          	add	t0,s11,a7
    6194:	01f38333          	add	t1,t2,t6
    6198:	f4694ae3          	blt	s2,t1,60ec <matrix_test+0x488>
    619c:	00c72f03          	lw	t5,12(a4)
    61a0:	01fe2833          	slt	a6,t3,t6
    61a4:	010286b3          	add	a3,t0,a6
    61a8:	01e307b3          	add	a5,t1,t5
    61ac:	f4f94ae3          	blt	s2,a5,6100 <matrix_test+0x49c>
    61b0:	01072e03          	lw	t3,16(a4)
    61b4:	01efaeb3          	slt	t4,t6,t5
    61b8:	01d68db3          	add	s11,a3,t4
    61bc:	01c783b3          	add	t2,a5,t3
    61c0:	f4794ae3          	blt	s2,t2,6114 <matrix_test+0x4b0>
    61c4:	01472283          	lw	t0,20(a4)
    61c8:	01cf2533          	slt	a0,t5,t3
    61cc:	00ad88b3          	add	a7,s11,a0
    61d0:	00538fb3          	add	t6,t2,t0
    61d4:	f5f94ae3          	blt	s2,t6,6128 <matrix_test+0x4c4>
    61d8:	01872803          	lw	a6,24(a4)
    61dc:	005e2333          	slt	t1,t3,t0
    61e0:	006886b3          	add	a3,a7,t1
    61e4:	010f87b3          	add	a5,t6,a6
    61e8:	f4f94ae3          	blt	s2,a5,613c <matrix_test+0x4d8>
    61ec:	0102af33          	slt	t5,t0,a6
    61f0:	01e68eb3          	add	t4,a3,t5
    61f4:	f51ff06f          	j	6144 <matrix_test+0x4e0>
    61f8:	0108a2b3          	slt	t0,a7,a6
    61fc:	00550fb3          	add	t6,a0,t0
    6200:	e91ff06f          	j	6090 <matrix_test+0x42c>
    6204:	010dae33          	slt	t3,s11,a6
    6208:	01c503b3          	add	t2,a0,t3
    620c:	e65ff06f          	j	6070 <matrix_test+0x40c>
    6210:	010f2eb3          	slt	t4,t5,a6
    6214:	01d50533          	add	a0,a0,t4
    6218:	e3dff06f          	j	6054 <matrix_test+0x3f0>
    621c:	010fa6b3          	slt	a3,t6,a6
    6220:	00d50333          	add	t1,a0,a3
    6224:	e11ff06f          	j	6034 <matrix_test+0x3d0>
    6228:	0103a8b3          	slt	a7,t2,a6
    622c:	011502b3          	add	t0,a0,a7
    6230:	de5ff06f          	j	6014 <matrix_test+0x3b0>
    6234:	010eadb3          	slt	s11,t4,a6
    6238:	01b50e33          	add	t3,a0,s11
    623c:	db9ff06f          	j	5ff4 <matrix_test+0x390>
    6240:	00000593          	li	a1,0
    6244:	4f0030ef          	jal	9734 <crc16>
    6248:	00050593          	mv	a1,a0
    624c:	000c0693          	mv	a3,s8
    6250:	00000613          	li	a2,0
    6254:	0074fd93          	andi	s11,s1,7
    6258:	00000793          	li	a5,0
    625c:	00000713          	li	a4,0
    6260:	0c0d8063          	beqz	s11,6320 <matrix_test+0x6bc>
    6264:	00100e13          	li	t3,1
    6268:	0bcd8063          	beq	s11,t3,6308 <matrix_test+0x6a4>
    626c:	00200393          	li	t2,2
    6270:	087d8263          	beq	s11,t2,62f4 <matrix_test+0x690>
    6274:	00300513          	li	a0,3
    6278:	06ad8463          	beq	s11,a0,62e0 <matrix_test+0x67c>
    627c:	00400893          	li	a7,4
    6280:	051d8663          	beq	s11,a7,62cc <matrix_test+0x668>
    6284:	00500293          	li	t0,5
    6288:	025d8863          	beq	s11,t0,62b8 <matrix_test+0x654>
    628c:	00600f93          	li	t6,6
    6290:	01fd8a63          	beq	s11,t6,62a4 <matrix_test+0x640>
    6294:	00069303          	lh	t1,0(a3)
    6298:	000a9803          	lh	a6,0(s5)
    629c:	000e0713          	mv	a4,t3
    62a0:	030307b3          	mul	a5,t1,a6
    62a4:	22e6cf0b          	th.lrh	t5,a3,a4,1
    62a8:	22eace8b          	th.lrh	t4,s5,a4,1
    62ac:	00170713          	addi	a4,a4,1
    62b0:	03df0db3          	mul	s11,t5,t4
    62b4:	01b787b3          	add	a5,a5,s11
    62b8:	22e6ce0b          	th.lrh	t3,a3,a4,1
    62bc:	22eac38b          	th.lrh	t2,s5,a4,1
    62c0:	00170713          	addi	a4,a4,1
    62c4:	027e0533          	mul	a0,t3,t2
    62c8:	00a787b3          	add	a5,a5,a0
    62cc:	22e6c88b          	th.lrh	a7,a3,a4,1
    62d0:	22eac28b          	th.lrh	t0,s5,a4,1
    62d4:	00170713          	addi	a4,a4,1
    62d8:	02588fb3          	mul	t6,a7,t0
    62dc:	01f787b3          	add	a5,a5,t6
    62e0:	22e6c30b          	th.lrh	t1,a3,a4,1
    62e4:	22eac80b          	th.lrh	a6,s5,a4,1
    62e8:	00170713          	addi	a4,a4,1
    62ec:	03030f33          	mul	t5,t1,a6
    62f0:	01e787b3          	add	a5,a5,t5
    62f4:	22e6ce8b          	th.lrh	t4,a3,a4,1
    62f8:	22eacd8b          	th.lrh	s11,s5,a4,1
    62fc:	00170713          	addi	a4,a4,1
    6300:	03be8e33          	mul	t3,t4,s11
    6304:	01c787b3          	add	a5,a5,t3
    6308:	22e6c38b          	th.lrh	t2,a3,a4,1
    630c:	22eac50b          	th.lrh	a0,s5,a4,1
    6310:	00170713          	addi	a4,a4,1
    6314:	02a388b3          	mul	a7,t2,a0
    6318:	011787b3          	add	a5,a5,a7
    631c:	0a970463          	beq	a4,s1,63c4 <matrix_test+0x760>
    6320:	00170f93          	addi	t6,a4,1
    6324:	22e6c28b          	th.lrh	t0,a3,a4,1
    6328:	22eace8b          	th.lrh	t4,s5,a4,1
    632c:	00270313          	addi	t1,a4,2
    6330:	23facd8b          	th.lrh	s11,s5,t6,1
    6334:	23f6c80b          	th.lrh	a6,a3,t6,1
    6338:	226acf0b          	th.lrh	t5,s5,t1,1
    633c:	2266c50b          	th.lrh	a0,a3,t1,1
    6340:	03d288b3          	mul	a7,t0,t4
    6344:	00370393          	addi	t2,a4,3
    6348:	00470293          	addi	t0,a4,4
    634c:	2276ce0b          	th.lrh	t3,a3,t2,1
    6350:	227ac38b          	th.lrh	t2,s5,t2,1
    6354:	00570e93          	addi	t4,a4,5
    6358:	2256c30b          	th.lrh	t1,a3,t0,1
    635c:	225ac28b          	th.lrh	t0,s5,t0,1
    6360:	23dacf8b          	th.lrh	t6,s5,t4,1
    6364:	03b80833          	mul	a6,a6,s11
    6368:	011787b3          	add	a5,a5,a7
    636c:	23d6cd8b          	th.lrh	s11,a3,t4,1
    6370:	00670893          	addi	a7,a4,6
    6374:	00770e93          	addi	t4,a4,7
    6378:	00870713          	addi	a4,a4,8
    637c:	03e50533          	mul	a0,a0,t5
    6380:	010787b3          	add	a5,a5,a6
    6384:	231acf0b          	th.lrh	t5,s5,a7,1
    6388:	2316c80b          	th.lrh	a6,a3,a7,1
    638c:	027e0e33          	mul	t3,t3,t2
    6390:	00a783b3          	add	t2,a5,a0
    6394:	23d6c50b          	th.lrh	a0,a3,t4,1
    6398:	23dace8b          	th.lrh	t4,s5,t4,1
    639c:	02530333          	mul	t1,t1,t0
    63a0:	01c382b3          	add	t0,t2,t3
    63a4:	03fd8db3          	mul	s11,s11,t6
    63a8:	00628fb3          	add	t6,t0,t1
    63ac:	03e808b3          	mul	a7,a6,t5
    63b0:	01bf87b3          	add	a5,t6,s11
    63b4:	03d50833          	mul	a6,a0,t4
    63b8:	01178f33          	add	t5,a5,a7
    63bc:	010f07b3          	add	a5,t5,a6
    63c0:	f69710e3          	bne	a4,s1,6320 <matrix_test+0x6bc>
    63c4:	44ccd78b          	th.srw	a5,s9,a2,2
    63c8:	008686b3          	add	a3,a3,s0
    63cc:	01a60663          	beq	a2,s10,63d8 <matrix_test+0x774>
    63d0:	00160613          	addi	a2,a2,1
    63d4:	e81ff06f          	j	6254 <matrix_test+0x5f0>
    63d8:	000c8613          	mv	a2,s9
    63dc:	00000893          	li	a7,0
    63e0:	00000793          	li	a5,0
    63e4:	00000513          	li	a0,0
    63e8:	00000813          	li	a6,0
    63ec:	00088d13          	mv	s10,a7
    63f0:	00062883          	lw	a7,0(a2)
    63f4:	fff48713          	addi	a4,s1,-1
    63f8:	00777e13          	andi	t3,a4,7
    63fc:	011787b3          	add	a5,a5,a7
    6400:	68f95ae3          	bge	s2,a5,7294 <matrix_test+0x1630>
    6404:	00a50513          	addi	a0,a0,10
    6408:	00000793          	li	a5,0
    640c:	00100713          	li	a4,1
    6410:	3c05250b          	th.ext	a0,a0,15,0
    6414:	10977863          	bgeu	a4,s1,6524 <matrix_test+0x8c0>
    6418:	2a0e06e3          	beqz	t3,6ec4 <matrix_test+0x1260>
    641c:	0eee0263          	beq	t3,a4,6500 <matrix_test+0x89c>
    6420:	00200e93          	li	t4,2
    6424:	0dde0063          	beq	t3,t4,64e4 <matrix_test+0x880>
    6428:	00300313          	li	t1,3
    642c:	086e0c63          	beq	t3,t1,64c4 <matrix_test+0x860>
    6430:	00400293          	li	t0,4
    6434:	065e0863          	beq	t3,t0,64a4 <matrix_test+0x840>
    6438:	00500d93          	li	s11,5
    643c:	05be0463          	beq	t3,s11,6484 <matrix_test+0x820>
    6440:	00600f93          	li	t6,6
    6444:	03fe0263          	beq	t3,t6,6468 <matrix_test+0x804>
    6448:	00088f13          	mv	t5,a7
    644c:	44e6488b          	th.lrw	a7,a2,a4,2
    6450:	011787b3          	add	a5,a5,a7
    6454:	74f94ee3          	blt	s2,a5,73b0 <matrix_test+0x174c>
    6458:	011f26b3          	slt	a3,t5,a7
    645c:	00d50d33          	add	s10,a0,a3
    6460:	000d0513          	mv	a0,s10
    6464:	00170713          	addi	a4,a4,1
    6468:	00088e13          	mv	t3,a7
    646c:	44e6488b          	th.lrw	a7,a2,a4,2
    6470:	011787b3          	add	a5,a5,a7
    6474:	6ef954e3          	bge	s2,a5,735c <matrix_test+0x16f8>
    6478:	00a50513          	addi	a0,a0,10
    647c:	00000793          	li	a5,0
    6480:	00170713          	addi	a4,a4,1
    6484:	00088e93          	mv	t4,a7
    6488:	44e6488b          	th.lrw	a7,a2,a4,2
    648c:	011787b3          	add	a5,a5,a7
    6490:	6af954e3          	bge	s2,a5,7338 <matrix_test+0x16d4>
    6494:	00a50293          	addi	t0,a0,10
    6498:	00000793          	li	a5,0
    649c:	00028513          	mv	a0,t0
    64a0:	00170713          	addi	a4,a4,1
    64a4:	00088d93          	mv	s11,a7
    64a8:	44e6488b          	th.lrw	a7,a2,a4,2
    64ac:	011787b3          	add	a5,a5,a7
    64b0:	66f952e3          	bge	s2,a5,7314 <matrix_test+0x16b0>
    64b4:	00a50f13          	addi	t5,a0,10
    64b8:	00000793          	li	a5,0
    64bc:	000f0513          	mv	a0,t5
    64c0:	00170713          	addi	a4,a4,1
    64c4:	00088693          	mv	a3,a7
    64c8:	44e6488b          	th.lrw	a7,a2,a4,2
    64cc:	011787b3          	add	a5,a5,a7
    64d0:	62f956e3          	bge	s2,a5,72fc <matrix_test+0x1698>
    64d4:	00a50e13          	addi	t3,a0,10
    64d8:	00000793          	li	a5,0
    64dc:	000e0513          	mv	a0,t3
    64e0:	00170713          	addi	a4,a4,1
    64e4:	00088393          	mv	t2,a7
    64e8:	44e6488b          	th.lrw	a7,a2,a4,2
    64ec:	011787b3          	add	a5,a5,a7
    64f0:	5cf95ae3          	bge	s2,a5,72c4 <matrix_test+0x1660>
    64f4:	00a50513          	addi	a0,a0,10
    64f8:	00000793          	li	a5,0
    64fc:	00170713          	addi	a4,a4,1
    6500:	00088313          	mv	t1,a7
    6504:	44e6488b          	th.lrw	a7,a2,a4,2
    6508:	011787b3          	add	a5,a5,a7
    650c:	58f95ae3          	bge	s2,a5,72a0 <matrix_test+0x163c>
    6510:	00a50d93          	addi	s11,a0,10
    6514:	00000793          	li	a5,0
    6518:	00170713          	addi	a4,a4,1
    651c:	3c0da50b          	th.ext	a0,s11,15,0
    6520:	1a9762e3          	bltu	a4,s1,6ec4 <matrix_test+0x1260>
    6524:	00180813          	addi	a6,a6,1
    6528:	01760633          	add	a2,a2,s7
    652c:	ec9860e3          	bltu	a6,s1,63ec <matrix_test+0x788>
    6530:	204030ef          	jal	9734 <crc16>
    6534:	00050593          	mv	a1,a0
    6538:	000c0813          	mv	a6,s8
    653c:	000c8313          	mv	t1,s9
    6540:	00000e13          	li	t3,0
    6544:	000a8893          	mv	a7,s5
    6548:	00000513          	li	a0,0
    654c:	00081283          	lh	t0,0(a6)
    6550:	00089d83          	lh	s11,0(a7)
    6554:	fff48f93          	addi	t6,s1,-1
    6558:	00100793          	li	a5,1
    655c:	03b286b3          	mul	a3,t0,s11
    6560:	007ffd13          	andi	s10,t6,7
    6564:	00888733          	add	a4,a7,s0
    6568:	1897fa63          	bgeu	a5,s1,66fc <matrix_test+0xa98>
    656c:	0c0d0e63          	beqz	s10,6648 <matrix_test+0x9e4>
    6570:	0afd0e63          	beq	s10,a5,662c <matrix_test+0x9c8>
    6574:	00200393          	li	t2,2
    6578:	087d0e63          	beq	s10,t2,6614 <matrix_test+0x9b0>
    657c:	00300f13          	li	t5,3
    6580:	07ed0e63          	beq	s10,t5,65fc <matrix_test+0x998>
    6584:	00400e93          	li	t4,4
    6588:	05dd0e63          	beq	s10,t4,65e4 <matrix_test+0x980>
    658c:	00500613          	li	a2,5
    6590:	02cd0e63          	beq	s10,a2,65cc <matrix_test+0x968>
    6594:	00600293          	li	t0,6
    6598:	005d0e63          	beq	s10,t0,65b4 <matrix_test+0x950>
    659c:	00281d83          	lh	s11,2(a6)
    65a0:	2088cf8b          	th.lrh	t6,a7,s0,0
    65a4:	00038793          	mv	a5,t2
    65a8:	00870733          	add	a4,a4,s0
    65ac:	03fd8d33          	mul	s10,s11,t6
    65b0:	01a686b3          	add	a3,a3,s10
    65b4:	22f8438b          	th.lrh	t2,a6,a5,1
    65b8:	00071f03          	lh	t5,0(a4)
    65bc:	00178793          	addi	a5,a5,1
    65c0:	00870733          	add	a4,a4,s0
    65c4:	03e38eb3          	mul	t4,t2,t5
    65c8:	01d686b3          	add	a3,a3,t4
    65cc:	22f8460b          	th.lrh	a2,a6,a5,1
    65d0:	00071283          	lh	t0,0(a4)
    65d4:	00178793          	addi	a5,a5,1
    65d8:	00870733          	add	a4,a4,s0
    65dc:	02560db3          	mul	s11,a2,t0
    65e0:	01b686b3          	add	a3,a3,s11
    65e4:	22f84f8b          	th.lrh	t6,a6,a5,1
    65e8:	00071d03          	lh	s10,0(a4)
    65ec:	00178793          	addi	a5,a5,1
    65f0:	00870733          	add	a4,a4,s0
    65f4:	03af83b3          	mul	t2,t6,s10
    65f8:	007686b3          	add	a3,a3,t2
    65fc:	22f84f0b          	th.lrh	t5,a6,a5,1
    6600:	00071e83          	lh	t4,0(a4)
    6604:	00178793          	addi	a5,a5,1
    6608:	00870733          	add	a4,a4,s0
    660c:	03df0633          	mul	a2,t5,t4
    6610:	00c686b3          	add	a3,a3,a2
    6614:	22f8428b          	th.lrh	t0,a6,a5,1
    6618:	00071d83          	lh	s11,0(a4)
    661c:	00178793          	addi	a5,a5,1
    6620:	00870733          	add	a4,a4,s0
    6624:	03b28fb3          	mul	t6,t0,s11
    6628:	01f686b3          	add	a3,a3,t6
    662c:	22f84d0b          	th.lrh	s10,a6,a5,1
    6630:	00071383          	lh	t2,0(a4)
    6634:	00178793          	addi	a5,a5,1
    6638:	00870733          	add	a4,a4,s0
    663c:	027d0f33          	mul	t5,s10,t2
    6640:	01e686b3          	add	a3,a3,t5
    6644:	0a97fc63          	bgeu	a5,s1,66fc <matrix_test+0xa98>
    6648:	22f84d8b          	th.lrh	s11,a6,a5,1
    664c:	00071283          	lh	t0,0(a4)
    6650:	00178e93          	addi	t4,a5,1
    6654:	23d8460b          	th.lrh	a2,a6,t4,1
    6658:	025d8eb3          	mul	t4,s11,t0
    665c:	20874d0b          	th.lrh	s10,a4,s0,0
    6660:	00278f93          	addi	t6,a5,2
    6664:	23f8438b          	th.lrh	t2,a6,t6,1
    6668:	22874f0b          	th.lrh	t5,a4,s0,1
    666c:	00378d93          	addi	s11,a5,3
    6670:	20e42733          	sh1add	a4,s0,a4
    6674:	2087428b          	th.lrh	t0,a4,s0,0
    6678:	23b84d8b          	th.lrh	s11,a6,s11,1
    667c:	22874f8b          	th.lrh	t6,a4,s0,1
    6680:	03a60633          	mul	a2,a2,s10
    6684:	01d686b3          	add	a3,a3,t4
    6688:	00478d13          	addi	s10,a5,4
    668c:	23a84d0b          	th.lrh	s10,a6,s10,1
    6690:	20e42733          	sh1add	a4,s0,a4
    6694:	03e38eb3          	mul	t4,t2,t5
    6698:	00578393          	addi	t2,a5,5
    669c:	22784f0b          	th.lrh	t5,a6,t2,1
    66a0:	00c68633          	add	a2,a3,a2
    66a4:	2087438b          	th.lrh	t2,a4,s0,0
    66a8:	025d8db3          	mul	s11,s11,t0
    66ac:	00678293          	addi	t0,a5,6
    66b0:	01d606b3          	add	a3,a2,t4
    66b4:	22584e8b          	th.lrh	t4,a6,t0,1
    66b8:	2287428b          	th.lrh	t0,a4,s0,1
    66bc:	20e42733          	sh1add	a4,s0,a4
    66c0:	03fd0d33          	mul	s10,s10,t6
    66c4:	00778f93          	addi	t6,a5,7
    66c8:	01b68633          	add	a2,a3,s11
    66cc:	2087468b          	th.lrh	a3,a4,s0,0
    66d0:	23f84d8b          	th.lrh	s11,a6,t6,1
    66d4:	00878793          	addi	a5,a5,8
    66d8:	20e42733          	sh1add	a4,s0,a4
    66dc:	027f0f33          	mul	t5,t5,t2
    66e0:	01a603b3          	add	t2,a2,s10
    66e4:	025e8eb3          	mul	t4,t4,t0
    66e8:	01e382b3          	add	t0,t2,t5
    66ec:	02dd8d33          	mul	s10,s11,a3
    66f0:	01d28633          	add	a2,t0,t4
    66f4:	01a606b3          	add	a3,a2,s10
    66f8:	f497e8e3          	bltu	a5,s1,6648 <matrix_test+0x9e4>
    66fc:	44a3568b          	th.srw	a3,t1,a0,2
    6700:	00150513          	addi	a0,a0,1
    6704:	00288893          	addi	a7,a7,2
    6708:	e49562e3          	bltu	a0,s1,654c <matrix_test+0x8e8>
    670c:	001e0e13          	addi	t3,t3,1
    6710:	01730333          	add	t1,t1,s7
    6714:	00880833          	add	a6,a6,s0
    6718:	e29e66e3          	bltu	t3,s1,6544 <matrix_test+0x8e0>
    671c:	000c8613          	mv	a2,s9
    6720:	00000893          	li	a7,0
    6724:	00000793          	li	a5,0
    6728:	00000513          	li	a0,0
    672c:	00000813          	li	a6,0
    6730:	00088713          	mv	a4,a7
    6734:	00062883          	lw	a7,0(a2)
    6738:	fff48f93          	addi	t6,s1,-1
    673c:	007ffd93          	andi	s11,t6,7
    6740:	011787b3          	add	a5,a5,a7
    6744:	34f952e3          	bge	s2,a5,7288 <matrix_test+0x1624>
    6748:	00a50513          	addi	a0,a0,10
    674c:	00000793          	li	a5,0
    6750:	00100713          	li	a4,1
    6754:	3c05250b          	th.ext	a0,a0,15,0
    6758:	10977863          	bgeu	a4,s1,6868 <matrix_test+0xc04>
    675c:	0e0d82e3          	beqz	s11,7040 <matrix_test+0x13dc>
    6760:	0eed8263          	beq	s11,a4,6844 <matrix_test+0xbe0>
    6764:	00200f13          	li	t5,2
    6768:	0ded8063          	beq	s11,t5,6828 <matrix_test+0xbc4>
    676c:	00300393          	li	t2,3
    6770:	087d8c63          	beq	s11,t2,6808 <matrix_test+0xba4>
    6774:	00400e93          	li	t4,4
    6778:	07dd8863          	beq	s11,t4,67e8 <matrix_test+0xb84>
    677c:	00500293          	li	t0,5
    6780:	045d8463          	beq	s11,t0,67c8 <matrix_test+0xb64>
    6784:	00600d13          	li	s10,6
    6788:	03ad8263          	beq	s11,s10,67ac <matrix_test+0xb48>
    678c:	00088e13          	mv	t3,a7
    6790:	44e6488b          	th.lrw	a7,a2,a4,2
    6794:	011787b3          	add	a5,a5,a7
    6798:	40f946e3          	blt	s2,a5,73a4 <matrix_test+0x1740>
    679c:	011e2333          	slt	t1,t3,a7
    67a0:	00650fb3          	add	t6,a0,t1
    67a4:	000f8513          	mv	a0,t6
    67a8:	00170713          	addi	a4,a4,1
    67ac:	00088d93          	mv	s11,a7
    67b0:	44e6488b          	th.lrw	a7,a2,a4,2
    67b4:	011787b3          	add	a5,a5,a7
    67b8:	3af95ae3          	bge	s2,a5,736c <matrix_test+0x1708>
    67bc:	00a50513          	addi	a0,a0,10
    67c0:	00000793          	li	a5,0
    67c4:	00170713          	addi	a4,a4,1
    67c8:	00088f13          	mv	t5,a7
    67cc:	44e6488b          	th.lrw	a7,a2,a4,2
    67d0:	011787b3          	add	a5,a5,a7
    67d4:	36f95ee3          	bge	s2,a5,7350 <matrix_test+0x16ec>
    67d8:	00a50e93          	addi	t4,a0,10
    67dc:	00000793          	li	a5,0
    67e0:	000e8513          	mv	a0,t4
    67e4:	00170713          	addi	a4,a4,1
    67e8:	00088293          	mv	t0,a7
    67ec:	44e6488b          	th.lrw	a7,a2,a4,2
    67f0:	011787b3          	add	a5,a5,a7
    67f4:	32f956e3          	bge	s2,a5,7320 <matrix_test+0x16bc>
    67f8:	00a50e13          	addi	t3,a0,10
    67fc:	00000793          	li	a5,0
    6800:	000e0513          	mv	a0,t3
    6804:	00170713          	addi	a4,a4,1
    6808:	00088313          	mv	t1,a7
    680c:	44e6488b          	th.lrw	a7,a2,a4,2
    6810:	011787b3          	add	a5,a5,a7
    6814:	2ef95ae3          	bge	s2,a5,7308 <matrix_test+0x16a4>
    6818:	00a50d93          	addi	s11,a0,10
    681c:	00000793          	li	a5,0
    6820:	000d8513          	mv	a0,s11
    6824:	00170713          	addi	a4,a4,1
    6828:	00088693          	mv	a3,a7
    682c:	44e6488b          	th.lrw	a7,a2,a4,2
    6830:	011787b3          	add	a5,a5,a7
    6834:	2af956e3          	bge	s2,a5,72e0 <matrix_test+0x167c>
    6838:	00a50513          	addi	a0,a0,10
    683c:	00000793          	li	a5,0
    6840:	00170713          	addi	a4,a4,1
    6844:	00088393          	mv	t2,a7
    6848:	44e6488b          	th.lrw	a7,a2,a4,2
    684c:	011787b3          	add	a5,a5,a7
    6850:	24f95ee3          	bge	s2,a5,72ac <matrix_test+0x1648>
    6854:	00a50293          	addi	t0,a0,10
    6858:	00000793          	li	a5,0
    685c:	00170713          	addi	a4,a4,1
    6860:	3c02a50b          	th.ext	a0,t0,15,0
    6864:	7c976e63          	bltu	a4,s1,7040 <matrix_test+0x13dc>
    6868:	00180813          	addi	a6,a6,1
    686c:	01760633          	add	a2,a2,s7
    6870:	ec9860e3          	bltu	a6,s1,6730 <matrix_test+0xacc>
    6874:	6c1020ef          	jal	9734 <crc16>
    6878:	00050593          	mv	a1,a0
    687c:	00000513          	li	a0,0
    6880:	000a8893          	mv	a7,s5
    6884:	00000313          	li	t1,0
    6888:	000c1e83          	lh	t4,0(s8)
    688c:	00089283          	lh	t0,0(a7)
    6890:	fff48d13          	addi	s10,s1,-1
    6894:	00100793          	li	a5,1
    6898:	025e8e33          	mul	t3,t4,t0
    689c:	007d7f93          	andi	t6,s10,7
    68a0:	00888733          	add	a4,a7,s0
    68a4:	142e3d8b          	th.extu	s11,t3,5,2
    68a8:	2c5e3f0b          	th.extu	t5,t3,11,5
    68ac:	03ed86b3          	mul	a3,s11,t5
    68b0:	2497f463          	bgeu	a5,s1,6af8 <matrix_test+0xe94>
    68b4:	120f8863          	beqz	t6,69e4 <matrix_test+0xd80>
    68b8:	10ff8263          	beq	t6,a5,69bc <matrix_test+0xd58>
    68bc:	00200393          	li	t2,2
    68c0:	0c7f8c63          	beq	t6,t2,6998 <matrix_test+0xd34>
    68c4:	00300813          	li	a6,3
    68c8:	0b0f8663          	beq	t6,a6,6974 <matrix_test+0xd10>
    68cc:	00400613          	li	a2,4
    68d0:	08cf8063          	beq	t6,a2,6950 <matrix_test+0xcec>
    68d4:	00500e93          	li	t4,5
    68d8:	05df8a63          	beq	t6,t4,692c <matrix_test+0xcc8>
    68dc:	00600293          	li	t0,6
    68e0:	025f8463          	beq	t6,t0,6908 <matrix_test+0xca4>
    68e4:	002c1d03          	lh	s10,2(s8)
    68e8:	2088ce0b          	th.lrh	t3,a7,s0,0
    68ec:	00038793          	mv	a5,t2
    68f0:	00870733          	add	a4,a4,s0
    68f4:	03cd0fb3          	mul	t6,s10,t3
    68f8:	142fbd8b          	th.extu	s11,t6,5,2
    68fc:	2c5fbf0b          	th.extu	t5,t6,11,5
    6900:	03ed83b3          	mul	t2,s11,t5
    6904:	007686b3          	add	a3,a3,t2
    6908:	22fc460b          	th.lrh	a2,s8,a5,1
    690c:	00071803          	lh	a6,0(a4)
    6910:	00178793          	addi	a5,a5,1
    6914:	00870733          	add	a4,a4,s0
    6918:	03060eb3          	mul	t4,a2,a6
    691c:	142eb28b          	th.extu	t0,t4,5,2
    6920:	2c5ebd0b          	th.extu	s10,t4,11,5
    6924:	03a28e33          	mul	t3,t0,s10
    6928:	01c686b3          	add	a3,a3,t3
    692c:	22fc4f8b          	th.lrh	t6,s8,a5,1
    6930:	00071d83          	lh	s11,0(a4)
    6934:	00178793          	addi	a5,a5,1
    6938:	00870733          	add	a4,a4,s0
    693c:	03bf8f33          	mul	t5,t6,s11
    6940:	142f338b          	th.extu	t2,t5,5,2
    6944:	2c5f360b          	th.extu	a2,t5,11,5
    6948:	02c38833          	mul	a6,t2,a2
    694c:	010686b3          	add	a3,a3,a6
    6950:	22fc4e8b          	th.lrh	t4,s8,a5,1
    6954:	00071283          	lh	t0,0(a4)
    6958:	00178793          	addi	a5,a5,1
    695c:	00870733          	add	a4,a4,s0
    6960:	025e8d33          	mul	s10,t4,t0
    6964:	142d3e0b          	th.extu	t3,s10,5,2
    6968:	2c5d3f8b          	th.extu	t6,s10,11,5
    696c:	03fe0db3          	mul	s11,t3,t6
    6970:	01b686b3          	add	a3,a3,s11
    6974:	22fc4f0b          	th.lrh	t5,s8,a5,1
    6978:	00071383          	lh	t2,0(a4)
    697c:	00178793          	addi	a5,a5,1
    6980:	00870733          	add	a4,a4,s0
    6984:	027f0633          	mul	a2,t5,t2
    6988:	1426380b          	th.extu	a6,a2,5,2
    698c:	2c563e8b          	th.extu	t4,a2,11,5
    6990:	03d802b3          	mul	t0,a6,t4
    6994:	005686b3          	add	a3,a3,t0
    6998:	22fc4d0b          	th.lrh	s10,s8,a5,1
    699c:	00071e03          	lh	t3,0(a4)
    69a0:	00178793          	addi	a5,a5,1
    69a4:	00870733          	add	a4,a4,s0
    69a8:	03cd0fb3          	mul	t6,s10,t3
    69ac:	142fbd8b          	th.extu	s11,t6,5,2
    69b0:	2c5fbf0b          	th.extu	t5,t6,11,5
    69b4:	03ed83b3          	mul	t2,s11,t5
    69b8:	007686b3          	add	a3,a3,t2
    69bc:	22fc460b          	th.lrh	a2,s8,a5,1
    69c0:	00071803          	lh	a6,0(a4)
    69c4:	00178793          	addi	a5,a5,1
    69c8:	00870733          	add	a4,a4,s0
    69cc:	03060eb3          	mul	t4,a2,a6
    69d0:	142eb28b          	th.extu	t0,t4,5,2
    69d4:	2c5ebd0b          	th.extu	s10,t4,11,5
    69d8:	03a28e33          	mul	t3,t0,s10
    69dc:	01c686b3          	add	a3,a3,t3
    69e0:	1097fc63          	bgeu	a5,s1,6af8 <matrix_test+0xe94>
    69e4:	00071d83          	lh	s11,0(a4)
    69e8:	22fc4f8b          	th.lrh	t6,s8,a5,1
    69ec:	00178f13          	addi	t5,a5,1
    69f0:	2087480b          	th.lrh	a6,a4,s0,0
    69f4:	03bf8fb3          	mul	t6,t6,s11
    69f8:	00278613          	addi	a2,a5,2
    69fc:	23ec438b          	th.lrh	t2,s8,t5,1
    6a00:	22874e8b          	th.lrh	t4,a4,s0,1
    6a04:	00378d13          	addi	s10,a5,3
    6a08:	22cc428b          	th.lrh	t0,s8,a2,1
    6a0c:	23ac4d8b          	th.lrh	s11,s8,s10,1
    6a10:	20e42733          	sh1add	a4,s0,a4
    6a14:	20874e0b          	th.lrh	t3,a4,s0,0
    6a18:	00478f13          	addi	t5,a5,4
    6a1c:	142fbd0b          	th.extu	s10,t6,5,2
    6a20:	2c5fbf8b          	th.extu	t6,t6,11,5
    6a24:	030383b3          	mul	t2,t2,a6
    6a28:	00578613          	addi	a2,a5,5
    6a2c:	2287480b          	th.lrh	a6,a4,s0,1
    6a30:	23ec4f0b          	th.lrh	t5,s8,t5,1
    6a34:	20e42733          	sh1add	a4,s0,a4
    6a38:	03fd0fb3          	mul	t6,s10,t6
    6a3c:	03d282b3          	mul	t0,t0,t4
    6a40:	22cc4e8b          	th.lrh	t4,s8,a2,1
    6a44:	01f686b3          	add	a3,a3,t6
    6a48:	2c53bf8b          	th.extu	t6,t2,11,5
    6a4c:	03cd8633          	mul	a2,s11,t3
    6a50:	00678e13          	addi	t3,a5,6
    6a54:	20874d8b          	th.lrh	s11,a4,s0,0
    6a58:	23cc4e0b          	th.lrh	t3,s8,t3,1
    6a5c:	030f0f33          	mul	t5,t5,a6
    6a60:	2287480b          	th.lrh	a6,a4,s0,1
    6a64:	20e42733          	sh1add	a4,s0,a4
    6a68:	20874d0b          	th.lrh	s10,a4,s0,0
    6a6c:	20e42733          	sh1add	a4,s0,a4
    6a70:	03be8eb3          	mul	t4,t4,s11
    6a74:	030e0db3          	mul	s11,t3,a6
    6a78:	00778e13          	addi	t3,a5,7
    6a7c:	23cc480b          	th.lrh	a6,s8,t3,1
    6a80:	1423be0b          	th.extu	t3,t2,5,2
    6a84:	1422b38b          	th.extu	t2,t0,5,2
    6a88:	2c52b28b          	th.extu	t0,t0,11,5
    6a8c:	00878793          	addi	a5,a5,8
    6a90:	03fe0e33          	mul	t3,t3,t6
    6a94:	142ebf8b          	th.extu	t6,t4,5,2
    6a98:	2c5ebe8b          	th.extu	t4,t4,11,5
    6a9c:	025383b3          	mul	t2,t2,t0
    6aa0:	01c686b3          	add	a3,a3,t3
    6aa4:	142f328b          	th.extu	t0,t5,5,2
    6aa8:	2c5f3f0b          	th.extu	t5,t5,11,5
    6aac:	03a80833          	mul	a6,a6,s10
    6ab0:	14263d0b          	th.extu	s10,a2,5,2
    6ab4:	2c56360b          	th.extu	a2,a2,11,5
    6ab8:	007686b3          	add	a3,a3,t2
    6abc:	02cd0633          	mul	a2,s10,a2
    6ac0:	142dbd0b          	th.extu	s10,s11,5,2
    6ac4:	2c5dbd8b          	th.extu	s11,s11,11,5
    6ac8:	14283e0b          	th.extu	t3,a6,5,2
    6acc:	2c58380b          	th.extu	a6,a6,11,5
    6ad0:	03e283b3          	mul	t2,t0,t5
    6ad4:	00c682b3          	add	t0,a3,a2
    6ad8:	03df8f33          	mul	t5,t6,t4
    6adc:	00728fb3          	add	t6,t0,t2
    6ae0:	03bd0eb3          	mul	t4,s10,s11
    6ae4:	01ef8633          	add	a2,t6,t5
    6ae8:	030e06b3          	mul	a3,t3,a6
    6aec:	01d60d33          	add	s10,a2,t4
    6af0:	00dd06b3          	add	a3,s10,a3
    6af4:	ee97e8e3          	bltu	a5,s1,69e4 <matrix_test+0xd80>
    6af8:	446cd68b          	th.srw	a3,s9,t1,2
    6afc:	00130313          	addi	t1,t1,1
    6b00:	00288893          	addi	a7,a7,2
    6b04:	d89362e3          	bltu	t1,s1,6888 <matrix_test+0xc24>
    6b08:	00150513          	addi	a0,a0,1
    6b0c:	017c8cb3          	add	s9,s9,s7
    6b10:	008c0c33          	add	s8,s8,s0
    6b14:	d69566e3          	bltu	a0,s1,6880 <matrix_test+0xc1c>
    6b18:	00000813          	li	a6,0
    6b1c:	00000793          	li	a5,0
    6b20:	00000513          	li	a0,0
    6b24:	00000613          	li	a2,0
    6b28:	00080893          	mv	a7,a6
    6b2c:	000b2803          	lw	a6,0(s6)
    6b30:	fff48313          	addi	t1,s1,-1
    6b34:	00737a93          	andi	s5,t1,7
    6b38:	010787b3          	add	a5,a5,a6
    6b3c:	74f95063          	bge	s2,a5,727c <matrix_test+0x1618>
    6b40:	00a50d93          	addi	s11,a0,10
    6b44:	00000793          	li	a5,0
    6b48:	00100713          	li	a4,1
    6b4c:	3c0da50b          	th.ext	a0,s11,15,0
    6b50:	10977a63          	bgeu	a4,s1,6c64 <matrix_test+0x1000>
    6b54:	660a8463          	beqz	s5,71bc <matrix_test+0x1558>
    6b58:	0eea8463          	beq	s5,a4,6c40 <matrix_test+0xfdc>
    6b5c:	00200e13          	li	t3,2
    6b60:	0dca8063          	beq	s5,t3,6c20 <matrix_test+0xfbc>
    6b64:	00300393          	li	t2,3
    6b68:	087a8c63          	beq	s5,t2,6c00 <matrix_test+0xf9c>
    6b6c:	00400293          	li	t0,4
    6b70:	065a8863          	beq	s5,t0,6be0 <matrix_test+0xf7c>
    6b74:	00500f13          	li	t5,5
    6b78:	05ea8463          	beq	s5,t5,6bc0 <matrix_test+0xf5c>
    6b7c:	00600f93          	li	t6,6
    6b80:	03fa8263          	beq	s5,t6,6ba4 <matrix_test+0xf40>
    6b84:	00080e93          	mv	t4,a6
    6b88:	44eb480b          	th.lrw	a6,s6,a4,2
    6b8c:	010787b3          	add	a5,a5,a6
    6b90:	00f944e3          	blt	s2,a5,7398 <matrix_test+0x1734>
    6b94:	010ea6b3          	slt	a3,t4,a6
    6b98:	00d50d33          	add	s10,a0,a3
    6b9c:	000d0513          	mv	a0,s10
    6ba0:	00170713          	addi	a4,a4,1
    6ba4:	00080c93          	mv	s9,a6
    6ba8:	44eb480b          	th.lrw	a6,s6,a4,2
    6bac:	010787b3          	add	a5,a5,a6
    6bb0:	7cf95663          	bge	s2,a5,737c <matrix_test+0x1718>
    6bb4:	00a50513          	addi	a0,a0,10
    6bb8:	00000793          	li	a5,0
    6bbc:	00170713          	addi	a4,a4,1
    6bc0:	00080893          	mv	a7,a6
    6bc4:	44eb480b          	th.lrw	a6,s6,a4,2
    6bc8:	010787b3          	add	a5,a5,a6
    6bcc:	76f95c63          	bge	s2,a5,7344 <matrix_test+0x16e0>
    6bd0:	00a50a93          	addi	s5,a0,10
    6bd4:	00000793          	li	a5,0
    6bd8:	000a8513          	mv	a0,s5
    6bdc:	00170713          	addi	a4,a4,1
    6be0:	00080d93          	mv	s11,a6
    6be4:	44eb480b          	th.lrw	a6,s6,a4,2
    6be8:	010787b3          	add	a5,a5,a6
    6bec:	74f95063          	bge	s2,a5,732c <matrix_test+0x16c8>
    6bf0:	00a50393          	addi	t2,a0,10
    6bf4:	00000793          	li	a5,0
    6bf8:	00038513          	mv	a0,t2
    6bfc:	00170713          	addi	a4,a4,1
    6c00:	00080293          	mv	t0,a6
    6c04:	44eb480b          	th.lrw	a6,s6,a4,2
    6c08:	010787b3          	add	a5,a5,a6
    6c0c:	6ef95263          	bge	s2,a5,72f0 <matrix_test+0x168c>
    6c10:	00a50f93          	addi	t6,a0,10
    6c14:	00000793          	li	a5,0
    6c18:	000f8513          	mv	a0,t6
    6c1c:	00170713          	addi	a4,a4,1
    6c20:	00080e93          	mv	t4,a6
    6c24:	44eb480b          	th.lrw	a6,s6,a4,2
    6c28:	010787b3          	add	a5,a5,a6
    6c2c:	6af95463          	bge	s2,a5,72d4 <matrix_test+0x1670>
    6c30:	00a50d13          	addi	s10,a0,10
    6c34:	00000793          	li	a5,0
    6c38:	000d0513          	mv	a0,s10
    6c3c:	00170713          	addi	a4,a4,1
    6c40:	00080c93          	mv	s9,a6
    6c44:	44eb480b          	th.lrw	a6,s6,a4,2
    6c48:	010787b3          	add	a5,a5,a6
    6c4c:	66f95663          	bge	s2,a5,72b8 <matrix_test+0x1654>
    6c50:	00a50513          	addi	a0,a0,10
    6c54:	00000793          	li	a5,0
    6c58:	00170713          	addi	a4,a4,1
    6c5c:	3c05250b          	th.ext	a0,a0,15,0
    6c60:	54976e63          	bltu	a4,s1,71bc <matrix_test+0x1558>
    6c64:	00160613          	addi	a2,a2,1
    6c68:	017b0b33          	add	s6,s6,s7
    6c6c:	ea966ee3          	bltu	a2,s1,6b28 <matrix_test+0xec4>
    6c70:	2c5020ef          	jal	9734 <crc16>
    6c74:	00000613          	li	a2,0
    6c78:	000a5583          	lhu	a1,0(s4)
    6c7c:	fff48a93          	addi	s5,s1,-1
    6c80:	00100793          	li	a5,1
    6c84:	41358db3          	sub	s11,a1,s3
    6c88:	01ba1023          	sh	s11,0(s4)
    6c8c:	007afe13          	andi	t3,s5,7
    6c90:	1297f663          	bgeu	a5,s1,6dbc <matrix_test+0x1158>
    6c94:	0a0e0263          	beqz	t3,6d38 <matrix_test+0x10d4>
    6c98:	08fe0663          	beq	t3,a5,6d24 <matrix_test+0x10c0>
    6c9c:	00200393          	li	t2,2
    6ca0:	067e0a63          	beq	t3,t2,6d14 <matrix_test+0x10b0>
    6ca4:	00300293          	li	t0,3
    6ca8:	045e0e63          	beq	t3,t0,6d04 <matrix_test+0x10a0>
    6cac:	00400f13          	li	t5,4
    6cb0:	05ee0263          	beq	t3,t5,6cf4 <matrix_test+0x1090>
    6cb4:	00500f93          	li	t6,5
    6cb8:	03fe0663          	beq	t3,t6,6ce4 <matrix_test+0x1080>
    6cbc:	00600e93          	li	t4,6
    6cc0:	01de0a63          	beq	t3,t4,6cd4 <matrix_test+0x1070>
    6cc4:	002a5d03          	lhu	s10,2(s4)
    6cc8:	00038793          	mv	a5,t2
    6ccc:	413d0cb3          	sub	s9,s10,s3
    6cd0:	019a1123          	sh	s9,2(s4)
    6cd4:	a2fa468b          	th.lrhu	a3,s4,a5,1
    6cd8:	41368c33          	sub	s8,a3,s3
    6cdc:	22fa5c0b          	th.srh	s8,s4,a5,1
    6ce0:	00178793          	addi	a5,a5,1
    6ce4:	a2fa480b          	th.lrhu	a6,s4,a5,1
    6ce8:	413808b3          	sub	a7,a6,s3
    6cec:	22fa588b          	th.srh	a7,s4,a5,1
    6cf0:	00178793          	addi	a5,a5,1
    6cf4:	a2fa430b          	th.lrhu	t1,s4,a5,1
    6cf8:	41330733          	sub	a4,t1,s3
    6cfc:	22fa570b          	th.srh	a4,s4,a5,1
    6d00:	00178793          	addi	a5,a5,1
    6d04:	a2fa490b          	th.lrhu	s2,s4,a5,1
    6d08:	41390bb3          	sub	s7,s2,s3
    6d0c:	22fa5b8b          	th.srh	s7,s4,a5,1
    6d10:	00178793          	addi	a5,a5,1
    6d14:	a2fa4b0b          	th.lrhu	s6,s4,a5,1
    6d18:	413b05b3          	sub	a1,s6,s3
    6d1c:	22fa558b          	th.srh	a1,s4,a5,1
    6d20:	00178793          	addi	a5,a5,1
    6d24:	a2fa4a8b          	th.lrhu	s5,s4,a5,1
    6d28:	413a8db3          	sub	s11,s5,s3
    6d2c:	22fa5d8b          	th.srh	s11,s4,a5,1
    6d30:	00178793          	addi	a5,a5,1
    6d34:	0897f463          	bgeu	a5,s1,6dbc <matrix_test+0x1158>
    6d38:	a2fa4e0b          	th.lrhu	t3,s4,a5,1
    6d3c:	00178393          	addi	t2,a5,1
    6d40:	00278293          	addi	t0,a5,2
    6d44:	413e0f33          	sub	t5,t3,s3
    6d48:	22fa5f0b          	th.srh	t5,s4,a5,1
    6d4c:	a27a4f8b          	th.lrhu	t6,s4,t2,1
    6d50:	00378e93          	addi	t4,a5,3
    6d54:	00478d13          	addi	s10,a5,4
    6d58:	413f8cb3          	sub	s9,t6,s3
    6d5c:	227a5c8b          	th.srh	s9,s4,t2,1
    6d60:	a25a468b          	th.lrhu	a3,s4,t0,1
    6d64:	00578c13          	addi	s8,a5,5
    6d68:	00678813          	addi	a6,a5,6
    6d6c:	413688b3          	sub	a7,a3,s3
    6d70:	225a588b          	th.srh	a7,s4,t0,1
    6d74:	a3da430b          	th.lrhu	t1,s4,t4,1
    6d78:	00778913          	addi	s2,a5,7
    6d7c:	00878793          	addi	a5,a5,8
    6d80:	41330733          	sub	a4,t1,s3
    6d84:	23da570b          	th.srh	a4,s4,t4,1
    6d88:	a3aa4b8b          	th.lrhu	s7,s4,s10,1
    6d8c:	413b8b33          	sub	s6,s7,s3
    6d90:	23aa5b0b          	th.srh	s6,s4,s10,1
    6d94:	a38a458b          	th.lrhu	a1,s4,s8,1
    6d98:	41358ab3          	sub	s5,a1,s3
    6d9c:	238a5a8b          	th.srh	s5,s4,s8,1
    6da0:	a30a4d8b          	th.lrhu	s11,s4,a6,1
    6da4:	413d8e33          	sub	t3,s11,s3
    6da8:	230a5e0b          	th.srh	t3,s4,a6,1
    6dac:	a32a438b          	th.lrhu	t2,s4,s2,1
    6db0:	413382b3          	sub	t0,t2,s3
    6db4:	232a528b          	th.srh	t0,s4,s2,1
    6db8:	f897e0e3          	bltu	a5,s1,6d38 <matrix_test+0x10d4>
    6dbc:	00160613          	addi	a2,a2,1
    6dc0:	008a0a33          	add	s4,s4,s0
    6dc4:	ea966ae3          	bltu	a2,s1,6c78 <matrix_test+0x1014>
    6dc8:	03812403          	lw	s0,56(sp)
    6dcc:	03c12083          	lw	ra,60(sp)
    6dd0:	03412483          	lw	s1,52(sp)
    6dd4:	03012903          	lw	s2,48(sp)
    6dd8:	02c12983          	lw	s3,44(sp)
    6ddc:	02812a03          	lw	s4,40(sp)
    6de0:	02412a83          	lw	s5,36(sp)
    6de4:	02012b03          	lw	s6,32(sp)
    6de8:	01c12b83          	lw	s7,28(sp)
    6dec:	01812c03          	lw	s8,24(sp)
    6df0:	01412c83          	lw	s9,20(sp)
    6df4:	01012d03          	lw	s10,16(sp)
    6df8:	00c12d83          	lw	s11,12(sp)
    6dfc:	3c05250b          	th.ext	a0,a0,15,0
    6e00:	04010113          	addi	sp,sp,64
    6e04:	00008067          	ret
    6e08:	00170713          	addi	a4,a4,1
    6e0c:	44e64d0b          	th.lrw	s10,a2,a4,2
    6e10:	01f8a8b3          	slt	a7,a7,t6
    6e14:	01150f33          	add	t5,a0,a7
    6e18:	01a78e33          	add	t3,a5,s10
    6e1c:	0dc95663          	bge	s2,t3,6ee8 <matrix_test+0x1284>
    6e20:	00170e93          	addi	t4,a4,1
    6e24:	45d6450b          	th.lrw	a0,a2,t4,2
    6e28:	00000e13          	li	t3,0
    6e2c:	00af0393          	addi	t2,t5,10
    6e30:	00ae0333          	add	t1,t3,a0
    6e34:	0c695663          	bge	s2,t1,6f00 <matrix_test+0x129c>
    6e38:	00270f93          	addi	t6,a4,2
    6e3c:	45f6488b          	th.lrw	a7,a2,t6,2
    6e40:	00000313          	li	t1,0
    6e44:	00a38d93          	addi	s11,t2,10
    6e48:	01130f33          	add	t5,t1,a7
    6e4c:	0de95663          	bge	s2,t5,6f18 <matrix_test+0x12b4>
    6e50:	00370e13          	addi	t3,a4,3
    6e54:	45c6438b          	th.lrw	t2,a2,t3,2
    6e58:	00000f13          	li	t5,0
    6e5c:	00ad8d13          	addi	s10,s11,10
    6e60:	007f0eb3          	add	t4,t5,t2
    6e64:	0dd95663          	bge	s2,t4,6f30 <matrix_test+0x12cc>
    6e68:	00470513          	addi	a0,a4,4
    6e6c:	44a6428b          	th.lrw	t0,a2,a0,2
    6e70:	00000e93          	li	t4,0
    6e74:	00ad0313          	addi	t1,s10,10
    6e78:	005e8db3          	add	s11,t4,t0
    6e7c:	0db95663          	bge	s2,s11,6f48 <matrix_test+0x12e4>
    6e80:	00570893          	addi	a7,a4,5
    6e84:	45164d0b          	th.lrw	s10,a2,a7,2
    6e88:	00000d93          	li	s11,0
    6e8c:	00a30f13          	addi	t5,t1,10
    6e90:	01ad87b3          	add	a5,s11,s10
    6e94:	0cf95663          	bge	s2,a5,6f60 <matrix_test+0x12fc>
    6e98:	00670e93          	addi	t4,a4,6
    6e9c:	45d6488b          	th.lrw	a7,a2,t4,2
    6ea0:	00000793          	li	a5,0
    6ea4:	00af0393          	addi	t2,t5,10
    6ea8:	011787b3          	add	a5,a5,a7
    6eac:	0cf95663          	bge	s2,a5,6f78 <matrix_test+0x1314>
    6eb0:	00a38313          	addi	t1,t2,10
    6eb4:	00000793          	li	a5,0
    6eb8:	00770713          	addi	a4,a4,7
    6ebc:	3c03250b          	th.ext	a0,t1,15,0
    6ec0:	e6977263          	bgeu	a4,s1,6524 <matrix_test+0x8c0>
    6ec4:	44e64f8b          	th.lrw	t6,a2,a4,2
    6ec8:	01f787b3          	add	a5,a5,t6
    6ecc:	f2f95ee3          	bge	s2,a5,6e08 <matrix_test+0x11a4>
    6ed0:	00170713          	addi	a4,a4,1
    6ed4:	44e64d0b          	th.lrw	s10,a2,a4,2
    6ed8:	00000793          	li	a5,0
    6edc:	00a50f13          	addi	t5,a0,10
    6ee0:	01a78e33          	add	t3,a5,s10
    6ee4:	f3c94ee3          	blt	s2,t3,6e20 <matrix_test+0x11bc>
    6ee8:	00170e93          	addi	t4,a4,1
    6eec:	45d6450b          	th.lrw	a0,a2,t4,2
    6ef0:	01afa6b3          	slt	a3,t6,s10
    6ef4:	00df03b3          	add	t2,t5,a3
    6ef8:	00ae0333          	add	t1,t3,a0
    6efc:	f2694ee3          	blt	s2,t1,6e38 <matrix_test+0x11d4>
    6f00:	00270f93          	addi	t6,a4,2
    6f04:	45f6488b          	th.lrw	a7,a2,t6,2
    6f08:	00ad22b3          	slt	t0,s10,a0
    6f0c:	00538db3          	add	s11,t2,t0
    6f10:	01130f33          	add	t5,t1,a7
    6f14:	f3e94ee3          	blt	s2,t5,6e50 <matrix_test+0x11ec>
    6f18:	00370e13          	addi	t3,a4,3
    6f1c:	45c6438b          	th.lrw	t2,a2,t3,2
    6f20:	011527b3          	slt	a5,a0,a7
    6f24:	00fd8d33          	add	s10,s11,a5
    6f28:	007f0eb3          	add	t4,t5,t2
    6f2c:	f3d94ee3          	blt	s2,t4,6e68 <matrix_test+0x1204>
    6f30:	00470513          	addi	a0,a4,4
    6f34:	44a6428b          	th.lrw	t0,a2,a0,2
    6f38:	0078a6b3          	slt	a3,a7,t2
    6f3c:	00dd0333          	add	t1,s10,a3
    6f40:	005e8db3          	add	s11,t4,t0
    6f44:	f3b94ee3          	blt	s2,s11,6e80 <matrix_test+0x121c>
    6f48:	00570893          	addi	a7,a4,5
    6f4c:	45164d0b          	th.lrw	s10,a2,a7,2
    6f50:	0053afb3          	slt	t6,t2,t0
    6f54:	01f30f33          	add	t5,t1,t6
    6f58:	01ad87b3          	add	a5,s11,s10
    6f5c:	f2f94ee3          	blt	s2,a5,6e98 <matrix_test+0x1234>
    6f60:	00670e93          	addi	t4,a4,6
    6f64:	45d6488b          	th.lrw	a7,a2,t4,2
    6f68:	01a2ae33          	slt	t3,t0,s10
    6f6c:	01cf03b3          	add	t2,t5,t3
    6f70:	011787b3          	add	a5,a5,a7
    6f74:	f2f94ee3          	blt	s2,a5,6eb0 <matrix_test+0x124c>
    6f78:	011d26b3          	slt	a3,s10,a7
    6f7c:	00d38333          	add	t1,t2,a3
    6f80:	f39ff06f          	j	6eb8 <matrix_test+0x1254>
    6f84:	00170713          	addi	a4,a4,1
    6f88:	44e64f8b          	th.lrw	t6,a2,a4,2
    6f8c:	01a8a8b3          	slt	a7,a7,s10
    6f90:	01150e33          	add	t3,a0,a7
    6f94:	01f78db3          	add	s11,a5,t6
    6f98:	0db95663          	bge	s2,s11,7064 <matrix_test+0x1400>
    6f9c:	00170f13          	addi	t5,a4,1
    6fa0:	45e6450b          	th.lrw	a0,a2,t5,2
    6fa4:	00000d93          	li	s11,0
    6fa8:	00ae0693          	addi	a3,t3,10
    6fac:	00ad83b3          	add	t2,s11,a0
    6fb0:	0c795663          	bge	s2,t2,707c <matrix_test+0x1418>
    6fb4:	00270d13          	addi	s10,a4,2
    6fb8:	45a6488b          	th.lrw	a7,a2,s10,2
    6fbc:	00000393          	li	t2,0
    6fc0:	00a68293          	addi	t0,a3,10
    6fc4:	01138e33          	add	t3,t2,a7
    6fc8:	0dc95663          	bge	s2,t3,7094 <matrix_test+0x1430>
    6fcc:	00370d93          	addi	s11,a4,3
    6fd0:	45b6430b          	th.lrw	t1,a2,s11,2
    6fd4:	00000e13          	li	t3,0
    6fd8:	00a28f93          	addi	t6,t0,10
    6fdc:	006e0f33          	add	t5,t3,t1
    6fe0:	0de95663          	bge	s2,t5,70ac <matrix_test+0x1448>
    6fe4:	00470513          	addi	a0,a4,4
    6fe8:	44a64e8b          	th.lrw	t4,a2,a0,2
    6fec:	00000f13          	li	t5,0
    6ff0:	00af8393          	addi	t2,t6,10
    6ff4:	01df02b3          	add	t0,t5,t4
    6ff8:	0c595663          	bge	s2,t0,70c4 <matrix_test+0x1460>
    6ffc:	00570893          	addi	a7,a4,5
    7000:	45164f8b          	th.lrw	t6,a2,a7,2
    7004:	00000293          	li	t0,0
    7008:	00a38e13          	addi	t3,t2,10
    700c:	01f287b3          	add	a5,t0,t6
    7010:	0cf95663          	bge	s2,a5,70dc <matrix_test+0x1478>
    7014:	00670f13          	addi	t5,a4,6
    7018:	45e6488b          	th.lrw	a7,a2,t5,2
    701c:	00000793          	li	a5,0
    7020:	00ae0313          	addi	t1,t3,10
    7024:	011787b3          	add	a5,a5,a7
    7028:	0cf95663          	bge	s2,a5,70f4 <matrix_test+0x1490>
    702c:	00a30393          	addi	t2,t1,10
    7030:	00000793          	li	a5,0
    7034:	00770713          	addi	a4,a4,7
    7038:	3c03a50b          	th.ext	a0,t2,15,0
    703c:	829776e3          	bgeu	a4,s1,6868 <matrix_test+0xc04>
    7040:	44e64d0b          	th.lrw	s10,a2,a4,2
    7044:	01a787b3          	add	a5,a5,s10
    7048:	f2f95ee3          	bge	s2,a5,6f84 <matrix_test+0x1320>
    704c:	00170713          	addi	a4,a4,1
    7050:	44e64f8b          	th.lrw	t6,a2,a4,2
    7054:	00000793          	li	a5,0
    7058:	00a50e13          	addi	t3,a0,10
    705c:	01f78db3          	add	s11,a5,t6
    7060:	f3b94ee3          	blt	s2,s11,6f9c <matrix_test+0x1338>
    7064:	00170f13          	addi	t5,a4,1
    7068:	45e6450b          	th.lrw	a0,a2,t5,2
    706c:	01fd2333          	slt	t1,s10,t6
    7070:	006e06b3          	add	a3,t3,t1
    7074:	00ad83b3          	add	t2,s11,a0
    7078:	f2794ee3          	blt	s2,t2,6fb4 <matrix_test+0x1350>
    707c:	00270d13          	addi	s10,a4,2
    7080:	45a6488b          	th.lrw	a7,a2,s10,2
    7084:	00afaeb3          	slt	t4,t6,a0
    7088:	01d682b3          	add	t0,a3,t4
    708c:	01138e33          	add	t3,t2,a7
    7090:	f3c94ee3          	blt	s2,t3,6fcc <matrix_test+0x1368>
    7094:	00370d93          	addi	s11,a4,3
    7098:	45b6430b          	th.lrw	t1,a2,s11,2
    709c:	011527b3          	slt	a5,a0,a7
    70a0:	00f28fb3          	add	t6,t0,a5
    70a4:	006e0f33          	add	t5,t3,t1
    70a8:	f3e94ee3          	blt	s2,t5,6fe4 <matrix_test+0x1380>
    70ac:	00470513          	addi	a0,a4,4
    70b0:	44a64e8b          	th.lrw	t4,a2,a0,2
    70b4:	0068a6b3          	slt	a3,a7,t1
    70b8:	00df83b3          	add	t2,t6,a3
    70bc:	01df02b3          	add	t0,t5,t4
    70c0:	f2594ee3          	blt	s2,t0,6ffc <matrix_test+0x1398>
    70c4:	00570893          	addi	a7,a4,5
    70c8:	45164f8b          	th.lrw	t6,a2,a7,2
    70cc:	01d32d33          	slt	s10,t1,t4
    70d0:	01a38e33          	add	t3,t2,s10
    70d4:	01f287b3          	add	a5,t0,t6
    70d8:	f2f94ee3          	blt	s2,a5,7014 <matrix_test+0x13b0>
    70dc:	00670f13          	addi	t5,a4,6
    70e0:	45e6488b          	th.lrw	a7,a2,t5,2
    70e4:	01feadb3          	slt	s11,t4,t6
    70e8:	01be0333          	add	t1,t3,s11
    70ec:	011787b3          	add	a5,a5,a7
    70f0:	f2f94ee3          	blt	s2,a5,702c <matrix_test+0x13c8>
    70f4:	011fa6b3          	slt	a3,t6,a7
    70f8:	00d303b3          	add	t2,t1,a3
    70fc:	f39ff06f          	j	7034 <matrix_test+0x13d0>
    7100:	00170713          	addi	a4,a4,1
    7104:	44eb4a8b          	th.lrw	s5,s6,a4,2
    7108:	01182833          	slt	a6,a6,a7
    710c:	01050333          	add	t1,a0,a6
    7110:	01578db3          	add	s11,a5,s5
    7114:	0db95663          	bge	s2,s11,71e0 <matrix_test+0x157c>
    7118:	00170293          	addi	t0,a4,1
    711c:	445b4f0b          	th.lrw	t5,s6,t0,2
    7120:	00000d93          	li	s11,0
    7124:	00a30393          	addi	t2,t1,10
    7128:	01ed8fb3          	add	t6,s11,t5
    712c:	0df95663          	bge	s2,t6,71f8 <matrix_test+0x1594>
    7130:	00270d13          	addi	s10,a4,2
    7134:	45ab4c8b          	th.lrw	s9,s6,s10,2
    7138:	00000f93          	li	t6,0
    713c:	00a38693          	addi	a3,t2,10
    7140:	019f8c33          	add	s8,t6,s9
    7144:	0d895663          	bge	s2,s8,7210 <matrix_test+0x15ac>
    7148:	00370813          	addi	a6,a4,3
    714c:	450b430b          	th.lrw	t1,s6,a6,2
    7150:	00000c13          	li	s8,0
    7154:	00a68893          	addi	a7,a3,10
    7158:	006c07b3          	add	a5,s8,t1
    715c:	0cf95663          	bge	s2,a5,7228 <matrix_test+0x15c4>
    7160:	00470e13          	addi	t3,a4,4
    7164:	45cb438b          	th.lrw	t2,s6,t3,2
    7168:	00000793          	li	a5,0
    716c:	00a88d93          	addi	s11,a7,10
    7170:	007782b3          	add	t0,a5,t2
    7174:	0c595663          	bge	s2,t0,7240 <matrix_test+0x15dc>
    7178:	00570e93          	addi	t4,a4,5
    717c:	45db4d0b          	th.lrw	s10,s6,t4,2
    7180:	00000293          	li	t0,0
    7184:	00ad8f93          	addi	t6,s11,10
    7188:	01a28cb3          	add	s9,t0,s10
    718c:	0d995663          	bge	s2,s9,7258 <matrix_test+0x15f4>
    7190:	00670513          	addi	a0,a4,6
    7194:	44ab480b          	th.lrw	a6,s6,a0,2
    7198:	00000c93          	li	s9,0
    719c:	00af8c13          	addi	s8,t6,10
    71a0:	010c87b3          	add	a5,s9,a6
    71a4:	0cf95663          	bge	s2,a5,7270 <matrix_test+0x160c>
    71a8:	00ac0313          	addi	t1,s8,10
    71ac:	00000793          	li	a5,0
    71b0:	00770713          	addi	a4,a4,7
    71b4:	3c03250b          	th.ext	a0,t1,15,0
    71b8:	aa9776e3          	bgeu	a4,s1,6c64 <matrix_test+0x1000>
    71bc:	44eb488b          	th.lrw	a7,s6,a4,2
    71c0:	011787b3          	add	a5,a5,a7
    71c4:	f2f95ee3          	bge	s2,a5,7100 <matrix_test+0x149c>
    71c8:	00170713          	addi	a4,a4,1
    71cc:	44eb4a8b          	th.lrw	s5,s6,a4,2
    71d0:	00000793          	li	a5,0
    71d4:	00a50313          	addi	t1,a0,10
    71d8:	01578db3          	add	s11,a5,s5
    71dc:	f3b94ee3          	blt	s2,s11,7118 <matrix_test+0x14b4>
    71e0:	00170293          	addi	t0,a4,1
    71e4:	445b4f0b          	th.lrw	t5,s6,t0,2
    71e8:	0158ae33          	slt	t3,a7,s5
    71ec:	01c303b3          	add	t2,t1,t3
    71f0:	01ed8fb3          	add	t6,s11,t5
    71f4:	f3f94ee3          	blt	s2,t6,7130 <matrix_test+0x14cc>
    71f8:	00270d13          	addi	s10,a4,2
    71fc:	45ab4c8b          	th.lrw	s9,s6,s10,2
    7200:	01eaaeb3          	slt	t4,s5,t5
    7204:	01d386b3          	add	a3,t2,t4
    7208:	019f8c33          	add	s8,t6,s9
    720c:	f3894ee3          	blt	s2,s8,7148 <matrix_test+0x14e4>
    7210:	00370813          	addi	a6,a4,3
    7214:	450b430b          	th.lrw	t1,s6,a6,2
    7218:	019f2533          	slt	a0,t5,s9
    721c:	00a688b3          	add	a7,a3,a0
    7220:	006c07b3          	add	a5,s8,t1
    7224:	f2f94ee3          	blt	s2,a5,7160 <matrix_test+0x14fc>
    7228:	00470e13          	addi	t3,a4,4
    722c:	45cb438b          	th.lrw	t2,s6,t3,2
    7230:	006caab3          	slt	s5,s9,t1
    7234:	01588db3          	add	s11,a7,s5
    7238:	007782b3          	add	t0,a5,t2
    723c:	f2594ee3          	blt	s2,t0,7178 <matrix_test+0x1514>
    7240:	00570e93          	addi	t4,a4,5
    7244:	45db4d0b          	th.lrw	s10,s6,t4,2
    7248:	00732f33          	slt	t5,t1,t2
    724c:	01ed8fb3          	add	t6,s11,t5
    7250:	01a28cb3          	add	s9,t0,s10
    7254:	f3994ee3          	blt	s2,s9,7190 <matrix_test+0x152c>
    7258:	00670513          	addi	a0,a4,6
    725c:	44ab480b          	th.lrw	a6,s6,a0,2
    7260:	01a3a6b3          	slt	a3,t2,s10
    7264:	00df8c33          	add	s8,t6,a3
    7268:	010c87b3          	add	a5,s9,a6
    726c:	f2f94ee3          	blt	s2,a5,71a8 <matrix_test+0x1544>
    7270:	010d28b3          	slt	a7,s10,a6
    7274:	011c0333          	add	t1,s8,a7
    7278:	f39ff06f          	j	71b0 <matrix_test+0x154c>
    727c:	0108a733          	slt	a4,a7,a6
    7280:	00e50db3          	add	s11,a0,a4
    7284:	8c5ff06f          	j	6b48 <matrix_test+0xee4>
    7288:	011726b3          	slt	a3,a4,a7
    728c:	00d50533          	add	a0,a0,a3
    7290:	cc0ff06f          	j	6750 <matrix_test+0xaec>
    7294:	011d23b3          	slt	t2,s10,a7
    7298:	00750533          	add	a0,a0,t2
    729c:	970ff06f          	j	640c <matrix_test+0x7a8>
    72a0:	011322b3          	slt	t0,t1,a7
    72a4:	00550db3          	add	s11,a0,t0
    72a8:	a70ff06f          	j	6518 <matrix_test+0x8b4>
    72ac:	0113aeb3          	slt	t4,t2,a7
    72b0:	01d502b3          	add	t0,a0,t4
    72b4:	da8ff06f          	j	685c <matrix_test+0xbf8>
    72b8:	010cac33          	slt	s8,s9,a6
    72bc:	01850533          	add	a0,a0,s8
    72c0:	999ff06f          	j	6c58 <matrix_test+0xff4>
    72c4:	0113aeb3          	slt	t4,t2,a7
    72c8:	01d50533          	add	a0,a0,t4
    72cc:	00170713          	addi	a4,a4,1
    72d0:	a30ff06f          	j	6500 <matrix_test+0x89c>
    72d4:	010ea6b3          	slt	a3,t4,a6
    72d8:	00d50d33          	add	s10,a0,a3
    72dc:	95dff06f          	j	6c38 <matrix_test+0xfd4>
    72e0:	0116af33          	slt	t5,a3,a7
    72e4:	01e50533          	add	a0,a0,t5
    72e8:	00170713          	addi	a4,a4,1
    72ec:	d58ff06f          	j	6844 <matrix_test+0xbe0>
    72f0:	0102af33          	slt	t5,t0,a6
    72f4:	01e50fb3          	add	t6,a0,t5
    72f8:	921ff06f          	j	6c18 <matrix_test+0xfb4>
    72fc:	0116ad33          	slt	s10,a3,a7
    7300:	01a50e33          	add	t3,a0,s10
    7304:	9d8ff06f          	j	64dc <matrix_test+0x878>
    7308:	01132fb3          	slt	t6,t1,a7
    730c:	01f50db3          	add	s11,a0,t6
    7310:	d10ff06f          	j	6820 <matrix_test+0xbbc>
    7314:	011dafb3          	slt	t6,s11,a7
    7318:	01f50f33          	add	t5,a0,t6
    731c:	9a0ff06f          	j	64bc <matrix_test+0x858>
    7320:	0112ad33          	slt	s10,t0,a7
    7324:	01a50e33          	add	t3,a0,s10
    7328:	cd8ff06f          	j	6800 <matrix_test+0xb9c>
    732c:	010dae33          	slt	t3,s11,a6
    7330:	01c503b3          	add	t2,a0,t3
    7334:	8c5ff06f          	j	6bf8 <matrix_test+0xf94>
    7338:	011ea333          	slt	t1,t4,a7
    733c:	006502b3          	add	t0,a0,t1
    7340:	95cff06f          	j	649c <matrix_test+0x838>
    7344:	0108a333          	slt	t1,a7,a6
    7348:	00650ab3          	add	s5,a0,t1
    734c:	88dff06f          	j	6bd8 <matrix_test+0xf74>
    7350:	011f23b3          	slt	t2,t5,a7
    7354:	00750eb3          	add	t4,a0,t2
    7358:	c88ff06f          	j	67e0 <matrix_test+0xb7c>
    735c:	011e23b3          	slt	t2,t3,a7
    7360:	00750533          	add	a0,a0,t2
    7364:	00170713          	addi	a4,a4,1
    7368:	91cff06f          	j	6484 <matrix_test+0x820>
    736c:	011da6b3          	slt	a3,s11,a7
    7370:	00d50533          	add	a0,a0,a3
    7374:	00170713          	addi	a4,a4,1
    7378:	c50ff06f          	j	67c8 <matrix_test+0xb64>
    737c:	010cac33          	slt	s8,s9,a6
    7380:	01850533          	add	a0,a0,s8
    7384:	00170713          	addi	a4,a4,1
    7388:	839ff06f          	j	6bc0 <matrix_test+0xf5c>
    738c:	01032f33          	slt	t5,t1,a6
    7390:	01e50533          	add	a0,a0,t5
    7394:	c45fe06f          	j	5fd8 <matrix_test+0x374>
    7398:	00a50d13          	addi	s10,a0,10
    739c:	00000793          	li	a5,0
    73a0:	ffcff06f          	j	6b9c <matrix_test+0xf38>
    73a4:	00a50f93          	addi	t6,a0,10
    73a8:	00000793          	li	a5,0
    73ac:	bf8ff06f          	j	67a4 <matrix_test+0xb40>
    73b0:	00a50d13          	addi	s10,a0,10
    73b4:	00000793          	li	a5,0
    73b8:	8a8ff06f          	j	6460 <matrix_test+0x7fc>
    73bc:	00000593          	li	a1,0
    73c0:	374020ef          	jal	9734 <crc16>
    73c4:	00050593          	mv	a1,a0
    73c8:	00000513          	li	a0,0
    73cc:	368020ef          	jal	9734 <crc16>
    73d0:	00050593          	mv	a1,a0
    73d4:	00000513          	li	a0,0
    73d8:	35c020ef          	jal	9734 <crc16>
    73dc:	00050593          	mv	a1,a0
    73e0:	00000513          	li	a0,0
    73e4:	350020ef          	jal	9734 <crc16>
    73e8:	03c12083          	lw	ra,60(sp)
    73ec:	3c05250b          	th.ext	a0,a0,15,0
    73f0:	04010113          	addi	sp,sp,64
    73f4:	00008067          	ret

000073f8 <core_init_matrix>:
    73f8:	fe010113          	addi	sp,sp,-32
    73fc:	00812e23          	sw	s0,28(sp)
    7400:	00912c23          	sw	s1,24(sp)
    7404:	01212a23          	sw	s2,20(sp)
    7408:	00050713          	mv	a4,a0
    740c:	00068413          	mv	s0,a3
    7410:	00061463          	bnez	a2,7418 <core_init_matrix+0x20>
    7414:	00100613          	li	a2,1
    7418:	fff58593          	addi	a1,a1,-1
    741c:	ffc5f393          	andi	t2,a1,-4
    7420:	00438e93          	addi	t4,t2,4
    7424:	000e8493          	mv	s1,t4
    7428:	00000793          	li	a5,0
    742c:	4a070663          	beqz	a4,78d8 <core_init_matrix+0x4e0>
    7430:	00178813          	addi	a6,a5,1
    7434:	030806b3          	mul	a3,a6,a6
    7438:	00278893          	addi	a7,a5,2
    743c:	00378f93          	addi	t6,a5,3
    7440:	00478293          	addi	t0,a5,4
    7444:	00578f13          	addi	t5,a5,5
    7448:	00678313          	addi	t1,a5,6
    744c:	00778e13          	addi	t3,a5,7
    7450:	00078513          	mv	a0,a5
    7454:	00878793          	addi	a5,a5,8
    7458:	00369913          	slli	s2,a3,0x3
    745c:	06e97a63          	bgeu	s2,a4,74d0 <core_init_matrix+0xd8>
    7460:	031885b3          	mul	a1,a7,a7
    7464:	00080513          	mv	a0,a6
    7468:	00359813          	slli	a6,a1,0x3
    746c:	06e87263          	bgeu	a6,a4,74d0 <core_init_matrix+0xd8>
    7470:	03ff86b3          	mul	a3,t6,t6
    7474:	00088513          	mv	a0,a7
    7478:	00369893          	slli	a7,a3,0x3
    747c:	04e8fa63          	bgeu	a7,a4,74d0 <core_init_matrix+0xd8>
    7480:	02528933          	mul	s2,t0,t0
    7484:	000f8513          	mv	a0,t6
    7488:	00391f93          	slli	t6,s2,0x3
    748c:	04eff263          	bgeu	t6,a4,74d0 <core_init_matrix+0xd8>
    7490:	03ef05b3          	mul	a1,t5,t5
    7494:	00028513          	mv	a0,t0
    7498:	00359293          	slli	t0,a1,0x3
    749c:	02e2fa63          	bgeu	t0,a4,74d0 <core_init_matrix+0xd8>
    74a0:	02630833          	mul	a6,t1,t1
    74a4:	000f0513          	mv	a0,t5
    74a8:	00381f13          	slli	t5,a6,0x3
    74ac:	02ef7263          	bgeu	t5,a4,74d0 <core_init_matrix+0xd8>
    74b0:	03ce06b3          	mul	a3,t3,t3
    74b4:	00030513          	mv	a0,t1
    74b8:	00369313          	slli	t1,a3,0x3
    74bc:	00e37a63          	bgeu	t1,a4,74d0 <core_init_matrix+0xd8>
    74c0:	02f788b3          	mul	a7,a5,a5
    74c4:	000e0513          	mv	a0,t3
    74c8:	00389e13          	slli	t3,a7,0x3
    74cc:	f6ee62e3          	bltu	t3,a4,7430 <core_init_matrix+0x38>
    74d0:	02a50733          	mul	a4,a0,a0
    74d4:	00171293          	slli	t0,a4,0x1
    74d8:	21d726b3          	sh1add	a3,a4,t4
    74dc:	3e050863          	beqz	a0,78cc <core_init_matrix+0x4d4>
    74e0:	01412623          	sw	s4,12(sp)
    74e4:	00050913          	mv	s2,a0
    74e8:	40768a33          	sub	s4,a3,t2
    74ec:	800103b7          	lui	t2,0x80010
    74f0:	ffca0713          	addi	a4,s4,-4
    74f4:	fff38593          	addi	a1,t2,-1 # 8000ffff <_stack_top+0x7fffbfff>
    74f8:	00150313          	addi	t1,a0,1
    74fc:	00151393          	slli	t2,a0,0x1
    7500:	00000f13          	li	t5,0
    7504:	00100a13          	li	s4,1
    7508:	ffff0e37          	lui	t3,0xffff0
    750c:	414307b3          	sub	a5,t1,s4
    7510:	0077f813          	andi	a6,a5,7
    7514:	000a0f93          	mv	t6,s4
    7518:	000e8793          	mv	a5,t4
    751c:	3a080263          	beqz	a6,78c0 <core_init_matrix+0x4c8>
    7520:	00100893          	li	a7,1
    7524:	17180263          	beq	a6,a7,7688 <core_init_matrix+0x290>
    7528:	00200893          	li	a7,2
    752c:	13180463          	beq	a6,a7,7654 <core_init_matrix+0x25c>
    7530:	00300893          	li	a7,3
    7534:	0f180663          	beq	a6,a7,7620 <core_init_matrix+0x228>
    7538:	00400893          	li	a7,4
    753c:	0b180863          	beq	a6,a7,75ec <core_init_matrix+0x1f4>
    7540:	00500893          	li	a7,5
    7544:	07180a63          	beq	a6,a7,75b8 <core_init_matrix+0x1c0>
    7548:	00600893          	li	a7,6
    754c:	03180c63          	beq	a6,a7,7584 <core_init_matrix+0x18c>
    7550:	03460633          	mul	a2,a2,s4
    7554:	00b67633          	and	a2,a2,a1
    7558:	00065863          	bgez	a2,7568 <core_init_matrix+0x170>
    755c:	fff60793          	addi	a5,a2,-1
    7560:	01c7e833          	or	a6,a5,t3
    7564:	00180613          	addi	a2,a6,1
    7568:	00ca08b3          	add	a7,s4,a2
    756c:	014887b3          	add	a5,a7,s4
    7570:	0ff7f813          	zext.b	a6,a5
    7574:	21d7588b          	th.srh	a7,a4,t4,0
    7578:	010e9023          	sh	a6,0(t4)
    757c:	001a0a13          	addi	s4,s4,1
    7580:	002e8793          	addi	a5,t4,2
    7584:	03460633          	mul	a2,a2,s4
    7588:	00b67633          	and	a2,a2,a1
    758c:	00065863          	bgez	a2,759c <core_init_matrix+0x1a4>
    7590:	fff60893          	addi	a7,a2,-1
    7594:	01c8e833          	or	a6,a7,t3
    7598:	00180613          	addi	a2,a6,1
    759c:	00ca08b3          	add	a7,s4,a2
    75a0:	01488833          	add	a6,a7,s4
    75a4:	20f7588b          	th.srh	a7,a4,a5,0
    75a8:	0ff87893          	zext.b	a7,a6
    75ac:	01179023          	sh	a7,0(a5)
    75b0:	001a0a13          	addi	s4,s4,1
    75b4:	00278793          	addi	a5,a5,2
    75b8:	03460633          	mul	a2,a2,s4
    75bc:	00b67633          	and	a2,a2,a1
    75c0:	00065863          	bgez	a2,75d0 <core_init_matrix+0x1d8>
    75c4:	fff60813          	addi	a6,a2,-1
    75c8:	01c868b3          	or	a7,a6,t3
    75cc:	00188613          	addi	a2,a7,1
    75d0:	00ca08b3          	add	a7,s4,a2
    75d4:	01488833          	add	a6,a7,s4
    75d8:	20f7588b          	th.srh	a7,a4,a5,0
    75dc:	0ff87893          	zext.b	a7,a6
    75e0:	01179023          	sh	a7,0(a5)
    75e4:	001a0a13          	addi	s4,s4,1
    75e8:	00278793          	addi	a5,a5,2
    75ec:	03460633          	mul	a2,a2,s4
    75f0:	00b67633          	and	a2,a2,a1
    75f4:	00065863          	bgez	a2,7604 <core_init_matrix+0x20c>
    75f8:	fff60813          	addi	a6,a2,-1
    75fc:	01c868b3          	or	a7,a6,t3
    7600:	00188613          	addi	a2,a7,1
    7604:	00ca08b3          	add	a7,s4,a2
    7608:	01488833          	add	a6,a7,s4
    760c:	20f7588b          	th.srh	a7,a4,a5,0
    7610:	0ff87893          	zext.b	a7,a6
    7614:	01179023          	sh	a7,0(a5)
    7618:	001a0a13          	addi	s4,s4,1
    761c:	00278793          	addi	a5,a5,2
    7620:	03460633          	mul	a2,a2,s4
    7624:	00b67633          	and	a2,a2,a1
    7628:	00065863          	bgez	a2,7638 <core_init_matrix+0x240>
    762c:	fff60813          	addi	a6,a2,-1
    7630:	01c868b3          	or	a7,a6,t3
    7634:	00188613          	addi	a2,a7,1
    7638:	00ca08b3          	add	a7,s4,a2
    763c:	01488833          	add	a6,a7,s4
    7640:	20f7588b          	th.srh	a7,a4,a5,0
    7644:	0ff87893          	zext.b	a7,a6
    7648:	01179023          	sh	a7,0(a5)
    764c:	001a0a13          	addi	s4,s4,1
    7650:	00278793          	addi	a5,a5,2
    7654:	03460633          	mul	a2,a2,s4
    7658:	00b67633          	and	a2,a2,a1
    765c:	00065863          	bgez	a2,766c <core_init_matrix+0x274>
    7660:	fff60813          	addi	a6,a2,-1
    7664:	01c868b3          	or	a7,a6,t3
    7668:	00188613          	addi	a2,a7,1
    766c:	00ca08b3          	add	a7,s4,a2
    7670:	01488833          	add	a6,a7,s4
    7674:	20f7588b          	th.srh	a7,a4,a5,0
    7678:	0ff87893          	zext.b	a7,a6
    767c:	01179023          	sh	a7,0(a5)
    7680:	001a0a13          	addi	s4,s4,1
    7684:	00278793          	addi	a5,a5,2
    7688:	03460633          	mul	a2,a2,s4
    768c:	00b67633          	and	a2,a2,a1
    7690:	00065863          	bgez	a2,76a0 <core_init_matrix+0x2a8>
    7694:	fff60813          	addi	a6,a2,-1
    7698:	01c868b3          	or	a7,a6,t3
    769c:	00188613          	addi	a2,a7,1
    76a0:	00ca08b3          	add	a7,s4,a2
    76a4:	01488833          	add	a6,a7,s4
    76a8:	20f7588b          	th.srh	a7,a4,a5,0
    76ac:	0ff87893          	zext.b	a7,a6
    76b0:	01179023          	sh	a7,0(a5)
    76b4:	001a0a13          	addi	s4,s4,1
    76b8:	00278793          	addi	a5,a5,2
    76bc:	1a6a0c63          	beq	s4,t1,7874 <core_init_matrix+0x47c>
    76c0:	01312823          	sw	s3,16(sp)
    76c4:	01512423          	sw	s5,8(sp)
    76c8:	034609b3          	mul	s3,a2,s4
    76cc:	00b9f833          	and	a6,s3,a1
    76d0:	00085863          	bgez	a6,76e0 <core_init_matrix+0x2e8>
    76d4:	fff80a93          	addi	s5,a6,-1
    76d8:	01cae633          	or	a2,s5,t3
    76dc:	00160813          	addi	a6,a2,1
    76e0:	001a0893          	addi	a7,s4,1
    76e4:	031809b3          	mul	s3,a6,a7
    76e8:	010a0ab3          	add	s5,s4,a6
    76ec:	014a8a33          	add	s4,s5,s4
    76f0:	20f75a8b          	th.srh	s5,a4,a5,0
    76f4:	0ffa7613          	zext.b	a2,s4
    76f8:	00c79023          	sh	a2,0(a5)
    76fc:	00278793          	addi	a5,a5,2
    7700:	00b9fab3          	and	s5,s3,a1
    7704:	000ad863          	bgez	s5,7714 <core_init_matrix+0x31c>
    7708:	fffa8813          	addi	a6,s5,-1
    770c:	01c869b3          	or	s3,a6,t3
    7710:	00198a93          	addi	s5,s3,1
    7714:	00188a13          	addi	s4,a7,1
    7718:	034a8833          	mul	a6,s5,s4
    771c:	01588633          	add	a2,a7,s5
    7720:	011609b3          	add	s3,a2,a7
    7724:	0ff9fa93          	zext.b	s5,s3
    7728:	20f7560b          	th.srh	a2,a4,a5,0
    772c:	01579023          	sh	s5,0(a5)
    7730:	00278a93          	addi	s5,a5,2
    7734:	00b87833          	and	a6,a6,a1
    7738:	00085863          	bgez	a6,7748 <core_init_matrix+0x350>
    773c:	fff80813          	addi	a6,a6,-1
    7740:	01c86633          	or	a2,a6,t3
    7744:	00160813          	addi	a6,a2,1
    7748:	00288993          	addi	s3,a7,2
    774c:	03380633          	mul	a2,a6,s3
    7750:	010a0833          	add	a6,s4,a6
    7754:	01480a33          	add	s4,a6,s4
    7758:	2157580b          	th.srh	a6,a4,s5,0
    775c:	0ffa7a13          	zext.b	s4,s4
    7760:	01479123          	sh	s4,2(a5)
    7764:	00478a93          	addi	s5,a5,4
    7768:	00b67633          	and	a2,a2,a1
    776c:	00065863          	bgez	a2,777c <core_init_matrix+0x384>
    7770:	fff60613          	addi	a2,a2,-1
    7774:	01c66833          	or	a6,a2,t3
    7778:	00180613          	addi	a2,a6,1
    777c:	00388a13          	addi	s4,a7,3
    7780:	03460833          	mul	a6,a2,s4
    7784:	00c98633          	add	a2,s3,a2
    7788:	013609b3          	add	s3,a2,s3
    778c:	2157560b          	th.srh	a2,a4,s5,0
    7790:	0ff9f993          	zext.b	s3,s3
    7794:	01379223          	sh	s3,4(a5)
    7798:	00678a93          	addi	s5,a5,6
    779c:	00b87833          	and	a6,a6,a1
    77a0:	00085863          	bgez	a6,77b0 <core_init_matrix+0x3b8>
    77a4:	fff80813          	addi	a6,a6,-1
    77a8:	01c86633          	or	a2,a6,t3
    77ac:	00160813          	addi	a6,a2,1
    77b0:	00488993          	addi	s3,a7,4
    77b4:	03380633          	mul	a2,a6,s3
    77b8:	010a0833          	add	a6,s4,a6
    77bc:	01480a33          	add	s4,a6,s4
    77c0:	2157580b          	th.srh	a6,a4,s5,0
    77c4:	0ffa7a13          	zext.b	s4,s4
    77c8:	01479323          	sh	s4,6(a5)
    77cc:	00878a93          	addi	s5,a5,8
    77d0:	00b67633          	and	a2,a2,a1
    77d4:	00065863          	bgez	a2,77e4 <core_init_matrix+0x3ec>
    77d8:	fff60613          	addi	a2,a2,-1
    77dc:	01c66833          	or	a6,a2,t3
    77e0:	00180613          	addi	a2,a6,1
    77e4:	00588a13          	addi	s4,a7,5
    77e8:	03460833          	mul	a6,a2,s4
    77ec:	00c98633          	add	a2,s3,a2
    77f0:	013609b3          	add	s3,a2,s3
    77f4:	2157560b          	th.srh	a2,a4,s5,0
    77f8:	0ff9f993          	zext.b	s3,s3
    77fc:	01379423          	sh	s3,8(a5)
    7800:	00a78a93          	addi	s5,a5,10
    7804:	00b87833          	and	a6,a6,a1
    7808:	00085863          	bgez	a6,7818 <core_init_matrix+0x420>
    780c:	fff80813          	addi	a6,a6,-1
    7810:	01c86633          	or	a2,a6,t3
    7814:	00160813          	addi	a6,a2,1
    7818:	00688993          	addi	s3,a7,6
    781c:	03380633          	mul	a2,a6,s3
    7820:	010a0833          	add	a6,s4,a6
    7824:	01480a33          	add	s4,a6,s4
    7828:	2157580b          	th.srh	a6,a4,s5,0
    782c:	0ffa7a13          	zext.b	s4,s4
    7830:	01479523          	sh	s4,10(a5)
    7834:	00c78a93          	addi	s5,a5,12
    7838:	00b67633          	and	a2,a2,a1
    783c:	00065863          	bgez	a2,784c <core_init_matrix+0x454>
    7840:	fff60613          	addi	a2,a2,-1
    7844:	01c66833          	or	a6,a2,t3
    7848:	00180613          	addi	a2,a6,1
    784c:	00c98a33          	add	s4,s3,a2
    7850:	013a09b3          	add	s3,s4,s3
    7854:	21575a0b          	th.srh	s4,a4,s5,0
    7858:	0ff9f813          	zext.b	a6,s3
    785c:	01079623          	sh	a6,12(a5)
    7860:	00788a13          	addi	s4,a7,7
    7864:	00e78793          	addi	a5,a5,14
    7868:	e66a10e3          	bne	s4,t1,76c8 <core_init_matrix+0x2d0>
    786c:	01012983          	lw	s3,16(sp)
    7870:	00812a83          	lw	s5,8(sp)
    7874:	001f0f13          	addi	t5,t5,1
    7878:	01f50a33          	add	s4,a0,t6
    787c:	00a30333          	add	t1,t1,a0
    7880:	007e8eb3          	add	t4,t4,t2
    7884:	c8af14e3          	bne	t5,a0,750c <core_init_matrix+0x114>
    7888:	00c12a03          	lw	s4,12(sp)
    788c:	00568fb3          	add	t6,a3,t0
    7890:	ffff8893          	addi	a7,t6,-1
    7894:	ffc8f613          	andi	a2,a7,-4
    7898:	00460813          	addi	a6,a2,4
    789c:	00942223          	sw	s1,4(s0)
    78a0:	01242023          	sw	s2,0(s0)
    78a4:	01042623          	sw	a6,12(s0)
    78a8:	00d42423          	sw	a3,8(s0)
    78ac:	01c12403          	lw	s0,28(sp)
    78b0:	01812483          	lw	s1,24(sp)
    78b4:	01412903          	lw	s2,20(sp)
    78b8:	02010113          	addi	sp,sp,32
    78bc:	00008067          	ret
    78c0:	01312823          	sw	s3,16(sp)
    78c4:	01512423          	sw	s5,8(sp)
    78c8:	e01ff06f          	j	76c8 <core_init_matrix+0x2d0>
    78cc:	00000293          	li	t0,0
    78d0:	00000913          	li	s2,0
    78d4:	fb9ff06f          	j	788c <core_init_matrix+0x494>
    78d8:	fff00913          	li	s2,-1
    78dc:	01412623          	sw	s4,12(sp)
    78e0:	00090513          	mv	a0,s2
    78e4:	00638693          	addi	a3,t2,6
    78e8:	00200293          	li	t0,2
    78ec:	bfdff06f          	j	74e8 <core_init_matrix+0xf0>

000078f0 <matrix_sum>:
    78f0:	00050893          	mv	a7,a0
    78f4:	2e050863          	beqz	a0,7be4 <matrix_sum+0x2f4>
    78f8:	20b54833          	sh2add	a6,a0,a1
    78fc:	00251e13          	slli	t3,a0,0x2
    7900:	00000313          	li	t1,0
    7904:	00000513          	li	a0,0
    7908:	00000693          	li	a3,0
    790c:	00000793          	li	a5,0
    7910:	ffce0593          	addi	a1,t3,-4 # fffefffc <_stack_top+0xfffdbffc>
    7914:	0025d293          	srli	t0,a1,0x2
    7918:	00128393          	addi	t2,t0,1
    791c:	0073ff13          	andi	t5,t2,7
    7920:	41c80733          	sub	a4,a6,t3
    7924:	1c0f0263          	beqz	t5,7ae8 <matrix_sum+0x1f8>
    7928:	00100e93          	li	t4,1
    792c:	0fdf0263          	beq	t5,t4,7a10 <matrix_sum+0x120>
    7930:	00200f93          	li	t6,2
    7934:	0bff0e63          	beq	t5,t6,79f0 <matrix_sum+0x100>
    7938:	00300593          	li	a1,3
    793c:	08bf0a63          	beq	t5,a1,79d0 <matrix_sum+0xe0>
    7940:	00400293          	li	t0,4
    7944:	065f0863          	beq	t5,t0,79b4 <matrix_sum+0xc4>
    7948:	00500393          	li	t2,5
    794c:	047f0463          	beq	t5,t2,7994 <matrix_sum+0xa4>
    7950:	00600e93          	li	t4,6
    7954:	03df0063          	beq	t5,t4,7974 <matrix_sum+0x84>
    7958:	00068f13          	mv	t5,a3
    795c:	00072683          	lw	a3,0(a4)
    7960:	00d787b3          	add	a5,a5,a3
    7964:	26f65a63          	bge	a2,a5,7bd8 <matrix_sum+0x2e8>
    7968:	00a50513          	addi	a0,a0,10
    796c:	00000793          	li	a5,0
    7970:	00470713          	addi	a4,a4,4
    7974:	00068593          	mv	a1,a3
    7978:	00072683          	lw	a3,0(a4)
    797c:	00d787b3          	add	a5,a5,a3
    7980:	24f65663          	bge	a2,a5,7bcc <matrix_sum+0x2dc>
    7984:	00a50393          	addi	t2,a0,10
    7988:	00000793          	li	a5,0
    798c:	00038513          	mv	a0,t2
    7990:	00470713          	addi	a4,a4,4
    7994:	00068e93          	mv	t4,a3
    7998:	00072683          	lw	a3,0(a4)
    799c:	00d787b3          	add	a5,a5,a3
    79a0:	22f65063          	bge	a2,a5,7bc0 <matrix_sum+0x2d0>
    79a4:	00a50f93          	addi	t6,a0,10
    79a8:	00000793          	li	a5,0
    79ac:	000f8513          	mv	a0,t6
    79b0:	00470713          	addi	a4,a4,4
    79b4:	00068593          	mv	a1,a3
    79b8:	00072683          	lw	a3,0(a4)
    79bc:	00d787b3          	add	a5,a5,a3
    79c0:	1ef65a63          	bge	a2,a5,7bb4 <matrix_sum+0x2c4>
    79c4:	00a50513          	addi	a0,a0,10
    79c8:	00000793          	li	a5,0
    79cc:	00470713          	addi	a4,a4,4
    79d0:	00068393          	mv	t2,a3
    79d4:	00072683          	lw	a3,0(a4)
    79d8:	00d787b3          	add	a5,a5,a3
    79dc:	1cf65663          	bge	a2,a5,7ba8 <matrix_sum+0x2b8>
    79e0:	00a50f13          	addi	t5,a0,10
    79e4:	00000793          	li	a5,0
    79e8:	000f0513          	mv	a0,t5
    79ec:	00470713          	addi	a4,a4,4
    79f0:	00068f93          	mv	t6,a3
    79f4:	00072683          	lw	a3,0(a4)
    79f8:	00d787b3          	add	a5,a5,a3
    79fc:	1af65063          	bge	a2,a5,7b9c <matrix_sum+0x2ac>
    7a00:	00a50293          	addi	t0,a0,10
    7a04:	00000793          	li	a5,0
    7a08:	00028513          	mv	a0,t0
    7a0c:	00470713          	addi	a4,a4,4
    7a10:	00068393          	mv	t2,a3
    7a14:	00072683          	lw	a3,0(a4)
    7a18:	00d787b3          	add	a5,a5,a3
    7a1c:	16f65a63          	bge	a2,a5,7b90 <matrix_sum+0x2a0>
    7a20:	00a50513          	addi	a0,a0,10
    7a24:	00000793          	li	a5,0
    7a28:	00470713          	addi	a4,a4,4
    7a2c:	3c05250b          	th.ext	a0,a0,15,0
    7a30:	0ae81c63          	bne	a6,a4,7ae8 <matrix_sum+0x1f8>
    7a34:	00130313          	addi	t1,t1,1
    7a38:	01c80833          	add	a6,a6,t3
    7a3c:	ec689ae3          	bne	a7,t1,7910 <matrix_sum+0x20>
    7a40:	00008067          	ret
    7a44:	00472283          	lw	t0,4(a4)
    7a48:	01e6a6b3          	slt	a3,a3,t5
    7a4c:	00d50fb3          	add	t6,a0,a3
    7a50:	005783b3          	add	t2,a5,t0
    7a54:	00470713          	addi	a4,a4,4
    7a58:	0a765a63          	bge	a2,t2,7b0c <matrix_sum+0x21c>
    7a5c:	00472503          	lw	a0,4(a4)
    7a60:	00000393          	li	t2,0
    7a64:	00af8e93          	addi	t4,t6,10
    7a68:	00a38f33          	add	t5,t2,a0
    7a6c:	0be65a63          	bge	a2,t5,7b20 <matrix_sum+0x230>
    7a70:	00872283          	lw	t0,8(a4)
    7a74:	00000f13          	li	t5,0
    7a78:	00ae8f93          	addi	t6,t4,10
    7a7c:	005f07b3          	add	a5,t5,t0
    7a80:	0af65a63          	bge	a2,a5,7b34 <matrix_sum+0x244>
    7a84:	00c72e83          	lw	t4,12(a4)
    7a88:	00000793          	li	a5,0
    7a8c:	00af8593          	addi	a1,t6,10
    7a90:	01d78533          	add	a0,a5,t4
    7a94:	0aa65a63          	bge	a2,a0,7b48 <matrix_sum+0x258>
    7a98:	01072683          	lw	a3,16(a4)
    7a9c:	00000513          	li	a0,0
    7aa0:	00a58f93          	addi	t6,a1,10
    7aa4:	00d502b3          	add	t0,a0,a3
    7aa8:	0a565a63          	bge	a2,t0,7b5c <matrix_sum+0x26c>
    7aac:	01472e83          	lw	t4,20(a4)
    7ab0:	00000293          	li	t0,0
    7ab4:	00af8393          	addi	t2,t6,10
    7ab8:	01d28533          	add	a0,t0,t4
    7abc:	0aa65a63          	bge	a2,a0,7b70 <matrix_sum+0x280>
    7ac0:	01872683          	lw	a3,24(a4)
    7ac4:	00000513          	li	a0,0
    7ac8:	00a38f13          	addi	t5,t2,10
    7acc:	00d507b3          	add	a5,a0,a3
    7ad0:	0af65a63          	bge	a2,a5,7b84 <matrix_sum+0x294>
    7ad4:	00af0293          	addi	t0,t5,10
    7ad8:	00000793          	li	a5,0
    7adc:	01c70713          	addi	a4,a4,28
    7ae0:	3c02a50b          	th.ext	a0,t0,15,0
    7ae4:	f4e808e3          	beq	a6,a4,7a34 <matrix_sum+0x144>
    7ae8:	00072f03          	lw	t5,0(a4)
    7aec:	01e787b3          	add	a5,a5,t5
    7af0:	f4f65ae3          	bge	a2,a5,7a44 <matrix_sum+0x154>
    7af4:	00472283          	lw	t0,4(a4)
    7af8:	00000793          	li	a5,0
    7afc:	00a50f93          	addi	t6,a0,10
    7b00:	005783b3          	add	t2,a5,t0
    7b04:	00470713          	addi	a4,a4,4
    7b08:	f4764ae3          	blt	a2,t2,7a5c <matrix_sum+0x16c>
    7b0c:	00472503          	lw	a0,4(a4)
    7b10:	005f25b3          	slt	a1,t5,t0
    7b14:	00bf8eb3          	add	t4,t6,a1
    7b18:	00a38f33          	add	t5,t2,a0
    7b1c:	f5e64ae3          	blt	a2,t5,7a70 <matrix_sum+0x180>
    7b20:	00a2a6b3          	slt	a3,t0,a0
    7b24:	00872283          	lw	t0,8(a4)
    7b28:	00de8fb3          	add	t6,t4,a3
    7b2c:	005f07b3          	add	a5,t5,t0
    7b30:	f4f64ae3          	blt	a2,a5,7a84 <matrix_sum+0x194>
    7b34:	00c72e83          	lw	t4,12(a4)
    7b38:	005523b3          	slt	t2,a0,t0
    7b3c:	007f85b3          	add	a1,t6,t2
    7b40:	01d78533          	add	a0,a5,t4
    7b44:	f4a64ae3          	blt	a2,a0,7a98 <matrix_sum+0x1a8>
    7b48:	01072683          	lw	a3,16(a4)
    7b4c:	01d2af33          	slt	t5,t0,t4
    7b50:	01e58fb3          	add	t6,a1,t5
    7b54:	00d502b3          	add	t0,a0,a3
    7b58:	f4564ae3          	blt	a2,t0,7aac <matrix_sum+0x1bc>
    7b5c:	00dea7b3          	slt	a5,t4,a3
    7b60:	01472e83          	lw	t4,20(a4)
    7b64:	00ff83b3          	add	t2,t6,a5
    7b68:	01d28533          	add	a0,t0,t4
    7b6c:	f4a64ae3          	blt	a2,a0,7ac0 <matrix_sum+0x1d0>
    7b70:	01d6a5b3          	slt	a1,a3,t4
    7b74:	01872683          	lw	a3,24(a4)
    7b78:	00b38f33          	add	t5,t2,a1
    7b7c:	00d507b3          	add	a5,a0,a3
    7b80:	f4f64ae3          	blt	a2,a5,7ad4 <matrix_sum+0x1e4>
    7b84:	00deafb3          	slt	t6,t4,a3
    7b88:	01ff02b3          	add	t0,t5,t6
    7b8c:	f51ff06f          	j	7adc <matrix_sum+0x1ec>
    7b90:	00d3aeb3          	slt	t4,t2,a3
    7b94:	01d50533          	add	a0,a0,t4
    7b98:	e91ff06f          	j	7a28 <matrix_sum+0x138>
    7b9c:	00dfa5b3          	slt	a1,t6,a3
    7ba0:	00b502b3          	add	t0,a0,a1
    7ba4:	e65ff06f          	j	7a08 <matrix_sum+0x118>
    7ba8:	00d3aeb3          	slt	t4,t2,a3
    7bac:	01d50f33          	add	t5,a0,t4
    7bb0:	e39ff06f          	j	79e8 <matrix_sum+0xf8>
    7bb4:	00d5a2b3          	slt	t0,a1,a3
    7bb8:	00550533          	add	a0,a0,t0
    7bbc:	e11ff06f          	j	79cc <matrix_sum+0xdc>
    7bc0:	00deaf33          	slt	t5,t4,a3
    7bc4:	01e50fb3          	add	t6,a0,t5
    7bc8:	de5ff06f          	j	79ac <matrix_sum+0xbc>
    7bcc:	00d5a2b3          	slt	t0,a1,a3
    7bd0:	005503b3          	add	t2,a0,t0
    7bd4:	db9ff06f          	j	798c <matrix_sum+0x9c>
    7bd8:	00df2fb3          	slt	t6,t5,a3
    7bdc:	01f50533          	add	a0,a0,t6
    7be0:	d91ff06f          	j	7970 <matrix_sum+0x80>
    7be4:	00000513          	li	a0,0
    7be8:	00008067          	ret

00007bec <matrix_mul_const>:
    7bec:	24050663          	beqz	a0,7e38 <matrix_mul_const+0x24c>
    7bf0:	00000293          	li	t0,0
    7bf4:	00757713          	andi	a4,a0,7
    7bf8:	00000793          	li	a5,0
    7bfc:	0a070463          	beqz	a4,7ca4 <matrix_mul_const+0xb8>
    7c00:	00100813          	li	a6,1
    7c04:	09070663          	beq	a4,a6,7c90 <matrix_mul_const+0xa4>
    7c08:	00200893          	li	a7,2
    7c0c:	07170a63          	beq	a4,a7,7c80 <matrix_mul_const+0x94>
    7c10:	00300313          	li	t1,3
    7c14:	04670e63          	beq	a4,t1,7c70 <matrix_mul_const+0x84>
    7c18:	00400393          	li	t2,4
    7c1c:	04770263          	beq	a4,t2,7c60 <matrix_mul_const+0x74>
    7c20:	00500e13          	li	t3,5
    7c24:	03c70663          	beq	a4,t3,7c50 <matrix_mul_const+0x64>
    7c28:	00600e93          	li	t4,6
    7c2c:	01d70a63          	beq	a4,t4,7c40 <matrix_mul_const+0x54>
    7c30:	00061f03          	lh	t5,0(a2)
    7c34:	00080793          	mv	a5,a6
    7c38:	02df0fb3          	mul	t6,t5,a3
    7c3c:	01f5a023          	sw	t6,0(a1)
    7c40:	22f6470b          	th.lrh	a4,a2,a5,1
    7c44:	02d70833          	mul	a6,a4,a3
    7c48:	44f5d80b          	th.srw	a6,a1,a5,2
    7c4c:	00178793          	addi	a5,a5,1
    7c50:	22f6488b          	th.lrh	a7,a2,a5,1
    7c54:	02d88333          	mul	t1,a7,a3
    7c58:	44f5d30b          	th.srw	t1,a1,a5,2
    7c5c:	00178793          	addi	a5,a5,1
    7c60:	22f6438b          	th.lrh	t2,a2,a5,1
    7c64:	02d38e33          	mul	t3,t2,a3
    7c68:	44f5de0b          	th.srw	t3,a1,a5,2
    7c6c:	00178793          	addi	a5,a5,1
    7c70:	22f64e8b          	th.lrh	t4,a2,a5,1
    7c74:	02de8f33          	mul	t5,t4,a3
    7c78:	44f5df0b          	th.srw	t5,a1,a5,2
    7c7c:	00178793          	addi	a5,a5,1
    7c80:	22f64f8b          	th.lrh	t6,a2,a5,1
    7c84:	02df8733          	mul	a4,t6,a3
    7c88:	44f5d70b          	th.srw	a4,a1,a5,2
    7c8c:	00178793          	addi	a5,a5,1
    7c90:	22f6480b          	th.lrh	a6,a2,a5,1
    7c94:	02d808b3          	mul	a7,a6,a3
    7c98:	44f5d88b          	th.srw	a7,a1,a5,2
    7c9c:	00178793          	addi	a5,a5,1
    7ca0:	18f50463          	beq	a0,a5,7e28 <matrix_mul_const+0x23c>
    7ca4:	fe010113          	addi	sp,sp,-32
    7ca8:	00812e23          	sw	s0,28(sp)
    7cac:	00912c23          	sw	s1,24(sp)
    7cb0:	01212a23          	sw	s2,20(sp)
    7cb4:	01312823          	sw	s3,16(sp)
    7cb8:	01412623          	sw	s4,12(sp)
    7cbc:	01512423          	sw	s5,8(sp)
    7cc0:	22f6440b          	th.lrh	s0,a2,a5,1
    7cc4:	00178a93          	addi	s5,a5,1
    7cc8:	23564f0b          	th.lrh	t5,a2,s5,1
    7ccc:	02d40fb3          	mul	t6,s0,a3
    7cd0:	00278a13          	addi	s4,a5,2
    7cd4:	23464e8b          	th.lrh	t4,a2,s4,1
    7cd8:	00378993          	addi	s3,a5,3
    7cdc:	23364e0b          	th.lrh	t3,a2,s3,1
    7ce0:	00478913          	addi	s2,a5,4
    7ce4:	00578493          	addi	s1,a5,5
    7ce8:	00678413          	addi	s0,a5,6
    7cec:	00778393          	addi	t2,a5,7
    7cf0:	2326430b          	th.lrh	t1,a2,s2,1
    7cf4:	02df0f33          	mul	t5,t5,a3
    7cf8:	2296488b          	th.lrh	a7,a2,s1,1
    7cfc:	2286480b          	th.lrh	a6,a2,s0,1
    7d00:	2276470b          	th.lrh	a4,a2,t2,1
    7d04:	44f5df8b          	th.srw	t6,a1,a5,2
    7d08:	00878793          	addi	a5,a5,8
    7d0c:	02de8eb3          	mul	t4,t4,a3
    7d10:	4555df0b          	th.srw	t5,a1,s5,2
    7d14:	02de0ab3          	mul	s5,t3,a3
    7d18:	4545de8b          	th.srw	t4,a1,s4,2
    7d1c:	02d30a33          	mul	s4,t1,a3
    7d20:	4535da8b          	th.srw	s5,a1,s3,2
    7d24:	02d889b3          	mul	s3,a7,a3
    7d28:	4525da0b          	th.srw	s4,a1,s2,2
    7d2c:	02d80fb3          	mul	t6,a6,a3
    7d30:	4495d98b          	th.srw	s3,a1,s1,2
    7d34:	02d70e33          	mul	t3,a4,a3
    7d38:	4485df8b          	th.srw	t6,a1,s0,2
    7d3c:	4475de0b          	th.srw	t3,a1,t2,2
    7d40:	f8f510e3          	bne	a0,a5,7cc0 <matrix_mul_const+0xd4>
    7d44:	00128793          	addi	a5,t0,1
    7d48:	20c52633          	sh1add	a2,a0,a2
    7d4c:	20b545b3          	sh2add	a1,a0,a1
    7d50:	0aa78c63          	beq	a5,a0,7e08 <matrix_mul_const+0x21c>
    7d54:	00757913          	andi	s2,a0,7
    7d58:	00078293          	mv	t0,a5
    7d5c:	00000793          	li	a5,0
    7d60:	f60900e3          	beqz	s2,7cc0 <matrix_mul_const+0xd4>
    7d64:	00100313          	li	t1,1
    7d68:	06690e63          	beq	s2,t1,7de4 <matrix_mul_const+0x1f8>
    7d6c:	00200493          	li	s1,2
    7d70:	06990263          	beq	s2,s1,7dd4 <matrix_mul_const+0x1e8>
    7d74:	00300893          	li	a7,3
    7d78:	05190663          	beq	s2,a7,7dc4 <matrix_mul_const+0x1d8>
    7d7c:	00400413          	li	s0,4
    7d80:	02890a63          	beq	s2,s0,7db4 <matrix_mul_const+0x1c8>
    7d84:	00500813          	li	a6,5
    7d88:	01090e63          	beq	s2,a6,7da4 <matrix_mul_const+0x1b8>
    7d8c:	00600393          	li	t2,6
    7d90:	0a791663          	bne	s2,t2,7e3c <matrix_mul_const+0x250>
    7d94:	22f64e8b          	th.lrh	t4,a2,a5,1
    7d98:	02de8ab3          	mul	s5,t4,a3
    7d9c:	44f5da8b          	th.srw	s5,a1,a5,2
    7da0:	00178793          	addi	a5,a5,1
    7da4:	22f64a0b          	th.lrh	s4,a2,a5,1
    7da8:	02da09b3          	mul	s3,s4,a3
    7dac:	44f5d98b          	th.srw	s3,a1,a5,2
    7db0:	00178793          	addi	a5,a5,1
    7db4:	22f64f8b          	th.lrh	t6,a2,a5,1
    7db8:	02df8e33          	mul	t3,t6,a3
    7dbc:	44f5de0b          	th.srw	t3,a1,a5,2
    7dc0:	00178793          	addi	a5,a5,1
    7dc4:	22f6490b          	th.lrh	s2,a2,a5,1
    7dc8:	02d90333          	mul	t1,s2,a3
    7dcc:	44f5d30b          	th.srw	t1,a1,a5,2
    7dd0:	00178793          	addi	a5,a5,1
    7dd4:	22f6448b          	th.lrh	s1,a2,a5,1
    7dd8:	02d488b3          	mul	a7,s1,a3
    7ddc:	44f5d88b          	th.srw	a7,a1,a5,2
    7de0:	00178793          	addi	a5,a5,1
    7de4:	22f6440b          	th.lrh	s0,a2,a5,1
    7de8:	02d40833          	mul	a6,s0,a3
    7dec:	44f5d80b          	th.srw	a6,a1,a5,2
    7df0:	00178793          	addi	a5,a5,1
    7df4:	ecf516e3          	bne	a0,a5,7cc0 <matrix_mul_const+0xd4>
    7df8:	00128793          	addi	a5,t0,1
    7dfc:	20c52633          	sh1add	a2,a0,a2
    7e00:	20b545b3          	sh2add	a1,a0,a1
    7e04:	f4a798e3          	bne	a5,a0,7d54 <matrix_mul_const+0x168>
    7e08:	01c12403          	lw	s0,28(sp)
    7e0c:	01812483          	lw	s1,24(sp)
    7e10:	01412903          	lw	s2,20(sp)
    7e14:	01012983          	lw	s3,16(sp)
    7e18:	00c12a03          	lw	s4,12(sp)
    7e1c:	00812a83          	lw	s5,8(sp)
    7e20:	02010113          	addi	sp,sp,32
    7e24:	00008067          	ret
    7e28:	00128293          	addi	t0,t0,1
    7e2c:	20c52633          	sh1add	a2,a0,a2
    7e30:	20b545b3          	sh2add	a1,a0,a1
    7e34:	dca290e3          	bne	t0,a0,7bf4 <matrix_mul_const+0x8>
    7e38:	00008067          	ret
    7e3c:	00061703          	lh	a4,0(a2)
    7e40:	00030793          	mv	a5,t1
    7e44:	02d70f33          	mul	t5,a4,a3
    7e48:	01e5a023          	sw	t5,0(a1)
    7e4c:	f49ff06f          	j	7d94 <matrix_mul_const+0x1a8>

00007e50 <matrix_add_const>:
    7e50:	14050063          	beqz	a0,7f90 <matrix_add_const+0x140>
    7e54:	20b526b3          	sh1add	a3,a0,a1
    7e58:	00151293          	slli	t0,a0,0x1
    7e5c:	00000f93          	li	t6,0
    7e60:	ffe28713          	addi	a4,t0,-2
    7e64:	00175313          	srli	t1,a4,0x1
    7e68:	00130393          	addi	t2,t1,1
    7e6c:	0073f813          	andi	a6,t2,7
    7e70:	405687b3          	sub	a5,a3,t0
    7e74:	0a080463          	beqz	a6,7f1c <matrix_add_const+0xcc>
    7e78:	00100593          	li	a1,1
    7e7c:	08b80663          	beq	a6,a1,7f08 <matrix_add_const+0xb8>
    7e80:	00200893          	li	a7,2
    7e84:	07180a63          	beq	a6,a7,7ef8 <matrix_add_const+0xa8>
    7e88:	00300e13          	li	t3,3
    7e8c:	05c80e63          	beq	a6,t3,7ee8 <matrix_add_const+0x98>
    7e90:	00400e93          	li	t4,4
    7e94:	05d80263          	beq	a6,t4,7ed8 <matrix_add_const+0x88>
    7e98:	00500f13          	li	t5,5
    7e9c:	03e80663          	beq	a6,t5,7ec8 <matrix_add_const+0x78>
    7ea0:	00600713          	li	a4,6
    7ea4:	00e80a63          	beq	a6,a4,7eb8 <matrix_add_const+0x68>
    7ea8:	0007d303          	lhu	t1,0(a5)
    7eac:	00278793          	addi	a5,a5,2
    7eb0:	006603b3          	add	t2,a2,t1
    7eb4:	fe779f23          	sh	t2,-2(a5)
    7eb8:	0007d803          	lhu	a6,0(a5)
    7ebc:	00278793          	addi	a5,a5,2
    7ec0:	010605b3          	add	a1,a2,a6
    7ec4:	feb79f23          	sh	a1,-2(a5)
    7ec8:	0007d883          	lhu	a7,0(a5)
    7ecc:	00278793          	addi	a5,a5,2
    7ed0:	01160e33          	add	t3,a2,a7
    7ed4:	ffc79f23          	sh	t3,-2(a5)
    7ed8:	0007de83          	lhu	t4,0(a5)
    7edc:	00278793          	addi	a5,a5,2
    7ee0:	01d60f33          	add	t5,a2,t4
    7ee4:	ffe79f23          	sh	t5,-2(a5)
    7ee8:	0007d703          	lhu	a4,0(a5)
    7eec:	00278793          	addi	a5,a5,2
    7ef0:	00e60333          	add	t1,a2,a4
    7ef4:	fe679f23          	sh	t1,-2(a5)
    7ef8:	0007d383          	lhu	t2,0(a5)
    7efc:	00278793          	addi	a5,a5,2
    7f00:	00760833          	add	a6,a2,t2
    7f04:	ff079f23          	sh	a6,-2(a5)
    7f08:	0007d583          	lhu	a1,0(a5)
    7f0c:	00278793          	addi	a5,a5,2
    7f10:	00b608b3          	add	a7,a2,a1
    7f14:	ff179f23          	sh	a7,-2(a5)
    7f18:	06f68663          	beq	a3,a5,7f84 <matrix_add_const+0x134>
    7f1c:	0087d383          	lhu	t2,8(a5)
    7f20:	00a7d803          	lhu	a6,10(a5)
    7f24:	00c7d583          	lhu	a1,12(a5)
    7f28:	0007df03          	lhu	t5,0(a5)
    7f2c:	0027de83          	lhu	t4,2(a5)
    7f30:	0047de03          	lhu	t3,4(a5)
    7f34:	0067d303          	lhu	t1,6(a5)
    7f38:	00e7d703          	lhu	a4,14(a5)
    7f3c:	007608b3          	add	a7,a2,t2
    7f40:	01e60f33          	add	t5,a2,t5
    7f44:	010603b3          	add	t2,a2,a6
    7f48:	01d60eb3          	add	t4,a2,t4
    7f4c:	00b60833          	add	a6,a2,a1
    7f50:	01c60e33          	add	t3,a2,t3
    7f54:	00660333          	add	t1,a2,t1
    7f58:	00e605b3          	add	a1,a2,a4
    7f5c:	01e79023          	sh	t5,0(a5)
    7f60:	01d79123          	sh	t4,2(a5)
    7f64:	01c79223          	sh	t3,4(a5)
    7f68:	00679323          	sh	t1,6(a5)
    7f6c:	01179423          	sh	a7,8(a5)
    7f70:	00779523          	sh	t2,10(a5)
    7f74:	01079623          	sh	a6,12(a5)
    7f78:	00b79723          	sh	a1,14(a5)
    7f7c:	01078793          	addi	a5,a5,16
    7f80:	f8f69ee3          	bne	a3,a5,7f1c <matrix_add_const+0xcc>
    7f84:	001f8f93          	addi	t6,t6,1
    7f88:	005686b3          	add	a3,a3,t0
    7f8c:	edf51ae3          	bne	a0,t6,7e60 <matrix_add_const+0x10>
    7f90:	00008067          	ret

00007f94 <matrix_mul_vect>:
    7f94:	2a050263          	beqz	a0,8238 <matrix_mul_vect+0x2a4>
    7f98:	00000893          	li	a7,0
    7f9c:	00757713          	andi	a4,a0,7
    7fa0:	00000813          	li	a6,0
    7fa4:	00000793          	li	a5,0
    7fa8:	0c070063          	beqz	a4,8068 <matrix_mul_vect+0xd4>
    7fac:	00100313          	li	t1,1
    7fb0:	0a670063          	beq	a4,t1,8050 <matrix_mul_vect+0xbc>
    7fb4:	00200e13          	li	t3,2
    7fb8:	09c70263          	beq	a4,t3,803c <matrix_mul_vect+0xa8>
    7fbc:	00300293          	li	t0,3
    7fc0:	06570463          	beq	a4,t0,8028 <matrix_mul_vect+0x94>
    7fc4:	00400393          	li	t2,4
    7fc8:	04770663          	beq	a4,t2,8014 <matrix_mul_vect+0x80>
    7fcc:	00500e93          	li	t4,5
    7fd0:	03d70863          	beq	a4,t4,8000 <matrix_mul_vect+0x6c>
    7fd4:	00600f13          	li	t5,6
    7fd8:	01e70a63          	beq	a4,t5,7fec <matrix_mul_vect+0x58>
    7fdc:	00061803          	lh	a6,0(a2)
    7fe0:	00069f83          	lh	t6,0(a3)
    7fe4:	00030793          	mv	a5,t1
    7fe8:	03f80833          	mul	a6,a6,t6
    7fec:	22f6470b          	th.lrh	a4,a2,a5,1
    7ff0:	22f6c30b          	th.lrh	t1,a3,a5,1
    7ff4:	00178793          	addi	a5,a5,1
    7ff8:	02670e33          	mul	t3,a4,t1
    7ffc:	01c80833          	add	a6,a6,t3
    8000:	22f6428b          	th.lrh	t0,a2,a5,1
    8004:	22f6c38b          	th.lrh	t2,a3,a5,1
    8008:	00178793          	addi	a5,a5,1
    800c:	02728eb3          	mul	t4,t0,t2
    8010:	01d80833          	add	a6,a6,t4
    8014:	22f64f0b          	th.lrh	t5,a2,a5,1
    8018:	22f6cf8b          	th.lrh	t6,a3,a5,1
    801c:	00178793          	addi	a5,a5,1
    8020:	03ff0733          	mul	a4,t5,t6
    8024:	00e80833          	add	a6,a6,a4
    8028:	22f64e0b          	th.lrh	t3,a2,a5,1
    802c:	22f6c30b          	th.lrh	t1,a3,a5,1
    8030:	00178793          	addi	a5,a5,1
    8034:	026e02b3          	mul	t0,t3,t1
    8038:	00580833          	add	a6,a6,t0
    803c:	22f6438b          	th.lrh	t2,a2,a5,1
    8040:	22f6ce8b          	th.lrh	t4,a3,a5,1
    8044:	00178793          	addi	a5,a5,1
    8048:	03d38f33          	mul	t5,t2,t4
    804c:	01e80833          	add	a6,a6,t5
    8050:	22f64f8b          	th.lrh	t6,a2,a5,1
    8054:	22f6c70b          	th.lrh	a4,a3,a5,1
    8058:	00178793          	addi	a5,a5,1
    805c:	02ef8e33          	mul	t3,t6,a4
    8060:	01c80833          	add	a6,a6,t3
    8064:	1cf50063          	beq	a0,a5,8224 <matrix_mul_vect+0x290>
    8068:	fe010113          	addi	sp,sp,-32
    806c:	00812e23          	sw	s0,28(sp)
    8070:	00912c23          	sw	s1,24(sp)
    8074:	01212a23          	sw	s2,20(sp)
    8078:	01312823          	sw	s3,16(sp)
    807c:	01412623          	sw	s4,12(sp)
    8080:	01512423          	sw	s5,8(sp)
    8084:	00178913          	addi	s2,a5,1
    8088:	22f6440b          	th.lrh	s0,a2,a5,1
    808c:	22f6c48b          	th.lrh	s1,a3,a5,1
    8090:	00278993          	addi	s3,a5,2
    8094:	2326ce0b          	th.lrh	t3,a3,s2,1
    8098:	2326438b          	th.lrh	t2,a2,s2,1
    809c:	2336ca8b          	th.lrh	s5,a3,s3,1
    80a0:	00378a13          	addi	s4,a5,3
    80a4:	2336428b          	th.lrh	t0,a2,s3,1
    80a8:	02940733          	mul	a4,s0,s1
    80ac:	00478313          	addi	t1,a5,4
    80b0:	23464f8b          	th.lrh	t6,a2,s4,1
    80b4:	2346ca0b          	th.lrh	s4,a3,s4,1
    80b8:	00578413          	addi	s0,a5,5
    80bc:	22664f0b          	th.lrh	t5,a2,t1,1
    80c0:	2266c98b          	th.lrh	s3,a3,t1,1
    80c4:	22864e8b          	th.lrh	t4,a2,s0,1
    80c8:	2286c90b          	th.lrh	s2,a3,s0,1
    80cc:	00678493          	addi	s1,a5,6
    80d0:	03c383b3          	mul	t2,t2,t3
    80d4:	00778413          	addi	s0,a5,7
    80d8:	22964e0b          	th.lrh	t3,a2,s1,1
    80dc:	2296c48b          	th.lrh	s1,a3,s1,1
    80e0:	2286430b          	th.lrh	t1,a2,s0,1
    80e4:	2286c40b          	th.lrh	s0,a3,s0,1
    80e8:	00e80833          	add	a6,a6,a4
    80ec:	00878793          	addi	a5,a5,8
    80f0:	035282b3          	mul	t0,t0,s5
    80f4:	00780ab3          	add	s5,a6,t2
    80f8:	034f8fb3          	mul	t6,t6,s4
    80fc:	005a8733          	add	a4,s5,t0
    8100:	033f0a33          	mul	s4,t5,s3
    8104:	01f70f33          	add	t5,a4,t6
    8108:	032e89b3          	mul	s3,t4,s2
    810c:	014f0eb3          	add	t4,t5,s4
    8110:	029e0933          	mul	s2,t3,s1
    8114:	013e83b3          	add	t2,t4,s3
    8118:	02830e33          	mul	t3,t1,s0
    811c:	012384b3          	add	s1,t2,s2
    8120:	01c48833          	add	a6,s1,t3
    8124:	f6f510e3          	bne	a0,a5,8084 <matrix_mul_vect+0xf0>
    8128:	4515d80b          	th.srw	a6,a1,a7,2
    812c:	00188893          	addi	a7,a7,1
    8130:	20c52633          	sh1add	a2,a0,a2
    8134:	0ca88863          	beq	a7,a0,8204 <matrix_mul_vect+0x270>
    8138:	00757413          	andi	s0,a0,7
    813c:	00000813          	li	a6,0
    8140:	00000793          	li	a5,0
    8144:	f40400e3          	beqz	s0,8084 <matrix_mul_vect+0xf0>
    8148:	00100313          	li	t1,1
    814c:	08640863          	beq	s0,t1,81dc <matrix_mul_vect+0x248>
    8150:	00200293          	li	t0,2
    8154:	06540a63          	beq	s0,t0,81c8 <matrix_mul_vect+0x234>
    8158:	00300a93          	li	s5,3
    815c:	05540c63          	beq	s0,s5,81b4 <matrix_mul_vect+0x220>
    8160:	00400f93          	li	t6,4
    8164:	03f40e63          	beq	s0,t6,81a0 <matrix_mul_vect+0x20c>
    8168:	00500713          	li	a4,5
    816c:	02e40063          	beq	s0,a4,818c <matrix_mul_vect+0x1f8>
    8170:	00600a13          	li	s4,6
    8174:	0d441463          	bne	s0,s4,823c <matrix_mul_vect+0x2a8>
    8178:	22f6498b          	th.lrh	s3,a2,a5,1
    817c:	22f6ce8b          	th.lrh	t4,a3,a5,1
    8180:	00178793          	addi	a5,a5,1
    8184:	03d98933          	mul	s2,s3,t4
    8188:	01280833          	add	a6,a6,s2
    818c:	22f6438b          	th.lrh	t2,a2,a5,1
    8190:	22f6ce0b          	th.lrh	t3,a3,a5,1
    8194:	00178793          	addi	a5,a5,1
    8198:	03c384b3          	mul	s1,t2,t3
    819c:	00980833          	add	a6,a6,s1
    81a0:	22f6440b          	th.lrh	s0,a2,a5,1
    81a4:	22f6c30b          	th.lrh	t1,a3,a5,1
    81a8:	00178793          	addi	a5,a5,1
    81ac:	026402b3          	mul	t0,s0,t1
    81b0:	00580833          	add	a6,a6,t0
    81b4:	22f64a8b          	th.lrh	s5,a2,a5,1
    81b8:	22f6cf8b          	th.lrh	t6,a3,a5,1
    81bc:	00178793          	addi	a5,a5,1
    81c0:	03fa8733          	mul	a4,s5,t6
    81c4:	00e80833          	add	a6,a6,a4
    81c8:	22f64a0b          	th.lrh	s4,a2,a5,1
    81cc:	22f6cf0b          	th.lrh	t5,a3,a5,1
    81d0:	00178793          	addi	a5,a5,1
    81d4:	03ea09b3          	mul	s3,s4,t5
    81d8:	01380833          	add	a6,a6,s3
    81dc:	22f64e8b          	th.lrh	t4,a2,a5,1
    81e0:	22f6c90b          	th.lrh	s2,a3,a5,1
    81e4:	00178793          	addi	a5,a5,1
    81e8:	032e83b3          	mul	t2,t4,s2
    81ec:	00780833          	add	a6,a6,t2
    81f0:	e8f51ae3          	bne	a0,a5,8084 <matrix_mul_vect+0xf0>
    81f4:	4515d80b          	th.srw	a6,a1,a7,2
    81f8:	00188893          	addi	a7,a7,1
    81fc:	20c52633          	sh1add	a2,a0,a2
    8200:	f2a89ce3          	bne	a7,a0,8138 <matrix_mul_vect+0x1a4>
    8204:	01c12403          	lw	s0,28(sp)
    8208:	01812483          	lw	s1,24(sp)
    820c:	01412903          	lw	s2,20(sp)
    8210:	01012983          	lw	s3,16(sp)
    8214:	00c12a03          	lw	s4,12(sp)
    8218:	00812a83          	lw	s5,8(sp)
    821c:	02010113          	addi	sp,sp,32
    8220:	00008067          	ret
    8224:	4515d80b          	th.srw	a6,a1,a7,2
    8228:	00188893          	addi	a7,a7,1
    822c:	20c52633          	sh1add	a2,a0,a2
    8230:	d6a896e3          	bne	a7,a0,7f9c <matrix_mul_vect+0x8>
    8234:	00008067          	ret
    8238:	00008067          	ret
    823c:	00061803          	lh	a6,0(a2)
    8240:	00069f03          	lh	t5,0(a3)
    8244:	00030793          	mv	a5,t1
    8248:	03e80833          	mul	a6,a6,t5
    824c:	f2dff06f          	j	8178 <matrix_mul_vect+0x1e4>

00008250 <matrix_mul_matrix>:
    8250:	24050463          	beqz	a0,8498 <matrix_mul_matrix+0x248>
    8254:	fd010113          	addi	sp,sp,-48
    8258:	02812623          	sw	s0,44(sp)
    825c:	02912423          	sw	s1,40(sp)
    8260:	03212223          	sw	s2,36(sp)
    8264:	03312023          	sw	s3,32(sp)
    8268:	01412e23          	sw	s4,28(sp)
    826c:	01512c23          	sw	s5,24(sp)
    8270:	01612a23          	sw	s6,20(sp)
    8274:	01712823          	sw	s7,16(sp)
    8278:	01812623          	sw	s8,12(sp)
    827c:	01912423          	sw	s9,8(sp)
    8280:	01a12223          	sw	s10,4(sp)
    8284:	00060f13          	mv	t5,a2
    8288:	00058f93          	mv	t6,a1
    828c:	20c52eb3          	sh1add	t4,a0,a2
    8290:	00151813          	slli	a6,a0,0x1
    8294:	00000293          	li	t0,0
    8298:	00068313          	mv	t1,a3
    829c:	00000e13          	li	t3,0
    82a0:	41ee8733          	sub	a4,t4,t5
    82a4:	ffe70393          	addi	t2,a4,-2
    82a8:	0013d413          	srli	s0,t2,0x1
    82ac:	00140493          	addi	s1,s0,1
    82b0:	0074f913          	andi	s2,s1,7
    82b4:	00030793          	mv	a5,t1
    82b8:	000f0593          	mv	a1,t5
    82bc:	00000613          	li	a2,0
    82c0:	0c090e63          	beqz	s2,839c <matrix_mul_matrix+0x14c>
    82c4:	00100893          	li	a7,1
    82c8:	0b190c63          	beq	s2,a7,8380 <matrix_mul_matrix+0x130>
    82cc:	00200993          	li	s3,2
    82d0:	09390c63          	beq	s2,s3,8368 <matrix_mul_matrix+0x118>
    82d4:	00300a13          	li	s4,3
    82d8:	07490c63          	beq	s2,s4,8350 <matrix_mul_matrix+0x100>
    82dc:	00400a93          	li	s5,4
    82e0:	05590c63          	beq	s2,s5,8338 <matrix_mul_matrix+0xe8>
    82e4:	00500b13          	li	s6,5
    82e8:	03690c63          	beq	s2,s6,8320 <matrix_mul_matrix+0xd0>
    82ec:	00600b93          	li	s7,6
    82f0:	01790c63          	beq	s2,s7,8308 <matrix_mul_matrix+0xb8>
    82f4:	000f1603          	lh	a2,0(t5)
    82f8:	00031c03          	lh	s8,0(t1)
    82fc:	002f0593          	addi	a1,t5,2
    8300:	010307b3          	add	a5,t1,a6
    8304:	03860633          	mul	a2,a2,s8
    8308:	00059c83          	lh	s9,0(a1)
    830c:	00079d03          	lh	s10,0(a5)
    8310:	00258593          	addi	a1,a1,2
    8314:	010787b3          	add	a5,a5,a6
    8318:	03ac8733          	mul	a4,s9,s10
    831c:	00e60633          	add	a2,a2,a4
    8320:	00059383          	lh	t2,0(a1)
    8324:	00079403          	lh	s0,0(a5)
    8328:	00258593          	addi	a1,a1,2
    832c:	010787b3          	add	a5,a5,a6
    8330:	028384b3          	mul	s1,t2,s0
    8334:	00960633          	add	a2,a2,s1
    8338:	00059903          	lh	s2,0(a1)
    833c:	00079883          	lh	a7,0(a5)
    8340:	00258593          	addi	a1,a1,2
    8344:	010787b3          	add	a5,a5,a6
    8348:	031909b3          	mul	s3,s2,a7
    834c:	01360633          	add	a2,a2,s3
    8350:	00059a03          	lh	s4,0(a1)
    8354:	00079a83          	lh	s5,0(a5)
    8358:	00258593          	addi	a1,a1,2
    835c:	010787b3          	add	a5,a5,a6
    8360:	035a0b33          	mul	s6,s4,s5
    8364:	01660633          	add	a2,a2,s6
    8368:	00059b83          	lh	s7,0(a1)
    836c:	00079c03          	lh	s8,0(a5)
    8370:	00258593          	addi	a1,a1,2
    8374:	010787b3          	add	a5,a5,a6
    8378:	038b8cb3          	mul	s9,s7,s8
    837c:	01960633          	add	a2,a2,s9
    8380:	00059d03          	lh	s10,0(a1)
    8384:	00079703          	lh	a4,0(a5)
    8388:	00258593          	addi	a1,a1,2
    838c:	010787b3          	add	a5,a5,a6
    8390:	02ed03b3          	mul	t2,s10,a4
    8394:	00760633          	add	a2,a2,t2
    8398:	08be8e63          	beq	t4,a1,8434 <matrix_mul_matrix+0x1e4>
    839c:	00059403          	lh	s0,0(a1)
    83a0:	00079483          	lh	s1,0(a5)
    83a4:	00259a03          	lh	s4,2(a1)
    83a8:	2107c88b          	th.lrh	a7,a5,a6,0
    83ac:	20f82ab3          	sh1add	s5,a6,a5
    83b0:	02940733          	mul	a4,s0,s1
    83b4:	21582d33          	sh1add	s10,a6,s5
    83b8:	2307cc8b          	th.lrh	s9,a5,a6,1
    83bc:	230acb8b          	th.lrh	s7,s5,a6,1
    83c0:	210d4b0b          	th.lrh	s6,s10,a6,0
    83c4:	21a827b3          	sh1add	a5,a6,s10
    83c8:	210acc0b          	th.lrh	s8,s5,a6,0
    83cc:	230d4a8b          	th.lrh	s5,s10,a6,1
    83d0:	00459983          	lh	s3,4(a1)
    83d4:	00659903          	lh	s2,6(a1)
    83d8:	031a0d33          	mul	s10,s4,a7
    83dc:	00859483          	lh	s1,8(a1)
    83e0:	00a59403          	lh	s0,10(a1)
    83e4:	00c59383          	lh	t2,12(a1)
    83e8:	2107ca0b          	th.lrh	s4,a5,a6,0
    83ec:	00e59883          	lh	a7,14(a1)
    83f0:	00e60633          	add	a2,a2,a4
    83f4:	01058593          	addi	a1,a1,16
    83f8:	20f827b3          	sh1add	a5,a6,a5
    83fc:	039989b3          	mul	s3,s3,s9
    8400:	01a60cb3          	add	s9,a2,s10
    8404:	03890c33          	mul	s8,s2,s8
    8408:	013c8733          	add	a4,s9,s3
    840c:	03748933          	mul	s2,s1,s7
    8410:	01870bb3          	add	s7,a4,s8
    8414:	036404b3          	mul	s1,s0,s6
    8418:	012b8b33          	add	s6,s7,s2
    841c:	03538433          	mul	s0,t2,s5
    8420:	009b0ab3          	add	s5,s6,s1
    8424:	03488d33          	mul	s10,a7,s4
    8428:	008a83b3          	add	t2,s5,s0
    842c:	01a38633          	add	a2,t2,s10
    8430:	f6be96e3          	bne	t4,a1,839c <matrix_mul_matrix+0x14c>
    8434:	45cfd60b          	th.srw	a2,t6,t3,2
    8438:	001e0593          	addi	a1,t3,1
    843c:	00230313          	addi	t1,t1,2
    8440:	00b50663          	beq	a0,a1,844c <matrix_mul_matrix+0x1fc>
    8444:	00058e13          	mv	t3,a1
    8448:	e59ff06f          	j	82a0 <matrix_mul_matrix+0x50>
    844c:	21f54fb3          	sh2add	t6,a0,t6
    8450:	010f0f33          	add	t5,t5,a6
    8454:	010e8eb3          	add	t4,t4,a6
    8458:	01c28663          	beq	t0,t3,8464 <matrix_mul_matrix+0x214>
    845c:	00128293          	addi	t0,t0,1
    8460:	e39ff06f          	j	8298 <matrix_mul_matrix+0x48>
    8464:	02c12403          	lw	s0,44(sp)
    8468:	02812483          	lw	s1,40(sp)
    846c:	02412903          	lw	s2,36(sp)
    8470:	02012983          	lw	s3,32(sp)
    8474:	01c12a03          	lw	s4,28(sp)
    8478:	01812a83          	lw	s5,24(sp)
    847c:	01412b03          	lw	s6,20(sp)
    8480:	01012b83          	lw	s7,16(sp)
    8484:	00c12c03          	lw	s8,12(sp)
    8488:	00812c83          	lw	s9,8(sp)
    848c:	00412d03          	lw	s10,4(sp)
    8490:	03010113          	addi	sp,sp,48
    8494:	00008067          	ret
    8498:	00008067          	ret

0000849c <matrix_mul_matrix_bitextract>:
    849c:	30050263          	beqz	a0,87a0 <matrix_mul_matrix_bitextract+0x304>
    84a0:	fd010113          	addi	sp,sp,-48
    84a4:	00058293          	mv	t0,a1
    84a8:	02812623          	sw	s0,44(sp)
    84ac:	02912423          	sw	s1,40(sp)
    84b0:	03212223          	sw	s2,36(sp)
    84b4:	03312023          	sw	s3,32(sp)
    84b8:	01412e23          	sw	s4,28(sp)
    84bc:	01512c23          	sw	s5,24(sp)
    84c0:	01612a23          	sw	s6,20(sp)
    84c4:	01712823          	sw	s7,16(sp)
    84c8:	01812623          	sw	s8,12(sp)
    84cc:	01912423          	sw	s9,8(sp)
    84d0:	01a12223          	sw	s10,4(sp)
    84d4:	01b12023          	sw	s11,0(sp)
    84d8:	00060f93          	mv	t6,a2
    84dc:	20c52f33          	sh1add	t5,a0,a2
    84e0:	00151593          	slli	a1,a0,0x1
    84e4:	00000393          	li	t2,0
    84e8:	00068e13          	mv	t3,a3
    84ec:	00000e93          	li	t4,0
    84f0:	41ff0633          	sub	a2,t5,t6
    84f4:	ffe60313          	addi	t1,a2,-2
    84f8:	00135413          	srli	s0,t1,0x1
    84fc:	00140493          	addi	s1,s0,1
    8500:	0074f913          	andi	s2,s1,7
    8504:	000e0793          	mv	a5,t3
    8508:	000f8713          	mv	a4,t6
    850c:	00000813          	li	a6,0
    8510:	12090863          	beqz	s2,8640 <matrix_mul_matrix_bitextract+0x1a4>
    8514:	00100893          	li	a7,1
    8518:	11190063          	beq	s2,a7,8618 <matrix_mul_matrix_bitextract+0x17c>
    851c:	00200993          	li	s3,2
    8520:	0d390a63          	beq	s2,s3,85f4 <matrix_mul_matrix_bitextract+0x158>
    8524:	00300a13          	li	s4,3
    8528:	0b490463          	beq	s2,s4,85d0 <matrix_mul_matrix_bitextract+0x134>
    852c:	00400a93          	li	s5,4
    8530:	07590e63          	beq	s2,s5,85ac <matrix_mul_matrix_bitextract+0x110>
    8534:	00500b13          	li	s6,5
    8538:	05690863          	beq	s2,s6,8588 <matrix_mul_matrix_bitextract+0xec>
    853c:	00600b93          	li	s7,6
    8540:	03790263          	beq	s2,s7,8564 <matrix_mul_matrix_bitextract+0xc8>
    8544:	000e1803          	lh	a6,0(t3)
    8548:	000f9c03          	lh	s8,0(t6)
    854c:	002f8713          	addi	a4,t6,2
    8550:	00be07b3          	add	a5,t3,a1
    8554:	030c0cb3          	mul	s9,s8,a6
    8558:	142cbd0b          	th.extu	s10,s9,5,2
    855c:	2c5cbd8b          	th.extu	s11,s9,11,5
    8560:	03bd0833          	mul	a6,s10,s11
    8564:	00071603          	lh	a2,0(a4)
    8568:	00079303          	lh	t1,0(a5)
    856c:	00270713          	addi	a4,a4,2
    8570:	00b787b3          	add	a5,a5,a1
    8574:	02660433          	mul	s0,a2,t1
    8578:	1424348b          	th.extu	s1,s0,5,2
    857c:	2c54390b          	th.extu	s2,s0,11,5
    8580:	032488b3          	mul	a7,s1,s2
    8584:	01180833          	add	a6,a6,a7
    8588:	00071983          	lh	s3,0(a4)
    858c:	00079a03          	lh	s4,0(a5)
    8590:	00270713          	addi	a4,a4,2
    8594:	00b787b3          	add	a5,a5,a1
    8598:	03498ab3          	mul	s5,s3,s4
    859c:	142abb0b          	th.extu	s6,s5,5,2
    85a0:	2c5abb8b          	th.extu	s7,s5,11,5
    85a4:	037b0c33          	mul	s8,s6,s7
    85a8:	01880833          	add	a6,a6,s8
    85ac:	00071c83          	lh	s9,0(a4)
    85b0:	00079d03          	lh	s10,0(a5)
    85b4:	00270713          	addi	a4,a4,2
    85b8:	00b787b3          	add	a5,a5,a1
    85bc:	03ac8db3          	mul	s11,s9,s10
    85c0:	142db30b          	th.extu	t1,s11,5,2
    85c4:	2c5db60b          	th.extu	a2,s11,11,5
    85c8:	02c30433          	mul	s0,t1,a2
    85cc:	00880833          	add	a6,a6,s0
    85d0:	00071483          	lh	s1,0(a4)
    85d4:	00079903          	lh	s2,0(a5)
    85d8:	00270713          	addi	a4,a4,2
    85dc:	00b787b3          	add	a5,a5,a1
    85e0:	032489b3          	mul	s3,s1,s2
    85e4:	1429b88b          	th.extu	a7,s3,5,2
    85e8:	2c59ba0b          	th.extu	s4,s3,11,5
    85ec:	03488ab3          	mul	s5,a7,s4
    85f0:	01580833          	add	a6,a6,s5
    85f4:	00071b03          	lh	s6,0(a4)
    85f8:	00079b83          	lh	s7,0(a5)
    85fc:	00270713          	addi	a4,a4,2
    8600:	00b787b3          	add	a5,a5,a1
    8604:	037b0c33          	mul	s8,s6,s7
    8608:	142c3c8b          	th.extu	s9,s8,5,2
    860c:	2c5c3d0b          	th.extu	s10,s8,11,5
    8610:	03ac8db3          	mul	s11,s9,s10
    8614:	01b80833          	add	a6,a6,s11
    8618:	00071303          	lh	t1,0(a4)
    861c:	00079603          	lh	a2,0(a5)
    8620:	00270713          	addi	a4,a4,2
    8624:	00b787b3          	add	a5,a5,a1
    8628:	02c30433          	mul	s0,t1,a2
    862c:	1424348b          	th.extu	s1,s0,5,2
    8630:	2c54390b          	th.extu	s2,s0,11,5
    8634:	032489b3          	mul	s3,s1,s2
    8638:	01380833          	add	a6,a6,s3
    863c:	0eef0e63          	beq	t5,a4,8738 <matrix_mul_matrix_bitextract+0x29c>
    8640:	00079b03          	lh	s6,0(a5)
    8644:	00071a83          	lh	s5,0(a4)
    8648:	20b7c30b          	th.lrh	t1,a5,a1,0
    864c:	00271883          	lh	a7,2(a4)
    8650:	20f5abb3          	sh1add	s7,a1,a5
    8654:	22b7cd8b          	th.lrh	s11,a5,a1,1
    8658:	00471a03          	lh	s4,4(a4)
    865c:	036a8ab3          	mul	s5,s5,s6
    8660:	20bbcd0b          	th.lrh	s10,s7,a1,0
    8664:	00671983          	lh	s3,6(a4)
    8668:	2175a633          	sh1add	a2,a1,s7
    866c:	22bbcc8b          	th.lrh	s9,s7,a1,1
    8670:	00871903          	lh	s2,8(a4)
    8674:	20b64c0b          	th.lrh	s8,a2,a1,0
    8678:	00a71483          	lh	s1,10(a4)
    867c:	22b64b8b          	th.lrh	s7,a2,a1,1
    8680:	20c5a7b3          	sh1add	a5,a1,a2
    8684:	026888b3          	mul	a7,a7,t1
    8688:	00c71403          	lh	s0,12(a4)
    868c:	20b7cb0b          	th.lrh	s6,a5,a1,0
    8690:	00e71303          	lh	t1,14(a4)
    8694:	142ab60b          	th.extu	a2,s5,5,2
    8698:	2c5aba8b          	th.extu	s5,s5,11,5
    869c:	01070713          	addi	a4,a4,16
    86a0:	20f5a7b3          	sh1add	a5,a1,a5
    86a4:	03ba0a33          	mul	s4,s4,s11
    86a8:	1428bd8b          	th.extu	s11,a7,5,2
    86ac:	2c58b88b          	th.extu	a7,a7,11,5
    86b0:	03a989b3          	mul	s3,s3,s10
    86b4:	142a3d0b          	th.extu	s10,s4,5,2
    86b8:	2c5a3a0b          	th.extu	s4,s4,11,5
    86bc:	03990933          	mul	s2,s2,s9
    86c0:	1429bc8b          	th.extu	s9,s3,5,2
    86c4:	2c59b98b          	th.extu	s3,s3,11,5
    86c8:	038484b3          	mul	s1,s1,s8
    86cc:	14293c0b          	th.extu	s8,s2,5,2
    86d0:	2c59390b          	th.extu	s2,s2,11,5
    86d4:	03740433          	mul	s0,s0,s7
    86d8:	1424bb8b          	th.extu	s7,s1,5,2
    86dc:	2c54b48b          	th.extu	s1,s1,11,5
    86e0:	03630333          	mul	t1,t1,s6
    86e4:	14243b0b          	th.extu	s6,s0,5,2
    86e8:	2c54340b          	th.extu	s0,s0,11,5
    86ec:	03560633          	mul	a2,a2,s5
    86f0:	14233a8b          	th.extu	s5,t1,5,2
    86f4:	2c53330b          	th.extu	t1,t1,11,5
    86f8:	031d8db3          	mul	s11,s11,a7
    86fc:	00c80833          	add	a6,a6,a2
    8700:	034d08b3          	mul	a7,s10,s4
    8704:	01b80d33          	add	s10,a6,s11
    8708:	033c8a33          	mul	s4,s9,s3
    870c:	011d0cb3          	add	s9,s10,a7
    8710:	032c09b3          	mul	s3,s8,s2
    8714:	014c8c33          	add	s8,s9,s4
    8718:	029b8933          	mul	s2,s7,s1
    871c:	013c0bb3          	add	s7,s8,s3
    8720:	028b04b3          	mul	s1,s6,s0
    8724:	012b8b33          	add	s6,s7,s2
    8728:	026a8433          	mul	s0,s5,t1
    872c:	009b0633          	add	a2,s6,s1
    8730:	00860833          	add	a6,a2,s0
    8734:	f0ef16e3          	bne	t5,a4,8640 <matrix_mul_matrix_bitextract+0x1a4>
    8738:	45d2d80b          	th.srw	a6,t0,t4,2
    873c:	001e8713          	addi	a4,t4,1
    8740:	002e0e13          	addi	t3,t3,2
    8744:	00e50663          	beq	a0,a4,8750 <matrix_mul_matrix_bitextract+0x2b4>
    8748:	00070e93          	mv	t4,a4
    874c:	da5ff06f          	j	84f0 <matrix_mul_matrix_bitextract+0x54>
    8750:	205542b3          	sh2add	t0,a0,t0
    8754:	00bf8fb3          	add	t6,t6,a1
    8758:	00bf0f33          	add	t5,t5,a1
    875c:	01d38663          	beq	t2,t4,8768 <matrix_mul_matrix_bitextract+0x2cc>
    8760:	00138393          	addi	t2,t2,1
    8764:	d85ff06f          	j	84e8 <matrix_mul_matrix_bitextract+0x4c>
    8768:	02c12403          	lw	s0,44(sp)
    876c:	02812483          	lw	s1,40(sp)
    8770:	02412903          	lw	s2,36(sp)
    8774:	02012983          	lw	s3,32(sp)
    8778:	01c12a03          	lw	s4,28(sp)
    877c:	01812a83          	lw	s5,24(sp)
    8780:	01412b03          	lw	s6,20(sp)
    8784:	01012b83          	lw	s7,16(sp)
    8788:	00c12c03          	lw	s8,12(sp)
    878c:	00812c83          	lw	s9,8(sp)
    8790:	00412d03          	lw	s10,4(sp)
    8794:	00012d83          	lw	s11,0(sp)
    8798:	03010113          	addi	sp,sp,48
    879c:	00008067          	ret
    87a0:	00008067          	ret

000087a4 <core_bench_state>:
    87a4:	f9010113          	addi	sp,sp,-112
    87a8:	07212023          	sw	s2,96(sp)
    87ac:	05512a23          	sw	s5,84(sp)
    87b0:	06112623          	sw	ra,108(sp)
    87b4:	06812423          	sw	s0,104(sp)
    87b8:	06912223          	sw	s1,100(sp)
    87bc:	05312e23          	sw	s3,92(sp)
    87c0:	05412c23          	sw	s4,88(sp)
    87c4:	05612823          	sw	s6,80(sp)
    87c8:	05712623          	sw	s7,76(sp)
    87cc:	0005c303          	lbu	t1,0(a1)
    87d0:	02012023          	sw	zero,32(sp)
    87d4:	00012023          	sw	zero,0(sp)
    87d8:	02012223          	sw	zero,36(sp)
    87dc:	00012223          	sw	zero,4(sp)
    87e0:	02012423          	sw	zero,40(sp)
    87e4:	00012423          	sw	zero,8(sp)
    87e8:	02012623          	sw	zero,44(sp)
    87ec:	00012623          	sw	zero,12(sp)
    87f0:	02012823          	sw	zero,48(sp)
    87f4:	00012823          	sw	zero,16(sp)
    87f8:	02012a23          	sw	zero,52(sp)
    87fc:	00012a23          	sw	zero,20(sp)
    8800:	02012c23          	sw	zero,56(sp)
    8804:	00012c23          	sw	zero,24(sp)
    8808:	02012e23          	sw	zero,60(sp)
    880c:	00012e23          	sw	zero,28(sp)
    8810:	00058e13          	mv	t3,a1
    8814:	00068913          	mv	s2,a3
    8818:	00078593          	mv	a1,a5
    881c:	00060a93          	mv	s5,a2
    8820:	00070693          	mv	a3,a4
    8824:	6e030463          	beqz	t1,8f0c <core_bench_state+0x768>
    8828:	05812423          	sw	s8,72(sp)
    882c:	05912223          	sw	s9,68(sp)
    8830:	000e0813          	mv	a6,t3
    8834:	00030893          	mv	a7,t1
    8838:	00000393          	li	t2,0
    883c:	00000293          	li	t0,0
    8840:	00000613          	li	a2,0
    8844:	00000a13          	li	s4,0
    8848:	00000f93          	li	t6,0
    884c:	00000713          	li	a4,0
    8850:	00000993          	li	s3,0
    8854:	00010413          	mv	s0,sp
    8858:	02c00e93          	li	t4,44
    885c:	02e00793          	li	a5,46
    8860:	04500b13          	li	s6,69
    8864:	00900f13          	li	t5,9
    8868:	02b00493          	li	s1,43
    886c:	02d00b93          	li	s7,45
    8870:	00000c13          	li	s8,0
    8874:	07d88663          	beq	a7,t4,88e0 <core_bench_state+0x13c>
    8878:	56f88a63          	beq	a7,a5,8dec <core_bench_state+0x648>
    887c:	4517ee63          	bltu	a5,a7,8cd8 <core_bench_state+0x534>
    8880:	4e988a63          	beq	a7,s1,8d74 <core_bench_state+0x5d0>
    8884:	4d789e63          	bne	a7,s7,8d60 <core_bench_state+0x5bc>
    8888:	00184c83          	lbu	s9,1(a6)
    888c:	00180813          	addi	a6,a6,1
    8890:	00170713          	addi	a4,a4,1
    8894:	720c8c63          	beqz	s9,8fcc <core_bench_state+0x828>
    8898:	73dc8463          	beq	s9,t4,8fc0 <core_bench_state+0x81c>
    889c:	fd0c8893          	addi	a7,s9,-48
    88a0:	0ff8fc13          	zext.b	s8,a7
    88a4:	001f8f93          	addi	t6,t6,1
    88a8:	218f6c63          	bltu	t5,s8,8ac0 <core_bench_state+0x31c>
    88ac:	00184883          	lbu	a7,1(a6)
    88b0:	00180813          	addi	a6,a6,1
    88b4:	60088663          	beqz	a7,8ec0 <core_bench_state+0x71c>
    88b8:	5fd88a63          	beq	a7,t4,8eac <core_bench_state+0x708>
    88bc:	fd088c93          	addi	s9,a7,-48
    88c0:	0ffcfc13          	zext.b	s8,s9
    88c4:	22f88063          	beq	a7,a5,8ae4 <core_bench_state+0x340>
    88c8:	418f6063          	bltu	t5,s8,8cc8 <core_bench_state+0x524>
    88cc:	00184883          	lbu	a7,1(a6)
    88d0:	00180813          	addi	a6,a6,1
    88d4:	66088263          	beqz	a7,8f38 <core_bench_state+0x794>
    88d8:	ffd892e3          	bne	a7,t4,88bc <core_bench_state+0x118>
    88dc:	00400c13          	li	s8,4
    88e0:	00180813          	addi	a6,a6,1
    88e4:	45844c8b          	th.lrw	s9,s0,s8,2
    88e8:	00084883          	lbu	a7,0(a6)
    88ec:	001c8c93          	addi	s9,s9,1
    88f0:	45845c8b          	th.srw	s9,s0,s8,2
    88f4:	f6089ee3          	bnez	a7,8870 <core_bench_state+0xcc>
    88f8:	02712c23          	sw	t2,56(sp)
    88fc:	02512623          	sw	t0,44(sp)
    8900:	02c12a23          	sw	a2,52(sp)
    8904:	03412823          	sw	s4,48(sp)
    8908:	03f12423          	sw	t6,40(sp)
    890c:	02e12023          	sw	a4,32(sp)
    8910:	03312223          	sw	s3,36(sp)
    8914:	00ae0533          	add	a0,t3,a0
    8918:	62ae7863          	bgeu	t3,a0,8f48 <core_bench_state+0x7a4>
    891c:	04812c03          	lw	s8,72(sp)
    8920:	04412c83          	lw	s9,68(sp)
    8924:	000e0a13          	mv	s4,t3
    8928:	02c00313          	li	t1,44
    892c:	000a4703          	lbu	a4,0(s4)
    8930:	01574fb3          	xor	t6,a4,s5
    8934:	00670463          	beq	a4,t1,893c <core_bench_state+0x198>
    8938:	01fa0023          	sb	t6,0(s4)
    893c:	00da0a33          	add	s4,s4,a3
    8940:	feaa66e3          	bltu	s4,a0,892c <core_bench_state+0x188>
    8944:	000e4303          	lbu	t1,0(t3)
    8948:	0e030c63          	beqz	t1,8a40 <core_bench_state+0x29c>
    894c:	03812283          	lw	t0,56(sp)
    8950:	03412483          	lw	s1,52(sp)
    8954:	03012a83          	lw	s5,48(sp)
    8958:	02c12f83          	lw	t6,44(sp)
    895c:	02812f03          	lw	t5,40(sp)
    8960:	02412a03          	lw	s4,36(sp)
    8964:	02012383          	lw	t2,32(sp)
    8968:	000e0613          	mv	a2,t3
    896c:	02c00713          	li	a4,44
    8970:	02e00e93          	li	t4,46
    8974:	04500b13          	li	s6,69
    8978:	00900893          	li	a7,9
    897c:	02b00993          	li	s3,43
    8980:	02d00b93          	li	s7,45
    8984:	0240006f          	j	89a8 <core_bench_state+0x204>
    8988:	4bd30463          	beq	t1,t4,8e30 <core_bench_state+0x68c>
    898c:	00160613          	addi	a2,a2,1
    8990:	00100793          	li	a5,1
    8994:	44f4480b          	th.lrw	a6,s0,a5,2
    8998:	00064303          	lbu	t1,0(a2)
    899c:	00180813          	addi	a6,a6,1
    89a0:	44f4580b          	th.srw	a6,s0,a5,2
    89a4:	08030063          	beqz	t1,8a24 <core_bench_state+0x280>
    89a8:	00000793          	li	a5,0
    89ac:	2ee30c63          	beq	t1,a4,8ca4 <core_bench_state+0x500>
    89b0:	3fd30263          	beq	t1,t4,8d94 <core_bench_state+0x5f0>
    89b4:	346ee863          	bltu	t4,t1,8d04 <core_bench_state+0x560>
    89b8:	41330a63          	beq	t1,s3,8dcc <core_bench_state+0x628>
    89bc:	3f731e63          	bne	t1,s7,8db8 <core_bench_state+0x614>
    89c0:	00164303          	lbu	t1,1(a2)
    89c4:	00160613          	addi	a2,a2,1
    89c8:	00138393          	addi	t2,t2,1
    89cc:	5c030263          	beqz	t1,8f90 <core_bench_state+0x7ec>
    89d0:	5ee30263          	beq	t1,a4,8fb4 <core_bench_state+0x810>
    89d4:	fd030813          	addi	a6,t1,-48
    89d8:	0ff87793          	zext.b	a5,a6
    89dc:	001f0f13          	addi	t5,t5,1
    89e0:	faf8e4e3          	bltu	a7,a5,8988 <core_bench_state+0x1e4>
    89e4:	00164783          	lbu	a5,1(a2)
    89e8:	00160613          	addi	a2,a2,1
    89ec:	50078063          	beqz	a5,8eec <core_bench_state+0x748>
    89f0:	50e78263          	beq	a5,a4,8ef4 <core_bench_state+0x750>
    89f4:	fd078813          	addi	a6,a5,-48
    89f8:	0ff87313          	zext.b	t1,a6
    89fc:	1dd78a63          	beq	a5,t4,8bd0 <core_bench_state+0x42c>
    8a00:	2a68f663          	bgeu	a7,t1,8cac <core_bench_state+0x508>
    8a04:	00100793          	li	a5,1
    8a08:	44f4480b          	th.lrw	a6,s0,a5,2
    8a0c:	00164303          	lbu	t1,1(a2)
    8a10:	00160613          	addi	a2,a2,1
    8a14:	00180813          	addi	a6,a6,1
    8a18:	44f4580b          	th.srw	a6,s0,a5,2
    8a1c:	001a8a93          	addi	s5,s5,1
    8a20:	f80314e3          	bnez	t1,89a8 <core_bench_state+0x204>
    8a24:	02512c23          	sw	t0,56(sp)
    8a28:	03f12623          	sw	t6,44(sp)
    8a2c:	02912a23          	sw	s1,52(sp)
    8a30:	03512823          	sw	s5,48(sp)
    8a34:	03e12423          	sw	t5,40(sp)
    8a38:	02712023          	sw	t2,32(sp)
    8a3c:	03412223          	sw	s4,36(sp)
    8a40:	02ae7063          	bgeu	t3,a0,8a60 <core_bench_state+0x2bc>
    8a44:	02c00613          	li	a2,44
    8a48:	000e4283          	lbu	t0,0(t3)
    8a4c:	0122c3b3          	xor	t2,t0,s2
    8a50:	00c28463          	beq	t0,a2,8a58 <core_bench_state+0x2b4>
    8a54:	007e0023          	sb	t2,0(t3)
    8a58:	00de0e33          	add	t3,t3,a3
    8a5c:	feae66e3          	bltu	t3,a0,8a48 <core_bench_state+0x2a4>
    8a60:	00100493          	li	s1,1
    8a64:	02010993          	addi	s3,sp,32
    8a68:	00900913          	li	s2,9
    8a6c:	2084c533          	sh2add	a0,s1,s0
    8a70:	ffc52503          	lw	a0,-4(a0)
    8a74:	4b5000ef          	jal	9728 <crcu32>
    8a78:	2134c6b3          	sh2add	a3,s1,s3
    8a7c:	00050593          	mv	a1,a0
    8a80:	ffc6a503          	lw	a0,-4(a3)
    8a84:	00148493          	addi	s1,s1,1
    8a88:	4a1000ef          	jal	9728 <crcu32>
    8a8c:	00050593          	mv	a1,a0
    8a90:	fd249ee3          	bne	s1,s2,8a6c <core_bench_state+0x2c8>
    8a94:	06c12083          	lw	ra,108(sp)
    8a98:	06812403          	lw	s0,104(sp)
    8a9c:	06412483          	lw	s1,100(sp)
    8aa0:	06012903          	lw	s2,96(sp)
    8aa4:	05c12983          	lw	s3,92(sp)
    8aa8:	05812a03          	lw	s4,88(sp)
    8aac:	05412a83          	lw	s5,84(sp)
    8ab0:	05012b03          	lw	s6,80(sp)
    8ab4:	04c12b83          	lw	s7,76(sp)
    8ab8:	07010113          	addi	sp,sp,112
    8abc:	00008067          	ret
    8ac0:	34fc8863          	beq	s9,a5,8e10 <core_bench_state+0x66c>
    8ac4:	00180813          	addi	a6,a6,1
    8ac8:	00100c13          	li	s8,1
    8acc:	45844c8b          	th.lrw	s9,s0,s8,2
    8ad0:	00084883          	lbu	a7,0(a6)
    8ad4:	001c8c93          	addi	s9,s9,1
    8ad8:	45845c8b          	th.srw	s9,s0,s8,2
    8adc:	d8089ae3          	bnez	a7,8870 <core_bench_state+0xcc>
    8ae0:	e19ff06f          	j	88f8 <core_bench_state+0x154>
    8ae4:	00184c83          	lbu	s9,1(a6)
    8ae8:	001a0a13          	addi	s4,s4,1
    8aec:	00180c13          	addi	s8,a6,1
    8af0:	420c8663          	beqz	s9,8f1c <core_bench_state+0x778>
    8af4:	47dc8063          	beq	s9,t4,8f54 <core_bench_state+0x7b0>
    8af8:	fd0c8813          	addi	a6,s9,-48
    8afc:	0dfcfc93          	andi	s9,s9,223
    8b00:	0ff87893          	zext.b	a7,a6
    8b04:	036c8463          	beq	s9,s6,8b2c <core_bench_state+0x388>
    8b08:	251f6463          	bltu	t5,a7,8d50 <core_bench_state+0x5ac>
    8b0c:	001c4c83          	lbu	s9,1(s8)
    8b10:	001c0c13          	addi	s8,s8,1
    8b14:	440c8863          	beqz	s9,8f64 <core_bench_state+0x7c0>
    8b18:	ffdc90e3          	bne	s9,t4,8af8 <core_bench_state+0x354>
    8b1c:	000c0813          	mv	a6,s8
    8b20:	00180813          	addi	a6,a6,1
    8b24:	00500c13          	li	s8,5
    8b28:	dbdff06f          	j	88e4 <core_bench_state+0x140>
    8b2c:	001c4883          	lbu	a7,1(s8)
    8b30:	00160613          	addi	a2,a2,1
    8b34:	001c0813          	addi	a6,s8,1
    8b38:	32088063          	beqz	a7,8e58 <core_bench_state+0x6b4>
    8b3c:	33d88a63          	beq	a7,t4,8e70 <core_bench_state+0x6cc>
    8b40:	00988c63          	beq	a7,s1,8b58 <core_bench_state+0x3b4>
    8b44:	01788a63          	beq	a7,s7,8b58 <core_bench_state+0x3b4>
    8b48:	002c0813          	addi	a6,s8,2
    8b4c:	00128293          	addi	t0,t0,1
    8b50:	00100c13          	li	s8,1
    8b54:	f79ff06f          	j	8acc <core_bench_state+0x328>
    8b58:	002c4c83          	lbu	s9,2(s8)
    8b5c:	00128293          	addi	t0,t0,1
    8b60:	002c0813          	addi	a6,s8,2
    8b64:	2e0c8e63          	beqz	s9,8e60 <core_bench_state+0x6bc>
    8b68:	33dc8663          	beq	s9,t4,8e94 <core_bench_state+0x6f0>
    8b6c:	fd0c8813          	addi	a6,s9,-48
    8b70:	0ff87893          	zext.b	a7,a6
    8b74:	00138393          	addi	t2,t2,1
    8b78:	031f6e63          	bltu	t5,a7,8bb4 <core_bench_state+0x410>
    8b7c:	003c4883          	lbu	a7,3(s8)
    8b80:	003c0813          	addi	a6,s8,3
    8b84:	34088263          	beqz	a7,8ec8 <core_bench_state+0x724>
    8b88:	35d88463          	beq	a7,t4,8ed0 <core_bench_state+0x72c>
    8b8c:	fd088c13          	addi	s8,a7,-48
    8b90:	0ffc7c93          	zext.b	s9,s8
    8b94:	039f6663          	bltu	t5,s9,8bc0 <core_bench_state+0x41c>
    8b98:	00184883          	lbu	a7,1(a6)
    8b9c:	00180813          	addi	a6,a6,1
    8ba0:	32088e63          	beqz	a7,8edc <core_bench_state+0x738>
    8ba4:	ffd894e3          	bne	a7,t4,8b8c <core_bench_state+0x3e8>
    8ba8:	00700c13          	li	s8,7
    8bac:	00180813          	addi	a6,a6,1
    8bb0:	d35ff06f          	j	88e4 <core_bench_state+0x140>
    8bb4:	003c0813          	addi	a6,s8,3
    8bb8:	00100c13          	li	s8,1
    8bbc:	f11ff06f          	j	8acc <core_bench_state+0x328>
    8bc0:	00198993          	addi	s3,s3,1
    8bc4:	00180813          	addi	a6,a6,1
    8bc8:	00100c13          	li	s8,1
    8bcc:	f01ff06f          	j	8acc <core_bench_state+0x328>
    8bd0:	00164803          	lbu	a6,1(a2)
    8bd4:	001a8a93          	addi	s5,s5,1
    8bd8:	00160313          	addi	t1,a2,1
    8bdc:	32080263          	beqz	a6,8f00 <core_bench_state+0x75c>
    8be0:	34e80463          	beq	a6,a4,8f28 <core_bench_state+0x784>
    8be4:	fd080613          	addi	a2,a6,-48
    8be8:	0df87813          	andi	a6,a6,223
    8bec:	0ff67793          	zext.b	a5,a2
    8bf0:	01680c63          	beq	a6,s6,8c08 <core_bench_state+0x464>
    8bf4:	12f8fe63          	bgeu	a7,a5,8d30 <core_bench_state+0x58c>
    8bf8:	00148493          	addi	s1,s1,1
    8bfc:	00130613          	addi	a2,t1,1
    8c00:	00100793          	li	a5,1
    8c04:	d91ff06f          	j	8994 <core_bench_state+0x1f0>
    8c08:	00134803          	lbu	a6,1(t1)
    8c0c:	00148493          	addi	s1,s1,1
    8c10:	00130613          	addi	a2,t1,1
    8c14:	24080a63          	beqz	a6,8e68 <core_bench_state+0x6c4>
    8c18:	26e80863          	beq	a6,a4,8e88 <core_bench_state+0x6e4>
    8c1c:	01380c63          	beq	a6,s3,8c34 <core_bench_state+0x490>
    8c20:	01780a63          	beq	a6,s7,8c34 <core_bench_state+0x490>
    8c24:	001f8f93          	addi	t6,t6,1
    8c28:	00230613          	addi	a2,t1,2
    8c2c:	00100793          	li	a5,1
    8c30:	d65ff06f          	j	8994 <core_bench_state+0x1f0>
    8c34:	00234783          	lbu	a5,2(t1)
    8c38:	001f8f93          	addi	t6,t6,1
    8c3c:	00230613          	addi	a2,t1,2
    8c40:	20078863          	beqz	a5,8e50 <core_bench_state+0x6ac>
    8c44:	22e78c63          	beq	a5,a4,8e7c <core_bench_state+0x6d8>
    8c48:	fd078613          	addi	a2,a5,-48
    8c4c:	0ff67813          	zext.b	a6,a2
    8c50:	00128293          	addi	t0,t0,1
    8c54:	0108f863          	bgeu	a7,a6,8c64 <core_bench_state+0x4c0>
    8c58:	00330613          	addi	a2,t1,3
    8c5c:	00100793          	li	a5,1
    8c60:	d35ff06f          	j	8994 <core_bench_state+0x1f0>
    8c64:	00334803          	lbu	a6,3(t1)
    8c68:	00330613          	addi	a2,t1,3
    8c6c:	24080663          	beqz	a6,8eb8 <core_bench_state+0x714>
    8c70:	22e80863          	beq	a6,a4,8ea0 <core_bench_state+0x6fc>
    8c74:	fd080313          	addi	t1,a6,-48
    8c78:	0ff37793          	zext.b	a5,t1
    8c7c:	00f8fa63          	bgeu	a7,a5,8c90 <core_bench_state+0x4ec>
    8c80:	001a0a13          	addi	s4,s4,1
    8c84:	00160613          	addi	a2,a2,1
    8c88:	00100793          	li	a5,1
    8c8c:	d09ff06f          	j	8994 <core_bench_state+0x1f0>
    8c90:	00164803          	lbu	a6,1(a2)
    8c94:	00160613          	addi	a2,a2,1
    8c98:	24080663          	beqz	a6,8ee4 <core_bench_state+0x740>
    8c9c:	fce81ce3          	bne	a6,a4,8c74 <core_bench_state+0x4d0>
    8ca0:	00700793          	li	a5,7
    8ca4:	00160613          	addi	a2,a2,1
    8ca8:	cedff06f          	j	8994 <core_bench_state+0x1f0>
    8cac:	00164783          	lbu	a5,1(a2)
    8cb0:	00160613          	addi	a2,a2,1
    8cb4:	28078663          	beqz	a5,8f40 <core_bench_state+0x79c>
    8cb8:	d2e79ee3          	bne	a5,a4,89f4 <core_bench_state+0x250>
    8cbc:	00400793          	li	a5,4
    8cc0:	00160613          	addi	a2,a2,1
    8cc4:	cd1ff06f          	j	8994 <core_bench_state+0x1f0>
    8cc8:	001a0a13          	addi	s4,s4,1
    8ccc:	00180813          	addi	a6,a6,1
    8cd0:	00100c13          	li	s8,1
    8cd4:	df9ff06f          	j	8acc <core_bench_state+0x328>
    8cd8:	fd088893          	addi	a7,a7,-48
    8cdc:	0ff8fc13          	zext.b	s8,a7
    8ce0:	098f6063          	bltu	t5,s8,8d60 <core_bench_state+0x5bc>
    8ce4:	00184883          	lbu	a7,1(a6)
    8ce8:	00180813          	addi	a6,a6,1
    8cec:	00170713          	addi	a4,a4,1
    8cf0:	2a088e63          	beqz	a7,8fac <core_bench_state+0x808>
    8cf4:	bdd894e3          	bne	a7,t4,88bc <core_bench_state+0x118>
    8cf8:	00400c13          	li	s8,4
    8cfc:	00180813          	addi	a6,a6,1
    8d00:	be5ff06f          	j	88e4 <core_bench_state+0x140>
    8d04:	fd030813          	addi	a6,t1,-48
    8d08:	0ff87793          	zext.b	a5,a6
    8d0c:	0af8e663          	bltu	a7,a5,8db8 <core_bench_state+0x614>
    8d10:	00164783          	lbu	a5,1(a2)
    8d14:	00160613          	addi	a2,a2,1
    8d18:	00138393          	addi	t2,t2,1
    8d1c:	26078e63          	beqz	a5,8f98 <core_bench_state+0x7f4>
    8d20:	cce79ae3          	bne	a5,a4,89f4 <core_bench_state+0x250>
    8d24:	00400793          	li	a5,4
    8d28:	00160613          	addi	a2,a2,1
    8d2c:	c69ff06f          	j	8994 <core_bench_state+0x1f0>
    8d30:	00134803          	lbu	a6,1(t1)
    8d34:	00130313          	addi	t1,t1,1
    8d38:	22080c63          	beqz	a6,8f70 <core_bench_state+0x7cc>
    8d3c:	eae814e3          	bne	a6,a4,8be4 <core_bench_state+0x440>
    8d40:	00030613          	mv	a2,t1
    8d44:	00500793          	li	a5,5
    8d48:	00160613          	addi	a2,a2,1
    8d4c:	c49ff06f          	j	8994 <core_bench_state+0x1f0>
    8d50:	001c0813          	addi	a6,s8,1
    8d54:	00160613          	addi	a2,a2,1
    8d58:	00100c13          	li	s8,1
    8d5c:	d71ff06f          	j	8acc <core_bench_state+0x328>
    8d60:	00198993          	addi	s3,s3,1
    8d64:	00170713          	addi	a4,a4,1
    8d68:	00180813          	addi	a6,a6,1
    8d6c:	00100c13          	li	s8,1
    8d70:	d5dff06f          	j	8acc <core_bench_state+0x328>
    8d74:	00184c83          	lbu	s9,1(a6)
    8d78:	00180813          	addi	a6,a6,1
    8d7c:	00170713          	addi	a4,a4,1
    8d80:	1e0c8e63          	beqz	s9,8f7c <core_bench_state+0x7d8>
    8d84:	b1dc9ce3          	bne	s9,t4,889c <core_bench_state+0xf8>
    8d88:	00200c13          	li	s8,2
    8d8c:	00180813          	addi	a6,a6,1
    8d90:	b55ff06f          	j	88e4 <core_bench_state+0x140>
    8d94:	00164803          	lbu	a6,1(a2)
    8d98:	00138393          	addi	t2,t2,1
    8d9c:	00160313          	addi	t1,a2,1
    8da0:	1e080263          	beqz	a6,8f84 <core_bench_state+0x7e0>
    8da4:	e4e810e3          	bne	a6,a4,8be4 <core_bench_state+0x440>
    8da8:	00030613          	mv	a2,t1
    8dac:	00500793          	li	a5,5
    8db0:	00160613          	addi	a2,a2,1
    8db4:	be1ff06f          	j	8994 <core_bench_state+0x1f0>
    8db8:	001a0a13          	addi	s4,s4,1
    8dbc:	00138393          	addi	t2,t2,1
    8dc0:	00160613          	addi	a2,a2,1
    8dc4:	00100793          	li	a5,1
    8dc8:	bcdff06f          	j	8994 <core_bench_state+0x1f0>
    8dcc:	00164303          	lbu	t1,1(a2)
    8dd0:	00160613          	addi	a2,a2,1
    8dd4:	00138393          	addi	t2,t2,1
    8dd8:	1e030e63          	beqz	t1,8fd4 <core_bench_state+0x830>
    8ddc:	bee31ce3          	bne	t1,a4,89d4 <core_bench_state+0x230>
    8de0:	00200793          	li	a5,2
    8de4:	00160613          	addi	a2,a2,1
    8de8:	badff06f          	j	8994 <core_bench_state+0x1f0>
    8dec:	00184c83          	lbu	s9,1(a6)
    8df0:	00170713          	addi	a4,a4,1
    8df4:	00180c13          	addi	s8,a6,1
    8df8:	1a0c8463          	beqz	s9,8fa0 <core_bench_state+0x7fc>
    8dfc:	cfdc9ee3          	bne	s9,t4,8af8 <core_bench_state+0x354>
    8e00:	000c0813          	mv	a6,s8
    8e04:	00180813          	addi	a6,a6,1
    8e08:	00500c13          	li	s8,5
    8e0c:	ad9ff06f          	j	88e4 <core_bench_state+0x140>
    8e10:	00184c83          	lbu	s9,1(a6)
    8e14:	00180c13          	addi	s8,a6,1
    8e18:	1c0c8863          	beqz	s9,8fe8 <core_bench_state+0x844>
    8e1c:	cddc9ee3          	bne	s9,t4,8af8 <core_bench_state+0x354>
    8e20:	000c0813          	mv	a6,s8
    8e24:	00180813          	addi	a6,a6,1
    8e28:	00500c13          	li	s8,5
    8e2c:	ab9ff06f          	j	88e4 <core_bench_state+0x140>
    8e30:	00164803          	lbu	a6,1(a2)
    8e34:	00160313          	addi	t1,a2,1
    8e38:	1a080263          	beqz	a6,8fdc <core_bench_state+0x838>
    8e3c:	dae814e3          	bne	a6,a4,8be4 <core_bench_state+0x440>
    8e40:	00030613          	mv	a2,t1
    8e44:	00500793          	li	a5,5
    8e48:	00160613          	addi	a2,a2,1
    8e4c:	b49ff06f          	j	8994 <core_bench_state+0x1f0>
    8e50:	00600793          	li	a5,6
    8e54:	b41ff06f          	j	8994 <core_bench_state+0x1f0>
    8e58:	00300c13          	li	s8,3
    8e5c:	c71ff06f          	j	8acc <core_bench_state+0x328>
    8e60:	00600c13          	li	s8,6
    8e64:	c69ff06f          	j	8acc <core_bench_state+0x328>
    8e68:	00300793          	li	a5,3
    8e6c:	b29ff06f          	j	8994 <core_bench_state+0x1f0>
    8e70:	00300c13          	li	s8,3
    8e74:	00180813          	addi	a6,a6,1
    8e78:	a6dff06f          	j	88e4 <core_bench_state+0x140>
    8e7c:	00600793          	li	a5,6
    8e80:	00160613          	addi	a2,a2,1
    8e84:	b11ff06f          	j	8994 <core_bench_state+0x1f0>
    8e88:	00300793          	li	a5,3
    8e8c:	00160613          	addi	a2,a2,1
    8e90:	b05ff06f          	j	8994 <core_bench_state+0x1f0>
    8e94:	00600c13          	li	s8,6
    8e98:	00180813          	addi	a6,a6,1
    8e9c:	a49ff06f          	j	88e4 <core_bench_state+0x140>
    8ea0:	00700793          	li	a5,7
    8ea4:	00160613          	addi	a2,a2,1
    8ea8:	aedff06f          	j	8994 <core_bench_state+0x1f0>
    8eac:	00400c13          	li	s8,4
    8eb0:	00180813          	addi	a6,a6,1
    8eb4:	a31ff06f          	j	88e4 <core_bench_state+0x140>
    8eb8:	00700793          	li	a5,7
    8ebc:	ad9ff06f          	j	8994 <core_bench_state+0x1f0>
    8ec0:	00400c13          	li	s8,4
    8ec4:	c09ff06f          	j	8acc <core_bench_state+0x328>
    8ec8:	00700c13          	li	s8,7
    8ecc:	c01ff06f          	j	8acc <core_bench_state+0x328>
    8ed0:	00700c13          	li	s8,7
    8ed4:	00180813          	addi	a6,a6,1
    8ed8:	a0dff06f          	j	88e4 <core_bench_state+0x140>
    8edc:	00700c13          	li	s8,7
    8ee0:	bedff06f          	j	8acc <core_bench_state+0x328>
    8ee4:	00700793          	li	a5,7
    8ee8:	aadff06f          	j	8994 <core_bench_state+0x1f0>
    8eec:	00400793          	li	a5,4
    8ef0:	aa5ff06f          	j	8994 <core_bench_state+0x1f0>
    8ef4:	00400793          	li	a5,4
    8ef8:	00160613          	addi	a2,a2,1
    8efc:	a99ff06f          	j	8994 <core_bench_state+0x1f0>
    8f00:	00030613          	mv	a2,t1
    8f04:	00500793          	li	a5,5
    8f08:	a8dff06f          	j	8994 <core_bench_state+0x1f0>
    8f0c:	00ae0533          	add	a0,t3,a0
    8f10:	00010413          	mv	s0,sp
    8f14:	a0ae68e3          	bltu	t3,a0,8924 <core_bench_state+0x180>
    8f18:	b49ff06f          	j	8a60 <core_bench_state+0x2bc>
    8f1c:	000c0813          	mv	a6,s8
    8f20:	00500c13          	li	s8,5
    8f24:	ba9ff06f          	j	8acc <core_bench_state+0x328>
    8f28:	00030613          	mv	a2,t1
    8f2c:	00500793          	li	a5,5
    8f30:	00160613          	addi	a2,a2,1
    8f34:	a61ff06f          	j	8994 <core_bench_state+0x1f0>
    8f38:	00400c13          	li	s8,4
    8f3c:	b91ff06f          	j	8acc <core_bench_state+0x328>
    8f40:	00400793          	li	a5,4
    8f44:	a51ff06f          	j	8994 <core_bench_state+0x1f0>
    8f48:	04812c03          	lw	s8,72(sp)
    8f4c:	04412c83          	lw	s9,68(sp)
    8f50:	9fdff06f          	j	894c <core_bench_state+0x1a8>
    8f54:	000c0813          	mv	a6,s8
    8f58:	00180813          	addi	a6,a6,1
    8f5c:	00500c13          	li	s8,5
    8f60:	985ff06f          	j	88e4 <core_bench_state+0x140>
    8f64:	000c0813          	mv	a6,s8
    8f68:	00500c13          	li	s8,5
    8f6c:	b61ff06f          	j	8acc <core_bench_state+0x328>
    8f70:	00030613          	mv	a2,t1
    8f74:	00500793          	li	a5,5
    8f78:	a1dff06f          	j	8994 <core_bench_state+0x1f0>
    8f7c:	00200c13          	li	s8,2
    8f80:	b4dff06f          	j	8acc <core_bench_state+0x328>
    8f84:	00030613          	mv	a2,t1
    8f88:	00500793          	li	a5,5
    8f8c:	a09ff06f          	j	8994 <core_bench_state+0x1f0>
    8f90:	00200793          	li	a5,2
    8f94:	a01ff06f          	j	8994 <core_bench_state+0x1f0>
    8f98:	00400793          	li	a5,4
    8f9c:	9f9ff06f          	j	8994 <core_bench_state+0x1f0>
    8fa0:	000c0813          	mv	a6,s8
    8fa4:	00500c13          	li	s8,5
    8fa8:	b25ff06f          	j	8acc <core_bench_state+0x328>
    8fac:	00400c13          	li	s8,4
    8fb0:	b1dff06f          	j	8acc <core_bench_state+0x328>
    8fb4:	00200793          	li	a5,2
    8fb8:	00160613          	addi	a2,a2,1
    8fbc:	9d9ff06f          	j	8994 <core_bench_state+0x1f0>
    8fc0:	00200c13          	li	s8,2
    8fc4:	00180813          	addi	a6,a6,1
    8fc8:	91dff06f          	j	88e4 <core_bench_state+0x140>
    8fcc:	00200c13          	li	s8,2
    8fd0:	afdff06f          	j	8acc <core_bench_state+0x328>
    8fd4:	00200793          	li	a5,2
    8fd8:	9bdff06f          	j	8994 <core_bench_state+0x1f0>
    8fdc:	00030613          	mv	a2,t1
    8fe0:	00500793          	li	a5,5
    8fe4:	9b1ff06f          	j	8994 <core_bench_state+0x1f0>
    8fe8:	000c0813          	mv	a6,s8
    8fec:	00500c13          	li	s8,5
    8ff0:	addff06f          	j	8acc <core_bench_state+0x328>

00008ff4 <core_init_state>:
    8ff4:	fff50f93          	addi	t6,a0,-1
    8ff8:	00100393          	li	t2,1
    8ffc:	ff010113          	addi	sp,sp,-16
    9000:	1ff3fa63          	bgeu	t2,t6,91f4 <core_init_state+0x200>
    9004:	007585b3          	add	a1,a1,t2
    9008:	00812623          	sw	s0,12(sp)
    900c:	0000df37          	lui	t5,0xd
    9010:	00700293          	li	t0,7
    9014:	0075f793          	andi	a5,a1,7
    9018:	c4cf0f13          	addi	t5,t5,-948 # cc4c <intpat>
    901c:	00000693          	li	a3,0
    9020:	00400e93          	li	t4,4
    9024:	02c00413          	li	s0,44
    9028:	1035b70b          	th.extu	a4,a1,4,3
    902c:	08578663          	beq	a5,t0,90b8 <core_init_state+0xc4>
    9030:	1afeea63          	bltu	t4,a5,91e4 <core_init_state+0x1f0>
    9034:	ffd78e13          	addi	t3,a5,-3
    9038:	3c0e378b          	th.extu	a5,t3,15,0
    903c:	18f3ee63          	bltu	t2,a5,91d8 <core_init_state+0x1e4>
    9040:	21e74333          	sh2add	t1,a4,t5
    9044:	01032703          	lw	a4,16(t1)
    9048:	00800893          	li	a7,8
    904c:	00168793          	addi	a5,a3,1
    9050:	00f88333          	add	t1,a7,a5
    9054:	07f37e63          	bgeu	t1,t6,90d0 <core_init_state+0xdc>
    9058:	00074e03          	lbu	t3,0(a4)
    905c:	00d60833          	add	a6,a2,a3
    9060:	00158593          	addi	a1,a1,1
    9064:	00d65e0b          	th.srb	t3,a2,a3,0
    9068:	00174683          	lbu	a3,1(a4)
    906c:	00f6568b          	th.srb	a3,a2,a5,0
    9070:	00274783          	lbu	a5,2(a4)
    9074:	00f80123          	sb	a5,2(a6)
    9078:	00374e03          	lbu	t3,3(a4)
    907c:	01c801a3          	sb	t3,3(a6)
    9080:	03d88263          	beq	a7,t4,90a4 <core_init_state+0xb0>
    9084:	00474683          	lbu	a3,4(a4)
    9088:	00d80223          	sb	a3,4(a6)
    908c:	00574783          	lbu	a5,5(a4)
    9090:	00f802a3          	sb	a5,5(a6)
    9094:	00674e03          	lbu	t3,6(a4)
    9098:	01c80323          	sb	t3,6(a6)
    909c:	00774703          	lbu	a4,7(a4)
    90a0:	00e803a3          	sb	a4,7(a6)
    90a4:	0118540b          	th.srb	s0,a6,a7,0
    90a8:	0075f793          	andi	a5,a1,7
    90ac:	00030693          	mv	a3,t1
    90b0:	1035b70b          	th.extu	a4,a1,4,3
    90b4:	f6579ee3          	bne	a5,t0,9030 <core_init_state+0x3c>
    90b8:	21e74333          	sh2add	t1,a4,t5
    90bc:	00800893          	li	a7,8
    90c0:	00168793          	addi	a5,a3,1
    90c4:	03032703          	lw	a4,48(t1)
    90c8:	00f88333          	add	t1,a7,a5
    90cc:	f9f366e3          	bltu	t1,t6,9058 <core_init_state+0x64>
    90d0:	12a6f863          	bgeu	a3,a0,9200 <core_init_state+0x20c>
    90d4:	00c12403          	lw	s0,12(sp)
    90d8:	40f502b3          	sub	t0,a0,a5
    90dc:	0072f393          	andi	t2,t0,7
    90e0:	0c038863          	beqz	t2,91b0 <core_init_state+0x1bc>
    90e4:	00d6500b          	th.srb	zero,a2,a3,0
    90e8:	00078693          	mv	a3,a5
    90ec:	0ea7f263          	bgeu	a5,a0,91d0 <core_init_state+0x1dc>
    90f0:	00100593          	li	a1,1
    90f4:	00b787b3          	add	a5,a5,a1
    90f8:	0ab38c63          	beq	t2,a1,91b0 <core_init_state+0x1bc>
    90fc:	00200e93          	li	t4,2
    9100:	07d38063          	beq	t2,t4,9160 <core_init_state+0x16c>
    9104:	00300f93          	li	t6,3
    9108:	05f38663          	beq	t2,t6,9154 <core_init_state+0x160>
    910c:	00400f13          	li	t5,4
    9110:	03e38c63          	beq	t2,t5,9148 <core_init_state+0x154>
    9114:	00500713          	li	a4,5
    9118:	02e38263          	beq	t2,a4,913c <core_init_state+0x148>
    911c:	00600893          	li	a7,6
    9120:	01138863          	beq	t2,a7,9130 <core_init_state+0x13c>
    9124:	00d6500b          	th.srb	zero,a2,a3,0
    9128:	00078693          	mv	a3,a5
    912c:	00178793          	addi	a5,a5,1
    9130:	00d6500b          	th.srb	zero,a2,a3,0
    9134:	00078693          	mv	a3,a5
    9138:	00178793          	addi	a5,a5,1
    913c:	00d6500b          	th.srb	zero,a2,a3,0
    9140:	00078693          	mv	a3,a5
    9144:	00178793          	addi	a5,a5,1
    9148:	00d6500b          	th.srb	zero,a2,a3,0
    914c:	00078693          	mv	a3,a5
    9150:	00178793          	addi	a5,a5,1
    9154:	00d6500b          	th.srb	zero,a2,a3,0
    9158:	00078693          	mv	a3,a5
    915c:	00178793          	addi	a5,a5,1
    9160:	00d6500b          	th.srb	zero,a2,a3,0
    9164:	00078693          	mv	a3,a5
    9168:	00d6500b          	th.srb	zero,a2,a3,0
    916c:	00178793          	addi	a5,a5,1
    9170:	00178e13          	addi	t3,a5,1
    9174:	00278313          	addi	t1,a5,2
    9178:	00378293          	addi	t0,a5,3
    917c:	00478813          	addi	a6,a5,4
    9180:	00578393          	addi	t2,a5,5
    9184:	00678593          	addi	a1,a5,6
    9188:	04a7f463          	bgeu	a5,a0,91d0 <core_init_state+0x1dc>
    918c:	00f6500b          	th.srb	zero,a2,a5,0
    9190:	01c6500b          	th.srb	zero,a2,t3,0
    9194:	0066500b          	th.srb	zero,a2,t1,0
    9198:	0056500b          	th.srb	zero,a2,t0,0
    919c:	0106500b          	th.srb	zero,a2,a6,0
    91a0:	0076500b          	th.srb	zero,a2,t2,0
    91a4:	00778693          	addi	a3,a5,7
    91a8:	00b6500b          	th.srb	zero,a2,a1,0
    91ac:	00878793          	addi	a5,a5,8
    91b0:	00d6500b          	th.srb	zero,a2,a3,0
    91b4:	00178e13          	addi	t3,a5,1
    91b8:	00278313          	addi	t1,a5,2
    91bc:	00378293          	addi	t0,a5,3
    91c0:	00478813          	addi	a6,a5,4
    91c4:	00578393          	addi	t2,a5,5
    91c8:	00678593          	addi	a1,a5,6
    91cc:	fca7e0e3          	bltu	a5,a0,918c <core_init_state+0x198>
    91d0:	01010113          	addi	sp,sp,16
    91d4:	00008067          	ret
    91d8:	44ef470b          	th.lrw	a4,t5,a4,2
    91dc:	00400893          	li	a7,4
    91e0:	e6dff06f          	j	904c <core_init_state+0x58>
    91e4:	21e74833          	sh2add	a6,a4,t5
    91e8:	02082703          	lw	a4,32(a6)
    91ec:	00800893          	li	a7,8
    91f0:	e5dff06f          	j	904c <core_init_state+0x58>
    91f4:	00038793          	mv	a5,t2
    91f8:	00000693          	li	a3,0
    91fc:	eddff06f          	j	90d8 <core_init_state+0xe4>
    9200:	00c12403          	lw	s0,12(sp)
    9204:	01010113          	addi	sp,sp,16
    9208:	00008067          	ret

0000920c <core_state_transition>:
    920c:	00052783          	lw	a5,0(a0)
    9210:	0007c703          	lbu	a4,0(a5)
    9214:	06070863          	beqz	a4,9284 <core_state_transition+0x78>
    9218:	02c00693          	li	a3,44
    921c:	2cd70063          	beq	a4,a3,94dc <core_state_transition+0x2d0>
    9220:	02e00613          	li	a2,46
    9224:	26c70063          	beq	a4,a2,9484 <core_state_transition+0x278>
    9228:	22e66063          	bltu	a2,a4,9448 <core_state_transition+0x23c>
    922c:	02b00e93          	li	t4,43
    9230:	07d70063          	beq	a4,t4,9290 <core_state_transition+0x84>
    9234:	02d00613          	li	a2,45
    9238:	26c71c63          	bne	a4,a2,94b0 <core_state_transition+0x2a4>
    923c:	0005a283          	lw	t0,0(a1)
    9240:	00178713          	addi	a4,a5,1
    9244:	00128313          	addi	t1,t0,1
    9248:	0065a023          	sw	t1,0(a1)
    924c:	0017c383          	lbu	t2,1(a5)
    9250:	34038063          	beqz	t2,9590 <core_state_transition+0x384>
    9254:	28d38a63          	beq	t2,a3,94e8 <core_state_transition+0x2dc>
    9258:	0085a683          	lw	a3,8(a1)
    925c:	fd038793          	addi	a5,t2,-48
    9260:	0ff7f893          	zext.b	a7,a5
    9264:	00900813          	li	a6,9
    9268:	00168e13          	addi	t3,a3,1
    926c:	05187c63          	bgeu	a6,a7,92c4 <core_state_transition+0xb8>
    9270:	02e00e93          	li	t4,46
    9274:	27d38063          	beq	t2,t4,94d4 <core_state_transition+0x2c8>
    9278:	00170793          	addi	a5,a4,1
    927c:	01c5a423          	sw	t3,8(a1)
    9280:	00100713          	li	a4,1
    9284:	00f52023          	sw	a5,0(a0)
    9288:	00070513          	mv	a0,a4
    928c:	00008067          	ret
    9290:	0005af03          	lw	t5,0(a1)
    9294:	00178713          	addi	a4,a5,1
    9298:	001f0f93          	addi	t6,t5,1
    929c:	01f5a023          	sw	t6,0(a1)
    92a0:	0017c383          	lbu	t2,1(a5)
    92a4:	2c038a63          	beqz	t2,9578 <core_state_transition+0x36c>
    92a8:	fad398e3          	bne	t2,a3,9258 <core_state_transition+0x4c>
    92ac:	00070793          	mv	a5,a4
    92b0:	00178793          	addi	a5,a5,1
    92b4:	00200713          	li	a4,2
    92b8:	00f52023          	sw	a5,0(a0)
    92bc:	00070513          	mv	a0,a4
    92c0:	00008067          	ret
    92c4:	01c5a423          	sw	t3,8(a1)
    92c8:	00174f03          	lbu	t5,1(a4)
    92cc:	00170713          	addi	a4,a4,1
    92d0:	280f0863          	beqz	t5,9560 <core_state_transition+0x354>
    92d4:	02c00f93          	li	t6,44
    92d8:	27ff0c63          	beq	t5,t6,9550 <core_state_transition+0x344>
    92dc:	02e00613          	li	a2,46
    92e0:	02cf0a63          	beq	t5,a2,9314 <core_state_transition+0x108>
    92e4:	fd0f0293          	addi	t0,t5,-48
    92e8:	0ff2f313          	zext.b	t1,t0
    92ec:	00900393          	li	t2,9
    92f0:	fc63fce3          	bgeu	t2,t1,92c8 <core_state_transition+0xbc>
    92f4:	0105a683          	lw	a3,16(a1)
    92f8:	00170793          	addi	a5,a4,1
    92fc:	00100713          	li	a4,1
    9300:	00e688b3          	add	a7,a3,a4
    9304:	0115a823          	sw	a7,16(a1)
    9308:	00f52023          	sw	a5,0(a0)
    930c:	00070513          	mv	a0,a4
    9310:	00008067          	ret
    9314:	0105a803          	lw	a6,16(a1)
    9318:	00180e13          	addi	t3,a6,1
    931c:	01c5a823          	sw	t3,16(a1)
    9320:	00174e83          	lbu	t4,1(a4)
    9324:	00170713          	addi	a4,a4,1
    9328:	1e0e8c63          	beqz	t4,9520 <core_state_transition+0x314>
    932c:	02c00f13          	li	t5,44
    9330:	21ee8863          	beq	t4,t5,9540 <core_state_transition+0x334>
    9334:	0dfef793          	andi	a5,t4,223
    9338:	04500f93          	li	t6,69
    933c:	03f78a63          	beq	a5,t6,9370 <core_state_transition+0x164>
    9340:	fd0e8613          	addi	a2,t4,-48
    9344:	0ff67293          	zext.b	t0,a2
    9348:	00900313          	li	t1,9
    934c:	fc537ae3          	bgeu	t1,t0,9320 <core_state_transition+0x114>
    9350:	0145a383          	lw	t2,20(a1)
    9354:	00170793          	addi	a5,a4,1
    9358:	00100713          	li	a4,1
    935c:	00e386b3          	add	a3,t2,a4
    9360:	00d5aa23          	sw	a3,20(a1)
    9364:	00f52023          	sw	a5,0(a0)
    9368:	00070513          	mv	a0,a4
    936c:	00008067          	ret
    9370:	0145a883          	lw	a7,20(a1)
    9374:	00170793          	addi	a5,a4,1
    9378:	00188813          	addi	a6,a7,1
    937c:	0105aa23          	sw	a6,20(a1)
    9380:	00174e03          	lbu	t3,1(a4)
    9384:	160e0e63          	beqz	t3,9500 <core_state_transition+0x2f4>
    9388:	02c00e93          	li	t4,44
    938c:	19de0463          	beq	t3,t4,9514 <core_state_transition+0x308>
    9390:	02b00f13          	li	t5,43
    9394:	03ee0663          	beq	t3,t5,93c0 <core_state_transition+0x1b4>
    9398:	02d00793          	li	a5,45
    939c:	02fe0263          	beq	t3,a5,93c0 <core_state_transition+0x1b4>
    93a0:	00c5af83          	lw	t6,12(a1)
    93a4:	00270793          	addi	a5,a4,2
    93a8:	00100713          	li	a4,1
    93ac:	00ef8633          	add	a2,t6,a4
    93b0:	00c5a623          	sw	a2,12(a1)
    93b4:	00f52023          	sw	a5,0(a0)
    93b8:	00070513          	mv	a0,a4
    93bc:	00008067          	ret
    93c0:	00c5a283          	lw	t0,12(a1)
    93c4:	00270793          	addi	a5,a4,2
    93c8:	00128313          	addi	t1,t0,1
    93cc:	0065a623          	sw	t1,12(a1)
    93d0:	00274383          	lbu	t2,2(a4)
    93d4:	12038263          	beqz	t2,94f8 <core_state_transition+0x2ec>
    93d8:	02c00693          	li	a3,44
    93dc:	12d38663          	beq	t2,a3,9508 <core_state_transition+0x2fc>
    93e0:	0185a883          	lw	a7,24(a1)
    93e4:	fd038813          	addi	a6,t2,-48
    93e8:	0ff87e13          	zext.b	t3,a6
    93ec:	00900393          	li	t2,9
    93f0:	00188e93          	addi	t4,a7,1
    93f4:	01c3fa63          	bgeu	t2,t3,9408 <core_state_transition+0x1fc>
    93f8:	00370793          	addi	a5,a4,3
    93fc:	01d5ac23          	sw	t4,24(a1)
    9400:	00100713          	li	a4,1
    9404:	e81ff06f          	j	9284 <core_state_transition+0x78>
    9408:	01d5ac23          	sw	t4,24(a1)
    940c:	00078f13          	mv	t5,a5
    9410:	0017cf83          	lbu	t6,1(a5)
    9414:	00178793          	addi	a5,a5,1
    9418:	02c00613          	li	a2,44
    941c:	fd0f8293          	addi	t0,t6,-48
    9420:	0ff2f313          	zext.b	t1,t0
    9424:	100f8463          	beqz	t6,952c <core_state_transition+0x320>
    9428:	10cf8663          	beq	t6,a2,9534 <core_state_transition+0x328>
    942c:	fe63f0e3          	bgeu	t2,t1,940c <core_state_transition+0x200>
    9430:	0045a683          	lw	a3,4(a1)
    9434:	00100713          	li	a4,1
    9438:	002f0793          	addi	a5,t5,2
    943c:	00e688b3          	add	a7,a3,a4
    9440:	0115a223          	sw	a7,4(a1)
    9444:	e41ff06f          	j	9284 <core_state_transition+0x78>
    9448:	fd070713          	addi	a4,a4,-48
    944c:	0ff77393          	zext.b	t2,a4
    9450:	00900813          	li	a6,9
    9454:	04786e63          	bltu	a6,t2,94b0 <core_state_transition+0x2a4>
    9458:	0005a883          	lw	a7,0(a1)
    945c:	00178713          	addi	a4,a5,1
    9460:	00188e13          	addi	t3,a7,1
    9464:	01c5a023          	sw	t3,0(a1)
    9468:	0017cf03          	lbu	t5,1(a5)
    946c:	100f0063          	beqz	t5,956c <core_state_transition+0x360>
    9470:	e6df16e3          	bne	t5,a3,92dc <core_state_transition+0xd0>
    9474:	00070793          	mv	a5,a4
    9478:	00178793          	addi	a5,a5,1
    947c:	00400713          	li	a4,4
    9480:	e39ff06f          	j	92b8 <core_state_transition+0xac>
    9484:	0005a283          	lw	t0,0(a1)
    9488:	00178713          	addi	a4,a5,1
    948c:	00128313          	addi	t1,t0,1
    9490:	0065a023          	sw	t1,0(a1)
    9494:	0017ce83          	lbu	t4,1(a5)
    9498:	0e0e8663          	beqz	t4,9584 <core_state_transition+0x378>
    949c:	e8de9ce3          	bne	t4,a3,9334 <core_state_transition+0x128>
    94a0:	00070793          	mv	a5,a4
    94a4:	00178793          	addi	a5,a5,1
    94a8:	00500713          	li	a4,5
    94ac:	e0dff06f          	j	92b8 <core_state_transition+0xac>
    94b0:	0005a703          	lw	a4,0(a1)
    94b4:	0045a803          	lw	a6,4(a1)
    94b8:	00178793          	addi	a5,a5,1
    94bc:	00170e93          	addi	t4,a4,1
    94c0:	00180e13          	addi	t3,a6,1
    94c4:	01c5a223          	sw	t3,4(a1)
    94c8:	01d5a023          	sw	t4,0(a1)
    94cc:	00100713          	li	a4,1
    94d0:	db5ff06f          	j	9284 <core_state_transition+0x78>
    94d4:	01c5a423          	sw	t3,8(a1)
    94d8:	e49ff06f          	j	9320 <core_state_transition+0x114>
    94dc:	00000713          	li	a4,0
    94e0:	00178793          	addi	a5,a5,1
    94e4:	dd5ff06f          	j	92b8 <core_state_transition+0xac>
    94e8:	00070793          	mv	a5,a4
    94ec:	00178793          	addi	a5,a5,1
    94f0:	00200713          	li	a4,2
    94f4:	dc5ff06f          	j	92b8 <core_state_transition+0xac>
    94f8:	00600713          	li	a4,6
    94fc:	d89ff06f          	j	9284 <core_state_transition+0x78>
    9500:	00300713          	li	a4,3
    9504:	d81ff06f          	j	9284 <core_state_transition+0x78>
    9508:	00600713          	li	a4,6
    950c:	00178793          	addi	a5,a5,1
    9510:	da9ff06f          	j	92b8 <core_state_transition+0xac>
    9514:	00300713          	li	a4,3
    9518:	00178793          	addi	a5,a5,1
    951c:	d9dff06f          	j	92b8 <core_state_transition+0xac>
    9520:	00070793          	mv	a5,a4
    9524:	00500713          	li	a4,5
    9528:	d5dff06f          	j	9284 <core_state_transition+0x78>
    952c:	00700713          	li	a4,7
    9530:	d55ff06f          	j	9284 <core_state_transition+0x78>
    9534:	00700713          	li	a4,7
    9538:	00178793          	addi	a5,a5,1
    953c:	d7dff06f          	j	92b8 <core_state_transition+0xac>
    9540:	00070793          	mv	a5,a4
    9544:	00178793          	addi	a5,a5,1
    9548:	00500713          	li	a4,5
    954c:	d6dff06f          	j	92b8 <core_state_transition+0xac>
    9550:	00070793          	mv	a5,a4
    9554:	00178793          	addi	a5,a5,1
    9558:	00400713          	li	a4,4
    955c:	d5dff06f          	j	92b8 <core_state_transition+0xac>
    9560:	00070793          	mv	a5,a4
    9564:	00400713          	li	a4,4
    9568:	d1dff06f          	j	9284 <core_state_transition+0x78>
    956c:	00070793          	mv	a5,a4
    9570:	00400713          	li	a4,4
    9574:	d11ff06f          	j	9284 <core_state_transition+0x78>
    9578:	00070793          	mv	a5,a4
    957c:	00200713          	li	a4,2
    9580:	d05ff06f          	j	9284 <core_state_transition+0x78>
    9584:	00070793          	mv	a5,a4
    9588:	00500713          	li	a4,5
    958c:	cf9ff06f          	j	9284 <core_state_transition+0x78>
    9590:	00070793          	mv	a5,a4
    9594:	00200713          	li	a4,2
    9598:	cedff06f          	j	9284 <core_state_transition+0x78>

0000959c <get_seed_32>:
    959c:	00500793          	li	a5,5
    95a0:	04a7e863          	bltu	a5,a0,95f0 <get_seed_32+0x54>
    95a4:	0000d2b7          	lui	t0,0xd
    95a8:	c8c28313          	addi	t1,t0,-884 # cc8c <errpat+0x10>
    95ac:	44a3438b          	th.lrw	t2,t1,a0,2
    95b0:	00038067          	jr	t2
    95b4:	00010537          	lui	a0,0x10
    95b8:	7ec52503          	lw	a0,2028(a0) # 107ec <seed5_volatile>
    95bc:	00008067          	ret
    95c0:	00010737          	lui	a4,0x10
    95c4:	7f472503          	lw	a0,2036(a4) # 107f4 <seed1_volatile>
    95c8:	00008067          	ret
    95cc:	000106b7          	lui	a3,0x10
    95d0:	7f06a503          	lw	a0,2032(a3) # 107f0 <seed2_volatile>
    95d4:	00008067          	ret
    95d8:	00010637          	lui	a2,0x10
    95dc:	00862503          	lw	a0,8(a2) # 10008 <seed3_volatile>
    95e0:	00008067          	ret
    95e4:	000105b7          	lui	a1,0x10
    95e8:	0045a503          	lw	a0,4(a1) # 10004 <seed4_volatile>
    95ec:	00008067          	ret
    95f0:	00000513          	li	a0,0
    95f4:	00008067          	ret

000095f8 <crcu8>:
    95f8:	0ff5f713          	zext.b	a4,a1
    95fc:	00871293          	slli	t0,a4,0x8
    9600:	0085d593          	srli	a1,a1,0x8
    9604:	000017b7          	lui	a5,0x1
    9608:	fffff337          	lui	t1,0xfffff
    960c:	00b2e3b3          	or	t2,t0,a1
    9610:	f0f78f13          	addi	t5,a5,-241 # f0f <core_bench_list+0xb1b>
    9614:	0f030f93          	addi	t6,t1,240 # fffff0f0 <_stack_top+0xfffeb0f0>
    9618:	01e3f633          	and	a2,t2,t5
    961c:	01f3f6b3          	and	a3,t2,t6
    9620:	00461813          	slli	a6,a2,0x4
    9624:	0046d893          	srli	a7,a3,0x4
    9628:	00f57e93          	andi	t4,a0,15
    962c:	00003737          	lui	a4,0x3
    9630:	ffffd5b7          	lui	a1,0xffffd
    9634:	01186e33          	or	t3,a6,a7
    9638:	33370293          	addi	t0,a4,819 # 3333 <iterate+0x377>
    963c:	ccc58393          	addi	t2,a1,-820 # ffffcccc <_stack_top+0xfffe8ccc>
    9640:	004e9793          	slli	a5,t4,0x4
    9644:	00455513          	srli	a0,a0,0x4
    9648:	00a7e6b3          	or	a3,a5,a0
    964c:	005e7333          	and	t1,t3,t0
    9650:	007e7633          	and	a2,t3,t2
    9654:	00231813          	slli	a6,t1,0x2
    9658:	00265893          	srli	a7,a2,0x2
    965c:	0336fe13          	andi	t3,a3,51
    9660:	0cc6f713          	andi	a4,a3,204
    9664:	000055b7          	lui	a1,0x5
    9668:	ffffb7b7          	lui	a5,0xffffb
    966c:	01186eb3          	or	t4,a6,a7
    9670:	55558513          	addi	a0,a1,1365 # 5555 <core_bench_matrix+0x10a9>
    9674:	aaa78313          	addi	t1,a5,-1366 # ffffaaaa <_stack_top+0xfffe6aaa>
    9678:	00275813          	srli	a6,a4,0x2
    967c:	002e1613          	slli	a2,t3,0x2
    9680:	01066e33          	or	t3,a2,a6
    9684:	00aef6b3          	and	a3,t4,a0
    9688:	006ef8b3          	and	a7,t4,t1
    968c:	0018d593          	srli	a1,a7,0x1
    9690:	00169713          	slli	a4,a3,0x1
    9694:	055e7e93          	andi	t4,t3,85
    9698:	0aae7793          	andi	a5,t3,170
    969c:	00b76833          	or	a6,a4,a1
    96a0:	001e9693          	slli	a3,t4,0x1
    96a4:	0017d613          	srli	a2,a5,0x1
    96a8:	00c6ee33          	or	t3,a3,a2
    96ac:	00885893          	srli	a7,a6,0x8
    96b0:	0000deb7          	lui	t4,0xd
    96b4:	01c8c7b3          	xor	a5,a7,t3
    96b8:	ca4e8813          	addi	a6,t4,-860 # cca4 <errpat+0x28>
    96bc:	a2f8460b          	th.lrhu	a2,a6,a5,1
    96c0:	00b76733          	or	a4,a4,a1
    96c4:	00871593          	slli	a1,a4,0x8
    96c8:	00b646b3          	xor	a3,a2,a1
    96cc:	0ff67893          	zext.b	a7,a2
    96d0:	3c86be0b          	th.extu	t3,a3,15,8
    96d4:	00889e93          	slli	t4,a7,0x8
    96d8:	01cee7b3          	or	a5,t4,t3
    96dc:	01e7ff33          	and	t5,a5,t5
    96e0:	01f7ffb3          	and	t6,a5,t6
    96e4:	004f1813          	slli	a6,t5,0x4
    96e8:	004fd613          	srli	a2,t6,0x4
    96ec:	00c86733          	or	a4,a6,a2
    96f0:	005772b3          	and	t0,a4,t0
    96f4:	007773b3          	and	t2,a4,t2
    96f8:	00229593          	slli	a1,t0,0x2
    96fc:	0023d693          	srli	a3,t2,0x2
    9700:	00d5e8b3          	or	a7,a1,a3
    9704:	00a8f533          	and	a0,a7,a0
    9708:	0068f333          	and	t1,a7,t1
    970c:	00151e13          	slli	t3,a0,0x1
    9710:	00135e93          	srli	t4,t1,0x1
    9714:	01de6533          	or	a0,t3,t4
    9718:	00008067          	ret

0000971c <crcu16>:
    971c:	50b5050b          	.insn	4, 0x50b5050b
    9720:	3c05350b          	th.extu	a0,a0,15,0
    9724:	00008067          	ret

00009728 <crcu32>:
    9728:	52b5050b          	.insn	4, 0x52b5050b
    972c:	3c05350b          	th.extu	a0,a0,15,0
    9730:	00008067          	ret

00009734 <crc16>:
    9734:	3c05350b          	th.extu	a0,a0,15,0
    9738:	50b5028b          	.insn	4, 0x50b5028b
    973c:	3c02b50b          	th.extu	a0,t0,15,0
    9740:	00008067          	ret

00009744 <check_data_types>:
    9744:	00000513          	li	a0,0
    9748:	00008067          	ret

0000974c <barebones_clock>:
    974c:	100007b7          	lui	a5,0x10000
    9750:	10000737          	lui	a4,0x10000
    9754:	00c78293          	addi	t0,a5,12 # 1000000c <_stack_top+0xffec00c>
    9758:	00870313          	addi	t1,a4,8 # 10000008 <_stack_top+0xffec008>
    975c:	0002a603          	lw	a2,0(t0)
    9760:	00032503          	lw	a0,0(t1)
    9764:	0002a683          	lw	a3,0(t0)
    9768:	06d60c63          	beq	a2,a3,97e0 <barebones_clock+0x94>
    976c:	0002a383          	lw	t2,0(t0)
    9770:	00032503          	lw	a0,0(t1)
    9774:	0002a583          	lw	a1,0(t0)
    9778:	06b38463          	beq	t2,a1,97e0 <barebones_clock+0x94>
    977c:	0002a803          	lw	a6,0(t0)
    9780:	00032503          	lw	a0,0(t1)
    9784:	0002a883          	lw	a7,0(t0)
    9788:	05180c63          	beq	a6,a7,97e0 <barebones_clock+0x94>
    978c:	0002ae03          	lw	t3,0(t0)
    9790:	00032503          	lw	a0,0(t1)
    9794:	0002ae83          	lw	t4,0(t0)
    9798:	05de0463          	beq	t3,t4,97e0 <barebones_clock+0x94>
    979c:	0002af03          	lw	t5,0(t0)
    97a0:	00032503          	lw	a0,0(t1)
    97a4:	0002af83          	lw	t6,0(t0)
    97a8:	03ff0c63          	beq	t5,t6,97e0 <barebones_clock+0x94>
    97ac:	0002a783          	lw	a5,0(t0)
    97b0:	00032503          	lw	a0,0(t1)
    97b4:	0002a703          	lw	a4,0(t0)
    97b8:	02e78463          	beq	a5,a4,97e0 <barebones_clock+0x94>
    97bc:	0002a603          	lw	a2,0(t0)
    97c0:	00032503          	lw	a0,0(t1)
    97c4:	0002a683          	lw	a3,0(t0)
    97c8:	00d60c63          	beq	a2,a3,97e0 <barebones_clock+0x94>
    97cc:	0002a383          	lw	t2,0(t0)
    97d0:	00032503          	lw	a0,0(t1)
    97d4:	0002a583          	lw	a1,0(t0)
    97d8:	f8b392e3          	bne	t2,a1,975c <barebones_clock+0x10>
    97dc:	00008067          	ret
    97e0:	00008067          	ret

000097e4 <start_time>:
    97e4:	100007b7          	lui	a5,0x10000
    97e8:	10000737          	lui	a4,0x10000
    97ec:	00c78293          	addi	t0,a5,12 # 1000000c <_stack_top+0xffec00c>
    97f0:	00870313          	addi	t1,a4,8 # 10000008 <_stack_top+0xffec008>
    97f4:	0002a583          	lw	a1,0(t0)
    97f8:	00032683          	lw	a3,0(t1)
    97fc:	0002a603          	lw	a2,0(t0)
    9800:	06c58a63          	beq	a1,a2,9874 <start_time+0x90>
    9804:	0002a383          	lw	t2,0(t0)
    9808:	00032683          	lw	a3,0(t1)
    980c:	0002a503          	lw	a0,0(t0)
    9810:	06a38263          	beq	t2,a0,9874 <start_time+0x90>
    9814:	0002a803          	lw	a6,0(t0)
    9818:	00032683          	lw	a3,0(t1)
    981c:	0002a883          	lw	a7,0(t0)
    9820:	05180a63          	beq	a6,a7,9874 <start_time+0x90>
    9824:	0002ae03          	lw	t3,0(t0)
    9828:	00032683          	lw	a3,0(t1)
    982c:	0002ae83          	lw	t4,0(t0)
    9830:	05de0263          	beq	t3,t4,9874 <start_time+0x90>
    9834:	0002af03          	lw	t5,0(t0)
    9838:	00032683          	lw	a3,0(t1)
    983c:	0002af83          	lw	t6,0(t0)
    9840:	03ff0a63          	beq	t5,t6,9874 <start_time+0x90>
    9844:	0002a783          	lw	a5,0(t0)
    9848:	00032683          	lw	a3,0(t1)
    984c:	0002a703          	lw	a4,0(t0)
    9850:	02e78263          	beq	a5,a4,9874 <start_time+0x90>
    9854:	0002a583          	lw	a1,0(t0)
    9858:	00032683          	lw	a3,0(t1)
    985c:	0002a603          	lw	a2,0(t0)
    9860:	00c58a63          	beq	a1,a2,9874 <start_time+0x90>
    9864:	0002a383          	lw	t2,0(t0)
    9868:	00032683          	lw	a3,0(t1)
    986c:	0002a503          	lw	a0,0(t0)
    9870:	f8a392e3          	bne	t2,a0,97f4 <start_time+0x10>
    9874:	000102b7          	lui	t0,0x10
    9878:	7ed2a223          	sw	a3,2020(t0) # 107e4 <start_time_val>
    987c:	00008067          	ret

00009880 <stop_time>:
    9880:	100007b7          	lui	a5,0x10000
    9884:	10000737          	lui	a4,0x10000
    9888:	00c78293          	addi	t0,a5,12 # 1000000c <_stack_top+0xffec00c>
    988c:	00870313          	addi	t1,a4,8 # 10000008 <_stack_top+0xffec008>
    9890:	0002a583          	lw	a1,0(t0)
    9894:	00032683          	lw	a3,0(t1)
    9898:	0002a603          	lw	a2,0(t0)
    989c:	06c58a63          	beq	a1,a2,9910 <stop_time+0x90>
    98a0:	0002a383          	lw	t2,0(t0)
    98a4:	00032683          	lw	a3,0(t1)
    98a8:	0002a503          	lw	a0,0(t0)
    98ac:	06a38263          	beq	t2,a0,9910 <stop_time+0x90>
    98b0:	0002a803          	lw	a6,0(t0)
    98b4:	00032683          	lw	a3,0(t1)
    98b8:	0002a883          	lw	a7,0(t0)
    98bc:	05180a63          	beq	a6,a7,9910 <stop_time+0x90>
    98c0:	0002ae03          	lw	t3,0(t0)
    98c4:	00032683          	lw	a3,0(t1)
    98c8:	0002ae83          	lw	t4,0(t0)
    98cc:	05de0263          	beq	t3,t4,9910 <stop_time+0x90>
    98d0:	0002af03          	lw	t5,0(t0)
    98d4:	00032683          	lw	a3,0(t1)
    98d8:	0002af83          	lw	t6,0(t0)
    98dc:	03ff0a63          	beq	t5,t6,9910 <stop_time+0x90>
    98e0:	0002a783          	lw	a5,0(t0)
    98e4:	00032683          	lw	a3,0(t1)
    98e8:	0002a703          	lw	a4,0(t0)
    98ec:	02e78263          	beq	a5,a4,9910 <stop_time+0x90>
    98f0:	0002a583          	lw	a1,0(t0)
    98f4:	00032683          	lw	a3,0(t1)
    98f8:	0002a603          	lw	a2,0(t0)
    98fc:	00c58a63          	beq	a1,a2,9910 <stop_time+0x90>
    9900:	0002a383          	lw	t2,0(t0)
    9904:	00032683          	lw	a3,0(t1)
    9908:	0002a503          	lw	a0,0(t0)
    990c:	f8a392e3          	bne	t2,a0,9890 <stop_time+0x10>
    9910:	000102b7          	lui	t0,0x10
    9914:	7ed2a423          	sw	a3,2024(t0) # 107e8 <stop_time_val>
    9918:	00008067          	ret

0000991c <get_time>:
    991c:	000107b7          	lui	a5,0x10
    9920:	7e478293          	addi	t0,a5,2020 # 107e4 <start_time_val>
    9924:	0042a503          	lw	a0,4(t0)
    9928:	0002a303          	lw	t1,0(t0)
    992c:	40650533          	sub	a0,a0,t1
    9930:	00008067          	ret

00009934 <time_in_secs>:
    9934:	55e647b7          	lui	a5,0x55e64
    9938:	b8978293          	addi	t0,a5,-1143 # 55e63b89 <_stack_top+0x55e4fb89>
    993c:	02553533          	mulhu	a0,a0,t0
    9940:	01955513          	srli	a0,a0,0x19
    9944:	00008067          	ret

00009948 <portable_init>:
    9948:	100007b7          	lui	a5,0x10000
    994c:	0007a223          	sw	zero,4(a5) # 10000004 <_stack_top+0xffec004>
    9950:	100002b7          	lui	t0,0x10000
    9954:	00200713          	li	a4,2
    9958:	00e2ac23          	sw	a4,24(t0) # 10000018 <_stack_top+0xffec018>
    995c:	00100313          	li	t1,1
    9960:	00650023          	sb	t1,0(a0)
    9964:	00008067          	ret

00009968 <portable_fini>:
    9968:	00050023          	sb	zero,0(a0)
    996c:	100007b7          	lui	a5,0x10000
    9970:	00100713          	li	a4,1
    9974:	00e7a223          	sw	a4,4(a5) # 10000004 <_stack_top+0xffec004>
    9978:	00008067          	ret

0000997c <portable_malloc>:
    997c:	00000513          	li	a0,0
    9980:	00008067          	ret

00009984 <portable_free>:
    9984:	00008067          	ret

00009988 <uart_send_char>:
    9988:	100007b7          	lui	a5,0x10000
    998c:	00a7a023          	sw	a0,0(a5) # 10000000 <_stack_top+0xffec000>
    9990:	00008067          	ret

00009994 <ee_printf>:
    9994:	b1010113          	addi	sp,sp,-1264
    9998:	4f012423          	sw	a6,1256(sp)
    999c:	4c112623          	sw	ra,1228(sp)
    99a0:	4b512a23          	sw	s5,1204(sp)
    99a4:	4cb12a23          	sw	a1,1236(sp)
    99a8:	4cc12c23          	sw	a2,1240(sp)
    99ac:	4cd12e23          	sw	a3,1244(sp)
    99b0:	4ee12023          	sw	a4,1248(sp)
    99b4:	4ef12223          	sw	a5,1252(sp)
    99b8:	4f112623          	sw	a7,1260(sp)
    99bc:	00054a83          	lbu	s5,0(a0)
    99c0:	4d410813          	addi	a6,sp,1236
    99c4:	05012423          	sw	a6,72(sp)
    99c8:	000a9463          	bnez	s5,99d0 <ee_printf+0x3c>
    99cc:	0a90106f          	j	b274 <ee_printf+0x18e0>
    99d0:	4d212023          	sw	s2,1216(sp)
    99d4:	0000d937          	lui	s2,0xd
    99d8:	4c812423          	sw	s0,1224(sp)
    99dc:	4c912223          	sw	s1,1220(sp)
    99e0:	4b312e23          	sw	s3,1212(sp)
    99e4:	4ba12023          	sw	s10,1184(sp)
    99e8:	49b12e23          	sw	s11,1180(sp)
    99ec:	4b412c23          	sw	s4,1208(sp)
    99f0:	4b612823          	sw	s6,1200(sp)
    99f4:	4b712623          	sw	s7,1196(sp)
    99f8:	4b812423          	sw	s8,1192(sp)
    99fc:	4b912223          	sw	s9,1188(sp)
    9a00:	ea490913          	addi	s2,s2,-348 # cea4 <errpat+0x228>
    9a04:	02500993          	li	s3,37
    9a08:	01000493          	li	s1,16
    9a0c:	00900d13          	li	s10,9
    9a10:	02e00d93          	li	s11,46
    9a14:	09010413          	addi	s0,sp,144
    9a18:	09010f13          	addi	t5,sp,144
    9a1c:	113a8263          	beq	s5,s3,9b20 <ee_printf+0x18c>
    9a20:	01540023          	sb	s5,0(s0)
    9a24:	00050a93          	mv	s5,a0
    9a28:	00140413          	addi	s0,s0,1
    9a2c:	00150513          	addi	a0,a0,1
    9a30:	001aca83          	lbu	s5,1(s5)
    9a34:	fe0a94e3          	bnez	s5,9a1c <ee_printf+0x88>
    9a38:	00040793          	mv	a5,s0
    9a3c:	4c412483          	lw	s1,1220(sp)
    9a40:	4c812403          	lw	s0,1224(sp)
    9a44:	4c012903          	lw	s2,1216(sp)
    9a48:	4bc12983          	lw	s3,1212(sp)
    9a4c:	4b812a03          	lw	s4,1208(sp)
    9a50:	4b012b03          	lw	s6,1200(sp)
    9a54:	4ac12b83          	lw	s7,1196(sp)
    9a58:	4a812c03          	lw	s8,1192(sp)
    9a5c:	4a412c83          	lw	s9,1188(sp)
    9a60:	4a012d03          	lw	s10,1184(sp)
    9a64:	49c12d83          	lw	s11,1180(sp)
    9a68:	00078023          	sb	zero,0(a5)
    9a6c:	09014503          	lbu	a0,144(sp)
    9a70:	000f0a93          	mv	s5,t5
    9a74:	00051463          	bnez	a0,9a7c <ee_printf+0xe8>
    9a78:	0150106f          	j	b28c <ee_printf+0x18f8>
    9a7c:	000a8393          	mv	t2,s5
    9a80:	10000837          	lui	a6,0x10000
    9a84:	00a82023          	sw	a0,0(a6) # 10000000 <_stack_top+0xffec000>
    9a88:	0013cf03          	lbu	t5,1(t2)
    9a8c:	00038293          	mv	t0,t2
    9a90:	060f0c63          	beqz	t5,9b08 <ee_printf+0x174>
    9a94:	01e82023          	sw	t5,0(a6)
    9a98:	0023c603          	lbu	a2,2(t2)
    9a9c:	00138293          	addi	t0,t2,1
    9aa0:	06060463          	beqz	a2,9b08 <ee_printf+0x174>
    9aa4:	00c82023          	sw	a2,0(a6)
    9aa8:	0033c303          	lbu	t1,3(t2)
    9aac:	00238293          	addi	t0,t2,2
    9ab0:	04030c63          	beqz	t1,9b08 <ee_printf+0x174>
    9ab4:	00682023          	sw	t1,0(a6)
    9ab8:	0043c583          	lbu	a1,4(t2)
    9abc:	00338293          	addi	t0,t2,3
    9ac0:	04058463          	beqz	a1,9b08 <ee_printf+0x174>
    9ac4:	00b82023          	sw	a1,0(a6)
    9ac8:	0053ce03          	lbu	t3,5(t2)
    9acc:	00438293          	addi	t0,t2,4
    9ad0:	020e0c63          	beqz	t3,9b08 <ee_printf+0x174>
    9ad4:	01c82023          	sw	t3,0(a6)
    9ad8:	0063ce83          	lbu	t4,6(t2)
    9adc:	00538293          	addi	t0,t2,5
    9ae0:	020e8463          	beqz	t4,9b08 <ee_printf+0x174>
    9ae4:	01d82023          	sw	t4,0(a6)
    9ae8:	0073cf83          	lbu	t6,7(t2)
    9aec:	00638293          	addi	t0,t2,6
    9af0:	000f8c63          	beqz	t6,9b08 <ee_printf+0x174>
    9af4:	00738293          	addi	t0,t2,7
    9af8:	01f82023          	sw	t6,0(a6)
    9afc:	0083c503          	lbu	a0,8(t2)
    9b00:	00838393          	addi	t2,t2,8
    9b04:	f80510e3          	bnez	a0,9a84 <ee_printf+0xf0>
    9b08:	4cc12083          	lw	ra,1228(sp)
    9b0c:	415288b3          	sub	a7,t0,s5
    9b10:	00188513          	addi	a0,a7,1
    9b14:	4b412a83          	lw	s5,1204(sp)
    9b18:	4f010113          	addi	sp,sp,1264
    9b1c:	00008067          	ret
    9b20:	00000593          	li	a1,0
    9b24:	00154703          	lbu	a4,1(a0)
    9b28:	00150793          	addi	a5,a0,1
    9b2c:	fe070693          	addi	a3,a4,-32
    9b30:	0ff6f293          	zext.b	t0,a3
    9b34:	0054e663          	bltu	s1,t0,9b40 <ee_printf+0x1ac>
    9b38:	4459430b          	th.lrw	t1,s2,t0,2
    9b3c:	00030067          	jr	t1
    9b40:	fd070393          	addi	t2,a4,-48
    9b44:	0ff3f613          	zext.b	a2,t2
    9b48:	0ecd7e63          	bgeu	s10,a2,9c44 <ee_printf+0x2b0>
    9b4c:	02a00893          	li	a7,42
    9b50:	21170263          	beq	a4,a7,9d54 <ee_printf+0x3c0>
    9b54:	fff00a13          	li	s4,-1
    9b58:	0db70063          	beq	a4,s11,9c18 <ee_printf+0x284>
    9b5c:	fff00c93          	li	s9,-1
    9b60:	0df77b13          	andi	s6,a4,223
    9b64:	04c00313          	li	t1,76
    9b68:	086b0263          	beq	s6,t1,9bec <ee_printf+0x258>
    9b6c:	fbf70393          	addi	t2,a4,-65
    9b70:	0ff3f893          	zext.b	a7,t2
    9b74:	03700b93          	li	s7,55
    9b78:	051be863          	bltu	s7,a7,9bc8 <ee_printf+0x234>
    9b7c:	0000d537          	lui	a0,0xd
    9b80:	ee850c13          	addi	s8,a0,-280 # cee8 <errpat+0x26c>
    9b84:	451c4e0b          	th.lrw	t3,s8,a7,2
    9b88:	000e0067          	jr	t3
    9b8c:	0015e593          	ori	a1,a1,1
    9b90:	00078513          	mv	a0,a5
    9b94:	f91ff06f          	j	9b24 <ee_printf+0x190>
    9b98:	0105e593          	ori	a1,a1,16
    9b9c:	00078513          	mv	a0,a5
    9ba0:	f85ff06f          	j	9b24 <ee_printf+0x190>
    9ba4:	0045e593          	ori	a1,a1,4
    9ba8:	00078513          	mv	a0,a5
    9bac:	f79ff06f          	j	9b24 <ee_printf+0x190>
    9bb0:	0205e593          	ori	a1,a1,32
    9bb4:	00078513          	mv	a0,a5
    9bb8:	f6dff06f          	j	9b24 <ee_printf+0x190>
    9bbc:	0085e593          	ori	a1,a1,8
    9bc0:	00078513          	mv	a0,a5
    9bc4:	f61ff06f          	j	9b24 <ee_printf+0x190>
    9bc8:	00078a93          	mv	s5,a5
    9bcc:	02500793          	li	a5,37
    9bd0:	42f70ae3          	beq	a4,a5,a804 <ee_printf+0xe70>
    9bd4:	00f40023          	sb	a5,0(s0)
    9bd8:	420714e3          	bnez	a4,a800 <ee_printf+0xe6c>
    9bdc:	000a8513          	mv	a0,s5
    9be0:	00140413          	addi	s0,s0,1
    9be4:	fffa8a93          	addi	s5,s5,-1
    9be8:	e49ff06f          	j	9a30 <ee_printf+0x9c>
    9bec:	00070e93          	mv	t4,a4
    9bf0:	0017c703          	lbu	a4,1(a5)
    9bf4:	03700613          	li	a2,55
    9bf8:	00178a93          	addi	s5,a5,1
    9bfc:	fbf70f93          	addi	t6,a4,-65
    9c00:	0ffff693          	zext.b	a3,t6
    9c04:	fcd664e3          	bltu	a2,a3,9bcc <ee_printf+0x238>
    9c08:	0000d2b7          	lui	t0,0xd
    9c0c:	fc828b13          	addi	s6,t0,-56 # cfc8 <errpat+0x34c>
    9c10:	44db430b          	th.lrw	t1,s6,a3,2
    9c14:	00030067          	jr	t1
    9c18:	0017c703          	lbu	a4,1(a5)
    9c1c:	00900b13          	li	s6,9
    9c20:	00178613          	addi	a2,a5,1
    9c24:	fd070c13          	addi	s8,a4,-48
    9c28:	0ffc7c93          	zext.b	s9,s8
    9c2c:	1f9b7ee3          	bgeu	s6,s9,a628 <ee_printf+0xc94>
    9c30:	02a00e13          	li	t3,42
    9c34:	31c704e3          	beq	a4,t3,a73c <ee_printf+0xda8>
    9c38:	00060793          	mv	a5,a2
    9c3c:	00000c93          	li	s9,0
    9c40:	f21ff06f          	j	9b60 <ee_printf+0x1cc>
    9c44:	00000a13          	li	s4,0
    9c48:	00900b13          	li	s6,9
    9c4c:	214a4a33          	sh2add	s4,s4,s4
    9c50:	00178793          	addi	a5,a5,1
    9c54:	20ea2533          	sh1add	a0,s4,a4
    9c58:	0007c703          	lbu	a4,0(a5)
    9c5c:	fd050a13          	addi	s4,a0,-48
    9c60:	00078b93          	mv	s7,a5
    9c64:	fd070c13          	addi	s8,a4,-48
    9c68:	0ffc7c93          	zext.b	s9,s8
    9c6c:	ef9b66e3          	bltu	s6,s9,9b58 <ee_printf+0x1c4>
    9c70:	214a4e33          	sh2add	t3,s4,s4
    9c74:	00178793          	addi	a5,a5,1
    9c78:	20ee2eb3          	sh1add	t4,t3,a4
    9c7c:	0007c703          	lbu	a4,0(a5)
    9c80:	fd0e8a13          	addi	s4,t4,-48
    9c84:	fd070f93          	addi	t6,a4,-48
    9c88:	0ffffa93          	zext.b	s5,t6
    9c8c:	ed5b66e3          	bltu	s6,s5,9b58 <ee_printf+0x1c4>
    9c90:	214a47b3          	sh2add	a5,s4,s4
    9c94:	20e7a6b3          	sh1add	a3,a5,a4
    9c98:	002bc703          	lbu	a4,2(s7)
    9c9c:	fd068a13          	addi	s4,a3,-48
    9ca0:	002b8793          	addi	a5,s7,2
    9ca4:	fd070293          	addi	t0,a4,-48
    9ca8:	0ff2f313          	zext.b	t1,t0
    9cac:	ea6b66e3          	bltu	s6,t1,9b58 <ee_printf+0x1c4>
    9cb0:	214a43b3          	sh2add	t2,s4,s4
    9cb4:	20e3a633          	sh1add	a2,t2,a4
    9cb8:	003bc703          	lbu	a4,3(s7)
    9cbc:	fd060a13          	addi	s4,a2,-48
    9cc0:	003b8793          	addi	a5,s7,3
    9cc4:	fd070893          	addi	a7,a4,-48
    9cc8:	0ff8f513          	zext.b	a0,a7
    9ccc:	e8ab66e3          	bltu	s6,a0,9b58 <ee_printf+0x1c4>
    9cd0:	214a4a33          	sh2add	s4,s4,s4
    9cd4:	20ea2c33          	sh1add	s8,s4,a4
    9cd8:	004bc703          	lbu	a4,4(s7)
    9cdc:	fd0c0a13          	addi	s4,s8,-48
    9ce0:	004b8793          	addi	a5,s7,4
    9ce4:	fd070c93          	addi	s9,a4,-48
    9ce8:	0ffcfe13          	zext.b	t3,s9
    9cec:	e7cb66e3          	bltu	s6,t3,9b58 <ee_printf+0x1c4>
    9cf0:	214a4eb3          	sh2add	t4,s4,s4
    9cf4:	20eeafb3          	sh1add	t6,t4,a4
    9cf8:	005bc703          	lbu	a4,5(s7)
    9cfc:	fd0f8a13          	addi	s4,t6,-48
    9d00:	005b8793          	addi	a5,s7,5
    9d04:	fd070a93          	addi	s5,a4,-48
    9d08:	0ffaf693          	zext.b	a3,s5
    9d0c:	e4db66e3          	bltu	s6,a3,9b58 <ee_printf+0x1c4>
    9d10:	214a47b3          	sh2add	a5,s4,s4
    9d14:	20e7a2b3          	sh1add	t0,a5,a4
    9d18:	006bc703          	lbu	a4,6(s7)
    9d1c:	fd028a13          	addi	s4,t0,-48
    9d20:	006b8793          	addi	a5,s7,6
    9d24:	fd070313          	addi	t1,a4,-48
    9d28:	0ff37393          	zext.b	t2,t1
    9d2c:	e27b66e3          	bltu	s6,t2,9b58 <ee_printf+0x1c4>
    9d30:	214a4633          	sh2add	a2,s4,s4
    9d34:	20e628b3          	sh1add	a7,a2,a4
    9d38:	007bc703          	lbu	a4,7(s7)
    9d3c:	007b8793          	addi	a5,s7,7
    9d40:	fd088a13          	addi	s4,a7,-48
    9d44:	fd070b93          	addi	s7,a4,-48
    9d48:	0ffbf513          	zext.b	a0,s7
    9d4c:	f0ab70e3          	bgeu	s6,a0,9c4c <ee_printf+0x2b8>
    9d50:	e09ff06f          	j	9b58 <ee_printf+0x1c4>
    9d54:	00082a03          	lw	s4,0(a6)
    9d58:	00250793          	addi	a5,a0,2
    9d5c:	000a4863          	bltz	s4,9d6c <ee_printf+0x3d8>
    9d60:	00254703          	lbu	a4,2(a0)
    9d64:	00480813          	addi	a6,a6,4
    9d68:	df1ff06f          	j	9b58 <ee_printf+0x1c4>
    9d6c:	00254703          	lbu	a4,2(a0)
    9d70:	41400a33          	neg	s4,s4
    9d74:	0105e593          	ori	a1,a1,16
    9d78:	00480813          	addi	a6,a6,4
    9d7c:	dddff06f          	j	9b58 <ee_printf+0x1c4>
    9d80:	00078a93          	mv	s5,a5
    9d84:	0105f613          	andi	a2,a1,16
    9d88:	00082b83          	lw	s7,0(a6)
    9d8c:	00480813          	addi	a6,a6,4
    9d90:	1c0602e3          	beqz	a2,a754 <ee_printf+0xdc0>
    9d94:	0205f893          	andi	a7,a1,32
    9d98:	00088463          	beqz	a7,9da0 <ee_printf+0x40c>
    9d9c:	54d0106f          	j	bae8 <ee_printf+0x2154>
    9da0:	000b8463          	beqz	s7,9da8 <ee_printf+0x414>
    9da4:	1340206f          	j	bed8 <ee_printf+0x2544>
    9da8:	00100b13          	li	s6,1
    9dac:	0b6cec33          	max	s8,s9,s6
    9db0:	03000e93          	li	t4,48
    9db4:	05d10623          	sb	t4,76(sp)
    9db8:	418a0a33          	sub	s4,s4,s8
    9dbc:	00000393          	li	t2,0
    9dc0:	01000313          	li	t1,16
    9dc4:	02000613          	li	a2,32
    9dc8:	04c10693          	addi	a3,sp,76
    9dcc:	0a031e63          	bnez	t1,9e88 <ee_printf+0x4f4>
    9dd0:	01440e33          	add	t3,s0,s4
    9dd4:	00040793          	mv	a5,s0
    9dd8:	01404463          	bgtz	s4,9de0 <ee_printf+0x44c>
    9ddc:	6600206f          	j	c43c <ee_printf+0x2aa8>
    9de0:	408e0433          	sub	s0,t3,s0
    9de4:	00747593          	andi	a1,s0,7
    9de8:	06058863          	beqz	a1,9e58 <ee_printf+0x4c4>
    9dec:	00100f93          	li	t6,1
    9df0:	05f58e63          	beq	a1,t6,9e4c <ee_printf+0x4b8>
    9df4:	00200893          	li	a7,2
    9df8:	05158663          	beq	a1,a7,9e44 <ee_printf+0x4b0>
    9dfc:	00300293          	li	t0,3
    9e00:	02558e63          	beq	a1,t0,9e3c <ee_printf+0x4a8>
    9e04:	00400a13          	li	s4,4
    9e08:	03458663          	beq	a1,s4,9e34 <ee_printf+0x4a0>
    9e0c:	00500513          	li	a0,5
    9e10:	00a58e63          	beq	a1,a0,9e2c <ee_printf+0x498>
    9e14:	00600713          	li	a4,6
    9e18:	00e58663          	beq	a1,a4,9e24 <ee_printf+0x490>
    9e1c:	00c78023          	sb	a2,0(a5)
    9e20:	00178793          	addi	a5,a5,1
    9e24:	00c78023          	sb	a2,0(a5)
    9e28:	00178793          	addi	a5,a5,1
    9e2c:	00c78023          	sb	a2,0(a5)
    9e30:	00178793          	addi	a5,a5,1
    9e34:	00c78023          	sb	a2,0(a5)
    9e38:	00178793          	addi	a5,a5,1
    9e3c:	00c78023          	sb	a2,0(a5)
    9e40:	00178793          	addi	a5,a5,1
    9e44:	00c78023          	sb	a2,0(a5)
    9e48:	00178793          	addi	a5,a5,1
    9e4c:	00178793          	addi	a5,a5,1
    9e50:	fec78fa3          	sb	a2,-1(a5)
    9e54:	03c78663          	beq	a5,t3,9e80 <ee_printf+0x4ec>
    9e58:	00c78023          	sb	a2,0(a5)
    9e5c:	00c780a3          	sb	a2,1(a5)
    9e60:	00c78123          	sb	a2,2(a5)
    9e64:	00c781a3          	sb	a2,3(a5)
    9e68:	00c78223          	sb	a2,4(a5)
    9e6c:	00c782a3          	sb	a2,5(a5)
    9e70:	00c78323          	sb	a2,6(a5)
    9e74:	00c783a3          	sb	a2,7(a5)
    9e78:	00878793          	addi	a5,a5,8
    9e7c:	fdc79ee3          	bne	a5,t3,9e58 <ee_printf+0x4c4>
    9e80:	000e0413          	mv	s0,t3
    9e84:	fff00a13          	li	s4,-1
    9e88:	0f9b5063          	bge	s6,s9,9f68 <ee_printf+0x5d4>
    9e8c:	00140793          	addi	a5,s0,1
    9e90:	fffb4c93          	not	s9,s6
    9e94:	03000613          	li	a2,48
    9e98:	008c0333          	add	t1,s8,s0
    9e9c:	019c0bb3          	add	s7,s8,s9
    9ea0:	fec78fa3          	sb	a2,-1(a5)
    9ea4:	40f30eb3          	sub	t4,t1,a5
    9ea8:	007bf593          	andi	a1,s7,7
    9eac:	0bdb5263          	bge	s6,t4,9f50 <ee_printf+0x5bc>
    9eb0:	06058a63          	beqz	a1,9f24 <ee_printf+0x590>
    9eb4:	00100e13          	li	t3,1
    9eb8:	05c58e63          	beq	a1,t3,9f14 <ee_printf+0x580>
    9ebc:	00200f93          	li	t6,2
    9ec0:	05f58663          	beq	a1,t6,9f0c <ee_printf+0x578>
    9ec4:	00300893          	li	a7,3
    9ec8:	03158e63          	beq	a1,a7,9f04 <ee_printf+0x570>
    9ecc:	00400293          	li	t0,4
    9ed0:	02558663          	beq	a1,t0,9efc <ee_printf+0x568>
    9ed4:	00500513          	li	a0,5
    9ed8:	00a58e63          	beq	a1,a0,9ef4 <ee_printf+0x560>
    9edc:	00600713          	li	a4,6
    9ee0:	00e58663          	beq	a1,a4,9eec <ee_printf+0x558>
    9ee4:	00240793          	addi	a5,s0,2
    9ee8:	00c400a3          	sb	a2,1(s0)
    9eec:	00c78023          	sb	a2,0(a5)
    9ef0:	00178793          	addi	a5,a5,1
    9ef4:	00c78023          	sb	a2,0(a5)
    9ef8:	00178793          	addi	a5,a5,1
    9efc:	00c78023          	sb	a2,0(a5)
    9f00:	00178793          	addi	a5,a5,1
    9f04:	00c78023          	sb	a2,0(a5)
    9f08:	00178793          	addi	a5,a5,1
    9f0c:	00c78023          	sb	a2,0(a5)
    9f10:	00178793          	addi	a5,a5,1
    9f14:	00178793          	addi	a5,a5,1
    9f18:	40f30cb3          	sub	s9,t1,a5
    9f1c:	fec78fa3          	sb	a2,-1(a5)
    9f20:	039b5863          	bge	s6,s9,9f50 <ee_printf+0x5bc>
    9f24:	00c78023          	sb	a2,0(a5)
    9f28:	00c780a3          	sb	a2,1(a5)
    9f2c:	00c78123          	sb	a2,2(a5)
    9f30:	00c781a3          	sb	a2,3(a5)
    9f34:	00c78223          	sb	a2,4(a5)
    9f38:	00c782a3          	sb	a2,5(a5)
    9f3c:	00c78323          	sb	a2,6(a5)
    9f40:	00878793          	addi	a5,a5,8
    9f44:	40f30bb3          	sub	s7,t1,a5
    9f48:	fec78fa3          	sb	a2,-1(a5)
    9f4c:	fd7b4ce3          	blt	s6,s7,9f24 <ee_printf+0x590>
    9f50:	416c0633          	sub	a2,s8,s6
    9f54:	fff60313          	addi	t1,a2,-1
    9f58:	018b2c33          	slt	s8,s6,s8
    9f5c:	4180130b          	th.mveqz	t1,zero,s8
    9f60:	00130b13          	addi	s6,t1,1
    9f64:	008b0433          	add	s0,s6,s0
    9f68:	00138e93          	addi	t4,t2,1
    9f6c:	007ef593          	andi	a1,t4,7
    9f70:	007687b3          	add	a5,a3,t2
    9f74:	00040613          	mv	a2,s0
    9f78:	fff68e13          	addi	t3,a3,-1
    9f7c:	0a058463          	beqz	a1,a024 <ee_printf+0x690>
    9f80:	00100f93          	li	t6,1
    9f84:	09f58663          	beq	a1,t6,a010 <ee_printf+0x67c>
    9f88:	00200893          	li	a7,2
    9f8c:	07158a63          	beq	a1,a7,a000 <ee_printf+0x66c>
    9f90:	00300293          	li	t0,3
    9f94:	04558e63          	beq	a1,t0,9ff0 <ee_printf+0x65c>
    9f98:	00400513          	li	a0,4
    9f9c:	04a58263          	beq	a1,a0,9fe0 <ee_printf+0x64c>
    9fa0:	00500713          	li	a4,5
    9fa4:	02e58663          	beq	a1,a4,9fd0 <ee_printf+0x63c>
    9fa8:	00600c93          	li	s9,6
    9fac:	01958a63          	beq	a1,s9,9fc0 <ee_printf+0x62c>
    9fb0:	8076c68b          	th.lrbu	a3,a3,t2,0
    9fb4:	00140613          	addi	a2,s0,1
    9fb8:	fff78793          	addi	a5,a5,-1
    9fbc:	00d40023          	sb	a3,0(s0)
    9fc0:	0007cb83          	lbu	s7,0(a5)
    9fc4:	00160613          	addi	a2,a2,1
    9fc8:	fff78793          	addi	a5,a5,-1
    9fcc:	ff760fa3          	sb	s7,-1(a2)
    9fd0:	0007c303          	lbu	t1,0(a5)
    9fd4:	00160613          	addi	a2,a2,1
    9fd8:	fff78793          	addi	a5,a5,-1
    9fdc:	fe660fa3          	sb	t1,-1(a2)
    9fe0:	0007cc03          	lbu	s8,0(a5)
    9fe4:	00160613          	addi	a2,a2,1
    9fe8:	fff78793          	addi	a5,a5,-1
    9fec:	ff860fa3          	sb	s8,-1(a2)
    9ff0:	0007cb03          	lbu	s6,0(a5)
    9ff4:	00160613          	addi	a2,a2,1
    9ff8:	fff78793          	addi	a5,a5,-1
    9ffc:	ff660fa3          	sb	s6,-1(a2)
    a000:	0007ce83          	lbu	t4,0(a5)
    a004:	00160613          	addi	a2,a2,1
    a008:	fff78793          	addi	a5,a5,-1
    a00c:	ffd60fa3          	sb	t4,-1(a2)
    a010:	0007c583          	lbu	a1,0(a5)
    a014:	fff78793          	addi	a5,a5,-1
    a018:	00160613          	addi	a2,a2,1
    a01c:	feb60fa3          	sb	a1,-1(a2)
    a020:	04fe0863          	beq	t3,a5,a070 <ee_printf+0x6dc>
    a024:	0007cf83          	lbu	t6,0(a5)
    a028:	fff7c883          	lbu	a7,-1(a5)
    a02c:	ffe7c283          	lbu	t0,-2(a5)
    a030:	ffd7c503          	lbu	a0,-3(a5)
    a034:	ffc7c703          	lbu	a4,-4(a5)
    a038:	ffb7cc83          	lbu	s9,-5(a5)
    a03c:	ffa7cb83          	lbu	s7,-6(a5)
    a040:	ff97c683          	lbu	a3,-7(a5)
    a044:	01f60023          	sb	t6,0(a2)
    a048:	011600a3          	sb	a7,1(a2)
    a04c:	00560123          	sb	t0,2(a2)
    a050:	00a601a3          	sb	a0,3(a2)
    a054:	00e60223          	sb	a4,4(a2)
    a058:	019602a3          	sb	s9,5(a2)
    a05c:	01760323          	sb	s7,6(a2)
    a060:	ff878793          	addi	a5,a5,-8
    a064:	00d603a3          	sb	a3,7(a2)
    a068:	00860613          	addi	a2,a2,8
    a06c:	fafe1ce3          	bne	t3,a5,a024 <ee_printf+0x690>
    a070:	007403b3          	add	t2,s0,t2
    a074:	00138e13          	addi	t3,t2,1
    a078:	000e0413          	mv	s0,t3
    a07c:	0b405a63          	blez	s4,a130 <ee_printf+0x79c>
    a080:	001a0313          	addi	t1,s4,1
    a084:	00730c33          	add	s8,t1,t2
    a088:	41cc0b33          	sub	s6,s8,t3
    a08c:	007b7e93          	andi	t4,s6,7
    a090:	02000593          	li	a1,32
    a094:	060e8863          	beqz	t4,a104 <ee_printf+0x770>
    a098:	00100613          	li	a2,1
    a09c:	04ce8e63          	beq	t4,a2,a0f8 <ee_printf+0x764>
    a0a0:	00200793          	li	a5,2
    a0a4:	04fe8663          	beq	t4,a5,a0f0 <ee_printf+0x75c>
    a0a8:	00300f93          	li	t6,3
    a0ac:	03fe8e63          	beq	t4,t6,a0e8 <ee_printf+0x754>
    a0b0:	00400893          	li	a7,4
    a0b4:	031e8663          	beq	t4,a7,a0e0 <ee_printf+0x74c>
    a0b8:	00500293          	li	t0,5
    a0bc:	005e8e63          	beq	t4,t0,a0d8 <ee_printf+0x744>
    a0c0:	00600513          	li	a0,6
    a0c4:	00ae8663          	beq	t4,a0,a0d0 <ee_printf+0x73c>
    a0c8:	00b380a3          	sb	a1,1(t2)
    a0cc:	00238413          	addi	s0,t2,2
    a0d0:	00b40023          	sb	a1,0(s0)
    a0d4:	00140413          	addi	s0,s0,1
    a0d8:	00b40023          	sb	a1,0(s0)
    a0dc:	00140413          	addi	s0,s0,1
    a0e0:	00b40023          	sb	a1,0(s0)
    a0e4:	00140413          	addi	s0,s0,1
    a0e8:	00b40023          	sb	a1,0(s0)
    a0ec:	00140413          	addi	s0,s0,1
    a0f0:	00b40023          	sb	a1,0(s0)
    a0f4:	00140413          	addi	s0,s0,1
    a0f8:	00b40023          	sb	a1,0(s0)
    a0fc:	00140413          	addi	s0,s0,1
    a100:	03840663          	beq	s0,s8,a12c <ee_printf+0x798>
    a104:	00b40023          	sb	a1,0(s0)
    a108:	00b400a3          	sb	a1,1(s0)
    a10c:	00b40123          	sb	a1,2(s0)
    a110:	00b401a3          	sb	a1,3(s0)
    a114:	00b40223          	sb	a1,4(s0)
    a118:	00b402a3          	sb	a1,5(s0)
    a11c:	00b40323          	sb	a1,6(s0)
    a120:	00b403a3          	sb	a1,7(s0)
    a124:	00840413          	addi	s0,s0,8
    a128:	fd841ee3          	bne	s0,s8,a104 <ee_printf+0x770>
    a12c:	014e0433          	add	s0,t3,s4
    a130:	001a8513          	addi	a0,s5,1
    a134:	8fdff06f          	j	9a30 <ee_printf+0x9c>
    a138:	00078a93          	mv	s5,a5
    a13c:	00082f83          	lw	t6,0(a6)
    a140:	00480813          	addi	a6,a6,4
    a144:	720f8a63          	beqz	t6,a878 <ee_printf+0xee4>
    a148:	000fc603          	lbu	a2,0(t6)
    a14c:	0105f293          	andi	t0,a1,16
    a150:	00061463          	bnez	a2,a158 <ee_printf+0x7c4>
    a154:	1ec0206f          	j	c340 <ee_printf+0x29ac>
    a158:	007cf313          	andi	t1,s9,7
    a15c:	019f88b3          	add	a7,t6,s9
    a160:	000f8793          	mv	a5,t6
    a164:	08030463          	beqz	t1,a1ec <ee_printf+0x858>
    a168:	001fc703          	lbu	a4,1(t6)
    a16c:	001f8793          	addi	a5,t6,1
    a170:	0e070263          	beqz	a4,a254 <ee_printf+0x8c0>
    a174:	00100393          	li	t2,1
    a178:	06730a63          	beq	t1,t2,a1ec <ee_printf+0x858>
    a17c:	00200513          	li	a0,2
    a180:	06a30063          	beq	t1,a0,a1e0 <ee_printf+0x84c>
    a184:	00300e13          	li	t3,3
    a188:	05c30663          	beq	t1,t3,a1d4 <ee_printf+0x840>
    a18c:	00400b93          	li	s7,4
    a190:	03730c63          	beq	t1,s7,a1c8 <ee_printf+0x834>
    a194:	00500593          	li	a1,5
    a198:	02b30263          	beq	t1,a1,a1bc <ee_printf+0x828>
    a19c:	00600693          	li	a3,6
    a1a0:	00d30863          	beq	t1,a3,a1b0 <ee_printf+0x81c>
    a1a4:	002fcc03          	lbu	s8,2(t6)
    a1a8:	002f8793          	addi	a5,t6,2
    a1ac:	0a0c0463          	beqz	s8,a254 <ee_printf+0x8c0>
    a1b0:	0017ce83          	lbu	t4,1(a5)
    a1b4:	00178793          	addi	a5,a5,1
    a1b8:	080e8e63          	beqz	t4,a254 <ee_printf+0x8c0>
    a1bc:	0017c603          	lbu	a2,1(a5)
    a1c0:	00178793          	addi	a5,a5,1
    a1c4:	08060863          	beqz	a2,a254 <ee_printf+0x8c0>
    a1c8:	0017cc83          	lbu	s9,1(a5)
    a1cc:	00178793          	addi	a5,a5,1
    a1d0:	080c8263          	beqz	s9,a254 <ee_printf+0x8c0>
    a1d4:	0017cb03          	lbu	s6,1(a5)
    a1d8:	00178793          	addi	a5,a5,1
    a1dc:	060b0c63          	beqz	s6,a254 <ee_printf+0x8c0>
    a1e0:	0017c303          	lbu	t1,1(a5)
    a1e4:	00178793          	addi	a5,a5,1
    a1e8:	06030663          	beqz	t1,a254 <ee_printf+0x8c0>
    a1ec:	07178663          	beq	a5,a7,a258 <ee_printf+0x8c4>
    a1f0:	0017c383          	lbu	t2,1(a5)
    a1f4:	00178793          	addi	a5,a5,1
    a1f8:	00078713          	mv	a4,a5
    a1fc:	04038c63          	beqz	t2,a254 <ee_printf+0x8c0>
    a200:	0017c503          	lbu	a0,1(a5)
    a204:	00178793          	addi	a5,a5,1
    a208:	04050663          	beqz	a0,a254 <ee_printf+0x8c0>
    a20c:	00274e03          	lbu	t3,2(a4)
    a210:	00270793          	addi	a5,a4,2
    a214:	040e0063          	beqz	t3,a254 <ee_printf+0x8c0>
    a218:	00374b83          	lbu	s7,3(a4)
    a21c:	00370793          	addi	a5,a4,3
    a220:	020b8a63          	beqz	s7,a254 <ee_printf+0x8c0>
    a224:	00474583          	lbu	a1,4(a4)
    a228:	00470793          	addi	a5,a4,4
    a22c:	02058463          	beqz	a1,a254 <ee_printf+0x8c0>
    a230:	00574683          	lbu	a3,5(a4)
    a234:	00570793          	addi	a5,a4,5
    a238:	00068e63          	beqz	a3,a254 <ee_printf+0x8c0>
    a23c:	00674c03          	lbu	s8,6(a4)
    a240:	00670793          	addi	a5,a4,6
    a244:	000c0863          	beqz	s8,a254 <ee_printf+0x8c0>
    a248:	00774e83          	lbu	t4,7(a4)
    a24c:	00770793          	addi	a5,a4,7
    a250:	f80e9ee3          	bnez	t4,a1ec <ee_printf+0x858>
    a254:	00078893          	mv	a7,a5
    a258:	41f88cb3          	sub	s9,a7,t6
    a25c:	68028ce3          	beqz	t0,b0f4 <ee_printf+0x1760>
    a260:	11905063          	blez	s9,a360 <ee_printf+0x9cc>
    a264:	007cfc13          	andi	s8,s9,7
    a268:	00000793          	li	a5,0
    a26c:	080c0663          	beqz	s8,a2f8 <ee_printf+0x964>
    a270:	00100e93          	li	t4,1
    a274:	07dc0a63          	beq	s8,t4,a2e8 <ee_printf+0x954>
    a278:	00200893          	li	a7,2
    a27c:	071c0063          	beq	s8,a7,a2dc <ee_printf+0x948>
    a280:	00300293          	li	t0,3
    a284:	045c0663          	beq	s8,t0,a2d0 <ee_printf+0x93c>
    a288:	00400b13          	li	s6,4
    a28c:	036c0c63          	beq	s8,s6,a2c4 <ee_printf+0x930>
    a290:	00500613          	li	a2,5
    a294:	02cc0263          	beq	s8,a2,a2b8 <ee_printf+0x924>
    a298:	00600313          	li	t1,6
    a29c:	006c0863          	beq	s8,t1,a2ac <ee_printf+0x918>
    a2a0:	000fc383          	lbu	t2,0(t6)
    a2a4:	000e8793          	mv	a5,t4
    a2a8:	00740023          	sb	t2,0(s0)
    a2ac:	80ffc70b          	th.lrbu	a4,t6,a5,0
    a2b0:	00f4570b          	th.srb	a4,s0,a5,0
    a2b4:	00178793          	addi	a5,a5,1
    a2b8:	80ffc50b          	th.lrbu	a0,t6,a5,0
    a2bc:	00f4550b          	th.srb	a0,s0,a5,0
    a2c0:	00178793          	addi	a5,a5,1
    a2c4:	80ffce0b          	th.lrbu	t3,t6,a5,0
    a2c8:	00f45e0b          	th.srb	t3,s0,a5,0
    a2cc:	00178793          	addi	a5,a5,1
    a2d0:	80ffcb8b          	th.lrbu	s7,t6,a5,0
    a2d4:	00f45b8b          	th.srb	s7,s0,a5,0
    a2d8:	00178793          	addi	a5,a5,1
    a2dc:	80ffc58b          	th.lrbu	a1,t6,a5,0
    a2e0:	00f4558b          	th.srb	a1,s0,a5,0
    a2e4:	00178793          	addi	a5,a5,1
    a2e8:	80ffc68b          	th.lrbu	a3,t6,a5,0
    a2ec:	00f4568b          	th.srb	a3,s0,a5,0
    a2f0:	00178793          	addi	a5,a5,1
    a2f4:	07978463          	beq	a5,s9,a35c <ee_printf+0x9c8>
    a2f8:	80ffcc0b          	th.lrbu	s8,t6,a5,0
    a2fc:	00178e93          	addi	t4,a5,1
    a300:	00278293          	addi	t0,a5,2
    a304:	81dfc88b          	th.lrbu	a7,t6,t4,0
    a308:	00378313          	addi	t1,a5,3
    a30c:	805fcb0b          	th.lrbu	s6,t6,t0,0
    a310:	00f45c0b          	th.srb	s8,s0,a5,0
    a314:	00478613          	addi	a2,a5,4
    a318:	806fc38b          	th.lrbu	t2,t6,t1,0
    a31c:	01d4588b          	th.srb	a7,s0,t4,0
    a320:	00578713          	addi	a4,a5,5
    a324:	80cfc50b          	th.lrbu	a0,t6,a2,0
    a328:	00545b0b          	th.srb	s6,s0,t0,0
    a32c:	00678b93          	addi	s7,a5,6
    a330:	80efce0b          	th.lrbu	t3,t6,a4,0
    a334:	0064538b          	th.srb	t2,s0,t1,0
    a338:	00778693          	addi	a3,a5,7
    a33c:	817fc58b          	th.lrbu	a1,t6,s7,0
    a340:	00c4550b          	th.srb	a0,s0,a2,0
    a344:	80dfcc0b          	th.lrbu	s8,t6,a3,0
    a348:	00e45e0b          	th.srb	t3,s0,a4,0
    a34c:	0174558b          	th.srb	a1,s0,s7,0
    a350:	00878793          	addi	a5,a5,8
    a354:	00d45c0b          	th.srb	s8,s0,a3,0
    a358:	fb9790e3          	bne	a5,s9,a2f8 <ee_printf+0x964>
    a35c:	01940433          	add	s0,s0,s9
    a360:	001a8513          	addi	a0,s5,1
    a364:	ed4cd663          	bge	s9,s4,9a30 <ee_printf+0x9c>
    a368:	419a0fb3          	sub	t6,s4,s9
    a36c:	007ffe93          	andi	t4,t6,7
    a370:	01f408b3          	add	a7,s0,t6
    a374:	00040793          	mv	a5,s0
    a378:	02000293          	li	t0,32
    a37c:	060e8863          	beqz	t4,a3ec <ee_printf+0xa58>
    a380:	00100b13          	li	s6,1
    a384:	056e8e63          	beq	t4,s6,a3e0 <ee_printf+0xa4c>
    a388:	00200313          	li	t1,2
    a38c:	046e8663          	beq	t4,t1,a3d8 <ee_printf+0xa44>
    a390:	00300393          	li	t2,3
    a394:	027e8e63          	beq	t4,t2,a3d0 <ee_printf+0xa3c>
    a398:	00400613          	li	a2,4
    a39c:	02ce8663          	beq	t4,a2,a3c8 <ee_printf+0xa34>
    a3a0:	00500713          	li	a4,5
    a3a4:	00ee8e63          	beq	t4,a4,a3c0 <ee_printf+0xa2c>
    a3a8:	00600e13          	li	t3,6
    a3ac:	01ce8663          	beq	t4,t3,a3b8 <ee_printf+0xa24>
    a3b0:	00140793          	addi	a5,s0,1
    a3b4:	00540023          	sb	t0,0(s0)
    a3b8:	00578023          	sb	t0,0(a5)
    a3bc:	00178793          	addi	a5,a5,1
    a3c0:	00578023          	sb	t0,0(a5)
    a3c4:	00178793          	addi	a5,a5,1
    a3c8:	00578023          	sb	t0,0(a5)
    a3cc:	00178793          	addi	a5,a5,1
    a3d0:	00578023          	sb	t0,0(a5)
    a3d4:	00178793          	addi	a5,a5,1
    a3d8:	00578023          	sb	t0,0(a5)
    a3dc:	00178793          	addi	a5,a5,1
    a3e0:	00178793          	addi	a5,a5,1
    a3e4:	fe578fa3          	sb	t0,-1(a5)
    a3e8:	03178663          	beq	a5,a7,a414 <ee_printf+0xa80>
    a3ec:	00578023          	sb	t0,0(a5)
    a3f0:	005780a3          	sb	t0,1(a5)
    a3f4:	00578123          	sb	t0,2(a5)
    a3f8:	005781a3          	sb	t0,3(a5)
    a3fc:	00578223          	sb	t0,4(a5)
    a400:	005782a3          	sb	t0,5(a5)
    a404:	00578323          	sb	t0,6(a5)
    a408:	005783a3          	sb	t0,7(a5)
    a40c:	00878793          	addi	a5,a5,8
    a410:	fd179ee3          	bne	a5,a7,a3ec <ee_printf+0xa58>
    a414:	01440a33          	add	s4,s0,s4
    a418:	419a0433          	sub	s0,s4,s9
    a41c:	e14ff06f          	j	9a30 <ee_printf+0x9c>
    a420:	00078a93          	mv	s5,a5
    a424:	fff00513          	li	a0,-1
    a428:	0105fb93          	andi	s7,a1,16
    a42c:	00480613          	addi	a2,a6,4
    a430:	3eaa0263          	beq	s4,a0,a814 <ee_printf+0xe80>
    a434:	00082803          	lw	a6,0(a6)
    a438:	00080b13          	mv	s6,a6
    a43c:	3e0b9863          	bnez	s7,a82c <ee_printf+0xe98>
    a440:	0015fc13          	andi	s8,a1,1
    a444:	000c1463          	bnez	s8,a44c <ee_printf+0xab8>
    a448:	0180206f          	j	c460 <ee_printf+0x2acc>
    a44c:	03000f93          	li	t6,48
    a450:	0205fe93          	andi	t4,a1,32
    a454:	3e0e9663          	bnez	t4,a840 <ee_printf+0xeac>
    a458:	640814e3          	bnez	a6,b2a0 <ee_printf+0x190c>
    a45c:	00100813          	li	a6,1
    a460:	03000693          	li	a3,48
    a464:	0b0ce8b3          	max	a7,s9,a6
    a468:	04d10623          	sb	a3,76(sp)
    a46c:	411a0a33          	sub	s4,s4,a7
    a470:	000c0463          	beqz	s8,a478 <ee_printf+0xae4>
    a474:	22d0106f          	j	bea0 <ee_printf+0x250c>
    a478:	00000513          	li	a0,0
    a47c:	01405463          	blez	s4,a484 <ee_printf+0xaf0>
    a480:	0040106f          	j	b484 <ee_printf+0x1af0>
    a484:	ffea0a13          	addi	s4,s4,-2
    a488:	00000513          	li	a0,0
    a48c:	01984463          	blt	a6,s9,a494 <ee_printf+0xb00>
    a490:	1940106f          	j	b624 <ee_printf+0x1c90>
    a494:	00040b93          	mv	s7,s0
    a498:	00000513          	li	a0,0
    a49c:	0a80106f          	j	b544 <ee_printf+0x1bb0>
    a4a0:	00078a93          	mv	s5,a5
    a4a4:	0105fc93          	andi	s9,a1,16
    a4a8:	00480313          	addi	t1,a6,4
    a4ac:	001a8513          	addi	a0,s5,1
    a4b0:	3c0c8c63          	beqz	s9,a888 <ee_printf+0xef4>
    a4b4:	00082e83          	lw	t4,0(a6)
    a4b8:	00100f93          	li	t6,1
    a4bc:	01f403b3          	add	t2,s0,t6
    a4c0:	01d40023          	sb	t4,0(s0)
    a4c4:	014fc463          	blt	t6,s4,a4cc <ee_printf+0xb38>
    a4c8:	6c90106f          	j	c390 <ee_printf+0x29fc>
    a4cc:	01440e33          	add	t3,s0,s4
    a4d0:	407e0733          	sub	a4,t3,t2
    a4d4:	00777593          	andi	a1,a4,7
    a4d8:	00038793          	mv	a5,t2
    a4dc:	02000613          	li	a2,32
    a4e0:	06058663          	beqz	a1,a54c <ee_printf+0xbb8>
    a4e4:	05f58e63          	beq	a1,t6,a540 <ee_printf+0xbac>
    a4e8:	00200813          	li	a6,2
    a4ec:	05058663          	beq	a1,a6,a538 <ee_printf+0xba4>
    a4f0:	00300293          	li	t0,3
    a4f4:	02558e63          	beq	a1,t0,a530 <ee_printf+0xb9c>
    a4f8:	00400893          	li	a7,4
    a4fc:	03158663          	beq	a1,a7,a528 <ee_printf+0xb94>
    a500:	00500c13          	li	s8,5
    a504:	01858e63          	beq	a1,s8,a520 <ee_printf+0xb8c>
    a508:	00600693          	li	a3,6
    a50c:	00d58663          	beq	a1,a3,a518 <ee_printf+0xb84>
    a510:	00240793          	addi	a5,s0,2
    a514:	00c400a3          	sb	a2,1(s0)
    a518:	00c78023          	sb	a2,0(a5)
    a51c:	00178793          	addi	a5,a5,1
    a520:	00c78023          	sb	a2,0(a5)
    a524:	00178793          	addi	a5,a5,1
    a528:	00c78023          	sb	a2,0(a5)
    a52c:	00178793          	addi	a5,a5,1
    a530:	00c78023          	sb	a2,0(a5)
    a534:	00178793          	addi	a5,a5,1
    a538:	00c78023          	sb	a2,0(a5)
    a53c:	00178793          	addi	a5,a5,1
    a540:	00178793          	addi	a5,a5,1
    a544:	fec78fa3          	sb	a2,-1(a5)
    a548:	03c78663          	beq	a5,t3,a574 <ee_printf+0xbe0>
    a54c:	00c78023          	sb	a2,0(a5)
    a550:	00c780a3          	sb	a2,1(a5)
    a554:	00c78123          	sb	a2,2(a5)
    a558:	00c781a3          	sb	a2,3(a5)
    a55c:	00c78223          	sb	a2,4(a5)
    a560:	00c782a3          	sb	a2,5(a5)
    a564:	00c78323          	sb	a2,6(a5)
    a568:	00c783a3          	sb	a2,7(a5)
    a56c:	00878793          	addi	a5,a5,8
    a570:	fdc79ee3          	bne	a5,t3,a54c <ee_printf+0xbb8>
    a574:	fffa0413          	addi	s0,s4,-1
    a578:	00838433          	add	s0,t2,s0
    a57c:	00030813          	mv	a6,t1
    a580:	cb0ff06f          	j	9a30 <ee_printf+0x9c>
    a584:	00078a93          	mv	s5,a5
    a588:	0105f713          	andi	a4,a1,16
    a58c:	00082b83          	lw	s7,0(a6)
    a590:	00480813          	addi	a6,a6,4
    a594:	26070063          	beqz	a4,a7f4 <ee_printf+0xe60>
    a598:	0205f893          	andi	a7,a1,32
    a59c:	00088463          	beqz	a7,a5a4 <ee_printf+0xc10>
    a5a0:	4ec0106f          	j	ba8c <ee_printf+0x20f8>
    a5a4:	000b8463          	beqz	s7,a5ac <ee_printf+0xc18>
    a5a8:	1550106f          	j	befc <ee_printf+0x2568>
    a5ac:	00100b13          	li	s6,1
    a5b0:	03000393          	li	t2,48
    a5b4:	0b6cec33          	max	s8,s9,s6
    a5b8:	04710623          	sb	t2,76(sp)
    a5bc:	418a0a33          	sub	s4,s4,s8
    a5c0:	00000393          	li	t2,0
    a5c4:	01000313          	li	t1,16
    a5c8:	02000613          	li	a2,32
    a5cc:	04c10693          	addi	a3,sp,76
    a5d0:	ffcff06f          	j	9dcc <ee_printf+0x438>
    a5d4:	00078a93          	mv	s5,a5
    a5d8:	0105f513          	andi	a0,a1,16
    a5dc:	00082b83          	lw	s7,0(a6)
    a5e0:	00480813          	addi	a6,a6,4
    a5e4:	1c051a63          	bnez	a0,a7b8 <ee_printf+0xe24>
    a5e8:	00a00c13          	li	s8,10
    a5ec:	000c0f93          	mv	t6,s8
    a5f0:	02000893          	li	a7,32
    a5f4:	0015fe13          	andi	t3,a1,1
    a5f8:	03000613          	li	a2,48
    a5fc:	0115f533          	and	a0,a1,a7
    a600:	41c8960b          	th.mveqz	a2,a7,t3
    a604:	0115fe93          	andi	t4,a1,17
    a608:	16050863          	beqz	a0,a778 <ee_printf+0xde4>
    a60c:	01000293          	li	t0,16
    a610:	005f8463          	beq	t6,t0,a618 <ee_printf+0xc84>
    a614:	5e90106f          	j	c3fc <ee_printf+0x2a68>
    a618:	0000d8b7          	lui	a7,0xd
    a61c:	bd888693          	addi	a3,a7,-1064 # cbd8 <__modsi3+0x6d4>
    a620:	00000313          	li	t1,0
    a624:	4800106f          	j	baa4 <ee_printf+0x2110>
    a628:	00000c93          	li	s9,0
    a62c:	219ccfb3          	sh2add	t6,s9,s9
    a630:	00160613          	addi	a2,a2,1
    a634:	20efaab3          	sh1add	s5,t6,a4
    a638:	00064703          	lbu	a4,0(a2)
    a63c:	fd0a8c93          	addi	s9,s5,-48
    a640:	00060693          	mv	a3,a2
    a644:	fd070293          	addi	t0,a4,-48
    a648:	0ff2f313          	zext.b	t1,t0
    a64c:	0e6b6263          	bltu	s6,t1,a730 <ee_printf+0xd9c>
    a650:	219cc3b3          	sh2add	t2,s9,s9
    a654:	00160613          	addi	a2,a2,1
    a658:	20e3a8b3          	sh1add	a7,t2,a4
    a65c:	00064703          	lbu	a4,0(a2)
    a660:	fd088c93          	addi	s9,a7,-48
    a664:	fd070793          	addi	a5,a4,-48
    a668:	0ff7fb93          	zext.b	s7,a5
    a66c:	0d7b6263          	bltu	s6,s7,a730 <ee_printf+0xd9c>
    a670:	219cc633          	sh2add	a2,s9,s9
    a674:	20e62533          	sh1add	a0,a2,a4
    a678:	0026c703          	lbu	a4,2(a3)
    a67c:	fd050c93          	addi	s9,a0,-48
    a680:	00268613          	addi	a2,a3,2
    a684:	fd070c13          	addi	s8,a4,-48
    a688:	0ffc7e13          	zext.b	t3,s8
    a68c:	0bcb6263          	bltu	s6,t3,a730 <ee_printf+0xd9c>
    a690:	219cccb3          	sh2add	s9,s9,s9
    a694:	20ecaeb3          	sh1add	t4,s9,a4
    a698:	0036c703          	lbu	a4,3(a3)
    a69c:	fd0e8c93          	addi	s9,t4,-48
    a6a0:	00368613          	addi	a2,a3,3
    a6a4:	fd070f93          	addi	t6,a4,-48
    a6a8:	0ffffa93          	zext.b	s5,t6
    a6ac:	095b6263          	bltu	s6,s5,a730 <ee_printf+0xd9c>
    a6b0:	219cc2b3          	sh2add	t0,s9,s9
    a6b4:	20e2a333          	sh1add	t1,t0,a4
    a6b8:	0046c703          	lbu	a4,4(a3)
    a6bc:	fd030c93          	addi	s9,t1,-48
    a6c0:	00468613          	addi	a2,a3,4
    a6c4:	fd070393          	addi	t2,a4,-48
    a6c8:	0ff3f893          	zext.b	a7,t2
    a6cc:	071b6263          	bltu	s6,a7,a730 <ee_printf+0xd9c>
    a6d0:	219cc7b3          	sh2add	a5,s9,s9
    a6d4:	20e7abb3          	sh1add	s7,a5,a4
    a6d8:	0056c703          	lbu	a4,5(a3)
    a6dc:	fd0b8c93          	addi	s9,s7,-48
    a6e0:	00568613          	addi	a2,a3,5
    a6e4:	fd070513          	addi	a0,a4,-48
    a6e8:	0ff57c13          	zext.b	s8,a0
    a6ec:	058b6263          	bltu	s6,s8,a730 <ee_printf+0xd9c>
    a6f0:	219cc633          	sh2add	a2,s9,s9
    a6f4:	20e62e33          	sh1add	t3,a2,a4
    a6f8:	0066c703          	lbu	a4,6(a3)
    a6fc:	fd0e0c93          	addi	s9,t3,-48
    a700:	00668613          	addi	a2,a3,6
    a704:	fd070e93          	addi	t4,a4,-48
    a708:	0ffeff93          	zext.b	t6,t4
    a70c:	03fb6263          	bltu	s6,t6,a730 <ee_printf+0xd9c>
    a710:	219cccb3          	sh2add	s9,s9,s9
    a714:	20ecaab3          	sh1add	s5,s9,a4
    a718:	0076c703          	lbu	a4,7(a3)
    a71c:	00768613          	addi	a2,a3,7
    a720:	fd0a8c93          	addi	s9,s5,-48
    a724:	fd070693          	addi	a3,a4,-48
    a728:	0ff6f293          	zext.b	t0,a3
    a72c:	f05b70e3          	bgeu	s6,t0,a62c <ee_printf+0xc98>
    a730:	0a0cecb3          	max	s9,s9,zero
    a734:	00060793          	mv	a5,a2
    a738:	c28ff06f          	j	9b60 <ee_printf+0x1cc>
    a73c:	00082e83          	lw	t4,0(a6)
    a740:	0027c703          	lbu	a4,2(a5)
    a744:	00480813          	addi	a6,a6,4
    a748:	0a0eecb3          	max	s9,t4,zero
    a74c:	00278793          	addi	a5,a5,2
    a750:	c10ff06f          	j	9b60 <ee_printf+0x1cc>
    a754:	02000893          	li	a7,32
    a758:	00800c13          	li	s8,8
    a75c:	0015fe13          	andi	t3,a1,1
    a760:	03000613          	li	a2,48
    a764:	0115f533          	and	a0,a1,a7
    a768:	000c0f93          	mv	t6,s8
    a76c:	41c8960b          	th.mveqz	a2,a7,t3
    a770:	0115fe93          	andi	t4,a1,17
    a774:	e8051ce3          	bnez	a0,a60c <ee_printf+0xc78>
    a778:	0000d5b7          	lui	a1,0xd
    a77c:	bd858693          	addi	a3,a1,-1064 # cbd8 <__modsi3+0x6d4>
    a780:	000b8463          	beqz	s7,a788 <ee_printf+0xdf4>
    a784:	3e50106f          	j	c368 <ee_printf+0x29d4>
    a788:	00100b13          	li	s6,1
    a78c:	03000b93          	li	s7,48
    a790:	0b6cec33          	max	s8,s9,s6
    a794:	05710623          	sb	s7,76(sp)
    a798:	418a0a33          	sub	s4,s4,s8
    a79c:	000e9463          	bnez	t4,a7a4 <ee_printf+0xe10>
    a7a0:	3d90106f          	j	c378 <ee_printf+0x29e4>
    a7a4:	000e8b13          	mv	s6,t4
    a7a8:	00000393          	li	t2,0
    a7ac:	00000313          	li	t1,0
    a7b0:	04c10693          	addi	a3,sp,76
    a7b4:	e18ff06f          	j	9dcc <ee_printf+0x438>
    a7b8:	0205f893          	andi	a7,a1,32
    a7bc:	00088463          	beqz	a7,a7c4 <ee_printf+0xe30>
    a7c0:	35c0106f          	j	bb1c <ee_printf+0x2188>
    a7c4:	000b8463          	beqz	s7,a7cc <ee_printf+0xe38>
    a7c8:	7a80106f          	j	bf70 <ee_printf+0x25dc>
    a7cc:	00100b13          	li	s6,1
    a7d0:	0b6cec33          	max	s8,s9,s6
    a7d4:	03000b93          	li	s7,48
    a7d8:	05710623          	sb	s7,76(sp)
    a7dc:	418a0a33          	sub	s4,s4,s8
    a7e0:	00000393          	li	t2,0
    a7e4:	01000313          	li	t1,16
    a7e8:	02000613          	li	a2,32
    a7ec:	04c10693          	addi	a3,sp,76
    a7f0:	ddcff06f          	j	9dcc <ee_printf+0x438>
    a7f4:	01000c13          	li	s8,16
    a7f8:	000c0f93          	mv	t6,s8
    a7fc:	df5ff06f          	j	a5f0 <ee_printf+0xc5c>
    a800:	00140413          	addi	s0,s0,1
    a804:	00e40023          	sb	a4,0(s0)
    a808:	001a8513          	addi	a0,s5,1
    a80c:	00140413          	addi	s0,s0,1
    a810:	a20ff06f          	j	9a30 <ee_printf+0x9c>
    a814:	00082803          	lw	a6,0(a6)
    a818:	0015e593          	ori	a1,a1,1
    a81c:	00080b13          	mv	s6,a6
    a820:	000b9463          	bnez	s7,a828 <ee_printf+0xe94>
    a824:	3680106f          	j	bb8c <ee_printf+0x21f8>
    a828:	00800a13          	li	s4,8
    a82c:	ffe5f593          	andi	a1,a1,-2
    a830:	0205fe93          	andi	t4,a1,32
    a834:	01000c13          	li	s8,16
    a838:	02000f93          	li	t6,32
    a83c:	c00e8ee3          	beqz	t4,a458 <ee_printf+0xac4>
    a840:	ffea0a13          	addi	s4,s4,-2
    a844:	24081ee3          	bnez	a6,b2a0 <ee_printf+0x190c>
    a848:	00100813          	li	a6,1
    a84c:	03000b93          	li	s7,48
    a850:	0b0ce8b3          	max	a7,s9,a6
    a854:	05710623          	sb	s7,76(sp)
    a858:	411a0a33          	sub	s4,s4,a7
    a85c:	000c0463          	beqz	s8,a864 <ee_printf+0xed0>
    a860:	65c0106f          	j	bebc <ee_printf+0x2528>
    a864:	00000513          	li	a0,0
    a868:	41404ee3          	bgtz	s4,b484 <ee_printf+0x1af0>
    a86c:	fffa0a13          	addi	s4,s4,-1
    a870:	00000513          	li	a0,0
    a874:	64c0106f          	j	bec0 <ee_printf+0x252c>
    a878:	0000db37          	lui	s6,0xd
    a87c:	0105f293          	andi	t0,a1,16
    a880:	bd0b0f93          	addi	t6,s6,-1072 # cbd0 <__modsi3+0x6cc>
    a884:	8d5ff06f          	j	a158 <ee_printf+0x7c4>
    a888:	00100b93          	li	s7,1
    a88c:	014bc463          	blt	s7,s4,a894 <ee_printf+0xf00>
    a890:	7280106f          	j	bfb8 <ee_printf+0x2624>
    a894:	fffa0b13          	addi	s6,s4,-1
    a898:	007b7c93          	andi	s9,s6,7
    a89c:	01640eb3          	add	t4,s0,s6
    a8a0:	00040293          	mv	t0,s0
    a8a4:	02000f93          	li	t6,32
    a8a8:	060c8663          	beqz	s9,a914 <ee_printf+0xf80>
    a8ac:	057c8e63          	beq	s9,s7,a908 <ee_printf+0xf74>
    a8b0:	00200393          	li	t2,2
    a8b4:	047c8663          	beq	s9,t2,a900 <ee_printf+0xf6c>
    a8b8:	00300e13          	li	t3,3
    a8bc:	03cc8e63          	beq	s9,t3,a8f8 <ee_printf+0xf64>
    a8c0:	00400713          	li	a4,4
    a8c4:	02ec8663          	beq	s9,a4,a8f0 <ee_printf+0xf5c>
    a8c8:	00500593          	li	a1,5
    a8cc:	00bc8e63          	beq	s9,a1,a8e8 <ee_printf+0xf54>
    a8d0:	00600613          	li	a2,6
    a8d4:	00cc8663          	beq	s9,a2,a8e0 <ee_printf+0xf4c>
    a8d8:	00140293          	addi	t0,s0,1
    a8dc:	01f40023          	sb	t6,0(s0)
    a8e0:	01f28023          	sb	t6,0(t0)
    a8e4:	00128293          	addi	t0,t0,1
    a8e8:	01f28023          	sb	t6,0(t0)
    a8ec:	00128293          	addi	t0,t0,1
    a8f0:	01f28023          	sb	t6,0(t0)
    a8f4:	00128293          	addi	t0,t0,1
    a8f8:	01f28023          	sb	t6,0(t0)
    a8fc:	00128293          	addi	t0,t0,1
    a900:	01f28023          	sb	t6,0(t0)
    a904:	00128293          	addi	t0,t0,1
    a908:	00128293          	addi	t0,t0,1
    a90c:	fff28fa3          	sb	t6,-1(t0)
    a910:	03d28663          	beq	t0,t4,a93c <ee_printf+0xfa8>
    a914:	01f28023          	sb	t6,0(t0)
    a918:	01f280a3          	sb	t6,1(t0)
    a91c:	01f28123          	sb	t6,2(t0)
    a920:	01f281a3          	sb	t6,3(t0)
    a924:	01f28223          	sb	t6,4(t0)
    a928:	01f282a3          	sb	t6,5(t0)
    a92c:	01f28323          	sb	t6,6(t0)
    a930:	01f283a3          	sb	t6,7(t0)
    a934:	00828293          	addi	t0,t0,8
    a938:	fdd29ee3          	bne	t0,t4,a914 <ee_printf+0xf80>
    a93c:	00082883          	lw	a7,0(a6)
    a940:	fff40c13          	addi	s8,s0,-1
    a944:	00030813          	mv	a6,t1
    a948:	014c0333          	add	t1,s8,s4
    a94c:	014c588b          	th.srb	a7,s8,s4,0
    a950:	00130413          	addi	s0,t1,1
    a954:	8dcff06f          	j	9a30 <ee_printf+0x9c>
    a958:	06c00c13          	li	s8,108
    a95c:	0025e513          	ori	a0,a1,2
    a960:	0105f313          	andi	t1,a1,16
    a964:	00480713          	addi	a4,a6,4
    a968:	6f8e8ce3          	beq	t4,s8,b860 <ee_printf+0x1ecc>
    a96c:	00082b83          	lw	s7,0(a6)
    a970:	00031463          	bnez	t1,a978 <ee_printf+0xfe4>
    a974:	2940106f          	j	bc08 <ee_printf+0x2274>
    a978:	ffe5f813          	andi	a6,a1,-2
    a97c:	00286513          	ori	a0,a6,2
    a980:	01000313          	li	t1,16
    a984:	00070813          	mv	a6,a4
    a988:	02000613          	li	a2,32
    a98c:	6f10006f          	j	b87c <ee_printf+0x1ee8>
    a990:	06c00513          	li	a0,108
    a994:	6aae8ce3          	beq	t4,a0,b84c <ee_printf+0x1eb8>
    a998:	00082c83          	lw	s9,0(a6)
    a99c:	00480813          	addi	a6,a6,4
    a9a0:	000cc703          	lbu	a4,0(s9)
    a9a4:	0c0700e3          	beqz	a4,b264 <ee_printf+0x18d0>
    a9a8:	06300b93          	li	s7,99
    a9ac:	00ebc463          	blt	s7,a4,a9b4 <ee_printf+0x1020>
    a9b0:	0200106f          	j	b9d0 <ee_printf+0x203c>
    a9b4:	51eb88b7          	lui	a7,0x51eb8
    a9b8:	51f88293          	addi	t0,a7,1311 # 51eb851f <_stack_top+0x51ea451f>
    a9bc:	02573bb3          	mulhu	s7,a4,t0
    a9c0:	ccccd537          	lui	a0,0xccccd
    a9c4:	ccd50393          	addi	t2,a0,-819 # cccccccd <_stack_top+0xcccb8ccd>
    a9c8:	0000d6b7          	lui	a3,0xd
    a9cc:	bd868e13          	addi	t3,a3,-1064 # cbd8 <__modsi3+0x6d4>
    a9d0:	00200313          	li	t1,2
    a9d4:	005bdc13          	srli	s8,s7,0x5
    a9d8:	218c4b33          	sh2add	s6,s8,s8
    a9dc:	216b4eb3          	sh2add	t4,s6,s6
    a9e0:	002e9613          	slli	a2,t4,0x2
    a9e4:	40c707b3          	sub	a5,a4,a2
    a9e8:	0277b733          	mulhu	a4,a5,t2
    a9ec:	818e4f8b          	th.lrbu	t6,t3,s8,0
    a9f0:	05f10623          	sb	t6,76(sp)
    a9f4:	00375893          	srli	a7,a4,0x3
    a9f8:	811e4b8b          	th.lrbu	s7,t3,a7,0
    a9fc:	2118c2b3          	sh2add	t0,a7,a7
    aa00:	00129513          	slli	a0,t0,0x1
    aa04:	40a78733          	sub	a4,a5,a0
    aa08:	057106a3          	sb	s7,77(sp)
    aa0c:	80ee438b          	th.lrbu	t2,t3,a4,0
    aa10:	00230c33          	add	s8,t1,sp
    aa14:	00130b13          	addi	s6,t1,1
    aa18:	047c0623          	sb	t2,76(s8)
    aa1c:	001cc503          	lbu	a0,1(s9)
    aa20:	02e00e93          	li	t4,46
    aa24:	002b0fb3          	add	t6,s6,sp
    aa28:	05df8623          	sb	t4,76(t6)
    aa2c:	001b0893          	addi	a7,s6,1
    aa30:	002b0293          	addi	t0,s6,2
    aa34:	020500e3          	beqz	a0,b254 <ee_printf+0x18c0>
    aa38:	06300b93          	li	s7,99
    aa3c:	74abdae3          	bge	s7,a0,b990 <ee_printf+0x1ffc>
    aa40:	51eb8bb7          	lui	s7,0x51eb8
    aa44:	51fb8713          	addi	a4,s7,1311 # 51eb851f <_stack_top+0x51ea451f>
    aa48:	02e533b3          	mulhu	t2,a0,a4
    aa4c:	00228633          	add	a2,t0,sp
    aa50:	0000d6b7          	lui	a3,0xd
    aa54:	bd868313          	addi	t1,a3,-1064 # cbd8 <__modsi3+0x6d4>
    aa58:	002887b3          	add	a5,a7,sp
    aa5c:	003b0893          	addi	a7,s6,3
    aa60:	ccccdb37          	lui	s6,0xccccd
    aa64:	ccdb0f93          	addi	t6,s6,-819 # cccccccd <_stack_top+0xcccb8ccd>
    aa68:	0053d293          	srli	t0,t2,0x5
    aa6c:	2052c733          	sh2add	a4,t0,t0
    aa70:	20e743b3          	sh2add	t2,a4,a4
    aa74:	00239693          	slli	a3,t2,0x2
    aa78:	40d50c33          	sub	s8,a0,a3
    aa7c:	03fc3533          	mulhu	a0,s8,t6
    aa80:	80534b8b          	th.lrbu	s7,t1,t0,0
    aa84:	05778623          	sb	s7,76(a5)
    aa88:	00355e13          	srli	t3,a0,0x3
    aa8c:	81c3478b          	th.lrbu	a5,t1,t3,0
    aa90:	21ce4eb3          	sh2add	t4,t3,t3
    aa94:	001e9b13          	slli	s6,t4,0x1
    aa98:	04f60623          	sb	a5,76(a2)
    aa9c:	416c0533          	sub	a0,s8,s6
    aaa0:	80a3430b          	th.lrbu	t1,t1,a0,0
    aaa4:	00288bb3          	add	s7,a7,sp
    aaa8:	00188293          	addi	t0,a7,1
    aaac:	046b8623          	sb	t1,76(s7)
    aab0:	002cc303          	lbu	t1,2(s9)
    aab4:	02e00c13          	li	s8,46
    aab8:	00228eb3          	add	t4,t0,sp
    aabc:	058e8623          	sb	s8,76(t4)
    aac0:	00128513          	addi	a0,t0,1
    aac4:	00228b13          	addi	s6,t0,2
    aac8:	76030e63          	beqz	t1,b244 <ee_printf+0x18b0>
    aacc:	06300f93          	li	t6,99
    aad0:	726fdee3          	bge	t6,t1,ba0c <ee_printf+0x2078>
    aad4:	51eb8fb7          	lui	t6,0x51eb8
    aad8:	51ff8613          	addi	a2,t6,1311 # 51eb851f <_stack_top+0x51ea451f>
    aadc:	02c33bb3          	mulhu	s7,t1,a2
    aae0:	0000d8b7          	lui	a7,0xd
    aae4:	bd888393          	addi	t2,a7,-1064 # cbd8 <__modsi3+0x6d4>
    aae8:	00250c33          	add	s8,a0,sp
    aaec:	00328513          	addi	a0,t0,3
    aaf0:	ccccd2b7          	lui	t0,0xccccd
    aaf4:	002b07b3          	add	a5,s6,sp
    aaf8:	ccd28b13          	addi	s6,t0,-819 # cccccccd <_stack_top+0xcccb8ccd>
    aafc:	005bdf93          	srli	t6,s7,0x5
    ab00:	21ffc633          	sh2add	a2,t6,t6
    ab04:	20c64bb3          	sh2add	s7,a2,a2
    ab08:	002b9893          	slli	a7,s7,0x2
    ab0c:	41130733          	sub	a4,t1,a7
    ab10:	03673333          	mulhu	t1,a4,s6
    ab14:	81f3ce8b          	th.lrbu	t4,t2,t6,0
    ab18:	05dc0623          	sb	t4,76(s8)
    ab1c:	00335693          	srli	a3,t1,0x3
    ab20:	80d3cc0b          	th.lrbu	s8,t2,a3,0
    ab24:	20d6ce33          	sh2add	t3,a3,a3
    ab28:	001e1293          	slli	t0,t3,0x1
    ab2c:	05878623          	sb	s8,76(a5)
    ab30:	40570333          	sub	t1,a4,t0
    ab34:	8063c38b          	th.lrbu	t2,t2,t1,0
    ab38:	00250fb3          	add	t6,a0,sp
    ab3c:	00150b13          	addi	s6,a0,1
    ab40:	047f8623          	sb	t2,76(t6)
    ab44:	003cc303          	lbu	t1,3(s9)
    ab48:	002b06b3          	add	a3,s6,sp
    ab4c:	02e00c93          	li	s9,46
    ab50:	05968623          	sb	s9,76(a3)
    ab54:	001b0b93          	addi	s7,s6,1
    ab58:	002b0513          	addi	a0,s6,2
    ab5c:	64031c63          	bnez	t1,b1b4 <ee_printf+0x1820>
    ab60:	002b86b3          	add	a3,s7,sp
    ab64:	03000c13          	li	s8,48
    ab68:	0105fe13          	andi	t3,a1,16
    ab6c:	05868623          	sb	s8,76(a3)
    ab70:	0c0e1263          	bnez	t3,ac34 <ee_printf+0x12a0>
    ab74:	01454463          	blt	a0,s4,ab7c <ee_printf+0x11e8>
    ab78:	7e80106f          	j	c360 <ee_printf+0x29cc>
    ab7c:	40aa02b3          	sub	t0,s4,a0
    ab80:	0072f313          	andi	t1,t0,7
    ab84:	005403b3          	add	t2,s0,t0
    ab88:	00040793          	mv	a5,s0
    ab8c:	02000f93          	li	t6,32
    ab90:	06030863          	beqz	t1,ac00 <ee_printf+0x126c>
    ab94:	00100613          	li	a2,1
    ab98:	04c30e63          	beq	t1,a2,abf4 <ee_printf+0x1260>
    ab9c:	00200c93          	li	s9,2
    aba0:	05930663          	beq	t1,s9,abec <ee_printf+0x1258>
    aba4:	00300e93          	li	t4,3
    aba8:	03d30e63          	beq	t1,t4,abe4 <ee_printf+0x1250>
    abac:	00400b13          	li	s6,4
    abb0:	03630663          	beq	t1,s6,abdc <ee_printf+0x1248>
    abb4:	00500893          	li	a7,5
    abb8:	01130e63          	beq	t1,a7,abd4 <ee_printf+0x1240>
    abbc:	00600593          	li	a1,6
    abc0:	00b30663          	beq	t1,a1,abcc <ee_printf+0x1238>
    abc4:	00140793          	addi	a5,s0,1
    abc8:	01f40023          	sb	t6,0(s0)
    abcc:	01f78023          	sb	t6,0(a5)
    abd0:	00178793          	addi	a5,a5,1
    abd4:	01f78023          	sb	t6,0(a5)
    abd8:	00178793          	addi	a5,a5,1
    abdc:	01f78023          	sb	t6,0(a5)
    abe0:	00178793          	addi	a5,a5,1
    abe4:	01f78023          	sb	t6,0(a5)
    abe8:	00178793          	addi	a5,a5,1
    abec:	01f78023          	sb	t6,0(a5)
    abf0:	00178793          	addi	a5,a5,1
    abf4:	00178793          	addi	a5,a5,1
    abf8:	fff78fa3          	sb	t6,-1(a5)
    abfc:	02778663          	beq	a5,t2,ac28 <ee_printf+0x1294>
    ac00:	01f78023          	sb	t6,0(a5)
    ac04:	01f780a3          	sb	t6,1(a5)
    ac08:	01f78123          	sb	t6,2(a5)
    ac0c:	01f781a3          	sb	t6,3(a5)
    ac10:	01f78223          	sb	t6,4(a5)
    ac14:	01f782a3          	sb	t6,5(a5)
    ac18:	01f78323          	sb	t6,6(a5)
    ac1c:	01f783a3          	sb	t6,7(a5)
    ac20:	00878793          	addi	a5,a5,8
    ac24:	fc779ee3          	bne	a5,t2,ac00 <ee_printf+0x126c>
    ac28:	01440433          	add	s0,s0,s4
    ac2c:	40a40433          	sub	s0,s0,a0
    ac30:	fff50a13          	addi	s4,a0,-1
    ac34:	00100793          	li	a5,1
    ac38:	00f50bb3          	add	s7,a0,a5
    ac3c:	40fb8733          	sub	a4,s7,a5
    ac40:	00777c13          	andi	s8,a4,7
    ac44:	fff40693          	addi	a3,s0,-1
    ac48:	04c10293          	addi	t0,sp,76
    ac4c:	080c0c63          	beqz	s8,ace4 <ee_printf+0x1350>
    ac50:	08fc0063          	beq	s8,a5,acd0 <ee_printf+0x133c>
    ac54:	00200e13          	li	t3,2
    ac58:	07cc0463          	beq	s8,t3,acc0 <ee_printf+0x132c>
    ac5c:	00300313          	li	t1,3
    ac60:	046c0863          	beq	s8,t1,acb0 <ee_printf+0x131c>
    ac64:	00400393          	li	t2,4
    ac68:	027c0c63          	beq	s8,t2,aca0 <ee_printf+0x130c>
    ac6c:	00500f93          	li	t6,5
    ac70:	03fc0063          	beq	s8,t6,ac90 <ee_printf+0x12fc>
    ac74:	00600613          	li	a2,6
    ac78:	00cc0463          	beq	s8,a2,ac80 <ee_printf+0x12ec>
    ac7c:	2140106f          	j	be90 <ee_printf+0x24fc>
    ac80:	00f28eb3          	add	t4,t0,a5
    ac84:	fffecb03          	lbu	s6,-1(t4)
    ac88:	00f6db0b          	th.srb	s6,a3,a5,0
    ac8c:	00178793          	addi	a5,a5,1
    ac90:	00f288b3          	add	a7,t0,a5
    ac94:	fff8c583          	lbu	a1,-1(a7)
    ac98:	00f6d58b          	th.srb	a1,a3,a5,0
    ac9c:	00178793          	addi	a5,a5,1
    aca0:	00f28733          	add	a4,t0,a5
    aca4:	fff74c03          	lbu	s8,-1(a4)
    aca8:	00f6dc0b          	th.srb	s8,a3,a5,0
    acac:	00178793          	addi	a5,a5,1
    acb0:	00f28e33          	add	t3,t0,a5
    acb4:	fffe4303          	lbu	t1,-1(t3)
    acb8:	00f6d30b          	th.srb	t1,a3,a5,0
    acbc:	00178793          	addi	a5,a5,1
    acc0:	00f283b3          	add	t2,t0,a5
    acc4:	fff3cf83          	lbu	t6,-1(t2)
    acc8:	00f6df8b          	th.srb	t6,a3,a5,0
    accc:	00178793          	addi	a5,a5,1
    acd0:	00f28633          	add	a2,t0,a5
    acd4:	fff64c83          	lbu	s9,-1(a2)
    acd8:	00f6dc8b          	th.srb	s9,a3,a5,0
    acdc:	00178793          	addi	a5,a5,1
    ace0:	08fb8263          	beq	s7,a5,ad64 <ee_printf+0x13d0>
    ace4:	00f28eb3          	add	t4,t0,a5
    ace8:	00278893          	addi	a7,a5,2
    acec:	fffecb03          	lbu	s6,-1(t4)
    acf0:	80f2cc0b          	th.lrbu	s8,t0,a5,0
    acf4:	011285b3          	add	a1,t0,a7
    acf8:	00378393          	addi	t2,a5,3
    acfc:	fff5ce03          	lbu	t3,-1(a1)
    ad00:	00f6db0b          	th.srb	s6,a3,a5,0
    ad04:	00178713          	addi	a4,a5,1
    ad08:	00728333          	add	t1,t0,t2
    ad0c:	00478613          	addi	a2,a5,4
    ad10:	00e6dc0b          	th.srb	s8,a3,a4,0
    ad14:	fff34f83          	lbu	t6,-1(t1)
    ad18:	00578b13          	addi	s6,a5,5
    ad1c:	00c28cb3          	add	s9,t0,a2
    ad20:	0116de0b          	th.srb	t3,a3,a7,0
    ad24:	00678c13          	addi	s8,a5,6
    ad28:	fffcce83          	lbu	t4,-1(s9)
    ad2c:	016288b3          	add	a7,t0,s6
    ad30:	00778713          	addi	a4,a5,7
    ad34:	fff8c583          	lbu	a1,-1(a7)
    ad38:	01828e33          	add	t3,t0,s8
    ad3c:	0076df8b          	th.srb	t6,a3,t2,0
    ad40:	00e28333          	add	t1,t0,a4
    ad44:	fffe4383          	lbu	t2,-1(t3)
    ad48:	00c6de8b          	th.srb	t4,a3,a2,0
    ad4c:	fff34f83          	lbu	t6,-1(t1)
    ad50:	0166d58b          	th.srb	a1,a3,s6,0
    ad54:	0186d38b          	th.srb	t2,a3,s8,0
    ad58:	00878793          	addi	a5,a5,8
    ad5c:	00e6df8b          	th.srb	t6,a3,a4,0
    ad60:	f8fb92e3          	bne	s7,a5,ace4 <ee_printf+0x1350>
    ad64:	00a40433          	add	s0,s0,a0
    ad68:	00040b93          	mv	s7,s0
    ad6c:	0b455663          	bge	a0,s4,ae18 <ee_printf+0x1484>
    ad70:	40aa0a33          	sub	s4,s4,a0
    ad74:	007a7693          	andi	a3,s4,7
    ad78:	014402b3          	add	t0,s0,s4
    ad7c:	02000793          	li	a5,32
    ad80:	06068663          	beqz	a3,adec <ee_printf+0x1458>
    ad84:	00100513          	li	a0,1
    ad88:	04a68c63          	beq	a3,a0,ade0 <ee_printf+0x144c>
    ad8c:	00200613          	li	a2,2
    ad90:	04c68463          	beq	a3,a2,add8 <ee_printf+0x1444>
    ad94:	00300c93          	li	s9,3
    ad98:	03968c63          	beq	a3,s9,add0 <ee_printf+0x143c>
    ad9c:	00400e93          	li	t4,4
    ada0:	03d68463          	beq	a3,t4,adc8 <ee_printf+0x1434>
    ada4:	00500b13          	li	s6,5
    ada8:	01668c63          	beq	a3,s6,adc0 <ee_printf+0x142c>
    adac:	00600893          	li	a7,6
    adb0:	01168463          	beq	a3,a7,adb8 <ee_printf+0x1424>
    adb4:	0d00106f          	j	be84 <ee_printf+0x24f0>
    adb8:	00f40023          	sb	a5,0(s0)
    adbc:	00140413          	addi	s0,s0,1
    adc0:	00f40023          	sb	a5,0(s0)
    adc4:	00140413          	addi	s0,s0,1
    adc8:	00f40023          	sb	a5,0(s0)
    adcc:	00140413          	addi	s0,s0,1
    add0:	00f40023          	sb	a5,0(s0)
    add4:	00140413          	addi	s0,s0,1
    add8:	00f40023          	sb	a5,0(s0)
    addc:	00140413          	addi	s0,s0,1
    ade0:	00140413          	addi	s0,s0,1
    ade4:	fef40fa3          	sb	a5,-1(s0)
    ade8:	02540663          	beq	s0,t0,ae14 <ee_printf+0x1480>
    adec:	00f40023          	sb	a5,0(s0)
    adf0:	00f400a3          	sb	a5,1(s0)
    adf4:	00f40123          	sb	a5,2(s0)
    adf8:	00f401a3          	sb	a5,3(s0)
    adfc:	00f40223          	sb	a5,4(s0)
    ae00:	00f402a3          	sb	a5,5(s0)
    ae04:	00f40323          	sb	a5,6(s0)
    ae08:	00f403a3          	sb	a5,7(s0)
    ae0c:	00840413          	addi	s0,s0,8
    ae10:	fc541ee3          	bne	s0,t0,adec <ee_printf+0x1458>
    ae14:	014b8433          	add	s0,s7,s4
    ae18:	001a8513          	addi	a0,s5,1
    ae1c:	c15fe06f          	j	9a30 <ee_printf+0x9c>
    ae20:	06c00793          	li	a5,108
    ae24:	00082b83          	lw	s7,0(a6)
    ae28:	0105f313          	andi	t1,a1,16
    ae2c:	00480813          	addi	a6,a6,4
    ae30:	1cfe82e3          	beq	t4,a5,b7f4 <ee_printf+0x1e60>
    ae34:	0405eb13          	ori	s6,a1,64
    ae38:	5e0314e3          	bnez	t1,bc20 <ee_printf+0x228c>
    ae3c:	001b7e93          	andi	t4,s6,1
    ae40:	000e9463          	bnez	t4,ae48 <ee_printf+0x14b4>
    ae44:	6000106f          	j	c444 <ee_printf+0x2ab0>
    ae48:	020b7713          	andi	a4,s6,32
    ae4c:	00071463          	bnez	a4,ae54 <ee_printf+0x14c0>
    ae50:	4840106f          	j	c2d4 <ee_printf+0x2940>
    ae54:	0000d637          	lui	a2,0xd
    ae58:	c0060693          	addi	a3,a2,-1024 # cc00 <__modsi3+0x6fc>
    ae5c:	01000c13          	li	s8,16
    ae60:	03000613          	li	a2,48
    ae64:	4410006f          	j	baa4 <ee_printf+0x2110>
    ae68:	06c00713          	li	a4,108
    ae6c:	0405e593          	ori	a1,a1,64
    ae70:	b2ee94e3          	bne	t4,a4,a998 <ee_printf+0x1004>
    ae74:	0000dc37          	lui	s8,0xd
    ae78:	00082b83          	lw	s7,0(a6)
    ae7c:	c00c0693          	addi	a3,s8,-1024 # cc00 <__modsi3+0x6fc>
    ae80:	00480813          	addi	a6,a6,4
    ae84:	000bce03          	lbu	t3,0(s7)
    ae88:	001bc383          	lbu	t2,1(s7)
    ae8c:	002bc283          	lbu	t0,2(s7)
    ae90:	003bc503          	lbu	a0,3(s7)
    ae94:	005bc703          	lbu	a4,5(s7)
    ae98:	004bc603          	lbu	a2,4(s7)
    ae9c:	0043db13          	srli	s6,t2,0x4
    aea0:	00475893          	srli	a7,a4,0x4
    aea4:	004e5313          	srli	t1,t3,0x4
    aea8:	00f3fe93          	andi	t4,t2,15
    aeac:	0042df93          	srli	t6,t0,0x4
    aeb0:	00f2fc13          	andi	s8,t0,15
    aeb4:	00455393          	srli	t2,a0,0x4
    aeb8:	00465b93          	srli	s7,a2,0x4
    aebc:	00f57513          	andi	a0,a0,15
    aec0:	0105fc93          	andi	s9,a1,16
    aec4:	00f67613          	andi	a2,a2,15
    aec8:	00fe7593          	andi	a1,t3,15
    aecc:	00f77713          	andi	a4,a4,15
    aed0:	8166ce0b          	th.lrbu	t3,a3,s6,0
    aed4:	8186c28b          	th.lrbu	t0,a3,s8,0
    aed8:	80a6cb0b          	th.lrbu	s6,a3,a0,0
    aedc:	8066c30b          	th.lrbu	t1,a3,t1,0
    aee0:	8116c50b          	th.lrbu	a0,a3,a7,0
    aee4:	80b6c58b          	th.lrbu	a1,a3,a1,0
    aee8:	81d6ce8b          	th.lrbu	t4,a3,t4,0
    aeec:	81f6cf8b          	th.lrbu	t6,a3,t6,0
    aef0:	8076c38b          	th.lrbu	t2,a3,t2,0
    aef4:	8176cb8b          	th.lrbu	s7,a3,s7,0
    aef8:	80c6cc0b          	th.lrbu	s8,a3,a2,0
    aefc:	80e6c88b          	th.lrbu	a7,a3,a4,0
    af00:	0c0c9a63          	bnez	s9,afd4 <ee_printf+0x1640>
    af04:	01100693          	li	a3,17
    af08:	0146c463          	blt	a3,s4,af10 <ee_printf+0x157c>
    af0c:	44c0106f          	j	c358 <ee_printf+0x29c4>
    af10:	fefa0c93          	addi	s9,s4,-17
    af14:	01940733          	add	a4,s0,s9
    af18:	00e12623          	sw	a4,12(sp)
    af1c:	007cf613          	andi	a2,s9,7
    af20:	00040713          	mv	a4,s0
    af24:	02000693          	li	a3,32
    af28:	06060a63          	beqz	a2,af9c <ee_printf+0x1608>
    af2c:	00100c93          	li	s9,1
    af30:	05960e63          	beq	a2,s9,af8c <ee_printf+0x15f8>
    af34:	00200c93          	li	s9,2
    af38:	05960663          	beq	a2,s9,af84 <ee_printf+0x15f0>
    af3c:	00300c93          	li	s9,3
    af40:	03960e63          	beq	a2,s9,af7c <ee_printf+0x15e8>
    af44:	00400c93          	li	s9,4
    af48:	03960663          	beq	a2,s9,af74 <ee_printf+0x15e0>
    af4c:	00500c93          	li	s9,5
    af50:	01960e63          	beq	a2,s9,af6c <ee_printf+0x15d8>
    af54:	00600c93          	li	s9,6
    af58:	01960663          	beq	a2,s9,af64 <ee_printf+0x15d0>
    af5c:	00140713          	addi	a4,s0,1
    af60:	00d40023          	sb	a3,0(s0)
    af64:	00d70023          	sb	a3,0(a4)
    af68:	00170713          	addi	a4,a4,1
    af6c:	00d70023          	sb	a3,0(a4)
    af70:	00170713          	addi	a4,a4,1
    af74:	00d70023          	sb	a3,0(a4)
    af78:	00170713          	addi	a4,a4,1
    af7c:	00d70023          	sb	a3,0(a4)
    af80:	00170713          	addi	a4,a4,1
    af84:	00d70023          	sb	a3,0(a4)
    af88:	00170713          	addi	a4,a4,1
    af8c:	00c12603          	lw	a2,12(sp)
    af90:	00170713          	addi	a4,a4,1
    af94:	fed70fa3          	sb	a3,-1(a4)
    af98:	02c70863          	beq	a4,a2,afc8 <ee_printf+0x1634>
    af9c:	00c12c83          	lw	s9,12(sp)
    afa0:	00d70023          	sb	a3,0(a4)
    afa4:	00d700a3          	sb	a3,1(a4)
    afa8:	00d70123          	sb	a3,2(a4)
    afac:	00d701a3          	sb	a3,3(a4)
    afb0:	00d70223          	sb	a3,4(a4)
    afb4:	00d702a3          	sb	a3,5(a4)
    afb8:	00d70323          	sb	a3,6(a4)
    afbc:	00d703a3          	sb	a3,7(a4)
    afc0:	00870713          	addi	a4,a4,8
    afc4:	fd971ce3          	bne	a4,s9,af9c <ee_printf+0x1608>
    afc8:	fef40413          	addi	s0,s0,-17
    afcc:	01440433          	add	s0,s0,s4
    afd0:	01000a13          	li	s4,16
    afd4:	00640023          	sb	t1,0(s0)
    afd8:	03a00313          	li	t1,58
    afdc:	00b400a3          	sb	a1,1(s0)
    afe0:	01c401a3          	sb	t3,3(s0)
    afe4:	01140593          	addi	a1,s0,17
    afe8:	01d40223          	sb	t4,4(s0)
    afec:	01f40323          	sb	t6,6(s0)
    aff0:	005403a3          	sb	t0,7(s0)
    aff4:	007404a3          	sb	t2,9(s0)
    aff8:	01640523          	sb	s6,10(s0)
    affc:	01740623          	sb	s7,12(s0)
    b000:	018406a3          	sb	s8,13(s0)
    b004:	00a407a3          	sb	a0,15(s0)
    b008:	01140823          	sb	a7,16(s0)
    b00c:	00640123          	sb	t1,2(s0)
    b010:	006402a3          	sb	t1,5(s0)
    b014:	00640423          	sb	t1,8(s0)
    b018:	006405a3          	sb	t1,11(s0)
    b01c:	00640723          	sb	t1,14(s0)
    b020:	01100e13          	li	t3,17
    b024:	00058713          	mv	a4,a1
    b028:	014e4463          	blt	t3,s4,b030 <ee_printf+0x169c>
    b02c:	2840106f          	j	c2b0 <ee_printf+0x291c>
    b030:	01440eb3          	add	t4,s0,s4
    b034:	40be8fb3          	sub	t6,t4,a1
    b038:	007ff293          	andi	t0,t6,7
    b03c:	02000393          	li	t2,32
    b040:	06028863          	beqz	t0,b0b0 <ee_printf+0x171c>
    b044:	00100b13          	li	s6,1
    b048:	05628e63          	beq	t0,s6,b0a4 <ee_printf+0x1710>
    b04c:	00200b93          	li	s7,2
    b050:	05728663          	beq	t0,s7,b09c <ee_printf+0x1708>
    b054:	00300c13          	li	s8,3
    b058:	03828e63          	beq	t0,s8,b094 <ee_printf+0x1700>
    b05c:	00400513          	li	a0,4
    b060:	02a28663          	beq	t0,a0,b08c <ee_printf+0x16f8>
    b064:	00500893          	li	a7,5
    b068:	01128e63          	beq	t0,a7,b084 <ee_printf+0x16f0>
    b06c:	00600693          	li	a3,6
    b070:	00d28663          	beq	t0,a3,b07c <ee_printf+0x16e8>
    b074:	01240713          	addi	a4,s0,18
    b078:	007408a3          	sb	t2,17(s0)
    b07c:	00770023          	sb	t2,0(a4)
    b080:	00170713          	addi	a4,a4,1
    b084:	00770023          	sb	t2,0(a4)
    b088:	00170713          	addi	a4,a4,1
    b08c:	00770023          	sb	t2,0(a4)
    b090:	00170713          	addi	a4,a4,1
    b094:	00770023          	sb	t2,0(a4)
    b098:	00170713          	addi	a4,a4,1
    b09c:	00770023          	sb	t2,0(a4)
    b0a0:	00170713          	addi	a4,a4,1
    b0a4:	00170713          	addi	a4,a4,1
    b0a8:	fe770fa3          	sb	t2,-1(a4)
    b0ac:	03d70663          	beq	a4,t4,b0d8 <ee_printf+0x1744>
    b0b0:	00770023          	sb	t2,0(a4)
    b0b4:	007700a3          	sb	t2,1(a4)
    b0b8:	00770123          	sb	t2,2(a4)
    b0bc:	007701a3          	sb	t2,3(a4)
    b0c0:	00770223          	sb	t2,4(a4)
    b0c4:	007702a3          	sb	t2,5(a4)
    b0c8:	00770323          	sb	t2,6(a4)
    b0cc:	007703a3          	sb	t2,7(a4)
    b0d0:	00870713          	addi	a4,a4,8
    b0d4:	fdd71ee3          	bne	a4,t4,b0b0 <ee_printf+0x171c>
    b0d8:	fefa0a13          	addi	s4,s4,-17
    b0dc:	00ba0433          	add	s0,s4,a1
    b0e0:	00278513          	addi	a0,a5,2
    b0e4:	94dfe06f          	j	9a30 <ee_printf+0x9c>
    b0e8:	0405e593          	ori	a1,a1,64
    b0ec:	00078a93          	mv	s5,a5
    b0f0:	8a9ff06f          	j	a998 <ee_printf+0x1004>
    b0f4:	6d4cdce3          	bge	s9,s4,bfcc <ee_printf+0x2638>
    b0f8:	419a02b3          	sub	t0,s4,s9
    b0fc:	0072fb13          	andi	s6,t0,7
    b100:	00540633          	add	a2,s0,t0
    b104:	00040693          	mv	a3,s0
    b108:	02000313          	li	t1,32
    b10c:	060b0863          	beqz	s6,b17c <ee_printf+0x17e8>
    b110:	00100393          	li	t2,1
    b114:	047b0e63          	beq	s6,t2,b170 <ee_printf+0x17dc>
    b118:	00200713          	li	a4,2
    b11c:	04eb0663          	beq	s6,a4,b168 <ee_printf+0x17d4>
    b120:	00300513          	li	a0,3
    b124:	02ab0e63          	beq	s6,a0,b160 <ee_printf+0x17cc>
    b128:	00400e13          	li	t3,4
    b12c:	03cb0663          	beq	s6,t3,b158 <ee_printf+0x17c4>
    b130:	00500b93          	li	s7,5
    b134:	017b0e63          	beq	s6,s7,b150 <ee_printf+0x17bc>
    b138:	00600593          	li	a1,6
    b13c:	00bb0663          	beq	s6,a1,b148 <ee_printf+0x17b4>
    b140:	00140693          	addi	a3,s0,1
    b144:	00640023          	sb	t1,0(s0)
    b148:	00668023          	sb	t1,0(a3)
    b14c:	00168693          	addi	a3,a3,1
    b150:	00668023          	sb	t1,0(a3)
    b154:	00168693          	addi	a3,a3,1
    b158:	00668023          	sb	t1,0(a3)
    b15c:	00168693          	addi	a3,a3,1
    b160:	00668023          	sb	t1,0(a3)
    b164:	00168693          	addi	a3,a3,1
    b168:	00668023          	sb	t1,0(a3)
    b16c:	00168693          	addi	a3,a3,1
    b170:	00168693          	addi	a3,a3,1
    b174:	fe668fa3          	sb	t1,-1(a3)
    b178:	02c68663          	beq	a3,a2,b1a4 <ee_printf+0x1810>
    b17c:	00668023          	sb	t1,0(a3)
    b180:	006680a3          	sb	t1,1(a3)
    b184:	00668123          	sb	t1,2(a3)
    b188:	006681a3          	sb	t1,3(a3)
    b18c:	00668223          	sb	t1,4(a3)
    b190:	006682a3          	sb	t1,5(a3)
    b194:	00668323          	sb	t1,6(a3)
    b198:	006683a3          	sb	t1,7(a3)
    b19c:	00868693          	addi	a3,a3,8
    b1a0:	fcc69ee3          	bne	a3,a2,b17c <ee_printf+0x17e8>
    b1a4:	01440433          	add	s0,s0,s4
    b1a8:	41940433          	sub	s0,s0,s9
    b1ac:	fffc8a13          	addi	s4,s9,-1
    b1b0:	8b0ff06f          	j	a260 <ee_printf+0x8cc>
    b1b4:	06300c13          	li	s8,99
    b1b8:	086c5ae3          	bge	s8,t1,ba4c <ee_printf+0x20b8>
    b1bc:	51eb8c37          	lui	s8,0x51eb8
    b1c0:	51fc0e13          	addi	t3,s8,1311 # 51eb851f <_stack_top+0x51ea451f>
    b1c4:	03c332b3          	mulhu	t0,t1,t3
    b1c8:	450b8793          	addi	a5,s7,1104
    b1cc:	003b0b93          	addi	s7,s6,3
    b1d0:	ccccdb37          	lui	s6,0xccccd
    b1d4:	0000d3b7          	lui	t2,0xd
    b1d8:	ccdb0893          	addi	a7,s6,-819 # cccccccd <_stack_top+0xcccb8ccd>
    b1dc:	bd838e93          	addi	t4,t2,-1064 # cbd8 <__modsi3+0x6d4>
    b1e0:	00278633          	add	a2,a5,sp
    b1e4:	00250533          	add	a0,a0,sp
    b1e8:	0052d713          	srli	a4,t0,0x5
    b1ec:	20e74c33          	sh2add	s8,a4,a4
    b1f0:	218c4e33          	sh2add	t3,s8,s8
    b1f4:	002e1293          	slli	t0,t3,0x2
    b1f8:	40530333          	sub	t1,t1,t0
    b1fc:	031333b3          	mulhu	t2,t1,a7
    b200:	80eec68b          	th.lrbu	a3,t4,a4,0
    b204:	bed60e23          	sb	a3,-1028(a2)
    b208:	0033d793          	srli	a5,t2,0x3
    b20c:	80fecf8b          	th.lrbu	t6,t4,a5,0
    b210:	20f7c633          	sh2add	a2,a5,a5
    b214:	00161c93          	slli	s9,a2,0x1
    b218:	05f50623          	sb	t6,76(a0)
    b21c:	41930333          	sub	t1,t1,s9
    b220:	806ece8b          	th.lrbu	t4,t4,t1,0
    b224:	002b88b3          	add	a7,s7,sp
    b228:	0105f593          	andi	a1,a1,16
    b22c:	05d88623          	sb	t4,76(a7)
    b230:	001b8513          	addi	a0,s7,1
    b234:	a00590e3          	bnez	a1,ac34 <ee_printf+0x12a0>
    b238:	954542e3          	blt	a0,s4,ab7c <ee_printf+0x11e8>
    b23c:	fffa0a13          	addi	s4,s4,-1
    b240:	9f5ff06f          	j	ac34 <ee_printf+0x12a0>
    b244:	00250bb3          	add	s7,a0,sp
    b248:	03000613          	li	a2,48
    b24c:	04cb8623          	sb	a2,76(s7)
    b250:	8f5ff06f          	j	ab44 <ee_printf+0x11b0>
    b254:	002883b3          	add	t2,a7,sp
    b258:	03000693          	li	a3,48
    b25c:	04d38623          	sb	a3,76(t2)
    b260:	851ff06f          	j	aab0 <ee_printf+0x111c>
    b264:	03000313          	li	t1,48
    b268:	04610623          	sb	t1,76(sp)
    b26c:	00100b13          	li	s6,1
    b270:	facff06f          	j	aa1c <ee_printf+0x1088>
    b274:	09010a93          	addi	s5,sp,144
    b278:	000a8793          	mv	a5,s5
    b27c:	00078023          	sb	zero,0(a5)
    b280:	09014503          	lbu	a0,144(sp)
    b284:	00050463          	beqz	a0,b28c <ee_printf+0x18f8>
    b288:	ff4fe06f          	j	9a7c <ee_printf+0xe8>
    b28c:	4cc12083          	lw	ra,1228(sp)
    b290:	4b412a83          	lw	s5,1204(sp)
    b294:	00000513          	li	a0,0
    b298:	4f010113          	addi	sp,sp,1264
    b29c:	00008067          	ret
    b2a0:	0000d8b7          	lui	a7,0xd
    b2a4:	bd888393          	addi	t2,a7,-1064 # cbd8 <__modsi3+0x6d4>
    b2a8:	00fb7293          	andi	t0,s6,15
    b2ac:	8053c30b          	th.lrbu	t1,t2,t0,0
    b2b0:	00100813          	li	a6,1
    b2b4:	04c10e13          	addi	t3,sp,76
    b2b8:	010e0733          	add	a4,t3,a6
    b2bc:	fe670fa3          	sb	t1,-1(a4)
    b2c0:	004b5793          	srli	a5,s6,0x4
    b2c4:	00080b93          	mv	s7,a6
    b2c8:	00000513          	li	a0,0
    b2cc:	0c078c63          	beqz	a5,b3a4 <ee_printf+0x1a10>
    b2d0:	00f7f513          	andi	a0,a5,15
    b2d4:	80a3c68b          	th.lrbu	a3,t2,a0,0
    b2d8:	00080513          	mv	a0,a6
    b2dc:	00180813          	addi	a6,a6,1
    b2e0:	010e08b3          	add	a7,t3,a6
    b2e4:	fed88fa3          	sb	a3,-1(a7)
    b2e8:	008b5293          	srli	t0,s6,0x8
    b2ec:	0a028c63          	beqz	t0,b3a4 <ee_printf+0x1a10>
    b2f0:	00f2f313          	andi	t1,t0,15
    b2f4:	8063c70b          	th.lrbu	a4,t2,t1,0
    b2f8:	00080513          	mv	a0,a6
    b2fc:	002b8813          	addi	a6,s7,2
    b300:	010e07b3          	add	a5,t3,a6
    b304:	fee78fa3          	sb	a4,-1(a5)
    b308:	00cb5693          	srli	a3,s6,0xc
    b30c:	08068c63          	beqz	a3,b3a4 <ee_printf+0x1a10>
    b310:	00f6f513          	andi	a0,a3,15
    b314:	80a3c88b          	th.lrbu	a7,t2,a0,0
    b318:	00080513          	mv	a0,a6
    b31c:	003b8813          	addi	a6,s7,3
    b320:	010e02b3          	add	t0,t3,a6
    b324:	ff128fa3          	sb	a7,-1(t0)
    b328:	010b5313          	srli	t1,s6,0x10
    b32c:	06030c63          	beqz	t1,b3a4 <ee_printf+0x1a10>
    b330:	00f37713          	andi	a4,t1,15
    b334:	80e3c78b          	th.lrbu	a5,t2,a4,0
    b338:	00080513          	mv	a0,a6
    b33c:	004b8813          	addi	a6,s7,4
    b340:	010e06b3          	add	a3,t3,a6
    b344:	fef68fa3          	sb	a5,-1(a3)
    b348:	014b5893          	srli	a7,s6,0x14
    b34c:	04088c63          	beqz	a7,b3a4 <ee_printf+0x1a10>
    b350:	00f8f513          	andi	a0,a7,15
    b354:	80a3c28b          	th.lrbu	t0,t2,a0,0
    b358:	00080513          	mv	a0,a6
    b35c:	005b8813          	addi	a6,s7,5
    b360:	010e0333          	add	t1,t3,a6
    b364:	fe530fa3          	sb	t0,-1(t1)
    b368:	018b5713          	srli	a4,s6,0x18
    b36c:	02070c63          	beqz	a4,b3a4 <ee_printf+0x1a10>
    b370:	00f77793          	andi	a5,a4,15
    b374:	80f3c68b          	th.lrbu	a3,t2,a5,0
    b378:	00080513          	mv	a0,a6
    b37c:	006b8813          	addi	a6,s7,6
    b380:	010e08b3          	add	a7,t3,a6
    b384:	01cb5b13          	srli	s6,s6,0x1c
    b388:	fed88fa3          	sb	a3,-1(a7)
    b38c:	000b0c63          	beqz	s6,b3a4 <ee_printf+0x1a10>
    b390:	8163c38b          	th.lrbu	t2,t2,s6,0
    b394:	00080513          	mv	a0,a6
    b398:	007b8813          	addi	a6,s7,7
    b39c:	010e0e33          	add	t3,t3,a6
    b3a0:	fe7e0fa3          	sb	t2,-1(t3)
    b3a4:	0b0ce8b3          	max	a7,s9,a6
    b3a8:	411a0a33          	sub	s4,s4,a7
    b3ac:	0c0c0a63          	beqz	s8,b480 <ee_printf+0x1aec>
    b3b0:	300e98e3          	bnez	t4,bec0 <ee_printf+0x252c>
    b3b4:	00040b93          	mv	s7,s0
    b3b8:	0105f413          	andi	s0,a1,16
    b3bc:	7a041863          	bnez	s0,bb6c <ee_printf+0x21d8>
    b3c0:	014b8433          	add	s0,s7,s4
    b3c4:	000b8793          	mv	a5,s7
    b3c8:	01404463          	bgtz	s4,b3d0 <ee_printf+0x1a3c>
    b3cc:	00c0106f          	j	c3d8 <ee_printf+0x2a44>
    b3d0:	41740a33          	sub	s4,s0,s7
    b3d4:	007a7313          	andi	t1,s4,7
    b3d8:	06030863          	beqz	t1,b448 <ee_printf+0x1ab4>
    b3dc:	00100713          	li	a4,1
    b3e0:	04e30e63          	beq	t1,a4,b43c <ee_printf+0x1aa8>
    b3e4:	00200693          	li	a3,2
    b3e8:	04d30663          	beq	t1,a3,b434 <ee_printf+0x1aa0>
    b3ec:	00300b13          	li	s6,3
    b3f0:	03630e63          	beq	t1,s6,b42c <ee_printf+0x1a98>
    b3f4:	00400393          	li	t2,4
    b3f8:	02730663          	beq	t1,t2,b424 <ee_printf+0x1a90>
    b3fc:	00500e13          	li	t3,5
    b400:	01c30e63          	beq	t1,t3,b41c <ee_printf+0x1a88>
    b404:	00600c13          	li	s8,6
    b408:	01830663          	beq	t1,s8,b414 <ee_printf+0x1a80>
    b40c:	01fb8023          	sb	t6,0(s7)
    b410:	001b8793          	addi	a5,s7,1
    b414:	01f78023          	sb	t6,0(a5)
    b418:	00178793          	addi	a5,a5,1
    b41c:	01f78023          	sb	t6,0(a5)
    b420:	00178793          	addi	a5,a5,1
    b424:	01f78023          	sb	t6,0(a5)
    b428:	00178793          	addi	a5,a5,1
    b42c:	01f78023          	sb	t6,0(a5)
    b430:	00178793          	addi	a5,a5,1
    b434:	01f78023          	sb	t6,0(a5)
    b438:	00178793          	addi	a5,a5,1
    b43c:	00178793          	addi	a5,a5,1
    b440:	fff78fa3          	sb	t6,-1(a5)
    b444:	02878663          	beq	a5,s0,b470 <ee_printf+0x1adc>
    b448:	01f78023          	sb	t6,0(a5)
    b44c:	01f780a3          	sb	t6,1(a5)
    b450:	01f78123          	sb	t6,2(a5)
    b454:	01f781a3          	sb	t6,3(a5)
    b458:	01f78223          	sb	t6,4(a5)
    b45c:	01f782a3          	sb	t6,5(a5)
    b460:	01f78323          	sb	t6,6(a5)
    b464:	01f783a3          	sb	t6,7(a5)
    b468:	00878793          	addi	a5,a5,8
    b46c:	fc879ee3          	bne	a5,s0,b448 <ee_printf+0x1ab4>
    b470:	00040b93          	mv	s7,s0
    b474:	6d985ce3          	bge	a6,s9,c34c <ee_printf+0x29b8>
    b478:	fff00a13          	li	s4,-1
    b47c:	0c80006f          	j	b544 <ee_printf+0x1bb0>
    b480:	35405ae3          	blez	s4,bfd4 <ee_printf+0x2640>
    b484:	01440fb3          	add	t6,s0,s4
    b488:	408f8bb3          	sub	s7,t6,s0
    b48c:	007bf293          	andi	t0,s7,7
    b490:	02000a13          	li	s4,32
    b494:	06028863          	beqz	t0,b504 <ee_printf+0x1b70>
    b498:	00100313          	li	t1,1
    b49c:	04628e63          	beq	t0,t1,b4f8 <ee_printf+0x1b64>
    b4a0:	00200713          	li	a4,2
    b4a4:	04e28663          	beq	t0,a4,b4f0 <ee_printf+0x1b5c>
    b4a8:	00300693          	li	a3,3
    b4ac:	02d28e63          	beq	t0,a3,b4e8 <ee_printf+0x1b54>
    b4b0:	00400b13          	li	s6,4
    b4b4:	03628663          	beq	t0,s6,b4e0 <ee_printf+0x1b4c>
    b4b8:	00500393          	li	t2,5
    b4bc:	00728e63          	beq	t0,t2,b4d8 <ee_printf+0x1b44>
    b4c0:	00600e13          	li	t3,6
    b4c4:	01c28663          	beq	t0,t3,b4d0 <ee_printf+0x1b3c>
    b4c8:	01440023          	sb	s4,0(s0)
    b4cc:	00140413          	addi	s0,s0,1
    b4d0:	01440023          	sb	s4,0(s0)
    b4d4:	00140413          	addi	s0,s0,1
    b4d8:	01440023          	sb	s4,0(s0)
    b4dc:	00140413          	addi	s0,s0,1
    b4e0:	01440023          	sb	s4,0(s0)
    b4e4:	00140413          	addi	s0,s0,1
    b4e8:	01440023          	sb	s4,0(s0)
    b4ec:	00140413          	addi	s0,s0,1
    b4f0:	01440023          	sb	s4,0(s0)
    b4f4:	00140413          	addi	s0,s0,1
    b4f8:	00140413          	addi	s0,s0,1
    b4fc:	ff440fa3          	sb	s4,-1(s0)
    b500:	03f40663          	beq	s0,t6,b52c <ee_printf+0x1b98>
    b504:	01440023          	sb	s4,0(s0)
    b508:	014400a3          	sb	s4,1(s0)
    b50c:	01440123          	sb	s4,2(s0)
    b510:	014401a3          	sb	s4,3(s0)
    b514:	01440223          	sb	s4,4(s0)
    b518:	014402a3          	sb	s4,5(s0)
    b51c:	01440323          	sb	s4,6(s0)
    b520:	014403a3          	sb	s4,7(s0)
    b524:	00840413          	addi	s0,s0,8
    b528:	fdf41ee3          	bne	s0,t6,b504 <ee_printf+0x1b70>
    b52c:	000f8b93          	mv	s7,t6
    b530:	600e9e63          	bnez	t4,bb4c <ee_printf+0x21b8>
    b534:	0105f593          	andi	a1,a1,16
    b538:	540592e3          	bnez	a1,c27c <ee_printf+0x28e8>
    b53c:	ffe00a13          	li	s4,-2
    b540:	699852e3          	bge	a6,s9,c3c4 <ee_printf+0x2a30>
    b544:	001b8c13          	addi	s8,s7,1
    b548:	fff84c93          	not	s9,a6
    b54c:	03000f93          	li	t6,48
    b550:	017882b3          	add	t0,a7,s7
    b554:	01988333          	add	t1,a7,s9
    b558:	fffc0fa3          	sb	t6,-1(s8)
    b55c:	41828733          	sub	a4,t0,s8
    b560:	00737693          	andi	a3,t1,7
    b564:	0ae85263          	bge	a6,a4,b608 <ee_printf+0x1c74>
    b568:	06068a63          	beqz	a3,b5dc <ee_printf+0x1c48>
    b56c:	00100b13          	li	s6,1
    b570:	05668e63          	beq	a3,s6,b5cc <ee_printf+0x1c38>
    b574:	00200393          	li	t2,2
    b578:	04768663          	beq	a3,t2,b5c4 <ee_printf+0x1c30>
    b57c:	00300e13          	li	t3,3
    b580:	03c68e63          	beq	a3,t3,b5bc <ee_printf+0x1c28>
    b584:	00400413          	li	s0,4
    b588:	02868663          	beq	a3,s0,b5b4 <ee_printf+0x1c20>
    b58c:	00500593          	li	a1,5
    b590:	00b68e63          	beq	a3,a1,b5ac <ee_printf+0x1c18>
    b594:	00600e93          	li	t4,6
    b598:	01d68663          	beq	a3,t4,b5a4 <ee_printf+0x1c10>
    b59c:	002b8c13          	addi	s8,s7,2
    b5a0:	01fb80a3          	sb	t6,1(s7)
    b5a4:	01fc0023          	sb	t6,0(s8)
    b5a8:	001c0c13          	addi	s8,s8,1
    b5ac:	01fc0023          	sb	t6,0(s8)
    b5b0:	001c0c13          	addi	s8,s8,1
    b5b4:	01fc0023          	sb	t6,0(s8)
    b5b8:	001c0c13          	addi	s8,s8,1
    b5bc:	01fc0023          	sb	t6,0(s8)
    b5c0:	001c0c13          	addi	s8,s8,1
    b5c4:	01fc0023          	sb	t6,0(s8)
    b5c8:	001c0c13          	addi	s8,s8,1
    b5cc:	001c0c13          	addi	s8,s8,1
    b5d0:	418287b3          	sub	a5,t0,s8
    b5d4:	fffc0fa3          	sb	t6,-1(s8)
    b5d8:	02f85863          	bge	a6,a5,b608 <ee_printf+0x1c74>
    b5dc:	01fc0023          	sb	t6,0(s8)
    b5e0:	01fc00a3          	sb	t6,1(s8)
    b5e4:	01fc0123          	sb	t6,2(s8)
    b5e8:	01fc01a3          	sb	t6,3(s8)
    b5ec:	01fc0223          	sb	t6,4(s8)
    b5f0:	01fc02a3          	sb	t6,5(s8)
    b5f4:	01fc0323          	sb	t6,6(s8)
    b5f8:	008c0c13          	addi	s8,s8,8
    b5fc:	41828cb3          	sub	s9,t0,s8
    b600:	fffc0fa3          	sb	t6,-1(s8)
    b604:	fd984ce3          	blt	a6,s9,b5dc <ee_printf+0x1c48>
    b608:	41088fb3          	sub	t6,a7,a6
    b60c:	ffff8293          	addi	t0,t6,-1
    b610:	01182333          	slt	t1,a6,a7
    b614:	4060128b          	th.mveqz	t0,zero,t1
    b618:	00128713          	addi	a4,t0,1
    b61c:	01770433          	add	s0,a4,s7
    b620:	10080c63          	beqz	a6,b738 <ee_printf+0x1da4>
    b624:	04c10813          	addi	a6,sp,76
    b628:	00a807b3          	add	a5,a6,a0
    b62c:	04b10b93          	addi	s7,sp,75
    b630:	417786b3          	sub	a3,a5,s7
    b634:	0076fb13          	andi	s6,a3,7
    b638:	00040713          	mv	a4,s0
    b63c:	0a0b0463          	beqz	s6,b6e4 <ee_printf+0x1d50>
    b640:	00100393          	li	t2,1
    b644:	087b0663          	beq	s6,t2,b6d0 <ee_printf+0x1d3c>
    b648:	00200e13          	li	t3,2
    b64c:	07cb0a63          	beq	s6,t3,b6c0 <ee_printf+0x1d2c>
    b650:	00300593          	li	a1,3
    b654:	04bb0e63          	beq	s6,a1,b6b0 <ee_printf+0x1d1c>
    b658:	00400e93          	li	t4,4
    b65c:	05db0263          	beq	s6,t4,b6a0 <ee_printf+0x1d0c>
    b660:	00500c13          	li	s8,5
    b664:	038b0663          	beq	s6,s8,b690 <ee_printf+0x1cfc>
    b668:	00600893          	li	a7,6
    b66c:	011b0a63          	beq	s6,a7,b680 <ee_printf+0x1cec>
    b670:	80a84c8b          	th.lrbu	s9,a6,a0,0
    b674:	00140713          	addi	a4,s0,1
    b678:	fff78793          	addi	a5,a5,-1
    b67c:	01940023          	sb	s9,0(s0)
    b680:	0007cf83          	lbu	t6,0(a5)
    b684:	00170713          	addi	a4,a4,1
    b688:	fff78793          	addi	a5,a5,-1
    b68c:	fff70fa3          	sb	t6,-1(a4)
    b690:	0007c283          	lbu	t0,0(a5)
    b694:	00170713          	addi	a4,a4,1
    b698:	fff78793          	addi	a5,a5,-1
    b69c:	fe570fa3          	sb	t0,-1(a4)
    b6a0:	0007c303          	lbu	t1,0(a5)
    b6a4:	00170713          	addi	a4,a4,1
    b6a8:	fff78793          	addi	a5,a5,-1
    b6ac:	fe670fa3          	sb	t1,-1(a4)
    b6b0:	0007c803          	lbu	a6,0(a5)
    b6b4:	00170713          	addi	a4,a4,1
    b6b8:	fff78793          	addi	a5,a5,-1
    b6bc:	ff070fa3          	sb	a6,-1(a4)
    b6c0:	0007c683          	lbu	a3,0(a5)
    b6c4:	00170713          	addi	a4,a4,1
    b6c8:	fff78793          	addi	a5,a5,-1
    b6cc:	fed70fa3          	sb	a3,-1(a4)
    b6d0:	0007cb03          	lbu	s6,0(a5)
    b6d4:	fff78793          	addi	a5,a5,-1
    b6d8:	00170713          	addi	a4,a4,1
    b6dc:	ff670fa3          	sb	s6,-1(a4)
    b6e0:	04fb8863          	beq	s7,a5,b730 <ee_printf+0x1d9c>
    b6e4:	0007c383          	lbu	t2,0(a5)
    b6e8:	fff7ce03          	lbu	t3,-1(a5)
    b6ec:	ffe7c583          	lbu	a1,-2(a5)
    b6f0:	ffd7ce83          	lbu	t4,-3(a5)
    b6f4:	ffc7cc03          	lbu	s8,-4(a5)
    b6f8:	ffb7c883          	lbu	a7,-5(a5)
    b6fc:	ffa7cc83          	lbu	s9,-6(a5)
    b700:	ff97cf83          	lbu	t6,-7(a5)
    b704:	00770023          	sb	t2,0(a4)
    b708:	01c700a3          	sb	t3,1(a4)
    b70c:	00b70123          	sb	a1,2(a4)
    b710:	01d701a3          	sb	t4,3(a4)
    b714:	01870223          	sb	s8,4(a4)
    b718:	011702a3          	sb	a7,5(a4)
    b71c:	01970323          	sb	s9,6(a4)
    b720:	ff878793          	addi	a5,a5,-8
    b724:	01f703a3          	sb	t6,7(a4)
    b728:	00870713          	addi	a4,a4,8
    b72c:	fafb9ce3          	bne	s7,a5,b6e4 <ee_printf+0x1d50>
    b730:	00150513          	addi	a0,a0,1
    b734:	00a40433          	add	s0,s0,a0
    b738:	0b405863          	blez	s4,b7e8 <ee_printf+0x1e54>
    b73c:	01440a33          	add	s4,s0,s4
    b740:	408a0bb3          	sub	s7,s4,s0
    b744:	007bf293          	andi	t0,s7,7
    b748:	02000313          	li	t1,32
    b74c:	06028863          	beqz	t0,b7bc <ee_printf+0x1e28>
    b750:	00100813          	li	a6,1
    b754:	05028e63          	beq	t0,a6,b7b0 <ee_printf+0x1e1c>
    b758:	00200693          	li	a3,2
    b75c:	04d28663          	beq	t0,a3,b7a8 <ee_printf+0x1e14>
    b760:	00300b13          	li	s6,3
    b764:	03628e63          	beq	t0,s6,b7a0 <ee_printf+0x1e0c>
    b768:	00400713          	li	a4,4
    b76c:	02e28663          	beq	t0,a4,b798 <ee_printf+0x1e04>
    b770:	00500793          	li	a5,5
    b774:	00f28e63          	beq	t0,a5,b790 <ee_printf+0x1dfc>
    b778:	00600393          	li	t2,6
    b77c:	00728663          	beq	t0,t2,b788 <ee_printf+0x1df4>
    b780:	00640023          	sb	t1,0(s0)
    b784:	00140413          	addi	s0,s0,1
    b788:	00640023          	sb	t1,0(s0)
    b78c:	00140413          	addi	s0,s0,1
    b790:	00640023          	sb	t1,0(s0)
    b794:	00140413          	addi	s0,s0,1
    b798:	00640023          	sb	t1,0(s0)
    b79c:	00140413          	addi	s0,s0,1
    b7a0:	00640023          	sb	t1,0(s0)
    b7a4:	00140413          	addi	s0,s0,1
    b7a8:	00640023          	sb	t1,0(s0)
    b7ac:	00140413          	addi	s0,s0,1
    b7b0:	00140413          	addi	s0,s0,1
    b7b4:	fe640fa3          	sb	t1,-1(s0)
    b7b8:	03440663          	beq	s0,s4,b7e4 <ee_printf+0x1e50>
    b7bc:	00640023          	sb	t1,0(s0)
    b7c0:	006400a3          	sb	t1,1(s0)
    b7c4:	00640123          	sb	t1,2(s0)
    b7c8:	006401a3          	sb	t1,3(s0)
    b7cc:	00640223          	sb	t1,4(s0)
    b7d0:	006402a3          	sb	t1,5(s0)
    b7d4:	00640323          	sb	t1,6(s0)
    b7d8:	006403a3          	sb	t1,7(s0)
    b7dc:	00840413          	addi	s0,s0,8
    b7e0:	fd441ee3          	bne	s0,s4,b7bc <ee_printf+0x1e28>
    b7e4:	000a0413          	mv	s0,s4
    b7e8:	00060813          	mv	a6,a2
    b7ec:	001a8513          	addi	a0,s5,1
    b7f0:	a40fe06f          	j	9a30 <ee_printf+0x9c>
    b7f4:	3e030863          	beqz	t1,bbe4 <ee_printf+0x2250>
    b7f8:	ffe5fb13          	andi	s6,a1,-2
    b7fc:	040b6293          	ori	t0,s6,64
    b800:	0202f893          	andi	a7,t0,32
    b804:	20088ee3          	beqz	a7,c220 <ee_printf+0x288c>
    b808:	ffea0a13          	addi	s4,s4,-2
    b80c:	300b92e3          	bnez	s7,c310 <ee_printf+0x297c>
    b810:	00100b13          	li	s6,1
    b814:	03000313          	li	t1,48
    b818:	0b6cec33          	max	s8,s9,s6
    b81c:	04610623          	sb	t1,76(sp)
    b820:	418a0a33          	sub	s4,s4,s8
    b824:	00000393          	li	t2,0
    b828:	01000313          	li	t1,16
    b82c:	02000613          	li	a2,32
    b830:	04c10693          	addi	a3,sp,76
    b834:	03000b93          	li	s7,48
    b838:	07800e93          	li	t4,120
    b83c:	01740023          	sb	s7,0(s0)
    b840:	01d400a3          	sb	t4,1(s0)
    b844:	00240413          	addi	s0,s0,2
    b848:	d84fe06f          	j	9dcc <ee_printf+0x438>
    b84c:	0000d6b7          	lui	a3,0xd
    b850:	00082b83          	lw	s7,0(a6)
    b854:	bd868693          	addi	a3,a3,-1064 # cbd8 <__modsi3+0x6d4>
    b858:	00480813          	addi	a6,a6,4
    b85c:	e28ff06f          	j	ae84 <ee_printf+0x14f0>
    b860:	00082b83          	lw	s7,0(a6)
    b864:	36031463          	bnez	t1,bbcc <ee_printf+0x2238>
    b868:	0015fe13          	andi	t3,a1,1
    b86c:	03000613          	li	a2,48
    b870:	02000593          	li	a1,32
    b874:	00070813          	mv	a6,a4
    b878:	41c5960b          	th.mveqz	a2,a1,t3
    b87c:	01157e93          	andi	t4,a0,17
    b880:	780bc663          	bltz	s7,c00c <ee_printf+0x2678>
    b884:	00457293          	andi	t0,a0,4
    b888:	7a028463          	beqz	t0,c030 <ee_printf+0x269c>
    b88c:	fffa0a13          	addi	s4,s4,-1
    b890:	02b00293          	li	t0,43
    b894:	00a00c13          	li	s8,10
    b898:	02057893          	andi	a7,a0,32
    b89c:	000c0f93          	mv	t6,s8
    b8a0:	7a0b9263          	bnez	s7,c044 <ee_printf+0x26b0>
    b8a4:	03000b93          	li	s7,48
    b8a8:	05710623          	sb	s7,76(sp)
    b8ac:	00000393          	li	t2,0
    b8b0:	00100b13          	li	s6,1
    b8b4:	04c10693          	addi	a3,sp,76
    b8b8:	0b6cec33          	max	s8,s9,s6
    b8bc:	418a0a33          	sub	s4,s4,s8
    b8c0:	2e0e9063          	bnez	t4,bba0 <ee_printf+0x220c>
    b8c4:	2d405c63          	blez	s4,bb9c <ee_printf+0x2208>
    b8c8:	01440533          	add	a0,s0,s4
    b8cc:	408505b3          	sub	a1,a0,s0
    b8d0:	0075fa13          	andi	s4,a1,7
    b8d4:	02000793          	li	a5,32
    b8d8:	060a0863          	beqz	s4,b948 <ee_printf+0x1fb4>
    b8dc:	00100e13          	li	t3,1
    b8e0:	05ca0e63          	beq	s4,t3,b93c <ee_printf+0x1fa8>
    b8e4:	00200713          	li	a4,2
    b8e8:	04ea0663          	beq	s4,a4,b934 <ee_printf+0x1fa0>
    b8ec:	00300b93          	li	s7,3
    b8f0:	037a0e63          	beq	s4,s7,b92c <ee_printf+0x1f98>
    b8f4:	00400e93          	li	t4,4
    b8f8:	03da0663          	beq	s4,t4,b924 <ee_printf+0x1f90>
    b8fc:	00500593          	li	a1,5
    b900:	00ba0e63          	beq	s4,a1,b91c <ee_printf+0x1f88>
    b904:	00600e13          	li	t3,6
    b908:	01ca0663          	beq	s4,t3,b914 <ee_printf+0x1f80>
    b90c:	00f40023          	sb	a5,0(s0)
    b910:	00140413          	addi	s0,s0,1
    b914:	00f40023          	sb	a5,0(s0)
    b918:	00140413          	addi	s0,s0,1
    b91c:	00f40023          	sb	a5,0(s0)
    b920:	00140413          	addi	s0,s0,1
    b924:	00f40023          	sb	a5,0(s0)
    b928:	00140413          	addi	s0,s0,1
    b92c:	00f40023          	sb	a5,0(s0)
    b930:	00140413          	addi	s0,s0,1
    b934:	00f40023          	sb	a5,0(s0)
    b938:	00140413          	addi	s0,s0,1
    b93c:	00140413          	addi	s0,s0,1
    b940:	fef40fa3          	sb	a5,-1(s0)
    b944:	02a40663          	beq	s0,a0,b970 <ee_printf+0x1fdc>
    b948:	00f40023          	sb	a5,0(s0)
    b94c:	00f400a3          	sb	a5,1(s0)
    b950:	00f40123          	sb	a5,2(s0)
    b954:	00f401a3          	sb	a5,3(s0)
    b958:	00f40223          	sb	a5,4(s0)
    b95c:	00f402a3          	sb	a5,5(s0)
    b960:	00f40323          	sb	a5,6(s0)
    b964:	00f403a3          	sb	a5,7(s0)
    b968:	00840413          	addi	s0,s0,8
    b96c:	fca41ee3          	bne	s0,a0,b948 <ee_printf+0x1fb4>
    b970:	00050413          	mv	s0,a0
    b974:	68028463          	beqz	t0,bffc <ee_printf+0x2668>
    b978:	00550023          	sb	t0,0(a0)
    b97c:	00150413          	addi	s0,a0,1
    b980:	6c089863          	bnez	a7,c050 <ee_printf+0x26bc>
    b984:	0e0318e3          	bnez	t1,c274 <ee_printf+0x28e0>
    b988:	ffe00a13          	li	s4,-2
    b98c:	cfcfe06f          	j	9e88 <ee_printf+0x4f4>
    b990:	00900713          	li	a4,9
    b994:	2ca75063          	bge	a4,a0,bc54 <ee_printf+0x22c0>
    b998:	ccccd6b7          	lui	a3,0xccccd
    b99c:	ccd68e13          	addi	t3,a3,-819 # cccccccd <_stack_top+0xcccb8ccd>
    b9a0:	03c53c33          	mulhu	s8,a0,t3
    b9a4:	0000d337          	lui	t1,0xd
    b9a8:	bd830313          	addi	t1,t1,-1064 # cbd8 <__modsi3+0x6d4>
    b9ac:	00288eb3          	add	t4,a7,sp
    b9b0:	00028893          	mv	a7,t0
    b9b4:	003c5793          	srli	a5,s8,0x3
    b9b8:	80f3460b          	th.lrbu	a2,t1,a5,0
    b9bc:	20f7cfb3          	sh2add	t6,a5,a5
    b9c0:	001f9293          	slli	t0,t6,0x1
    b9c4:	04ce8623          	sb	a2,76(t4)
    b9c8:	40550533          	sub	a0,a0,t0
    b9cc:	8d4ff06f          	j	aaa0 <ee_printf+0x110c>
    b9d0:	00900693          	li	a3,9
    b9d4:	26e6d863          	bge	a3,a4,bc44 <ee_printf+0x22b0>
    b9d8:	ccccde37          	lui	t3,0xccccd
    b9dc:	ccde0313          	addi	t1,t3,-819 # cccccccd <_stack_top+0xcccb8ccd>
    b9e0:	02673c33          	mulhu	s8,a4,t1
    b9e4:	0000db37          	lui	s6,0xd
    b9e8:	bd8b0e13          	addi	t3,s6,-1064 # cbd8 <__modsi3+0x6d4>
    b9ec:	00100313          	li	t1,1
    b9f0:	003c5e93          	srli	t4,s8,0x3
    b9f4:	81de478b          	th.lrbu	a5,t3,t4,0
    b9f8:	21dec633          	sh2add	a2,t4,t4
    b9fc:	00161f93          	slli	t6,a2,0x1
    ba00:	41f70733          	sub	a4,a4,t6
    ba04:	04f10623          	sb	a5,76(sp)
    ba08:	804ff06f          	j	aa0c <ee_printf+0x1078>
    ba0c:	00900293          	li	t0,9
    ba10:	2262d463          	bge	t0,t1,bc38 <ee_printf+0x22a4>
    ba14:	ccccdbb7          	lui	s7,0xccccd
    ba18:	ccdb8893          	addi	a7,s7,-819 # cccccccd <_stack_top+0xcccb8ccd>
    ba1c:	03133733          	mulhu	a4,t1,a7
    ba20:	0000d3b7          	lui	t2,0xd
    ba24:	bd838393          	addi	t2,t2,-1064 # cbd8 <__modsi3+0x6d4>
    ba28:	00250c33          	add	s8,a0,sp
    ba2c:	000b0513          	mv	a0,s6
    ba30:	00375e13          	srli	t3,a4,0x3
    ba34:	81c3c78b          	th.lrbu	a5,t2,t3,0
    ba38:	21ce4eb3          	sh2add	t4,t3,t3
    ba3c:	001e9b13          	slli	s6,t4,0x1
    ba40:	04fc0623          	sb	a5,76(s8)
    ba44:	41630333          	sub	t1,t1,s6
    ba48:	8ecff06f          	j	ab34 <ee_printf+0x11a0>
    ba4c:	00900e13          	li	t3,9
    ba50:	1c6e5e63          	bge	t3,t1,bc2c <ee_printf+0x2298>
    ba54:	ccccd3b7          	lui	t2,0xccccd
    ba58:	ccd38793          	addi	a5,t2,-819 # cccccccd <_stack_top+0xcccb8ccd>
    ba5c:	02f33b33          	mulhu	s6,t1,a5
    ba60:	0000dfb7          	lui	t6,0xd
    ba64:	002b8cb3          	add	s9,s7,sp
    ba68:	bd8f8e93          	addi	t4,t6,-1064 # cbd8 <__modsi3+0x6d4>
    ba6c:	00050b93          	mv	s7,a0
    ba70:	003b5513          	srli	a0,s6,0x3
    ba74:	80aec88b          	th.lrbu	a7,t4,a0,0
    ba78:	20a54733          	sh2add	a4,a0,a0
    ba7c:	00171693          	slli	a3,a4,0x1
    ba80:	051c8623          	sb	a7,76(s9)
    ba84:	40d30333          	sub	t1,t1,a3
    ba88:	f98ff06f          	j	b220 <ee_printf+0x188c>
    ba8c:	01000313          	li	t1,16
    ba90:	0000d8b7          	lui	a7,0xd
    ba94:	00030e93          	mv	t4,t1
    ba98:	00030c13          	mv	s8,t1
    ba9c:	bd888693          	addi	a3,a7,-1064 # cbd8 <__modsi3+0x6d4>
    baa0:	02000613          	li	a2,32
    baa4:	ffea0a13          	addi	s4,s4,-2
    baa8:	1a0b9c63          	bnez	s7,bc60 <ee_printf+0x22cc>
    baac:	00100b13          	li	s6,1
    bab0:	03000f93          	li	t6,48
    bab4:	0b6cec33          	max	s8,s9,s6
    bab8:	05f10623          	sb	t6,76(sp)
    babc:	418a0a33          	sub	s4,s4,s8
    bac0:	780e8e63          	beqz	t4,c25c <ee_printf+0x28c8>
    bac4:	00000393          	li	t2,0
    bac8:	01000f93          	li	t6,16
    bacc:	04c10693          	addi	a3,sp,76
    bad0:	00800513          	li	a0,8
    bad4:	0eaf8463          	beq	t6,a0,bbbc <ee_printf+0x2228>
    bad8:	01000793          	li	a5,16
    badc:	00ff8463          	beq	t6,a5,bae4 <ee_printf+0x2150>
    bae0:	aecfe06f          	j	9dcc <ee_printf+0x438>
    bae4:	d51ff06f          	j	b834 <ee_printf+0x1ea0>
    bae8:	fffa0a13          	addi	s4,s4,-1
    baec:	420b9a63          	bnez	s7,bf20 <ee_printf+0x258c>
    baf0:	00100b13          	li	s6,1
    baf4:	03000f93          	li	t6,48
    baf8:	0b6cec33          	max	s8,s9,s6
    bafc:	05f10623          	sb	t6,76(sp)
    bb00:	418a0a33          	sub	s4,s4,s8
    bb04:	00000393          	li	t2,0
    bb08:	01000313          	li	t1,16
    bb0c:	02000613          	li	a2,32
    bb10:	00800f93          	li	t6,8
    bb14:	04c10693          	addi	a3,sp,76
    bb18:	fb9ff06f          	j	bad0 <ee_printf+0x213c>
    bb1c:	420b9663          	bnez	s7,bf48 <ee_printf+0x25b4>
    bb20:	00100b13          	li	s6,1
    bb24:	0b6cec33          	max	s8,s9,s6
    bb28:	03000e93          	li	t4,48
    bb2c:	05d10623          	sb	t4,76(sp)
    bb30:	418a0a33          	sub	s4,s4,s8
    bb34:	00000393          	li	t2,0
    bb38:	01000313          	li	t1,16
    bb3c:	02000613          	li	a2,32
    bb40:	00a00f93          	li	t6,10
    bb44:	04c10693          	addi	a3,sp,76
    bb48:	f89ff06f          	j	bad0 <ee_printf+0x213c>
    bb4c:	03000e93          	li	t4,48
    bb50:	07800793          	li	a5,120
    bb54:	0105fc13          	andi	s8,a1,16
    bb58:	01df8023          	sb	t4,0(t6)
    bb5c:	00ff80a3          	sb	a5,1(t6)
    bb60:	720c1863          	bnez	s8,c290 <ee_printf+0x28fc>
    bb64:	002f8b93          	addi	s7,t6,2
    bb68:	ffe00a13          	li	s4,-2
    bb6c:	9d984ce3          	blt	a6,s9,b544 <ee_printf+0x1bb0>
    bb70:	000b8413          	mv	s0,s7
    bb74:	aadff06f          	j	b620 <ee_printf+0x1c8c>
    bb78:	00078a93          	mv	s5,a5
    bb7c:	0025e513          	ori	a0,a1,2
    bb80:	0105f313          	andi	t1,a1,16
    bb84:	00480713          	addi	a4,a6,4
    bb88:	de5fe06f          	j	a96c <ee_printf+0xfd8>
    bb8c:	00100c13          	li	s8,1
    bb90:	00800a13          	li	s4,8
    bb94:	03000f93          	li	t6,48
    bb98:	8b9fe06f          	j	a450 <ee_printf+0xabc>
    bb9c:	fffa0a13          	addi	s4,s4,-1
    bba0:	00028663          	beqz	t0,bbac <ee_printf+0x2218>
    bba4:	00540023          	sb	t0,0(s0)
    bba8:	00140413          	addi	s0,s0,1
    bbac:	00089463          	bnez	a7,bbb4 <ee_printf+0x2220>
    bbb0:	a1cfe06f          	j	9dcc <ee_printf+0x438>
    bbb4:	00800513          	li	a0,8
    bbb8:	f2af90e3          	bne	t6,a0,bad8 <ee_printf+0x2144>
    bbbc:	03000713          	li	a4,48
    bbc0:	00e40023          	sb	a4,0(s0)
    bbc4:	00140413          	addi	s0,s0,1
    bbc8:	a04fe06f          	j	9dcc <ee_printf+0x438>
    bbcc:	ffe5f613          	andi	a2,a1,-2
    bbd0:	00266513          	ori	a0,a2,2
    bbd4:	00070813          	mv	a6,a4
    bbd8:	01000313          	li	t1,16
    bbdc:	02000613          	li	a2,32
    bbe0:	c9dff06f          	j	b87c <ee_printf+0x1ee8>
    bbe4:	0015fe93          	andi	t4,a1,1
    bbe8:	7e0e8c63          	beqz	t4,c3e0 <ee_printf+0x2a4c>
    bbec:	0205f513          	andi	a0,a1,32
    bbf0:	6c050663          	beqz	a0,c2bc <ee_printf+0x2928>
    bbf4:	0000d7b7          	lui	a5,0xd
    bbf8:	c0078693          	addi	a3,a5,-1024 # cc00 <__modsi3+0x6fc>
    bbfc:	03000613          	li	a2,48
    bc00:	01000c13          	li	s8,16
    bc04:	ea1ff06f          	j	baa4 <ee_printf+0x2110>
    bc08:	00157793          	andi	a5,a0,1
    bc0c:	03000613          	li	a2,48
    bc10:	02000393          	li	t2,32
    bc14:	00070813          	mv	a6,a4
    bc18:	40f3960b          	th.mveqz	a2,t2,a5
    bc1c:	c61ff06f          	j	b87c <ee_printf+0x1ee8>
    bc20:	ffe5fe93          	andi	t4,a1,-2
    bc24:	040ee293          	ori	t0,t4,64
    bc28:	bd9ff06f          	j	b800 <ee_printf+0x1e6c>
    bc2c:	0000d2b7          	lui	t0,0xd
    bc30:	bd828e93          	addi	t4,t0,-1064 # cbd8 <__modsi3+0x6d4>
    bc34:	decff06f          	j	b220 <ee_printf+0x188c>
    bc38:	0000d637          	lui	a2,0xd
    bc3c:	bd860393          	addi	t2,a2,-1064 # cbd8 <__modsi3+0x6d4>
    bc40:	ef5fe06f          	j	ab34 <ee_printf+0x11a0>
    bc44:	0000d3b7          	lui	t2,0xd
    bc48:	bd838e13          	addi	t3,t2,-1064 # cbd8 <__modsi3+0x6d4>
    bc4c:	00000313          	li	t1,0
    bc50:	dbdfe06f          	j	aa0c <ee_printf+0x1078>
    bc54:	0000d3b7          	lui	t2,0xd
    bc58:	bd838313          	addi	t1,t2,-1064 # cbd8 <__modsi3+0x6d4>
    bc5c:	e45fe06f          	j	aaa0 <ee_printf+0x110c>
    bc60:	01000f93          	li	t6,16
    bc64:	00000293          	li	t0,0
    bc68:	02000893          	li	a7,32
    bc6c:	00812c23          	sw	s0,24(sp)
    bc70:	01412e23          	sw	s4,28(sp)
    bc74:	00000b13          	li	s6,0
    bc78:	01012823          	sw	a6,16(sp)
    bc7c:	01912a23          	sw	s9,20(sp)
    bc80:	03f12023          	sw	t6,32(sp)
    bc84:	03512223          	sw	s5,36(sp)
    bc88:	03112423          	sw	a7,40(sp)
    bc8c:	02512623          	sw	t0,44(sp)
    bc90:	02c12823          	sw	a2,48(sp)
    bc94:	00068413          	mv	s0,a3
    bc98:	03d12a23          	sw	t4,52(sp)
    bc9c:	02612c23          	sw	t1,56(sp)
    bca0:	03e12e23          	sw	t5,60(sp)
    bca4:	04c10a13          	addi	s4,sp,76
    bca8:	000c0593          	mv	a1,s8
    bcac:	000b0c93          	mv	s9,s6
    bcb0:	000b8513          	mv	a0,s7
    bcb4:	001b0b13          	addi	s6,s6,1
    bcb8:	01612623          	sw	s6,12(sp)
    bcbc:	015000ef          	jal	c4d0 <__umodsi3>
    bcc0:	80a44f0b          	th.lrbu	t5,s0,a0,0
    bcc4:	016a0ab3          	add	s5,s4,s6
    bcc8:	000c0593          	mv	a1,s8
    bccc:	ffea8fa3          	sb	t5,-1(s5)
    bcd0:	000b8513          	mv	a0,s7
    bcd4:	7b4000ef          	jal	c488 <__hidden___udivsi3>
    bcd8:	00050a93          	mv	s5,a0
    bcdc:	398bec63          	bltu	s7,s8,c074 <ee_printf+0x26e0>
    bce0:	000c0593          	mv	a1,s8
    bce4:	7ec000ef          	jal	c4d0 <__umodsi3>
    bce8:	80a4480b          	th.lrbu	a6,s0,a0,0
    bcec:	000b0c93          	mv	s9,s6
    bcf0:	001b0b13          	addi	s6,s6,1
    bcf4:	016a0bb3          	add	s7,s4,s6
    bcf8:	ff0b8fa3          	sb	a6,-1(s7)
    bcfc:	000c0593          	mv	a1,s8
    bd00:	000a8513          	mv	a0,s5
    bd04:	784000ef          	jal	c488 <__hidden___udivsi3>
    bd08:	00050b93          	mv	s7,a0
    bd0c:	3b8ae263          	bltu	s5,s8,c0b0 <ee_printf+0x271c>
    bd10:	00c12603          	lw	a2,12(sp)
    bd14:	000c0593          	mv	a1,s8
    bd18:	000b0c93          	mv	s9,s6
    bd1c:	00260b13          	addi	s6,a2,2
    bd20:	7b0000ef          	jal	c4d0 <__umodsi3>
    bd24:	80a44e8b          	th.lrbu	t4,s0,a0,0
    bd28:	016a0ab3          	add	s5,s4,s6
    bd2c:	000c0593          	mv	a1,s8
    bd30:	ffda8fa3          	sb	t4,-1(s5)
    bd34:	000b8513          	mv	a0,s7
    bd38:	750000ef          	jal	c488 <__hidden___udivsi3>
    bd3c:	00050a93          	mv	s5,a0
    bd40:	3b8bea63          	bltu	s7,s8,c0f4 <ee_printf+0x2760>
    bd44:	00c12283          	lw	t0,12(sp)
    bd48:	000c0593          	mv	a1,s8
    bd4c:	000b0c93          	mv	s9,s6
    bd50:	00328b13          	addi	s6,t0,3
    bd54:	77c000ef          	jal	c4d0 <__umodsi3>
    bd58:	80a4488b          	th.lrbu	a7,s0,a0,0
    bd5c:	016a0bb3          	add	s7,s4,s6
    bd60:	000c0593          	mv	a1,s8
    bd64:	ff1b8fa3          	sb	a7,-1(s7)
    bd68:	000a8513          	mv	a0,s5
    bd6c:	71c000ef          	jal	c488 <__hidden___udivsi3>
    bd70:	00050b93          	mv	s7,a0
    bd74:	3b8aee63          	bltu	s5,s8,c130 <ee_printf+0x279c>
    bd78:	00c12303          	lw	t1,12(sp)
    bd7c:	000c0593          	mv	a1,s8
    bd80:	000b0c93          	mv	s9,s6
    bd84:	00430b13          	addi	s6,t1,4
    bd88:	748000ef          	jal	c4d0 <__umodsi3>
    bd8c:	80a4468b          	th.lrbu	a3,s0,a0,0
    bd90:	016a0ab3          	add	s5,s4,s6
    bd94:	000c0593          	mv	a1,s8
    bd98:	feda8fa3          	sb	a3,-1(s5)
    bd9c:	000b8513          	mv	a0,s7
    bda0:	6e8000ef          	jal	c488 <__hidden___udivsi3>
    bda4:	00050a93          	mv	s5,a0
    bda8:	3d8be263          	bltu	s7,s8,c16c <ee_printf+0x27d8>
    bdac:	00c12783          	lw	a5,12(sp)
    bdb0:	000c0593          	mv	a1,s8
    bdb4:	000b0c93          	mv	s9,s6
    bdb8:	00578b13          	addi	s6,a5,5
    bdbc:	714000ef          	jal	c4d0 <__umodsi3>
    bdc0:	80a44f8b          	th.lrbu	t6,s0,a0,0
    bdc4:	016a0bb3          	add	s7,s4,s6
    bdc8:	000c0593          	mv	a1,s8
    bdcc:	fffb8fa3          	sb	t6,-1(s7)
    bdd0:	000a8513          	mv	a0,s5
    bdd4:	6b4000ef          	jal	c488 <__hidden___udivsi3>
    bdd8:	00050b93          	mv	s7,a0
    bddc:	3d8ae663          	bltu	s5,s8,c1a8 <ee_printf+0x2814>
    bde0:	000c0593          	mv	a1,s8
    bde4:	000b0c93          	mv	s9,s6
    bde8:	00c12b03          	lw	s6,12(sp)
    bdec:	6e4000ef          	jal	c4d0 <__umodsi3>
    bdf0:	80a4438b          	th.lrbu	t2,s0,a0,0
    bdf4:	006b0b13          	addi	s6,s6,6
    bdf8:	016a0ab3          	add	s5,s4,s6
    bdfc:	fe7a8fa3          	sb	t2,-1(s5)
    be00:	000c0593          	mv	a1,s8
    be04:	000b8513          	mv	a0,s7
    be08:	680000ef          	jal	c488 <__hidden___udivsi3>
    be0c:	00050a93          	mv	s5,a0
    be10:	3d8bea63          	bltu	s7,s8,c1e4 <ee_printf+0x2850>
    be14:	00c12e03          	lw	t3,12(sp)
    be18:	000c0593          	mv	a1,s8
    be1c:	000b0c93          	mv	s9,s6
    be20:	007e0b13          	addi	s6,t3,7
    be24:	6ac000ef          	jal	c4d0 <__umodsi3>
    be28:	80a4470b          	th.lrbu	a4,s0,a0,0
    be2c:	016a0bb3          	add	s7,s4,s6
    be30:	000c0593          	mv	a1,s8
    be34:	feeb8fa3          	sb	a4,-1(s7)
    be38:	000a8513          	mv	a0,s5
    be3c:	64c000ef          	jal	c488 <__hidden___udivsi3>
    be40:	00050b93          	mv	s7,a0
    be44:	e78af2e3          	bgeu	s5,s8,bca8 <ee_printf+0x2314>
    be48:	000c8393          	mv	t2,s9
    be4c:	000a0693          	mv	a3,s4
    be50:	01012803          	lw	a6,16(sp)
    be54:	01812403          	lw	s0,24(sp)
    be58:	02012f83          	lw	t6,32(sp)
    be5c:	02412a83          	lw	s5,36(sp)
    be60:	02812883          	lw	a7,40(sp)
    be64:	02c12283          	lw	t0,44(sp)
    be68:	03012603          	lw	a2,48(sp)
    be6c:	03412e83          	lw	t4,52(sp)
    be70:	03812303          	lw	t1,56(sp)
    be74:	01412c83          	lw	s9,20(sp)
    be78:	03c12f03          	lw	t5,60(sp)
    be7c:	01c12a03          	lw	s4,28(sp)
    be80:	a39ff06f          	j	b8b8 <ee_printf+0x1f24>
    be84:	00f40023          	sb	a5,0(s0)
    be88:	00140413          	addi	s0,s0,1
    be8c:	f2dfe06f          	j	adb8 <ee_printf+0x1424>
    be90:	04c14c83          	lbu	s9,76(sp)
    be94:	000e0793          	mv	a5,t3
    be98:	019680a3          	sb	s9,1(a3)
    be9c:	de5fe06f          	j	ac80 <ee_printf+0x12ec>
    bea0:	0105f513          	andi	a0,a1,16
    bea4:	48050a63          	beqz	a0,c338 <ee_printf+0x29a4>
    bea8:	00000513          	li	a0,0
    beac:	f7985c63          	bge	a6,s9,b624 <ee_printf+0x1c90>
    beb0:	00040b93          	mv	s7,s0
    beb4:	00000513          	li	a0,0
    beb8:	e8cff06f          	j	b544 <ee_printf+0x1bb0>
    bebc:	00000513          	li	a0,0
    bec0:	03000e93          	li	t4,48
    bec4:	07800293          	li	t0,120
    bec8:	01d40023          	sb	t4,0(s0)
    becc:	005400a3          	sb	t0,1(s0)
    bed0:	00240b93          	addi	s7,s0,2
    bed4:	ce4ff06f          	j	b3b8 <ee_printf+0x1a24>
    bed8:	01000313          	li	t1,16
    bedc:	00800c13          	li	s8,8
    bee0:	0000d6b7          	lui	a3,0xd
    bee4:	00030e93          	mv	t4,t1
    bee8:	000c0f93          	mv	t6,s8
    beec:	bd868693          	addi	a3,a3,-1064 # cbd8 <__modsi3+0x6d4>
    bef0:	02000613          	li	a2,32
    bef4:	00000293          	li	t0,0
    bef8:	d75ff06f          	j	bc6c <ee_printf+0x22d8>
    befc:	01000313          	li	t1,16
    bf00:	0000d7b7          	lui	a5,0xd
    bf04:	00030e93          	mv	t4,t1
    bf08:	00030c13          	mv	s8,t1
    bf0c:	00030f93          	mv	t6,t1
    bf10:	bd878693          	addi	a3,a5,-1064 # cbd8 <__modsi3+0x6d4>
    bf14:	02000613          	li	a2,32
    bf18:	00000293          	li	t0,0
    bf1c:	d51ff06f          	j	bc6c <ee_printf+0x22d8>
    bf20:	01000313          	li	t1,16
    bf24:	00800c13          	li	s8,8
    bf28:	02000613          	li	a2,32
    bf2c:	0000db37          	lui	s6,0xd
    bf30:	00030e93          	mv	t4,t1
    bf34:	000c0f93          	mv	t6,s8
    bf38:	00060893          	mv	a7,a2
    bf3c:	bd8b0693          	addi	a3,s6,-1064 # cbd8 <__modsi3+0x6d4>
    bf40:	00000293          	li	t0,0
    bf44:	d29ff06f          	j	bc6c <ee_printf+0x22d8>
    bf48:	01000313          	li	t1,16
    bf4c:	00a00c13          	li	s8,10
    bf50:	02000613          	li	a2,32
    bf54:	0000d5b7          	lui	a1,0xd
    bf58:	00030e93          	mv	t4,t1
    bf5c:	000c0f93          	mv	t6,s8
    bf60:	00060893          	mv	a7,a2
    bf64:	bd858693          	addi	a3,a1,-1064 # cbd8 <__modsi3+0x6d4>
    bf68:	00000293          	li	t0,0
    bf6c:	d01ff06f          	j	bc6c <ee_printf+0x22d8>
    bf70:	01000313          	li	t1,16
    bf74:	00a00c13          	li	s8,10
    bf78:	0000de37          	lui	t3,0xd
    bf7c:	00030e93          	mv	t4,t1
    bf80:	000c0f93          	mv	t6,s8
    bf84:	bd8e0693          	addi	a3,t3,-1064 # cbd8 <__modsi3+0x6d4>
    bf88:	02000613          	li	a2,32
    bf8c:	00000293          	li	t0,0
    bf90:	cddff06f          	j	bc6c <ee_printf+0x22d8>
    bf94:	00078a93          	mv	s5,a5
    bf98:	a01fe06f          	j	a998 <ee_printf+0x1004>
    bf9c:	0105f313          	andi	t1,a1,16
    bfa0:	00082b83          	lw	s7,0(a6)
    bfa4:	00078a93          	mv	s5,a5
    bfa8:	0405eb13          	ori	s6,a1,64
    bfac:	00480813          	addi	a6,a6,4
    bfb0:	c60318e3          	bnez	t1,bc20 <ee_printf+0x228c>
    bfb4:	e89fe06f          	j	ae3c <ee_printf+0x14a8>
    bfb8:	00082a03          	lw	s4,0(a6)
    bfbc:	00140413          	addi	s0,s0,1
    bfc0:	00030813          	mv	a6,t1
    bfc4:	ff440fa3          	sb	s4,-1(s0)
    bfc8:	a69fd06f          	j	9a30 <ee_printf+0x9c>
    bfcc:	fffa0a13          	addi	s4,s4,-1
    bfd0:	a90fe06f          	j	a260 <ee_printf+0x8cc>
    bfd4:	3c0e8e63          	beqz	t4,c3b0 <ee_printf+0x2a1c>
    bfd8:	03000c13          	li	s8,48
    bfdc:	07800f93          	li	t6,120
    bfe0:	0105f593          	andi	a1,a1,16
    bfe4:	01840023          	sb	s8,0(s0)
    bfe8:	01f400a3          	sb	t6,1(s0)
    bfec:	00240b93          	addi	s7,s0,2
    bff0:	3e059063          	bnez	a1,c3d0 <ee_printf+0x2a3c>
    bff4:	ffea0a13          	addi	s4,s4,-2
    bff8:	b75ff06f          	j	bb6c <ee_printf+0x21d8>
    bffc:	04089e63          	bnez	a7,c058 <ee_printf+0x26c4>
    c000:	00603fb3          	snez	t6,t1
    c004:	ffef8a13          	addi	s4,t6,-2
    c008:	e81fd06f          	j	9e88 <ee_printf+0x4f4>
    c00c:	00a00c13          	li	s8,10
    c010:	0000db37          	lui	s6,0xd
    c014:	41700bb3          	neg	s7,s7
    c018:	fffa0a13          	addi	s4,s4,-1
    c01c:	02057893          	andi	a7,a0,32
    c020:	000c0f93          	mv	t6,s8
    c024:	bd8b0693          	addi	a3,s6,-1064 # cbd8 <__modsi3+0x6d4>
    c028:	02d00293          	li	t0,45
    c02c:	c41ff06f          	j	bc6c <ee_printf+0x22d8>
    c030:	00857893          	andi	a7,a0,8
    c034:	0a088c63          	beqz	a7,c0ec <ee_printf+0x2758>
    c038:	fffa0a13          	addi	s4,s4,-1
    c03c:	02000293          	li	t0,32
    c040:	855ff06f          	j	b894 <ee_printf+0x1f00>
    c044:	0000d6b7          	lui	a3,0xd
    c048:	bd868693          	addi	a3,a3,-1064 # cbd8 <__modsi3+0x6d4>
    c04c:	c21ff06f          	j	bc6c <ee_printf+0x22d8>
    c050:	fff00a13          	li	s4,-1
    c054:	a7dff06f          	j	bad0 <ee_printf+0x213c>
    c058:	00800893          	li	a7,8
    c05c:	1f1f8463          	beq	t6,a7,c244 <ee_printf+0x28b0>
    c060:	01000293          	li	t0,16
    c064:	225f8c63          	beq	t6,t0,c29c <ee_printf+0x2908>
    c068:	00603633          	snez	a2,t1
    c06c:	ffe60a13          	addi	s4,a2,-2
    c070:	e19fd06f          	j	9e88 <ee_printf+0x4f4>
    c074:	000c8393          	mv	t2,s9
    c078:	000a0693          	mv	a3,s4
    c07c:	01012803          	lw	a6,16(sp)
    c080:	01812403          	lw	s0,24(sp)
    c084:	02012f83          	lw	t6,32(sp)
    c088:	02412a83          	lw	s5,36(sp)
    c08c:	02812883          	lw	a7,40(sp)
    c090:	02c12283          	lw	t0,44(sp)
    c094:	03012603          	lw	a2,48(sp)
    c098:	03412e83          	lw	t4,52(sp)
    c09c:	03812303          	lw	t1,56(sp)
    c0a0:	01412c83          	lw	s9,20(sp)
    c0a4:	03c12f03          	lw	t5,60(sp)
    c0a8:	01c12a03          	lw	s4,28(sp)
    c0ac:	80dff06f          	j	b8b8 <ee_printf+0x1f24>
    c0b0:	000c8393          	mv	t2,s9
    c0b4:	000a0693          	mv	a3,s4
    c0b8:	01012803          	lw	a6,16(sp)
    c0bc:	01812403          	lw	s0,24(sp)
    c0c0:	02012f83          	lw	t6,32(sp)
    c0c4:	02412a83          	lw	s5,36(sp)
    c0c8:	02812883          	lw	a7,40(sp)
    c0cc:	02c12283          	lw	t0,44(sp)
    c0d0:	03012603          	lw	a2,48(sp)
    c0d4:	03412e83          	lw	t4,52(sp)
    c0d8:	03812303          	lw	t1,56(sp)
    c0dc:	01412c83          	lw	s9,20(sp)
    c0e0:	03c12f03          	lw	t5,60(sp)
    c0e4:	01c12a03          	lw	s4,28(sp)
    c0e8:	fd0ff06f          	j	b8b8 <ee_printf+0x1f24>
    c0ec:	00000293          	li	t0,0
    c0f0:	fa4ff06f          	j	b894 <ee_printf+0x1f00>
    c0f4:	000c8393          	mv	t2,s9
    c0f8:	000a0693          	mv	a3,s4
    c0fc:	01012803          	lw	a6,16(sp)
    c100:	01812403          	lw	s0,24(sp)
    c104:	02012f83          	lw	t6,32(sp)
    c108:	02412a83          	lw	s5,36(sp)
    c10c:	02812883          	lw	a7,40(sp)
    c110:	02c12283          	lw	t0,44(sp)
    c114:	03012603          	lw	a2,48(sp)
    c118:	03412e83          	lw	t4,52(sp)
    c11c:	03812303          	lw	t1,56(sp)
    c120:	01412c83          	lw	s9,20(sp)
    c124:	03c12f03          	lw	t5,60(sp)
    c128:	01c12a03          	lw	s4,28(sp)
    c12c:	f8cff06f          	j	b8b8 <ee_printf+0x1f24>
    c130:	000c8393          	mv	t2,s9
    c134:	000a0693          	mv	a3,s4
    c138:	01012803          	lw	a6,16(sp)
    c13c:	01812403          	lw	s0,24(sp)
    c140:	02012f83          	lw	t6,32(sp)
    c144:	02412a83          	lw	s5,36(sp)
    c148:	02812883          	lw	a7,40(sp)
    c14c:	02c12283          	lw	t0,44(sp)
    c150:	03012603          	lw	a2,48(sp)
    c154:	03412e83          	lw	t4,52(sp)
    c158:	03812303          	lw	t1,56(sp)
    c15c:	01412c83          	lw	s9,20(sp)
    c160:	03c12f03          	lw	t5,60(sp)
    c164:	01c12a03          	lw	s4,28(sp)
    c168:	f50ff06f          	j	b8b8 <ee_printf+0x1f24>
    c16c:	000c8393          	mv	t2,s9
    c170:	000a0693          	mv	a3,s4
    c174:	01012803          	lw	a6,16(sp)
    c178:	01812403          	lw	s0,24(sp)
    c17c:	02012f83          	lw	t6,32(sp)
    c180:	02412a83          	lw	s5,36(sp)
    c184:	02812883          	lw	a7,40(sp)
    c188:	02c12283          	lw	t0,44(sp)
    c18c:	03012603          	lw	a2,48(sp)
    c190:	03412e83          	lw	t4,52(sp)
    c194:	03812303          	lw	t1,56(sp)
    c198:	01412c83          	lw	s9,20(sp)
    c19c:	03c12f03          	lw	t5,60(sp)
    c1a0:	01c12a03          	lw	s4,28(sp)
    c1a4:	f14ff06f          	j	b8b8 <ee_printf+0x1f24>
    c1a8:	000c8393          	mv	t2,s9
    c1ac:	000a0693          	mv	a3,s4
    c1b0:	01012803          	lw	a6,16(sp)
    c1b4:	01812403          	lw	s0,24(sp)
    c1b8:	02012f83          	lw	t6,32(sp)
    c1bc:	02412a83          	lw	s5,36(sp)
    c1c0:	02812883          	lw	a7,40(sp)
    c1c4:	02c12283          	lw	t0,44(sp)
    c1c8:	03012603          	lw	a2,48(sp)
    c1cc:	03412e83          	lw	t4,52(sp)
    c1d0:	03812303          	lw	t1,56(sp)
    c1d4:	01412c83          	lw	s9,20(sp)
    c1d8:	03c12f03          	lw	t5,60(sp)
    c1dc:	01c12a03          	lw	s4,28(sp)
    c1e0:	ed8ff06f          	j	b8b8 <ee_printf+0x1f24>
    c1e4:	000c8393          	mv	t2,s9
    c1e8:	000a0693          	mv	a3,s4
    c1ec:	01012803          	lw	a6,16(sp)
    c1f0:	01812403          	lw	s0,24(sp)
    c1f4:	02012f83          	lw	t6,32(sp)
    c1f8:	02412a83          	lw	s5,36(sp)
    c1fc:	02812883          	lw	a7,40(sp)
    c200:	02c12283          	lw	t0,44(sp)
    c204:	03012603          	lw	a2,48(sp)
    c208:	03412e83          	lw	t4,52(sp)
    c20c:	03812303          	lw	t1,56(sp)
    c210:	01412c83          	lw	s9,20(sp)
    c214:	03c12f03          	lw	t5,60(sp)
    c218:	01c12a03          	lw	s4,28(sp)
    c21c:	e9cff06f          	j	b8b8 <ee_printf+0x1f24>
    c220:	0c0b9663          	bnez	s7,c2ec <ee_printf+0x2958>
    c224:	00100b13          	li	s6,1
    c228:	0b6cec33          	max	s8,s9,s6
    c22c:	03000e13          	li	t3,48
    c230:	05c10623          	sb	t3,76(sp)
    c234:	418a0a33          	sub	s4,s4,s8
    c238:	00000393          	li	t2,0
    c23c:	04c10693          	addi	a3,sp,76
    c240:	c49fd06f          	j	9e88 <ee_printf+0x4f4>
    c244:	03000a13          	li	s4,48
    c248:	01450023          	sb	s4,0(a0)
    c24c:	04031c63          	bnez	t1,c2a4 <ee_printf+0x2910>
    c250:	00150413          	addi	s0,a0,1
    c254:	ffe00a13          	li	s4,-2
    c258:	c31fd06f          	j	9e88 <ee_printf+0x4f4>
    c25c:	00000393          	li	t2,0
    c260:	00000293          	li	t0,0
    c264:	02000893          	li	a7,32
    c268:	01000f93          	li	t6,16
    c26c:	04c10693          	addi	a3,sp,76
    c270:	e54ff06f          	j	b8c4 <ee_printf+0x1f30>
    c274:	fff00a13          	li	s4,-1
    c278:	c11fd06f          	j	9e88 <ee_printf+0x4f4>
    c27c:	fff00a13          	li	s4,-1
    c280:	ad984263          	blt	a6,s9,b544 <ee_printf+0x1bb0>
    c284:	000f8413          	mv	s0,t6
    c288:	b8081e63          	bnez	a6,b624 <ee_printf+0x1c90>
    c28c:	d5cff06f          	j	b7e8 <ee_printf+0x1e54>
    c290:	002f8b93          	addi	s7,t6,2
    c294:	fff00a13          	li	s4,-1
    c298:	8d5ff06f          	j	bb6c <ee_printf+0x21d8>
    c29c:	fff00a13          	li	s4,-1
    c2a0:	d94ff06f          	j	b834 <ee_printf+0x1ea0>
    c2a4:	00150413          	addi	s0,a0,1
    c2a8:	fff00a13          	li	s4,-1
    c2ac:	bddfd06f          	j	9e88 <ee_printf+0x4f4>
    c2b0:	00058413          	mv	s0,a1
    c2b4:	00278513          	addi	a0,a5,2
    c2b8:	f78fd06f          	j	9a30 <ee_printf+0x9c>
    c2bc:	01000c13          	li	s8,16
    c2c0:	0000d6b7          	lui	a3,0xd
    c2c4:	000c0f93          	mv	t6,s8
    c2c8:	c0068693          	addi	a3,a3,-1024 # cc00 <__modsi3+0x6fc>
    c2cc:	03000613          	li	a2,48
    c2d0:	cb0fe06f          	j	a780 <ee_printf+0xdec>
    c2d4:	01000c13          	li	s8,16
    c2d8:	0000d5b7          	lui	a1,0xd
    c2dc:	000c0f93          	mv	t6,s8
    c2e0:	c0058693          	addi	a3,a1,-1024 # cc00 <__modsi3+0x6fc>
    c2e4:	03000613          	li	a2,48
    c2e8:	c98fe06f          	j	a780 <ee_printf+0xdec>
    c2ec:	01000313          	li	t1,16
    c2f0:	0000d3b7          	lui	t2,0xd
    c2f4:	00030e93          	mv	t4,t1
    c2f8:	00030c13          	mv	s8,t1
    c2fc:	00030f93          	mv	t6,t1
    c300:	c0038693          	addi	a3,t2,-1024 # cc00 <__modsi3+0x6fc>
    c304:	02000613          	li	a2,32
    c308:	00000293          	li	t0,0
    c30c:	961ff06f          	j	bc6c <ee_printf+0x22d8>
    c310:	01000313          	li	t1,16
    c314:	02000613          	li	a2,32
    c318:	0000d737          	lui	a4,0xd
    c31c:	00030e93          	mv	t4,t1
    c320:	00030c13          	mv	s8,t1
    c324:	00030f93          	mv	t6,t1
    c328:	00060893          	mv	a7,a2
    c32c:	c0070693          	addi	a3,a4,-1024 # cc00 <__modsi3+0x6fc>
    c330:	00000293          	li	t0,0
    c334:	939ff06f          	j	bc6c <ee_printf+0x22d8>
    c338:	00040b93          	mv	s7,s0
    c33c:	884ff06f          	j	b3c0 <ee_printf+0x1a2c>
    c340:	04028e63          	beqz	t0,c39c <ee_printf+0x2a08>
    c344:	00000c93          	li	s9,0
    c348:	818fe06f          	j	a360 <ee_printf+0x9cc>
    c34c:	fff00a13          	li	s4,-1
    c350:	ac081a63          	bnez	a6,b624 <ee_printf+0x1c90>
    c354:	c94ff06f          	j	b7e8 <ee_printf+0x1e54>
    c358:	fffa0a13          	addi	s4,s4,-1
    c35c:	c79fe06f          	j	afd4 <ee_printf+0x1640>
    c360:	fffa0a13          	addi	s4,s4,-1
    c364:	8d1fe06f          	j	ac34 <ee_printf+0x12a0>
    c368:	00000313          	li	t1,0
    c36c:	00000293          	li	t0,0
    c370:	00000893          	li	a7,0
    c374:	8f9ff06f          	j	bc6c <ee_printf+0x22d8>
    c378:	00000393          	li	t2,0
    c37c:	00000313          	li	t1,0
    c380:	00000893          	li	a7,0
    c384:	00000293          	li	t0,0
    c388:	04c10693          	addi	a3,sp,76
    c38c:	d38ff06f          	j	b8c4 <ee_printf+0x1f30>
    c390:	00030813          	mv	a6,t1
    c394:	00038413          	mv	s0,t2
    c398:	e98fd06f          	j	9a30 <ee_printf+0x9c>
    c39c:	00000c93          	li	s9,0
    c3a0:	001a8513          	addi	a0,s5,1
    c3a4:	01405463          	blez	s4,c3ac <ee_printf+0x2a18>
    c3a8:	d51fe06f          	j	b0f8 <ee_printf+0x1764>
    c3ac:	e84fd06f          	j	9a30 <ee_printf+0x9c>
    c3b0:	ffea0a13          	addi	s4,s4,-2
    c3b4:	00040b93          	mv	s7,s0
    c3b8:	99984663          	blt	a6,s9,b544 <ee_printf+0x1bb0>
    c3bc:	a6081463          	bnez	a6,b624 <ee_printf+0x1c90>
    c3c0:	c28ff06f          	j	b7e8 <ee_printf+0x1e54>
    c3c4:	000f8413          	mv	s0,t6
    c3c8:	a4081e63          	bnez	a6,b624 <ee_printf+0x1c90>
    c3cc:	c1cff06f          	j	b7e8 <ee_printf+0x1e54>
    c3d0:	fffa0a13          	addi	s4,s4,-1
    c3d4:	f98ff06f          	j	bb6c <ee_printf+0x21d8>
    c3d8:	fffa0a13          	addi	s4,s4,-1
    c3dc:	f90ff06f          	j	bb6c <ee_printf+0x21d8>
    c3e0:	0205f893          	andi	a7,a1,32
    c3e4:	04088063          	beqz	a7,c424 <ee_printf+0x2a90>
    c3e8:	0000dc37          	lui	s8,0xd
    c3ec:	c00c0693          	addi	a3,s8,-1024 # cc00 <__modsi3+0x6fc>
    c3f0:	02000613          	li	a2,32
    c3f4:	01000c13          	li	s8,16
    c3f8:	eacff06f          	j	baa4 <ee_printf+0x2110>
    c3fc:	00800313          	li	t1,8
    c400:	006f8a63          	beq	t6,t1,c414 <ee_printf+0x2a80>
    c404:	00000313          	li	t1,0
    c408:	00a00f93          	li	t6,10
    c40c:	00000293          	li	t0,0
    c410:	c90ff06f          	j	b8a0 <ee_printf+0x1f0c>
    c414:	fffa0a13          	addi	s4,s4,-1
    c418:	00000313          	li	t1,0
    c41c:	00000293          	li	t0,0
    c420:	c80ff06f          	j	b8a0 <ee_printf+0x1f0c>
    c424:	01000c13          	li	s8,16
    c428:	0000d337          	lui	t1,0xd
    c42c:	000c0f93          	mv	t6,s8
    c430:	c0030693          	addi	a3,t1,-1024 # cc00 <__modsi3+0x6fc>
    c434:	02000613          	li	a2,32
    c438:	b48fe06f          	j	a780 <ee_printf+0xdec>
    c43c:	fffa0a13          	addi	s4,s4,-1
    c440:	a49fd06f          	j	9e88 <ee_printf+0x4f4>
    c444:	020b7f93          	andi	t6,s6,32
    c448:	020f8063          	beqz	t6,c468 <ee_printf+0x2ad4>
    c44c:	0000de37          	lui	t3,0xd
    c450:	c00e0693          	addi	a3,t3,-1024 # cc00 <__modsi3+0x6fc>
    c454:	02000613          	li	a2,32
    c458:	01000c13          	li	s8,16
    c45c:	e48ff06f          	j	baa4 <ee_printf+0x2110>
    c460:	02000f93          	li	t6,32
    c464:	fedfd06f          	j	a450 <ee_printf+0xabc>
    c468:	01000c13          	li	s8,16
    c46c:	0000d3b7          	lui	t2,0xd
    c470:	000c0f93          	mv	t6,s8
    c474:	c0038693          	addi	a3,t2,-1024 # cc00 <__modsi3+0x6fc>
    c478:	02000613          	li	a2,32
    c47c:	b04fe06f          	j	a780 <ee_printf+0xdec>

0000c480 <__divsi3>:
    c480:	06054063          	bltz	a0,c4e0 <__umodsi3+0x10>
    c484:	0605c663          	bltz	a1,c4f0 <__umodsi3+0x20>

0000c488 <__hidden___udivsi3>:
    c488:	00058613          	mv	a2,a1
    c48c:	00050593          	mv	a1,a0
    c490:	fff00513          	li	a0,-1
    c494:	02060c63          	beqz	a2,c4cc <__hidden___udivsi3+0x44>
    c498:	00100693          	li	a3,1
    c49c:	00b67a63          	bgeu	a2,a1,c4b0 <__hidden___udivsi3+0x28>
    c4a0:	00c05863          	blez	a2,c4b0 <__hidden___udivsi3+0x28>
    c4a4:	00161613          	slli	a2,a2,0x1
    c4a8:	00169693          	slli	a3,a3,0x1
    c4ac:	feb66ae3          	bltu	a2,a1,c4a0 <__hidden___udivsi3+0x18>
    c4b0:	00000513          	li	a0,0
    c4b4:	00c5e663          	bltu	a1,a2,c4c0 <__hidden___udivsi3+0x38>
    c4b8:	40c585b3          	sub	a1,a1,a2
    c4bc:	00d56533          	or	a0,a0,a3
    c4c0:	0016d693          	srli	a3,a3,0x1
    c4c4:	00165613          	srli	a2,a2,0x1
    c4c8:	fe0696e3          	bnez	a3,c4b4 <__hidden___udivsi3+0x2c>
    c4cc:	00008067          	ret

0000c4d0 <__umodsi3>:
    c4d0:	00008293          	mv	t0,ra
    c4d4:	fb5ff0ef          	jal	c488 <__hidden___udivsi3>
    c4d8:	00058513          	mv	a0,a1
    c4dc:	00028067          	jr	t0
    c4e0:	40a00533          	neg	a0,a0
    c4e4:	00b04863          	bgtz	a1,c4f4 <__umodsi3+0x24>
    c4e8:	40b005b3          	neg	a1,a1
    c4ec:	f9dff06f          	j	c488 <__hidden___udivsi3>
    c4f0:	40b005b3          	neg	a1,a1
    c4f4:	00008293          	mv	t0,ra
    c4f8:	f91ff0ef          	jal	c488 <__hidden___udivsi3>
    c4fc:	40a00533          	neg	a0,a0
    c500:	00028067          	jr	t0

0000c504 <__modsi3>:
    c504:	00008293          	mv	t0,ra
    c508:	0005ca63          	bltz	a1,c51c <__modsi3+0x18>
    c50c:	00054c63          	bltz	a0,c524 <__modsi3+0x20>
    c510:	f79ff0ef          	jal	c488 <__hidden___udivsi3>
    c514:	00058513          	mv	a0,a1
    c518:	00028067          	jr	t0
    c51c:	40b005b3          	neg	a1,a1
    c520:	fe0558e3          	bgez	a0,c510 <__modsi3+0xc>
    c524:	40a00533          	neg	a0,a0
    c528:	f61ff0ef          	jal	c488 <__hidden___udivsi3>
    c52c:	40b00533          	neg	a0,a1
    c530:	00028067          	jr	t0
    c534:	6b36                	.insn	2, 0x6b36
    c536:	7020                	.insn	2, 0x7020
    c538:	7265                	.insn	2, 0x7265
    c53a:	6f66                	.insn	2, 0x6f66
    c53c:	6d72                	.insn	2, 0x6d72
    c53e:	6e61                	.insn	2, 0x6e61
    c540:	72206563          	bltu	zero,sp,cc6a <floatpat+0xe>
    c544:	6e75                	.insn	2, 0x6e75
    c546:	7020                	.insn	2, 0x7020
    c548:	7261                	.insn	2, 0x7261
    c54a:	6d61                	.insn	2, 0x6d61
    c54c:	7465                	.insn	2, 0x7465
    c54e:	7265                	.insn	2, 0x7265
    c550:	6f662073          	.insn	4, 0x6f662073
    c554:	2072                	.insn	2, 0x2072
    c556:	65726f63          	bltu	tp,s7,cbb4 <__modsi3+0x6b0>
    c55a:	616d                	.insn	2, 0x616d
    c55c:	6b72                	.insn	2, 0x6b72
    c55e:	0a2e                	.insn	2, 0x0a2e
    c560:	0000                	.insn	2, 0x0000
    c562:	0000                	.insn	2, 0x0000
    c564:	6b36                	.insn	2, 0x6b36
    c566:	7620                	.insn	2, 0x7620
    c568:	6c61                	.insn	2, 0x6c61
    c56a:	6469                	.insn	2, 0x6469
    c56c:	7461                	.insn	2, 0x7461
    c56e:	6f69                	.insn	2, 0x6f69
    c570:	206e                	.insn	2, 0x206e
    c572:	7572                	.insn	2, 0x7572
    c574:	206e                	.insn	2, 0x206e
    c576:	6170                	.insn	2, 0x6170
    c578:	6172                	.insn	2, 0x6172
    c57a:	656d                	.insn	2, 0x656d
    c57c:	6574                	.insn	2, 0x6574
    c57e:	7372                	.insn	2, 0x7372
    c580:	6620                	.insn	2, 0x6620
    c582:	6320726f          	jal	tp,13bb4 <_bss_end+0x33bc>
    c586:	6d65726f          	jal	tp,63c5c <_stack_top+0x4fc5c>
    c58a:	7261                	.insn	2, 0x7261
    c58c:	000a2e6b          	.insn	4, 0x000a2e6b
    c590:	7250                	.insn	2, 0x7250
    c592:	6c69666f          	jal	a2,a2c58 <_stack_top+0x8ec58>
    c596:	2065                	.insn	2, 0x2065
    c598:	656e6567          	.insn	4, 0x656e6567
    c59c:	6172                	.insn	2, 0x6172
    c59e:	6974                	.insn	2, 0x6974
    c5a0:	72206e6f          	jal	t3,12cc2 <_bss_end+0x24ca>
    c5a4:	6e75                	.insn	2, 0x6e75
    c5a6:	7020                	.insn	2, 0x7020
    c5a8:	7261                	.insn	2, 0x7261
    c5aa:	6d61                	.insn	2, 0x6d61
    c5ac:	7465                	.insn	2, 0x7465
    c5ae:	7265                	.insn	2, 0x7265
    c5b0:	6f662073          	.insn	4, 0x6f662073
    c5b4:	2072                	.insn	2, 0x2072
    c5b6:	65726f63          	bltu	tp,s7,cc14 <__modsi3+0x710>
    c5ba:	616d                	.insn	2, 0x616d
    c5bc:	6b72                	.insn	2, 0x6b72
    c5be:	0a2e                	.insn	2, 0x0a2e
    c5c0:	0000                	.insn	2, 0x0000
    c5c2:	0000                	.insn	2, 0x0000
    c5c4:	4b32                	.insn	2, 0x4b32
    c5c6:	7020                	.insn	2, 0x7020
    c5c8:	7265                	.insn	2, 0x7265
    c5ca:	6f66                	.insn	2, 0x6f66
    c5cc:	6d72                	.insn	2, 0x6d72
    c5ce:	6e61                	.insn	2, 0x6e61
    c5d0:	72206563          	bltu	zero,sp,ccfa <errpat+0x7e>
    c5d4:	6e75                	.insn	2, 0x6e75
    c5d6:	7020                	.insn	2, 0x7020
    c5d8:	7261                	.insn	2, 0x7261
    c5da:	6d61                	.insn	2, 0x6d61
    c5dc:	7465                	.insn	2, 0x7465
    c5de:	7265                	.insn	2, 0x7265
    c5e0:	6f662073          	.insn	4, 0x6f662073
    c5e4:	2072                	.insn	2, 0x2072
    c5e6:	65726f63          	bltu	tp,s7,cc44 <state_known_crc+0x4>
    c5ea:	616d                	.insn	2, 0x616d
    c5ec:	6b72                	.insn	2, 0x6b72
    c5ee:	0a2e                	.insn	2, 0x0a2e
    c5f0:	0000                	.insn	2, 0x0000
    c5f2:	0000                	.insn	2, 0x0000
    c5f4:	4b32                	.insn	2, 0x4b32
    c5f6:	7620                	.insn	2, 0x7620
    c5f8:	6c61                	.insn	2, 0x6c61
    c5fa:	6469                	.insn	2, 0x6469
    c5fc:	7461                	.insn	2, 0x7461
    c5fe:	6f69                	.insn	2, 0x6f69
    c600:	206e                	.insn	2, 0x206e
    c602:	7572                	.insn	2, 0x7572
    c604:	206e                	.insn	2, 0x206e
    c606:	6170                	.insn	2, 0x6170
    c608:	6172                	.insn	2, 0x6172
    c60a:	656d                	.insn	2, 0x656d
    c60c:	6574                	.insn	2, 0x6574
    c60e:	7372                	.insn	2, 0x7372
    c610:	6620                	.insn	2, 0x6620
    c612:	6320726f          	jal	tp,13c44 <_bss_end+0x344c>
    c616:	6d65726f          	jal	tp,63cec <_stack_top+0x4fcec>
    c61a:	7261                	.insn	2, 0x7261
    c61c:	000a2e6b          	.insn	4, 0x000a2e6b
    c620:	5d75255b          	.insn	4, 0x5d75255b
    c624:	5245                	.insn	2, 0x5245
    c626:	4f52                	.insn	2, 0x4f52
    c628:	2152                	.insn	2, 0x2152
    c62a:	6c20                	.insn	2, 0x6c20
    c62c:	7369                	.insn	2, 0x7369
    c62e:	2074                	.insn	2, 0x2074
    c630:	20637263          	bgeu	t1,t1,c834 <__modsi3+0x330>
    c634:	7830                	.insn	2, 0x7830
    c636:	3025                	.insn	2, 0x3025
    c638:	7834                	.insn	2, 0x7834
    c63a:	2d20                	.insn	2, 0x2d20
    c63c:	7320                	.insn	2, 0x7320
    c63e:	6f68                	.insn	2, 0x6f68
    c640:	6c75                	.insn	2, 0x6c75
    c642:	2064                	.insn	2, 0x2064
    c644:	6562                	.insn	2, 0x6562
    c646:	3020                	.insn	2, 0x3020
    c648:	2578                	.insn	2, 0x2578
    c64a:	3430                	.insn	2, 0x3430
    c64c:	0a78                	.insn	2, 0x0a78
    c64e:	0000                	.insn	2, 0x0000
    c650:	5d75255b          	.insn	4, 0x5d75255b
    c654:	5245                	.insn	2, 0x5245
    c656:	4f52                	.insn	2, 0x4f52
    c658:	2152                	.insn	2, 0x2152
    c65a:	6d20                	.insn	2, 0x6d20
    c65c:	7461                	.insn	2, 0x7461
    c65e:	6972                	.insn	2, 0x6972
    c660:	2078                	.insn	2, 0x2078
    c662:	20637263          	bgeu	t1,t1,c866 <__modsi3+0x362>
    c666:	7830                	.insn	2, 0x7830
    c668:	3025                	.insn	2, 0x3025
    c66a:	7834                	.insn	2, 0x7834
    c66c:	2d20                	.insn	2, 0x2d20
    c66e:	7320                	.insn	2, 0x7320
    c670:	6f68                	.insn	2, 0x6f68
    c672:	6c75                	.insn	2, 0x6c75
    c674:	2064                	.insn	2, 0x2064
    c676:	6562                	.insn	2, 0x6562
    c678:	3020                	.insn	2, 0x3020
    c67a:	2578                	.insn	2, 0x2578
    c67c:	3430                	.insn	2, 0x3430
    c67e:	0a78                	.insn	2, 0x0a78
    c680:	0000                	.insn	2, 0x0000
    c682:	0000                	.insn	2, 0x0000
    c684:	5d75255b          	.insn	4, 0x5d75255b
    c688:	5245                	.insn	2, 0x5245
    c68a:	4f52                	.insn	2, 0x4f52
    c68c:	2152                	.insn	2, 0x2152
    c68e:	7320                	.insn	2, 0x7320
    c690:	6174                	.insn	2, 0x6174
    c692:	6574                	.insn	2, 0x6574
    c694:	6320                	.insn	2, 0x6320
    c696:	6372                	.insn	2, 0x6372
    c698:	3020                	.insn	2, 0x3020
    c69a:	2578                	.insn	2, 0x2578
    c69c:	3430                	.insn	2, 0x3430
    c69e:	2078                	.insn	2, 0x2078
    c6a0:	202d                	.insn	2, 0x202d
    c6a2:	756f6873          	.insn	4, 0x756f6873
    c6a6:	646c                	.insn	2, 0x646c
    c6a8:	6220                	.insn	2, 0x6220
    c6aa:	2065                	.insn	2, 0x2065
    c6ac:	7830                	.insn	2, 0x7830
    c6ae:	3025                	.insn	2, 0x3025
    c6b0:	7834                	.insn	2, 0x7834
    c6b2:	000a                	.insn	2, 0x000a
    c6b4:	65726f43          	.insn	4, 0x65726f43
    c6b8:	614d                	.insn	2, 0x614d
    c6ba:	6b72                	.insn	2, 0x6b72
    c6bc:	5320                	.insn	2, 0x5320
    c6be:	7a69                	.insn	2, 0x7a69
    c6c0:	2065                	.insn	2, 0x2065
    c6c2:	2020                	.insn	2, 0x2020
    c6c4:	3a20                	.insn	2, 0x3a20
    c6c6:	2520                	.insn	2, 0x2520
    c6c8:	756c                	.insn	2, 0x756c
    c6ca:	000a                	.insn	2, 0x000a
    c6cc:	6f54                	.insn	2, 0x6f54
    c6ce:	6174                	.insn	2, 0x6174
    c6d0:	206c                	.insn	2, 0x206c
    c6d2:	6974                	.insn	2, 0x6974
    c6d4:	20736b63          	bltu	t1,t2,c8ea <__modsi3+0x3e6>
    c6d8:	2020                	.insn	2, 0x2020
    c6da:	2020                	.insn	2, 0x2020
    c6dc:	3a20                	.insn	2, 0x3a20
    c6de:	2520                	.insn	2, 0x2520
    c6e0:	756c                	.insn	2, 0x756c
    c6e2:	000a                	.insn	2, 0x000a
    c6e4:	6f54                	.insn	2, 0x6f54
    c6e6:	6174                	.insn	2, 0x6174
    c6e8:	206c                	.insn	2, 0x206c
    c6ea:	6974                	.insn	2, 0x6974
    c6ec:	656d                	.insn	2, 0x656d
    c6ee:	2820                	.insn	2, 0x2820
    c6f0:	73636573          	.insn	4, 0x73636573
    c6f4:	3a29                	.insn	2, 0x3a29
    c6f6:	2520                	.insn	2, 0x2520
    c6f8:	0a64                	.insn	2, 0x0a64
    c6fa:	0000                	.insn	2, 0x0000
    c6fc:	7449                	.insn	2, 0x7449
    c6fe:	7265                	.insn	2, 0x7265
    c700:	7461                	.insn	2, 0x7461
    c702:	6f69                	.insn	2, 0x6f69
    c704:	736e                	.insn	2, 0x736e
    c706:	6365532f          	.insn	4, 0x6365532f
    c70a:	2020                	.insn	2, 0x2020
    c70c:	3a20                	.insn	2, 0x3a20
    c70e:	2520                	.insn	2, 0x2520
    c710:	0a64                	.insn	2, 0x0a64
    c712:	0000                	.insn	2, 0x0000
    c714:	5245                	.insn	2, 0x5245
    c716:	4f52                	.insn	2, 0x4f52
    c718:	2152                	.insn	2, 0x2152
    c71a:	4d20                	.insn	2, 0x4d20
    c71c:	7375                	.insn	2, 0x7375
    c71e:	2074                	.insn	2, 0x2074
    c720:	7865                	.insn	2, 0x7865
    c722:	6365                	.insn	2, 0x6365
    c724:	7475                	.insn	2, 0x7475
    c726:	2065                	.insn	2, 0x2065
    c728:	6f66                	.insn	2, 0x6f66
    c72a:	2072                	.insn	2, 0x2072
    c72c:	7461                	.insn	2, 0x7461
    c72e:	6c20                	.insn	2, 0x6c20
    c730:	6165                	.insn	2, 0x6165
    c732:	31207473          	.insn	4, 0x31207473
    c736:	2030                	.insn	2, 0x2030
    c738:	73636573          	.insn	4, 0x73636573
    c73c:	6620                	.insn	2, 0x6620
    c73e:	6120726f          	jal	tp,13d50 <_bss_end+0x3558>
    c742:	7620                	.insn	2, 0x7620
    c744:	6c61                	.insn	2, 0x6c61
    c746:	6469                	.insn	2, 0x6469
    c748:	7220                	.insn	2, 0x7220
    c74a:	7365                	.insn	2, 0x7365
    c74c:	6c75                	.insn	2, 0x6c75
    c74e:	2174                	.insn	2, 0x2174
    c750:	000a                	.insn	2, 0x000a
    c752:	0000                	.insn	2, 0x0000
    c754:	7449                	.insn	2, 0x7449
    c756:	7265                	.insn	2, 0x7265
    c758:	7461                	.insn	2, 0x7461
    c75a:	6f69                	.insn	2, 0x6f69
    c75c:	736e                	.insn	2, 0x736e
    c75e:	2020                	.insn	2, 0x2020
    c760:	2020                	.insn	2, 0x2020
    c762:	2020                	.insn	2, 0x2020
    c764:	3a20                	.insn	2, 0x3a20
    c766:	2520                	.insn	2, 0x2520
    c768:	756c                	.insn	2, 0x756c
    c76a:	000a                	.insn	2, 0x000a
    c76c:	20434347          	.insn	4, 0x20434347
    c770:	3531                	.insn	2, 0x3531
    c772:	322e                	.insn	2, 0x322e
    c774:	302e                	.insn	2, 0x302e
    c776:	0000                	.insn	2, 0x0000
    c778:	706d6f43          	.insn	4, 0x706d6f43
    c77c:	6c69                	.insn	2, 0x6c69
    c77e:	7265                	.insn	2, 0x7265
    c780:	7620                	.insn	2, 0x7620
    c782:	7265                	.insn	2, 0x7265
    c784:	6e6f6973          	.insn	4, 0x6e6f6973
    c788:	3a20                	.insn	2, 0x3a20
    c78a:	2520                	.insn	2, 0x2520
    c78c:	00000a73          	.insn	4, 0x0a73
    c790:	4f2d                	.insn	2, 0x4f2d
    c792:	662d2033          	.insn	4, 0x662d2033
    c796:	6e75                	.insn	2, 0x6e75
    c798:	6f72                	.insn	2, 0x6f72
    c79a:	6c6c                	.insn	2, 0x6c6c
    c79c:	6c2d                	.insn	2, 0x6c2d
    c79e:	73706f6f          	jal	t5,136d4 <_bss_end+0x2edc>
    c7a2:	2d20                	.insn	2, 0x2d20
    c7a4:	626d                	.insn	2, 0x626d
    c7a6:	6172                	.insn	2, 0x6172
    c7a8:	636e                	.insn	2, 0x636e
    c7aa:	2d68                	.insn	2, 0x2d68
    c7ac:	74736f63          	bltu	t1,t2,cf0a <errpat+0x28e>
    c7b0:	313d                	.insn	2, 0x313d
    c7b2:	2d20                	.insn	2, 0x2d20
    c7b4:	6e66                	.insn	2, 0x6e66
    c7b6:	63732d6f          	jal	s10,3f5ec <_stack_top+0x2b5ec>
    c7ba:	6568                	.insn	2, 0x6568
    c7bc:	7564                	.insn	2, 0x7564
    c7be:	656c                	.insn	2, 0x656c
    c7c0:	692d                	.insn	2, 0x692d
    c7c2:	736e                	.insn	2, 0x736e
    c7c4:	736e                	.insn	2, 0x736e
    c7c6:	2d20                	.insn	2, 0x2d20
    c7c8:	6e66                	.insn	2, 0x6e66
    c7ca:	63732d6f          	jal	s10,3f600 <_stack_top+0x2b600>
    c7ce:	6568                	.insn	2, 0x6568
    c7d0:	7564                	.insn	2, 0x7564
    c7d2:	656c                	.insn	2, 0x656c
    c7d4:	692d                	.insn	2, 0x692d
    c7d6:	736e                	.insn	2, 0x736e
    c7d8:	736e                	.insn	2, 0x736e
    c7da:	2032                	.insn	2, 0x2032
    c7dc:	662d                	.insn	2, 0x662d
    c7de:	6e75                	.insn	2, 0x6e75
    c7e0:	6f72                	.insn	2, 0x6f72
    c7e2:	6c6c                	.insn	2, 0x6c6c
    c7e4:	612d                	.insn	2, 0x612d
    c7e6:	6c6c                	.insn	2, 0x6c6c
    c7e8:	6c2d                	.insn	2, 0x6c2d
    c7ea:	73706f6f          	jal	t5,13720 <_bss_end+0x2f28>
    c7ee:	2d20                	.insn	2, 0x2d20
    c7f0:	702d                	.insn	2, 0x702d
    c7f2:	7261                	.insn	2, 0x7261
    c7f4:	6d61                	.insn	2, 0x6d61
    c7f6:	6d20                	.insn	2, 0x6d20
    c7f8:	7861                	.insn	2, 0x7861
    c7fa:	752d                	.insn	2, 0x752d
    c7fc:	726e                	.insn	2, 0x726e
    c7fe:	656c6c6f          	jal	s8,d2e54 <_stack_top+0xbee54>
    c802:	2d64                	.insn	2, 0x2d64
    c804:	6e69                	.insn	2, 0x6e69
    c806:	3d736e73          	.insn	4, 0x3d736e73
    c80a:	3038                	.insn	2, 0x3038
    c80c:	2030                	.insn	2, 0x2030
    c80e:	2d2d                	.insn	2, 0x2d2d
    c810:	6170                	.insn	2, 0x6170
    c812:	6172                	.insn	2, 0x6172
    c814:	206d                	.insn	2, 0x206d
    c816:	616d                	.insn	2, 0x616d
    c818:	2d78                	.insn	2, 0x2d78
    c81a:	7661                	.insn	2, 0x7661
    c81c:	7265                	.insn	2, 0x7265
    c81e:	6761                	.insn	2, 0x6761
    c820:	2d65                	.insn	2, 0x2d65
    c822:	6e75                	.insn	2, 0x6e75
    c824:	6f72                	.insn	2, 0x6f72
    c826:	6c6c                	.insn	2, 0x6c6c
    c828:	6465                	.insn	2, 0x6465
    c82a:	692d                	.insn	2, 0x692d
    c82c:	736e                	.insn	2, 0x736e
    c82e:	736e                	.insn	2, 0x736e
    c830:	333d                	.insn	2, 0x333d
    c832:	3032                	.insn	2, 0x3032
    c834:	2d20                	.insn	2, 0x2d20
    c836:	6966                	.insn	2, 0x6966
    c838:	6c6e                	.insn	2, 0x6c6e
    c83a:	6e69                	.insn	2, 0x6e69
    c83c:	2d65                	.insn	2, 0x2d65
    c83e:	7566                	.insn	2, 0x7566
    c840:	636e                	.insn	2, 0x636e
    c842:	6974                	.insn	2, 0x6974
    c844:	20736e6f          	jal	t3,4324a <_stack_top+0x2f24a>
    c848:	2d2d                	.insn	2, 0x2d2d
    c84a:	6170                	.insn	2, 0x6170
    c84c:	6172                	.insn	2, 0x6172
    c84e:	206d                	.insn	2, 0x206d
    c850:	616d                	.insn	2, 0x616d
    c852:	2d78                	.insn	2, 0x2d78
    c854:	6e69                	.insn	2, 0x6e69
    c856:	696c                	.insn	2, 0x696c
    c858:	656e                	.insn	2, 0x656e
    c85a:	692d                	.insn	2, 0x692d
    c85c:	736e                	.insn	2, 0x736e
    c85e:	736e                	.insn	2, 0x736e
    c860:	732d                	.insn	2, 0x732d
    c862:	6e69                	.insn	2, 0x6e69
    c864:	3d656c67          	.insn	4, 0x3d656c67
    c868:	3031                	.insn	2, 0x3031
    c86a:	3030                	.insn	2, 0x3030
    c86c:	2d20                	.insn	2, 0x2d20
    c86e:	702d                	.insn	2, 0x702d
    c870:	7261                	.insn	2, 0x7261
    c872:	6d61                	.insn	2, 0x6d61
    c874:	6d20                	.insn	2, 0x6d20
    c876:	7861                	.insn	2, 0x7861
    c878:	692d                	.insn	2, 0x692d
    c87a:	6c6e                	.insn	2, 0x6c6e
    c87c:	6e69                	.insn	2, 0x6e69
    c87e:	2d65                	.insn	2, 0x2d65
    c880:	6e69                	.insn	2, 0x6e69
    c882:	2d736e73          	.insn	4, 0x2d736e73
    c886:	7561                	.insn	2, 0x7561
    c888:	6f74                	.insn	2, 0x6f74
    c88a:	313d                	.insn	2, 0x313d
    c88c:	3030                	.insn	2, 0x3030
    c88e:	2030                	.insn	2, 0x2030
    c890:	2d2d                	.insn	2, 0x2d2d
    c892:	6170                	.insn	2, 0x6170
    c894:	6172                	.insn	2, 0x6172
    c896:	206d                	.insn	2, 0x206d
    c898:	6e69                	.insn	2, 0x6e69
    c89a:	696c                	.insn	2, 0x696c
    c89c:	656e                	.insn	2, 0x656e
    c89e:	752d                	.insn	2, 0x752d
    c8a0:	696e                	.insn	2, 0x696e
    c8a2:	2d74                	.insn	2, 0x2d74
    c8a4:	776f7267          	.insn	4, 0x776f7267
    c8a8:	6874                	.insn	2, 0x6874
    c8aa:	353d                	.insn	2, 0x353d
    c8ac:	3030                	.insn	2, 0x3030
    c8ae:	2d20                	.insn	2, 0x2d20
    c8b0:	6e66                	.insn	2, 0x6e66
    c8b2:	72632d6f          	jal	s10,3efd8 <_stack_top+0x2afd8>
    c8b6:	6a73736f          	jal	t1,4475c <_stack_top+0x3075c>
    c8ba:	6d75                	.insn	2, 0x6d75
    c8bc:	6970                	.insn	2, 0x6970
    c8be:	676e                	.insn	2, 0x676e
    c8c0:	2d20                	.insn	2, 0x2d20
    c8c2:	2d20324f          	.insn	4, 0x2d20324f
    c8c6:	7366                	.insn	2, 0x7366
    c8c8:	64656863          	bltu	a0,t1,cf18 <errpat+0x29c>
    c8cc:	6c75                	.insn	2, 0x6c75
    c8ce:	2d65                	.insn	2, 0x2d65
    c8d0:	6e69                	.insn	2, 0x6e69
    c8d2:	20736e73          	.insn	4, 0x20736e73
    c8d6:	662d                	.insn	2, 0x662d
    c8d8:	65686373          	.insn	4, 0x65686373
    c8dc:	7564                	.insn	2, 0x7564
    c8de:	656c                	.insn	2, 0x656c
    c8e0:	692d                	.insn	2, 0x692d
    c8e2:	736e                	.insn	2, 0x736e
    c8e4:	736e                	.insn	2, 0x736e
    c8e6:	2032                	.insn	2, 0x2032
    c8e8:	662d                	.insn	2, 0x662d
    c8ea:	6f6e                	.insn	2, 0x6f6e
    c8ec:	632d                	.insn	2, 0x632d
    c8ee:	6c61                	.insn	2, 0x6c61
    c8f0:	656c                	.insn	2, 0x656c
    c8f2:	2d72                	.insn	2, 0x2d72
    c8f4:	65766173          	.insn	4, 0x65766173
    c8f8:	662d2073          	.insn	4, 0x662d2073
    c8fc:	6f6e                	.insn	2, 0x6f6e
    c8fe:	612d                	.insn	2, 0x612d
    c900:	7475                	.insn	2, 0x7475
    c902:	6e692d6f          	jal	s10,9efe8 <_stack_top+0x8afe8>
    c906:	65642d63          	.insn	4, 0x65642d63
    c90a:	6d2d2063          	.insn	4, 0x6d2d2063
    c90e:	7261                	.insn	2, 0x7261
    c910:	723d6863          	bltu	s10,gp,d040 <errpat+0x3c4>
    c914:	3376                	.insn	2, 0x3376
    c916:	6932                	.insn	2, 0x6932
    c918:	7a5f 6d6d 6c75      	.insn	6, 0x6c756d6d7a5f
    c91e:	7a5f 6162 7a5f      	.insn	6, 0x7a5f61627a5f
    c924:	6262                	.insn	2, 0x6262
    c926:	7a5f 7362 7a5f      	.insn	6, 0x7a5f73627a5f
    c92c:	6369                	.insn	2, 0x6369
    c92e:	5f646e6f          	jal	t3,52f24 <_stack_top+0x3ef24>
    c932:	7478                	.insn	2, 0x7478
    c934:	6568                	.insn	2, 0x6568
    c936:	6461                	.insn	2, 0x6461
    c938:	6162                	.insn	2, 0x6162
    c93a:	785f 6874 6165      	.insn	6, 0x61656874785f
    c940:	6264                	.insn	2, 0x6264
    c942:	5f62                	.insn	2, 0x5f62
    c944:	7478                	.insn	2, 0x7478
    c946:	6568                	.insn	2, 0x6568
    c948:	6461                	.insn	2, 0x6461
    c94a:	7362                	.insn	2, 0x7362
    c94c:	785f 6874 6165      	.insn	6, 0x61656874785f
    c952:	6364                	.insn	2, 0x6364
    c954:	6d646e6f          	jal	t3,5302a <_stack_top+0x3f02a>
    c958:	785f766f          	jal	a2,1048dc <_stack_top+0xf08dc>
    c95c:	6874                	.insn	2, 0x6874
    c95e:	6165                	.insn	2, 0x6165
    c960:	6d64                	.insn	2, 0x6d64
    c962:	6d65                	.insn	2, 0x6d65
    c964:	6469                	.insn	2, 0x6469
    c966:	5f78                	.insn	2, 0x5f78
    c968:	697a                	.insn	2, 0x697a
    c96a:	20727363          	bgeu	tp,t2,cb70 <__modsi3+0x66c>
    c96e:	6d2d                	.insn	2, 0x6d2d
    c970:	6261                	.insn	2, 0x6261
    c972:	3d69                	.insn	2, 0x3d69
    c974:	6c69                	.insn	2, 0x6c69
    c976:	3370                	.insn	2, 0x3370
    c978:	0032                	.insn	2, 0x0032
    c97a:	0000                	.insn	2, 0x0000
    c97c:	706d6f43          	.insn	4, 0x706d6f43
    c980:	6c69                	.insn	2, 0x6c69
    c982:	7265                	.insn	2, 0x7265
    c984:	6620                	.insn	2, 0x6620
    c986:	616c                	.insn	2, 0x616c
    c988:	20207367          	.insn	4, 0x20207367
    c98c:	3a20                	.insn	2, 0x3a20
    c98e:	2520                	.insn	2, 0x2520
    c990:	00000a73          	.insn	4, 0x0a73
    c994:	20436f53          	.insn	4, 0x20436f53
    c998:	4f52                	.insn	2, 0x4f52
    c99a:	2f4d                	.insn	2, 0x2f4d
    c99c:	4152                	.insn	2, 0x4152
    c99e:	004d                	.insn	2, 0x004d
    c9a0:	654d                	.insn	2, 0x654d
    c9a2:	6f6d                	.insn	2, 0x6f6d
    c9a4:	7972                	.insn	2, 0x7972
    c9a6:	6c20                	.insn	2, 0x6c20
    c9a8:	7461636f          	jal	t1,230ee <_stack_top+0xf0ee>
    c9ac:	6f69                	.insn	2, 0x6f69
    c9ae:	206e                	.insn	2, 0x206e
    c9b0:	3a20                	.insn	2, 0x3a20
    c9b2:	2520                	.insn	2, 0x2520
    c9b4:	00000a73          	.insn	4, 0x0a73
    c9b8:	64656573          	.insn	4, 0x64656573
    c9bc:	20637263          	bgeu	t1,t1,cbc0 <__modsi3+0x6bc>
    c9c0:	2020                	.insn	2, 0x2020
    c9c2:	2020                	.insn	2, 0x2020
    c9c4:	2020                	.insn	2, 0x2020
    c9c6:	2020                	.insn	2, 0x2020
    c9c8:	3a20                	.insn	2, 0x3a20
    c9ca:	3020                	.insn	2, 0x3020
    c9cc:	2578                	.insn	2, 0x2578
    c9ce:	3430                	.insn	2, 0x3430
    c9d0:	0a78                	.insn	2, 0x0a78
    c9d2:	0000                	.insn	2, 0x0000
    c9d4:	5d64255b          	.insn	4, 0x5d64255b
    c9d8:	6c637263          	bgeu	t1,t1,d09c <errpat+0x420>
    c9dc:	7369                	.insn	2, 0x7369
    c9de:	2074                	.insn	2, 0x2074
    c9e0:	2020                	.insn	2, 0x2020
    c9e2:	2020                	.insn	2, 0x2020
    c9e4:	2020                	.insn	2, 0x2020
    c9e6:	203a                	.insn	2, 0x203a
    c9e8:	7830                	.insn	2, 0x7830
    c9ea:	3025                	.insn	2, 0x3025
    c9ec:	7834                	.insn	2, 0x7834
    c9ee:	000a                	.insn	2, 0x000a
    c9f0:	5d64255b          	.insn	4, 0x5d64255b
    c9f4:	6d637263          	bgeu	t1,s6,d0b8 <_data_load_start+0x10>
    c9f8:	7461                	.insn	2, 0x7461
    c9fa:	6972                	.insn	2, 0x6972
    c9fc:	2078                	.insn	2, 0x2078
    c9fe:	2020                	.insn	2, 0x2020
    ca00:	2020                	.insn	2, 0x2020
    ca02:	203a                	.insn	2, 0x203a
    ca04:	7830                	.insn	2, 0x7830
    ca06:	3025                	.insn	2, 0x3025
    ca08:	7834                	.insn	2, 0x7834
    ca0a:	000a                	.insn	2, 0x000a
    ca0c:	5d64255b          	.insn	4, 0x5d64255b
    ca10:	73637263          	bgeu	t1,s6,d134 <_data_load_start+0x8c>
    ca14:	6174                	.insn	2, 0x6174
    ca16:	6574                	.insn	2, 0x6574
    ca18:	2020                	.insn	2, 0x2020
    ca1a:	2020                	.insn	2, 0x2020
    ca1c:	2020                	.insn	2, 0x2020
    ca1e:	203a                	.insn	2, 0x203a
    ca20:	7830                	.insn	2, 0x7830
    ca22:	3025                	.insn	2, 0x3025
    ca24:	7834                	.insn	2, 0x7834
    ca26:	000a                	.insn	2, 0x000a
    ca28:	5d64255b          	.insn	4, 0x5d64255b
    ca2c:	66637263          	bgeu	t1,t1,d090 <errpat+0x414>
    ca30:	6e69                	.insn	2, 0x6e69
    ca32:	6c61                	.insn	2, 0x6c61
    ca34:	2020                	.insn	2, 0x2020
    ca36:	2020                	.insn	2, 0x2020
    ca38:	2020                	.insn	2, 0x2020
    ca3a:	203a                	.insn	2, 0x203a
    ca3c:	7830                	.insn	2, 0x7830
    ca3e:	3025                	.insn	2, 0x3025
    ca40:	7834                	.insn	2, 0x7834
    ca42:	000a                	.insn	2, 0x000a
    ca44:	72726f43          	.insn	4, 0x72726f43
    ca48:	6365                	.insn	2, 0x6365
    ca4a:	2074                	.insn	2, 0x2074
    ca4c:	7265706f          	j	64172 <_stack_top+0x50172>
    ca50:	7461                	.insn	2, 0x7461
    ca52:	6f69                	.insn	2, 0x6f69
    ca54:	206e                	.insn	2, 0x206e
    ca56:	6176                	.insn	2, 0x6176
    ca58:	696c                	.insn	2, 0x696c
    ca5a:	6164                	.insn	2, 0x6164
    ca5c:	6574                	.insn	2, 0x6574
    ca5e:	2e64                	.insn	2, 0x2e64
    ca60:	5320                	.insn	2, 0x5320
    ca62:	6565                	.insn	2, 0x6565
    ca64:	5220                	.insn	2, 0x5220
    ca66:	4145                	.insn	2, 0x4145
    ca68:	4d44                	.insn	2, 0x4d44
    ca6a:	2e45                	.insn	2, 0x2e45
    ca6c:	646d                	.insn	2, 0x646d
    ca6e:	6620                	.insn	2, 0x6620
    ca70:	7220726f          	jal	tp,14192 <_stack_top+0x192>
    ca74:	6e75                	.insn	2, 0x6e75
    ca76:	6120                	.insn	2, 0x6120
    ca78:	646e                	.insn	2, 0x646e
    ca7a:	7220                	.insn	2, 0x7220
    ca7c:	7065                	.insn	2, 0x7065
    ca7e:	6974726f          	jal	tp,54914 <_stack_top+0x40914>
    ca82:	676e                	.insn	2, 0x676e
    ca84:	7220                	.insn	2, 0x7220
    ca86:	6c75                	.insn	2, 0x6c75
    ca88:	7365                	.insn	2, 0x7365
    ca8a:	0a2e                	.insn	2, 0x0a2e
    ca8c:	0000                	.insn	2, 0x0000
    ca8e:	0000                	.insn	2, 0x0000
    ca90:	6e6e6143          	.insn	4, 0x6e6e6143
    ca94:	7620746f          	jal	s0,141f6 <_stack_top+0x1f6>
    ca98:	6c61                	.insn	2, 0x6c61
    ca9a:	6469                	.insn	2, 0x6469
    ca9c:	7461                	.insn	2, 0x7461
    ca9e:	2065                	.insn	2, 0x2065
    caa0:	7265706f          	j	641c6 <_stack_top+0x501c6>
    caa4:	7461                	.insn	2, 0x7461
    caa6:	6f69                	.insn	2, 0x6f69
    caa8:	206e                	.insn	2, 0x206e
    caaa:	6f66                	.insn	2, 0x6f66
    caac:	2072                	.insn	2, 0x2072
    caae:	6874                	.insn	2, 0x6874
    cab0:	7365                	.insn	2, 0x7365
    cab2:	2065                	.insn	2, 0x2065
    cab4:	64656573          	.insn	4, 0x64656573
    cab8:	7620                	.insn	2, 0x7620
    caba:	6c61                	.insn	2, 0x6c61
    cabc:	6575                	.insn	2, 0x6575
    cabe:	70202c73          	.insn	4, 0x70202c73
    cac2:	656c                	.insn	2, 0x656c
    cac4:	7361                	.insn	2, 0x7361
    cac6:	2065                	.insn	2, 0x2065
    cac8:	706d6f63          	bltu	s10,t1,d1e6 <_data_load_start+0x13e>
    cacc:	7261                	.insn	2, 0x7261
    cace:	2065                	.insn	2, 0x2065
    cad0:	68746977          	.insn	4, 0x68746977
    cad4:	7220                	.insn	2, 0x7220
    cad6:	7365                	.insn	2, 0x7365
    cad8:	6c75                	.insn	2, 0x6c75
    cada:	7374                	.insn	2, 0x7374
    cadc:	6f20                	.insn	2, 0x6f20
    cade:	206e                	.insn	2, 0x206e
    cae0:	2061                	.insn	2, 0x2061
    cae2:	776f6e6b          	.insn	4, 0x776f6e6b
    cae6:	206e                	.insn	2, 0x206e
    cae8:	6c70                	.insn	2, 0x6c70
    caea:	7461                	.insn	2, 0x7461
    caec:	6f66                	.insn	2, 0x6f66
    caee:	6d72                	.insn	2, 0x6d72
    caf0:	0a2e                	.insn	2, 0x0a2e
    caf2:	0000                	.insn	2, 0x0000
    caf4:	7245                	.insn	2, 0x7245
    caf6:	6f72                	.insn	2, 0x6f72
    caf8:	7372                	.insn	2, 0x7372
    cafa:	6420                	.insn	2, 0x6420
    cafc:	7465                	.insn	2, 0x7465
    cafe:	6365                	.insn	2, 0x6365
    cb00:	6574                	.insn	2, 0x6574
    cb02:	0a64                	.insn	2, 0x0a64
    cb04:	0000                	.insn	2, 0x0000
    cb06:	0000                	.insn	2, 0x0000
    cb08:	74617453          	.insn	4, 0x74617453
    cb0c:	6369                	.insn	2, 0x6369
    cb0e:	0000                	.insn	2, 0x0000
    cb10:	6548                	.insn	2, 0x6548
    cb12:	7061                	.insn	2, 0x7061
    cb14:	0000                	.insn	2, 0x0000
    cb16:	0000                	.insn	2, 0x0000
    cb18:	63617453          	.insn	4, 0x63617453
    cb1c:	0000006b          	.insn	4, 0x006b
    cb20:	3054                	.insn	2, 0x3054
    cb22:	332e                	.insn	2, 0x332e
    cb24:	2d65                	.insn	2, 0x2d65
    cb26:	4631                	.insn	2, 0x4631
    cb28:	0000                	.insn	2, 0x0000
    cb2a:	0000                	.insn	2, 0x0000
    cb2c:	542d                	.insn	2, 0x542d
    cb2e:	542e                	.insn	2, 0x542e
    cb30:	71542b2b          	.insn	4, 0x71542b2b
    cb34:	0000                	.insn	2, 0x0000
    cb36:	0000                	.insn	2, 0x0000
    cb38:	5431                	.insn	2, 0x5431
    cb3a:	65342e33          	.insn	4, 0x65342e33
    cb3e:	7a34                	.insn	2, 0x7a34
    cb40:	0000                	.insn	2, 0x0000
    cb42:	0000                	.insn	2, 0x0000
    cb44:	302e3433          	.insn	4, 0x302e3433
    cb48:	2d65                	.insn	2, 0x2d65
    cb4a:	5e54                	.insn	2, 0x5e54
    cb4c:	0000                	.insn	2, 0x0000
    cb4e:	0000                	.insn	2, 0x0000
    cb50:	2e35                	.insn	2, 0x2e35
    cb52:	3035                	.insn	2, 0x3035
    cb54:	6530                	.insn	2, 0x6530
    cb56:	0000332b          	.insn	4, 0x332b
    cb5a:	0000                	.insn	2, 0x0000
    cb5c:	2e2d                	.insn	2, 0x2e2d
    cb5e:	3231                	.insn	2, 0x3231
    cb60:	322d6533          	.insn	4, 0x322d6533
    cb64:	0000                	.insn	2, 0x0000
    cb66:	0000                	.insn	2, 0x0000
    cb68:	382d                	.insn	2, 0x382d
    cb6a:	382b6537          	lui	a0,0x382b6
    cb6e:	00003233          	snez	tp,zero
    cb72:	0000                	.insn	2, 0x0000
    cb74:	362e302b          	.insn	4, 0x362e302b
    cb78:	2d65                	.insn	2, 0x2d65
    cb7a:	3231                	.insn	2, 0x3231
    cb7c:	0000                	.insn	2, 0x0000
    cb7e:	0000                	.insn	2, 0x0000
    cb80:	352e3533          	.insn	4, 0x352e3533
    cb84:	3434                	.insn	2, 0x3434
    cb86:	3030                	.insn	2, 0x3030
    cb88:	0000                	.insn	2, 0x0000
    cb8a:	0000                	.insn	2, 0x0000
    cb8c:	312e                	.insn	2, 0x312e
    cb8e:	3332                	.insn	2, 0x3332
    cb90:	3534                	.insn	2, 0x3534
    cb92:	3030                	.insn	2, 0x3030
    cb94:	0000                	.insn	2, 0x0000
    cb96:	0000                	.insn	2, 0x0000
    cb98:	312d                	.insn	2, 0x312d
    cb9a:	3031                	.insn	2, 0x3031
    cb9c:	372e                	.insn	2, 0x372e
    cb9e:	3030                	.insn	2, 0x3030
    cba0:	0000                	.insn	2, 0x0000
    cba2:	0000                	.insn	2, 0x0000
    cba4:	362e302b          	.insn	4, 0x362e302b
    cba8:	3434                	.insn	2, 0x3434
    cbaa:	3030                	.insn	2, 0x3030
    cbac:	0000                	.insn	2, 0x0000
    cbae:	0000                	.insn	2, 0x0000
    cbb0:	3035                	.insn	2, 0x3035
    cbb2:	3231                	.insn	2, 0x3231
    cbb4:	0000                	.insn	2, 0x0000
    cbb6:	0000                	.insn	2, 0x0000
    cbb8:	3231                	.insn	2, 0x3231
    cbba:	00003433          	snez	s0,zero
    cbbe:	0000                	.insn	2, 0x0000
    cbc0:	382d                	.insn	2, 0x382d
    cbc2:	00003437          	lui	s0,0x3
    cbc6:	0000                	.insn	2, 0x0000
    cbc8:	3232312b          	.insn	4, 0x3232312b
    cbcc:	0000                	.insn	2, 0x0000
    cbce:	0000                	.insn	2, 0x0000
    cbd0:	4e3c                	.insn	2, 0x4e3c
    cbd2:	4c55                	.insn	2, 0x4c55
    cbd4:	3e4c                	.insn	2, 0x3e4c
    cbd6:	0000                	.insn	2, 0x0000
    cbd8:	3130                	.insn	2, 0x3130
    cbda:	3332                	.insn	2, 0x3332
    cbdc:	3534                	.insn	2, 0x3534
    cbde:	3736                	.insn	2, 0x3736
    cbe0:	3938                	.insn	2, 0x3938
    cbe2:	6261                	.insn	2, 0x6261
    cbe4:	66656463          	bltu	a0,t1,d24c <_data_load_start+0x1a4>
    cbe8:	6a696867          	.insn	4, 0x6a696867
    cbec:	6e6d6c6b          	.insn	4, 0x6e6d6c6b
    cbf0:	7271706f          	j	24b16 <_stack_top+0x10b16>
    cbf4:	76757473          	.insn	4, 0x76757473
    cbf8:	7a797877          	.insn	4, 0x7a797877
    cbfc:	0000                	.insn	2, 0x0000
    cbfe:	0000                	.insn	2, 0x0000
    cc00:	3130                	.insn	2, 0x3130
    cc02:	3332                	.insn	2, 0x3332
    cc04:	3534                	.insn	2, 0x3534
    cc06:	3736                	.insn	2, 0x3736
    cc08:	3938                	.insn	2, 0x3938
    cc0a:	4241                	.insn	2, 0x4241
    cc0c:	46454443          	.insn	4, 0x46454443
    cc10:	4a494847          	.insn	4, 0x4a494847
    cc14:	4e4d4c4b          	.insn	4, 0x4e4d4c4b
    cc18:	5251504f          	.insn	4, 0x5251504f
    cc1c:	56555453          	.insn	4, 0x56555453
    cc20:	5a595857          	.insn	4, 0x5a595857
    cc24:	0000                	.insn	2, 0x0000
	...

0000cc28 <list_known_crc>:
    cc28:	d4b0 3340 6a79 e714 e3c1 0000               ..@3yj......

0000cc34 <matrix_known_crc>:
    cc34:	be52 1199 5608 1fd7 0747 0000               R....V..G...

0000cc40 <state_known_crc>:
    cc40:	5e47 39bf e5a4 8e3a 8d84 0000               G^.9..:.....

0000cc4c <intpat>:
    cc4c:	cbb0 0000 cbb8 0000 cbc0 0000 cbc8 0000     ................

0000cc5c <floatpat>:
    cc5c:	cb80 0000 cb8c 0000 cb98 0000 cba4 0000     ................

0000cc6c <scipat>:
    cc6c:	cb50 0000 cb5c 0000 cb68 0000 cb74 0000     P...\...h...t...

0000cc7c <errpat>:
    cc7c:	cb20 0000 cb2c 0000 cb38 0000 cb44 0000      ...,...8...D...
    cc8c:	95f0 0000 95c0 0000 95cc 0000 95d8 0000     ................
    cc9c:	95e4 0000 95b4 0000 0000 8005 800f 000a     ................
    ccac:	801b 001e 0014 8011 8033 0036 003c 8039     ........3.6.<.9.
    ccbc:	0028 802d 8027 0022 8063 0066 006c 8069     (.-.'.".c.f.l.i.
    cccc:	0078 807d 8077 0072 0050 8055 805f 005a     x.}.w.r.P.U._.Z.
    ccdc:	804b 004e 0044 8041 80c3 00c6 00cc 80c9     K.N.D.A.........
    ccec:	00d8 80dd 80d7 00d2 00f0 80f5 80ff 00fa     ................
    ccfc:	80eb 00ee 00e4 80e1 00a0 80a5 80af 00aa     ................
    cd0c:	80bb 00be 00b4 80b1 8093 0096 009c 8099     ................
    cd1c:	0088 808d 8087 0082 8183 0186 018c 8189     ................
    cd2c:	0198 819d 8197 0192 01b0 81b5 81bf 01ba     ................
    cd3c:	81ab 01ae 01a4 81a1 01e0 81e5 81ef 01ea     ................
    cd4c:	81fb 01fe 01f4 81f1 81d3 01d6 01dc 81d9     ................
    cd5c:	01c8 81cd 81c7 01c2 0140 8145 814f 014a     ........@.E.O.J.
    cd6c:	815b 015e 0154 8151 8173 0176 017c 8179     [.^.T.Q.s.v.|.y.
    cd7c:	0168 816d 8167 0162 8123 0126 012c 8129     h.m.g.b.#.&.,.).
    cd8c:	0138 813d 8137 0132 0110 8115 811f 011a     8.=.7.2.........
    cd9c:	810b 010e 0104 8101 8303 0306 030c 8309     ................
    cdac:	0318 831d 8317 0312 0330 8335 833f 033a     ........0.5.?.:.
    cdbc:	832b 032e 0324 8321 0360 8365 836f 036a     +...$.!.`.e.o.j.
    cdcc:	837b 037e 0374 8371 8353 0356 035c 8359     {.~.t.q.S.V.\.Y.
    cddc:	0348 834d 8347 0342 03c0 83c5 83cf 03ca     H.M.G.B.........
    cdec:	83db 03de 03d4 83d1 83f3 03f6 03fc 83f9     ................
    cdfc:	03e8 83ed 83e7 03e2 83a3 03a6 03ac 83a9     ................
    ce0c:	03b8 83bd 83b7 03b2 0390 8395 839f 039a     ................
    ce1c:	838b 038e 0384 8381 0280 8285 828f 028a     ................
    ce2c:	829b 029e 0294 8291 82b3 02b6 02bc 82b9     ................
    ce3c:	02a8 82ad 82a7 02a2 82e3 02e6 02ec 82e9     ................
    ce4c:	02f8 82fd 82f7 02f2 02d0 82d5 82df 02da     ................
    ce5c:	82cb 02ce 02c4 82c1 8243 0246 024c 8249     ........C.F.L.I.
    ce6c:	0258 825d 8257 0252 0270 8275 827f 027a     X.].W.R.p.u...z.
    ce7c:	826b 026e 0264 8261 0220 8225 822f 022a     k.n.d.a. .%./.*.
    ce8c:	823b 023e 0234 8231 8213 0216 021c 8219     ;.>.4.1.........
    ce9c:	0208 820d 8207 0202 9bbc 0000 9b40 0000     ............@...
    ceac:	9b40 0000 9bb0 0000 9b40 0000 9b40 0000     @.......@...@...
    cebc:	9b40 0000 9b40 0000 9b40 0000 9b40 0000     @...@...@...@...
    cecc:	9b40 0000 9ba4 0000 9b40 0000 9b98 0000     @.......@.......
    cedc:	9b40 0000 9b40 0000 9b8c 0000 b0e8 0000     @...@...........
    ceec:	9bc8 0000 9bc8 0000 9bc8 0000 9bc8 0000     ................
    cefc:	9bc8 0000 9bc8 0000 9bc8 0000 9bc8 0000     ................
    cf0c:	9bc8 0000 9bc8 0000 9bc8 0000 9bc8 0000     ................
    cf1c:	9bc8 0000 9bc8 0000 9bc8 0000 9bc8 0000     ................
    cf2c:	9bc8 0000 9bc8 0000 9bc8 0000 9bc8 0000     ................
    cf3c:	9bc8 0000 9bc8 0000 bf9c 0000 9bc8 0000     ................
    cf4c:	9bc8 0000 9bc8 0000 9bc8 0000 9bc8 0000     ................
    cf5c:	9bc8 0000 9bc8 0000 9bc8 0000 bf94 0000     ................
    cf6c:	9bc8 0000 a4a0 0000 bb78 0000 9bc8 0000     ........x.......
    cf7c:	9bc8 0000 9bc8 0000 9bc8 0000 bb78 0000     ............x...
    cf8c:	9bc8 0000 9bc8 0000 9bc8 0000 9bc8 0000     ................
    cf9c:	9bc8 0000 9d80 0000 a420 0000 9bc8 0000     ........ .......
    cfac:	9bc8 0000 a138 0000 9bc8 0000 a5d4 0000     ....8...........
    cfbc:	9bc8 0000 9bc8 0000 a584 0000 ae68 0000     ............h...
    cfcc:	9bcc 0000 9bcc 0000 9bcc 0000 9bcc 0000     ................
    cfdc:	9bcc 0000 9bcc 0000 9bcc 0000 9bcc 0000     ................
    cfec:	9bcc 0000 9bcc 0000 9bcc 0000 9bcc 0000     ................
    cffc:	9bcc 0000 9bcc 0000 9bcc 0000 9bcc 0000     ................
    d00c:	9bcc 0000 9bcc 0000 9bcc 0000 9bcc 0000     ................
    d01c:	9bcc 0000 9bcc 0000 ae20 0000 9bcc 0000     ........ .......
    d02c:	9bcc 0000 9bcc 0000 9bcc 0000 9bcc 0000     ................
    d03c:	9bcc 0000 9bcc 0000 9bcc 0000 a990 0000     ................
    d04c:	9bcc 0000 a4a4 0000 a958 0000 9bcc 0000     ........X.......
    d05c:	9bcc 0000 9bcc 0000 9bcc 0000 a958 0000     ............X...
    d06c:	9bcc 0000 9bcc 0000 9bcc 0000 9bcc 0000     ................
    d07c:	9bcc 0000 9d84 0000 a424 0000 9bcc 0000     ........$.......
    d08c:	9bcc 0000 a13c 0000 9bcc 0000 a5d8 0000     ....<...........
    d09c:	9bcc 0000 9bcc 0000 a588 0000               ............
