
D:\BaiduSyncdisk\02_icdc_workspace\.worktrees\coremark7-dmips5-20260508\YH_rv_cpu\build\sw\YH_rv_cpu_coremark_rv32i_zmmul_zba_zbb_zbs_zicond_xthead_memidx_noautoinc_o2sched_nocaller_profile.elf:     file format elf32-littleriscv


Disassembly of section .text:

00000000 <_start>:
       0:	00014117          	auipc	sp,0x14
       4:	00010113          	mv	sp,sp
       8:	0000e517          	auipc	a0,0xe
       c:	9bc50513          	addi	a0,a0,-1604 # d9c4 <_data_load_start>
      10:	00010597          	auipc	a1,0x10
      14:	ff058593          	addi	a1,a1,-16 # 10000 <default_num_contexts>
      18:	00010617          	auipc	a2,0x10
      1c:	ff460613          	addi	a2,a2,-12 # 1000c <core_cached_prev_head>
      20:	00c5fc63          	bgeu	a1,a2,38 <_start+0x38>
      24:	00054283          	lbu	t0,0(a0)
      28:	00558023          	sb	t0,0(a1)
      2c:	00150513          	addi	a0,a0,1
      30:	00158593          	addi	a1,a1,1
      34:	fedff06f          	j	20 <_start+0x20>
      38:	00010517          	auipc	a0,0x10
      3c:	fd450513          	addi	a0,a0,-44 # 1000c <core_cached_prev_head>
      40:	00010597          	auipc	a1,0x10
      44:	7b858593          	addi	a1,a1,1976 # 107f8 <_bss_end>
      48:	00b57863          	bgeu	a0,a1,58 <_start+0x58>
      4c:	00050023          	sb	zero,0(a0)
      50:	00150513          	addi	a0,a0,1
      54:	ff5ff06f          	j	48 <_start+0x48>
      58:	480030ef          	jal	34d8 <main>
      5c:	0000006f          	j	5c <_start+0x5c>

00000060 <calc_func>:
      60:	fe010113          	addi	sp,sp,-32 # 13fe0 <_bss_end+0x37e8>
      64:	00812c23          	sw	s0,24(sp)
      68:	00051403          	lh	s0,0(a0)
      6c:	00112e23          	sw	ra,28(sp)
      70:	48745793          	bexti	a5,s0,0x7
      74:	00078c63          	beqz	a5,8c <calc_func+0x2c>
      78:	01c12083          	lw	ra,28(sp)
      7c:	07f47513          	andi	a0,s0,127
      80:	01812403          	lw	s0,24(sp)
      84:	02010113          	addi	sp,sp,32
      88:	00008067          	ret
      8c:	1834370b          	th.extu	a4,s0,6,3
      90:	00471293          	slli	t0,a4,0x4
      94:	00912a23          	sw	s1,20(sp)
      98:	01212823          	sw	s2,16(sp)
      9c:	00570633          	add	a2,a4,t0
      a0:	01312623          	sw	s3,12(sp)
      a4:	00747693          	andi	a3,s0,7
      a8:	0385d783          	lhu	a5,56(a1)
      ac:	00058493          	mv	s1,a1
      b0:	00050913          	mv	s2,a0
      b4:	00060713          	mv	a4,a2
      b8:	06068c63          	beqz	a3,130 <calc_func+0xd0>
      bc:	00100513          	li	a0,1
      c0:	06a69263          	bne	a3,a0,124 <calc_func+0xc4>
      c4:	00070593          	mv	a1,a4
      c8:	00078613          	mv	a2,a5
      cc:	02848513          	addi	a0,s1,40
      d0:	538040ef          	jal	4608 <core_bench_matrix>
      d4:	03c4d583          	lhu	a1,60(s1)
      d8:	00050993          	mv	s3,a0
      dc:	08058463          	beqz	a1,164 <calc_func+0x104>
      e0:	0384d783          	lhu	a5,56(s1)
      e4:	00078593          	mv	a1,a5
      e8:	790090ef          	jal	9878 <crcu16>
      ec:	00050813          	mv	a6,a0
      f0:	f0047893          	andi	a7,s0,-256
      f4:	07f9f513          	andi	a0,s3,127
      f8:	01c12083          	lw	ra,28(sp)
      fc:	01812403          	lw	s0,24(sp)
     100:	01156e33          	or	t3,a0,a7
     104:	03049c23          	sh	a6,56(s1)
     108:	080e6e93          	ori	t4,t3,128
     10c:	01d91023          	sh	t4,0(s2)
     110:	01412483          	lw	s1,20(sp)
     114:	01012903          	lw	s2,16(sp)
     118:	00c12983          	lw	s3,12(sp)
     11c:	02010113          	addi	sp,sp,32
     120:	00008067          	ret
     124:	3c04350b          	th.extu	a0,s0,15,0
     128:	00040993          	mv	s3,s0
     12c:	fb9ff06f          	j	e4 <calc_func+0x84>
     130:	02100313          	li	t1,33
     134:	00c36463          	bltu	t1,a2,13c <calc_func+0xdc>
     138:	02200713          	li	a4,34
     13c:	00249683          	lh	a3,2(s1)
     140:	00049603          	lh	a2,0(s1)
     144:	0144a583          	lw	a1,20(s1)
     148:	0184a503          	lw	a0,24(s1)
     14c:	7b4080ef          	jal	8900 <core_bench_state>
     150:	03e4d383          	lhu	t2,62(s1)
     154:	00050993          	mv	s3,a0
     158:	00038c63          	beqz	t2,170 <calc_func+0x110>
     15c:	0384d783          	lhu	a5,56(s1)
     160:	f85ff06f          	j	e4 <calc_func+0x84>
     164:	0384d783          	lhu	a5,56(s1)
     168:	02a49e23          	sh	a0,60(s1)
     16c:	f79ff06f          	j	e4 <calc_func+0x84>
     170:	0384d783          	lhu	a5,56(s1)
     174:	02a49f23          	sh	a0,62(s1)
     178:	f6dff06f          	j	e4 <calc_func+0x84>

0000017c <cmp_complex>:
     17c:	fe010113          	addi	sp,sp,-32
     180:	00812c23          	sw	s0,24(sp)
     184:	00051403          	lh	s0,0(a0)
     188:	00912a23          	sw	s1,20(sp)
     18c:	01312623          	sw	s3,12(sp)
     190:	00112e23          	sw	ra,28(sp)
     194:	01212823          	sw	s2,16(sp)
     198:	48745793          	bexti	a5,s0,0x7
     19c:	00058993          	mv	s3,a1
     1a0:	00060493          	mv	s1,a2
     1a4:	02078c63          	beqz	a5,1dc <cmp_complex+0x60>
     1a8:	07f47913          	andi	s2,s0,127
     1ac:	00099403          	lh	s0,0(s3)
     1b0:	48745e93          	bexti	t4,s0,0x7
     1b4:	0a0e8263          	beqz	t4,258 <cmp_complex+0xdc>
     1b8:	01c12083          	lw	ra,28(sp)
     1bc:	07f47313          	andi	t1,s0,127
     1c0:	01812403          	lw	s0,24(sp)
     1c4:	01412483          	lw	s1,20(sp)
     1c8:	00c12983          	lw	s3,12(sp)
     1cc:	40690533          	sub	a0,s2,t1
     1d0:	01012903          	lw	s2,16(sp)
     1d4:	02010113          	addi	sp,sp,32
     1d8:	00008067          	ret
     1dc:	1834370b          	th.extu	a4,s0,6,3
     1e0:	00471293          	slli	t0,a4,0x4
     1e4:	01412423          	sw	s4,8(sp)
     1e8:	00570633          	add	a2,a4,t0
     1ec:	00747693          	andi	a3,s0,7
     1f0:	0384d783          	lhu	a5,56(s1)
     1f4:	00050a13          	mv	s4,a0
     1f8:	00060713          	mv	a4,a2
     1fc:	12068a63          	beqz	a3,330 <cmp_complex+0x1b4>
     200:	00100513          	li	a0,1
     204:	0ea69063          	bne	a3,a0,2e4 <cmp_complex+0x168>
     208:	00070593          	mv	a1,a4
     20c:	00078613          	mv	a2,a5
     210:	02848513          	addi	a0,s1,40
     214:	3f4040ef          	jal	4608 <core_bench_matrix>
     218:	03c4d583          	lhu	a1,60(s1)
     21c:	00050913          	mv	s2,a0
     220:	14058e63          	beqz	a1,37c <cmp_complex+0x200>
     224:	0384d783          	lhu	a5,56(s1)
     228:	00078593          	mv	a1,a5
     22c:	64c090ef          	jal	9878 <crcu16>
     230:	f0047813          	andi	a6,s0,-256
     234:	07f97913          	andi	s2,s2,127
     238:	010968b3          	or	a7,s2,a6
     23c:	02a49c23          	sh	a0,56(s1)
     240:	0808ee13          	ori	t3,a7,128
     244:	01ca1023          	sh	t3,0(s4)
     248:	00099403          	lh	s0,0(s3)
     24c:	00812a03          	lw	s4,8(sp)
     250:	48745e93          	bexti	t4,s0,0x7
     254:	f60e92e3          	bnez	t4,1b8 <cmp_complex+0x3c>
     258:	18343f0b          	th.extu	t5,s0,6,3
     25c:	004f1f93          	slli	t6,t5,0x4
     260:	01412423          	sw	s4,8(sp)
     264:	01ff02b3          	add	t0,t5,t6
     268:	00747a13          	andi	s4,s0,7
     26c:	0384d783          	lhu	a5,56(s1)
     270:	00028713          	mv	a4,t0
     274:	080a0463          	beqz	s4,2fc <cmp_complex+0x180>
     278:	00100613          	li	a2,1
     27c:	06ca1a63          	bne	s4,a2,2f0 <cmp_complex+0x174>
     280:	00078613          	mv	a2,a5
     284:	00028593          	mv	a1,t0
     288:	02848513          	addi	a0,s1,40
     28c:	37c040ef          	jal	4608 <core_bench_matrix>
     290:	03c4d703          	lhu	a4,60(s1)
     294:	00050a13          	mv	s4,a0
     298:	0e070863          	beqz	a4,388 <cmp_complex+0x20c>
     29c:	0384d783          	lhu	a5,56(s1)
     2a0:	00078593          	mv	a1,a5
     2a4:	5d4090ef          	jal	9878 <crcu16>
     2a8:	07fa7313          	andi	t1,s4,127
     2ac:	f0047393          	andi	t2,s0,-256
     2b0:	01c12083          	lw	ra,28(sp)
     2b4:	01812403          	lw	s0,24(sp)
     2b8:	007365b3          	or	a1,t1,t2
     2bc:	02a49c23          	sh	a0,56(s1)
     2c0:	0805e813          	ori	a6,a1,128
     2c4:	01099023          	sh	a6,0(s3)
     2c8:	00812a03          	lw	s4,8(sp)
     2cc:	01412483          	lw	s1,20(sp)
     2d0:	00c12983          	lw	s3,12(sp)
     2d4:	40690533          	sub	a0,s2,t1
     2d8:	01012903          	lw	s2,16(sp)
     2dc:	02010113          	addi	sp,sp,32
     2e0:	00008067          	ret
     2e4:	3c04350b          	th.extu	a0,s0,15,0
     2e8:	00040913          	mv	s2,s0
     2ec:	f3dff06f          	j	228 <cmp_complex+0xac>
     2f0:	3c04350b          	th.extu	a0,s0,15,0
     2f4:	00040a13          	mv	s4,s0
     2f8:	fa9ff06f          	j	2a0 <cmp_complex+0x124>
     2fc:	02100693          	li	a3,33
     300:	0056e463          	bltu	a3,t0,308 <cmp_complex+0x18c>
     304:	02200713          	li	a4,34
     308:	00249683          	lh	a3,2(s1)
     30c:	00049603          	lh	a2,0(s1)
     310:	0144a583          	lw	a1,20(s1)
     314:	0184a503          	lw	a0,24(s1)
     318:	5e8080ef          	jal	8900 <core_bench_state>
     31c:	03e4d783          	lhu	a5,62(s1)
     320:	00050a13          	mv	s4,a0
     324:	04078063          	beqz	a5,364 <cmp_complex+0x1e8>
     328:	0384d783          	lhu	a5,56(s1)
     32c:	f75ff06f          	j	2a0 <cmp_complex+0x124>
     330:	02100313          	li	t1,33
     334:	00c36463          	bltu	t1,a2,33c <cmp_complex+0x1c0>
     338:	02200713          	li	a4,34
     33c:	00249683          	lh	a3,2(s1)
     340:	00049603          	lh	a2,0(s1)
     344:	0144a583          	lw	a1,20(s1)
     348:	0184a503          	lw	a0,24(s1)
     34c:	5b4080ef          	jal	8900 <core_bench_state>
     350:	03e4d383          	lhu	t2,62(s1)
     354:	00050913          	mv	s2,a0
     358:	00038c63          	beqz	t2,370 <cmp_complex+0x1f4>
     35c:	0384d783          	lhu	a5,56(s1)
     360:	ec9ff06f          	j	228 <cmp_complex+0xac>
     364:	0384d783          	lhu	a5,56(s1)
     368:	02a49f23          	sh	a0,62(s1)
     36c:	f35ff06f          	j	2a0 <cmp_complex+0x124>
     370:	0384d783          	lhu	a5,56(s1)
     374:	02a49f23          	sh	a0,62(s1)
     378:	eb1ff06f          	j	228 <cmp_complex+0xac>
     37c:	0384d783          	lhu	a5,56(s1)
     380:	02a49e23          	sh	a0,60(s1)
     384:	ea5ff06f          	j	228 <cmp_complex+0xac>
     388:	0384d783          	lhu	a5,56(s1)
     38c:	02a49e23          	sh	a0,60(s1)
     390:	f11ff06f          	j	2a0 <cmp_complex+0x124>

00000394 <cmp_idx>:
     394:	00060a63          	beqz	a2,3a8 <cmp_idx+0x14>
     398:	00251503          	lh	a0,2(a0)
     39c:	00259583          	lh	a1,2(a1)
     3a0:	40b50533          	sub	a0,a0,a1
     3a4:	00008067          	ret
     3a8:	00051783          	lh	a5,0(a0)
     3ac:	f007f713          	andi	a4,a5,-256
     3b0:	3c87b28b          	th.extu	t0,a5,15,8
     3b4:	00576333          	or	t1,a4,t0
     3b8:	00651023          	sh	t1,0(a0)
     3bc:	00059383          	lh	t2,0(a1)
     3c0:	00251503          	lh	a0,2(a0)
     3c4:	f003f613          	andi	a2,t2,-256
     3c8:	3c83b68b          	th.extu	a3,t2,15,8
     3cc:	00d66833          	or	a6,a2,a3
     3d0:	01059023          	sh	a6,0(a1)
     3d4:	00259583          	lh	a1,2(a1)
     3d8:	40b50533          	sub	a0,a0,a1
     3dc:	00008067          	ret

000003e0 <copy_info>:
     3e0:	00059703          	lh	a4,0(a1)
     3e4:	00259783          	lh	a5,2(a1)
     3e8:	00e51023          	sh	a4,0(a0)
     3ec:	00f51123          	sh	a5,2(a0)
     3f0:	00008067          	ret

000003f4 <core_bench_list>:
     3f4:	000107b7          	lui	a5,0x10
     3f8:	fa010113          	addi	sp,sp,-96
     3fc:	00c78293          	addi	t0,a5,12 # 1000c <core_cached_prev_head>
     400:	04812c23          	sw	s0,88(sp)
     404:	0002a303          	lw	t1,0(t0)
     408:	02452403          	lw	s0,36(a0)
     40c:	05512223          	sw	s5,68(sp)
     410:	04112e23          	sw	ra,92(sp)
     414:	00512c23          	sw	t0,24(sp)
     418:	00451e03          	lh	t3,4(a0)
     41c:	00050a93          	mv	s5,a0
     420:	76830263          	beq	t1,s0,b84 <core_bench_list+0x790>
     424:	00041463          	bnez	s0,42c <core_bench_list+0x38>
     428:	4680106f          	j	1890 <core_bench_list+0x149c>
     42c:	00040793          	mv	a5,s0
     430:	00000693          	li	a3,0
     434:	0007a703          	lw	a4,0(a5)
     438:	00d7a223          	sw	a3,4(a5)
     43c:	00078693          	mv	a3,a5
     440:	06070a63          	beqz	a4,4b4 <core_bench_list+0xc0>
     444:	00072603          	lw	a2,0(a4)
     448:	00f72223          	sw	a5,4(a4)
     44c:	00070693          	mv	a3,a4
     450:	06060263          	beqz	a2,4b4 <core_bench_list+0xc0>
     454:	00062803          	lw	a6,0(a2)
     458:	00e62223          	sw	a4,4(a2)
     45c:	00060693          	mv	a3,a2
     460:	04080a63          	beqz	a6,4b4 <core_bench_list+0xc0>
     464:	00082883          	lw	a7,0(a6)
     468:	00c82223          	sw	a2,4(a6)
     46c:	00080693          	mv	a3,a6
     470:	04088263          	beqz	a7,4b4 <core_bench_list+0xc0>
     474:	0008ae83          	lw	t4,0(a7)
     478:	0108a223          	sw	a6,4(a7)
     47c:	00088693          	mv	a3,a7
     480:	020e8a63          	beqz	t4,4b4 <core_bench_list+0xc0>
     484:	000eaf03          	lw	t5,0(t4)
     488:	011ea223          	sw	a7,4(t4)
     48c:	000e8693          	mv	a3,t4
     490:	020f0263          	beqz	t5,4b4 <core_bench_list+0xc0>
     494:	000f2f83          	lw	t6,0(t5)
     498:	01df2223          	sw	t4,4(t5)
     49c:	000f0693          	mv	a3,t5
     4a0:	000f8a63          	beqz	t6,4b4 <core_bench_list+0xc0>
     4a4:	000fa783          	lw	a5,0(t6)
     4a8:	01efa223          	sw	t5,4(t6)
     4ac:	000f8693          	mv	a3,t6
     4b0:	f80792e3          	bnez	a5,434 <core_bench_list+0x40>
     4b4:	01812283          	lw	t0,24(sp)
     4b8:	0082a023          	sw	s0,0(t0)
     4bc:	00d2a223          	sw	a3,4(t0)
     4c0:	0805c863          	bltz	a1,550 <core_bench_list+0x15c>
     4c4:	fffe0893          	addi	a7,t3,-1
     4c8:	0ff8f613          	zext.b	a2,a7
     4cc:	00c12a23          	sw	a2,20(sp)
     4d0:	01c04463          	bgtz	t3,4d8 <core_bench_list+0xe4>
     4d4:	4280106f          	j	18fc <core_bench_list+0x1508>
     4d8:	00be0e33          	add	t3,t3,a1
     4dc:	3c0e2e8b          	th.ext	t4,t3,15,0
     4e0:	01d12e23          	sw	t4,28(sp)
     4e4:	00041463          	bnez	s0,4ec <core_bench_list+0xf8>
     4e8:	3700106f          	j	1858 <core_bench_list+0x1464>
     4ec:	00058713          	mv	a4,a1
     4f0:	00000513          	li	a0,0
     4f4:	00000893          	li	a7,0
     4f8:	00000613          	li	a2,0
     4fc:	00000313          	li	t1,0
     500:	00100e13          	li	t3,1
     504:	00a41383          	lh	t2,10(s0)
     508:	72e38463          	beq	t2,a4,c30 <core_bench_list+0x83c>
     50c:	6a051663          	bnez	a0,bb8 <core_bench_list+0x7c4>
     510:	00042783          	lw	a5,0(s0)
     514:	02078463          	beqz	a5,53c <core_bench_list+0x148>
     518:	00a79f03          	lh	t5,10(a5)
     51c:	0aef0ee3          	beq	t5,a4,dd8 <core_bench_list+0x9e4>
     520:	0007a783          	lw	a5,0(a5)
     524:	00079463          	bnez	a5,52c <core_bench_list+0x138>
     528:	3440106f          	j	186c <core_bench_list+0x1478>
     52c:	00a79283          	lh	t0,10(a5)
     530:	70e28263          	beq	t0,a4,c34 <core_bench_list+0x840>
     534:	0007a783          	lw	a5,0(a5)
     538:	fe0790e3          	bnez	a5,518 <core_bench_list+0x124>
     53c:	00068513          	mv	a0,a3
     540:	00188893          	addi	a7,a7,1
     544:	00040693          	mv	a3,s0
     548:	00050413          	mv	s0,a0
     54c:	3380106f          	j	1884 <core_bench_list+0x1490>
     550:	01c04463          	bgtz	t3,558 <core_bench_list+0x164>
     554:	4280106f          	j	197c <core_bench_list+0x1588>
     558:	00040813          	mv	a6,s0
     55c:	00068413          	mv	s0,a3
     560:	00000693          	li	a3,0
     564:	0ff6f393          	zext.b	t2,a3
     568:	00712a23          	sw	t2,20(sp)
     56c:	00000513          	li	a0,0
     570:	00000893          	li	a7,0
     574:	00000613          	li	a2,0
     578:	00000313          	li	t1,0
     57c:	00100e93          	li	t4,1
     580:	00080793          	mv	a5,a6
     584:	00081c63          	bnez	a6,59c <core_bench_list+0x1a8>
     588:	0700006f          	j	5f8 <core_bench_list+0x204>
     58c:	0007a383          	lw	t2,0(a5)
     590:	0047a783          	lw	a5,4(a5)
     594:	40a3978b          	th.mveqz	a5,t2,a0
     598:	06078063          	beqz	a5,5f8 <core_bench_list+0x204>
     59c:	0087c703          	lbu	a4,8(a5)
     5a0:	01412f03          	lw	t5,20(sp)
     5a4:	feef14e3          	bne	t5,a4,58c <core_bench_list+0x198>
     5a8:	00879f83          	lh	t6,8(a5)
     5ac:	00160613          	addi	a2,a2,1
     5b0:	001ff293          	andi	t0,t6,1
     5b4:	00028663          	beqz	t0,5c0 <core_bench_list+0x1cc>
     5b8:	489fd393          	bexti	t2,t6,0x9
     5bc:	00730333          	add	t1,t1,t2
     5c0:	07d500e3          	beq	a0,t4,e20 <core_bench_list+0xa2c>
     5c4:	0047af03          	lw	t5,4(a5)
     5c8:	020f12e3          	bnez	t5,dec <core_bench_list+0x9f8>
     5cc:	00080793          	mv	a5,a6
     5d0:	00100513          	li	a0,1
     5d4:	00168693          	addi	a3,a3,1
     5d8:	3c06a68b          	th.ext	a3,a3,15,0
     5dc:	00040813          	mv	a6,s0
     5e0:	04de0a63          	beq	t3,a3,634 <core_bench_list+0x240>
     5e4:	0ff6f393          	zext.b	t2,a3
     5e8:	00712a23          	sw	t2,20(sp)
     5ec:	00078413          	mv	s0,a5
     5f0:	00080793          	mv	a5,a6
     5f4:	fa0814e3          	bnez	a6,59c <core_bench_list+0x1a8>
     5f8:	00042703          	lw	a4,0(s0)
     5fc:	00442f83          	lw	t6,4(s0)
     600:	00188893          	addi	a7,a7,1
     604:	00154f13          	xori	t5,a0,1
     608:	01d51463          	bne	a0,t4,610 <core_bench_list+0x21c>
     60c:	00070f93          	mv	t6,a4
     610:	009f8283          	lb	t0,9(t6)
     614:	00168693          	addi	a3,a3,1
     618:	00080793          	mv	a5,a6
     61c:	3c06a68b          	th.ext	a3,a3,15,0
     620:	0012f813          	andi	a6,t0,1
     624:	01030333          	add	t1,t1,a6
     628:	000f0513          	mv	a0,t5
     62c:	00040813          	mv	a6,s0
     630:	fade1ae3          	bne	t3,a3,5e4 <core_bench_list+0x1f0>
     634:	00261693          	slli	a3,a2,0x2
     638:	41168633          	sub	a2,a3,a7
     63c:	00c30333          	add	t1,t1,a2
     640:	3c03388b          	th.extu	a7,t1,15,0
     644:	00b12e23          	sw	a1,28(sp)
     648:	01112823          	sw	a7,16(sp)
     64c:	64051663          	bnez	a0,c98 <core_bench_list+0x8a4>
     650:	00041463          	bnez	s0,658 <core_bench_list+0x264>
     654:	2640106f          	j	18b8 <core_bench_list+0x14c4>
     658:	04912a23          	sw	s1,84(sp)
     65c:	05212823          	sw	s2,80(sp)
     660:	05312623          	sw	s3,76(sp)
     664:	00040993          	mv	s3,s0
     668:	00000693          	li	a3,0
     66c:	0009a883          	lw	a7,0(s3)
     670:	00d9a223          	sw	a3,4(s3)
     674:	00098693          	mv	a3,s3
     678:	06088a63          	beqz	a7,6ec <core_bench_list+0x2f8>
     67c:	0008a503          	lw	a0,0(a7)
     680:	0138a223          	sw	s3,4(a7)
     684:	00088693          	mv	a3,a7
     688:	06050263          	beqz	a0,6ec <core_bench_list+0x2f8>
     68c:	00052e83          	lw	t4,0(a0)
     690:	01152223          	sw	a7,4(a0)
     694:	00050693          	mv	a3,a0
     698:	040e8a63          	beqz	t4,6ec <core_bench_list+0x2f8>
     69c:	000ea383          	lw	t2,0(t4)
     6a0:	00aea223          	sw	a0,4(t4)
     6a4:	000e8693          	mv	a3,t4
     6a8:	04038263          	beqz	t2,6ec <core_bench_list+0x2f8>
     6ac:	0003af03          	lw	t5,0(t2)
     6b0:	01d3a223          	sw	t4,4(t2)
     6b4:	00038693          	mv	a3,t2
     6b8:	020f0a63          	beqz	t5,6ec <core_bench_list+0x2f8>
     6bc:	000f2483          	lw	s1,0(t5)
     6c0:	007f2223          	sw	t2,4(t5)
     6c4:	000f0693          	mv	a3,t5
     6c8:	02048263          	beqz	s1,6ec <core_bench_list+0x2f8>
     6cc:	0004a903          	lw	s2,0(s1)
     6d0:	01e4a223          	sw	t5,4(s1)
     6d4:	00048693          	mv	a3,s1
     6d8:	00090a63          	beqz	s2,6ec <core_bench_list+0x2f8>
     6dc:	00092983          	lw	s3,0(s2)
     6e0:	00992223          	sw	s1,4(s2)
     6e4:	00090693          	mv	a3,s2
     6e8:	f80992e3          	bnez	s3,66c <core_bench_list+0x278>
     6ec:	01812283          	lw	t0,24(sp)
     6f0:	0082a023          	sw	s0,0(t0)
     6f4:	00d2a223          	sw	a3,4(t0)
     6f8:	28b042e3          	bgtz	a1,117c <core_bench_list+0xd88>
     6fc:	00042a83          	lw	s5,0(s0)
     700:	01c12303          	lw	t1,28(sp)
     704:	000aa983          	lw	s3,0(s5)
     708:	008aa803          	lw	a6,8(s5)
     70c:	0089a703          	lw	a4,8(s3)
     710:	00eaa423          	sw	a4,8(s5)
     714:	0109a423          	sw	a6,8(s3)
     718:	000aa603          	lw	a2,0(s5)
     71c:	00062783          	lw	a5,0(a2)
     720:	00faa023          	sw	a5,0(s5)
     724:	0009a023          	sw	zero,0(s3)
     728:	00035463          	bgez	t1,730 <core_bench_list+0x33c>
     72c:	10c0106f          	j	1838 <core_bench_list+0x1444>
     730:	00040a93          	mv	s5,s0
     734:	0100006f          	j	744 <core_bench_list+0x350>
     738:	000aaa83          	lw	s5,0(s5)
     73c:	000a9463          	bnez	s5,744 <core_bench_list+0x350>
     740:	0980106f          	j	17d8 <core_bench_list+0x13e4>
     744:	00aa9e83          	lh	t4,10(s5)
     748:	01c12383          	lw	t2,28(sp)
     74c:	fe7e96e3          	bne	t4,t2,738 <core_bench_list+0x344>
     750:	00841903          	lh	s2,8(s0)
     754:	01012583          	lw	a1,16(sp)
     758:	00090513          	mv	a0,s2
     75c:	6fc090ef          	jal	9e58 <crc16>
     760:	000aa483          	lw	s1,0(s5)
     764:	00a12823          	sw	a0,16(sp)
     768:	0a048663          	beqz	s1,814 <core_bench_list+0x420>
     76c:	01012583          	lw	a1,16(sp)
     770:	00090513          	mv	a0,s2
     774:	6e4090ef          	jal	9e58 <crc16>
     778:	0004aa83          	lw	s5,0(s1)
     77c:	00a12823          	sw	a0,16(sp)
     780:	00050593          	mv	a1,a0
     784:	080a8863          	beqz	s5,814 <core_bench_list+0x420>
     788:	00090513          	mv	a0,s2
     78c:	6cc090ef          	jal	9e58 <crc16>
     790:	000aa483          	lw	s1,0(s5)
     794:	00a12823          	sw	a0,16(sp)
     798:	00050593          	mv	a1,a0
     79c:	06048c63          	beqz	s1,814 <core_bench_list+0x420>
     7a0:	00090513          	mv	a0,s2
     7a4:	6b4090ef          	jal	9e58 <crc16>
     7a8:	0004aa83          	lw	s5,0(s1)
     7ac:	00a12823          	sw	a0,16(sp)
     7b0:	00050593          	mv	a1,a0
     7b4:	060a8063          	beqz	s5,814 <core_bench_list+0x420>
     7b8:	00090513          	mv	a0,s2
     7bc:	69c090ef          	jal	9e58 <crc16>
     7c0:	000aa483          	lw	s1,0(s5)
     7c4:	00a12823          	sw	a0,16(sp)
     7c8:	00050593          	mv	a1,a0
     7cc:	04048463          	beqz	s1,814 <core_bench_list+0x420>
     7d0:	00090513          	mv	a0,s2
     7d4:	684090ef          	jal	9e58 <crc16>
     7d8:	0004aa83          	lw	s5,0(s1)
     7dc:	00a12823          	sw	a0,16(sp)
     7e0:	00050593          	mv	a1,a0
     7e4:	020a8863          	beqz	s5,814 <core_bench_list+0x420>
     7e8:	00090513          	mv	a0,s2
     7ec:	66c090ef          	jal	9e58 <crc16>
     7f0:	000aa483          	lw	s1,0(s5)
     7f4:	00a12823          	sw	a0,16(sp)
     7f8:	00050593          	mv	a1,a0
     7fc:	00048c63          	beqz	s1,814 <core_bench_list+0x420>
     800:	00090513          	mv	a0,s2
     804:	654090ef          	jal	9e58 <crc16>
     808:	0004aa83          	lw	s5,0(s1)
     80c:	00a12823          	sw	a0,16(sp)
     810:	f40a92e3          	bnez	s5,754 <core_bench_list+0x360>
     814:	00042a83          	lw	s5,0(s0)
     818:	008aaf03          	lw	t5,8(s5)
     81c:	0089a283          	lw	t0,8(s3)
     820:	000aa583          	lw	a1,0(s5)
     824:	01e9a423          	sw	t5,8(s3)
     828:	005aa423          	sw	t0,8(s5)
     82c:	00b9a023          	sw	a1,0(s3)
     830:	00100e13          	li	t3,1
     834:	013aa023          	sw	s3,0(s5)
     838:	000e0f13          	mv	t5,t3
     83c:	00041463          	bnez	s0,844 <core_bench_list+0x450>
     840:	17c0106f          	j	19bc <core_bench_list+0x15c8>
     844:	00000313          	li	t1,0
     848:	00000713          	li	a4,0
     84c:	00000e93          	li	t4,0
     850:	007e7693          	andi	a3,t3,7
     854:	001e8e93          	addi	t4,t4,1
     858:	00040613          	mv	a2,s0
     85c:	00000793          	li	a5,0
     860:	08068463          	beqz	a3,8e8 <core_bench_list+0x4f4>
     864:	0fc7d663          	bge	a5,t3,950 <core_bench_list+0x55c>
     868:	00042603          	lw	a2,0(s0)
     86c:	00100793          	li	a5,1
     870:	0e060063          	beqz	a2,950 <core_bench_list+0x55c>
     874:	06f68a63          	beq	a3,a5,8e8 <core_bench_list+0x4f4>
     878:	00200f93          	li	t6,2
     87c:	07f68063          	beq	a3,t6,8dc <core_bench_list+0x4e8>
     880:	00300813          	li	a6,3
     884:	05068663          	beq	a3,a6,8d0 <core_bench_list+0x4dc>
     888:	00400893          	li	a7,4
     88c:	03168c63          	beq	a3,a7,8c4 <core_bench_list+0x4d0>
     890:	00500513          	li	a0,5
     894:	02a68263          	beq	a3,a0,8b8 <core_bench_list+0x4c4>
     898:	00600993          	li	s3,6
     89c:	01368863          	beq	a3,s3,8ac <core_bench_list+0x4b8>
     8a0:	00062603          	lw	a2,0(a2)
     8a4:	000f8793          	mv	a5,t6
     8a8:	0a060463          	beqz	a2,950 <core_bench_list+0x55c>
     8ac:	00062603          	lw	a2,0(a2)
     8b0:	00178793          	addi	a5,a5,1
     8b4:	08060e63          	beqz	a2,950 <core_bench_list+0x55c>
     8b8:	00062603          	lw	a2,0(a2)
     8bc:	00178793          	addi	a5,a5,1
     8c0:	08060863          	beqz	a2,950 <core_bench_list+0x55c>
     8c4:	00062603          	lw	a2,0(a2)
     8c8:	00178793          	addi	a5,a5,1
     8cc:	08060263          	beqz	a2,950 <core_bench_list+0x55c>
     8d0:	00062603          	lw	a2,0(a2)
     8d4:	00178793          	addi	a5,a5,1
     8d8:	06060c63          	beqz	a2,950 <core_bench_list+0x55c>
     8dc:	00062603          	lw	a2,0(a2)
     8e0:	00178793          	addi	a5,a5,1
     8e4:	06060663          	beqz	a2,950 <core_bench_list+0x55c>
     8e8:	07c7d463          	bge	a5,t3,950 <core_bench_list+0x55c>
     8ec:	00062603          	lw	a2,0(a2)
     8f0:	00178793          	addi	a5,a5,1
     8f4:	00078393          	mv	t2,a5
     8f8:	04060c63          	beqz	a2,950 <core_bench_list+0x55c>
     8fc:	00062603          	lw	a2,0(a2)
     900:	00178793          	addi	a5,a5,1
     904:	04060663          	beqz	a2,950 <core_bench_list+0x55c>
     908:	00062603          	lw	a2,0(a2)
     90c:	00238793          	addi	a5,t2,2
     910:	04060063          	beqz	a2,950 <core_bench_list+0x55c>
     914:	00062603          	lw	a2,0(a2)
     918:	00338793          	addi	a5,t2,3
     91c:	02060a63          	beqz	a2,950 <core_bench_list+0x55c>
     920:	00062603          	lw	a2,0(a2)
     924:	00438793          	addi	a5,t2,4
     928:	02060463          	beqz	a2,950 <core_bench_list+0x55c>
     92c:	00062603          	lw	a2,0(a2)
     930:	00538793          	addi	a5,t2,5
     934:	00060e63          	beqz	a2,950 <core_bench_list+0x55c>
     938:	00062603          	lw	a2,0(a2)
     93c:	00638793          	addi	a5,t2,6
     940:	00060863          	beqz	a2,950 <core_bench_list+0x55c>
     944:	00062603          	lw	a2,0(a2)
     948:	00738793          	addi	a5,t2,7
     94c:	f8061ee3          	bnez	a2,8e8 <core_bench_list+0x4f4>
     950:	00070693          	mv	a3,a4
     954:	000e0513          	mv	a0,t3
     958:	00040713          	mv	a4,s0
     95c:	00060413          	mv	s0,a2
     960:	04f05e63          	blez	a5,9bc <core_bench_list+0x5c8>
     964:	4c050863          	beqz	a0,e34 <core_bench_list+0xa40>
     968:	50040063          	beqz	s0,e68 <core_bench_list+0xa74>
     96c:	00a41803          	lh	a6,10(s0)
     970:	00871483          	lh	s1,8(a4)
     974:	00a71a83          	lh	s5,10(a4)
     978:	f004f293          	andi	t0,s1,-256
     97c:	3c84b58b          	th.extu	a1,s1,15,8
     980:	00b2efb3          	or	t6,t0,a1
     984:	01f71423          	sh	t6,8(a4)
     988:	00841883          	lh	a7,8(s0)
     98c:	f008f993          	andi	s3,a7,-256
     990:	3c88b38b          	th.extu	t2,a7,15,8
     994:	0079e633          	or	a2,s3,t2
     998:	00c41423          	sh	a2,8(s0)
     99c:	51585463          	bge	a6,s5,ea4 <core_bench_list+0xab0>
     9a0:	00042803          	lw	a6,0(s0)
     9a4:	fff50513          	addi	a0,a0,-1
     9a8:	50068e63          	beqz	a3,ec4 <core_bench_list+0xad0>
     9ac:	0086a023          	sw	s0,0(a3)
     9b0:	00040693          	mv	a3,s0
     9b4:	00080413          	mv	s0,a6
     9b8:	faf046e3          	bgtz	a5,964 <core_bench_list+0x570>
     9bc:	52a05c63          	blez	a0,ef4 <core_bench_list+0xb00>
     9c0:	1a040863          	beqz	s0,b70 <core_bench_list+0x77c>
     9c4:	fa0794e3          	bnez	a5,96c <core_bench_list+0x578>
     9c8:	fff50713          	addi	a4,a0,-1
     9cc:	00777793          	andi	a5,a4,7
     9d0:	0e078a63          	beqz	a5,ac4 <core_bench_list+0x6d0>
     9d4:	00042483          	lw	s1,0(s0)
     9d8:	00070513          	mv	a0,a4
     9dc:	58068863          	beqz	a3,f6c <core_bench_list+0xb78>
     9e0:	0086a023          	sw	s0,0(a3)
     9e4:	00040693          	mv	a3,s0
     9e8:	18048463          	beqz	s1,b70 <core_bench_list+0x77c>
     9ec:	00100a93          	li	s5,1
     9f0:	00048413          	mv	s0,s1
     9f4:	0d578863          	beq	a5,s5,ac4 <core_bench_list+0x6d0>
     9f8:	00200293          	li	t0,2
     9fc:	0a578663          	beq	a5,t0,aa8 <core_bench_list+0x6b4>
     a00:	00300593          	li	a1,3
     a04:	08b78463          	beq	a5,a1,a8c <core_bench_list+0x698>
     a08:	00400f93          	li	t6,4
     a0c:	07f78263          	beq	a5,t6,a70 <core_bench_list+0x67c>
     a10:	00500893          	li	a7,5
     a14:	05178063          	beq	a5,a7,a54 <core_bench_list+0x660>
     a18:	00600993          	li	s3,6
     a1c:	01378e63          	beq	a5,s3,a38 <core_bench_list+0x644>
     a20:	0004a403          	lw	s0,0(s1)
     a24:	fff50513          	addi	a0,a0,-1
     a28:	6e068e63          	beqz	a3,1124 <core_bench_list+0xd30>
     a2c:	0096a023          	sw	s1,0(a3)
     a30:	00048693          	mv	a3,s1
     a34:	12040e63          	beqz	s0,b70 <core_bench_list+0x77c>
     a38:	00042383          	lw	t2,0(s0)
     a3c:	fff50513          	addi	a0,a0,-1
     a40:	54068a63          	beqz	a3,f94 <core_bench_list+0xba0>
     a44:	0086a023          	sw	s0,0(a3)
     a48:	00040693          	mv	a3,s0
     a4c:	12038263          	beqz	t2,b70 <core_bench_list+0x77c>
     a50:	00038413          	mv	s0,t2
     a54:	00042603          	lw	a2,0(s0)
     a58:	fff50513          	addi	a0,a0,-1
     a5c:	52068863          	beqz	a3,f8c <core_bench_list+0xb98>
     a60:	0086a023          	sw	s0,0(a3)
     a64:	00040693          	mv	a3,s0
     a68:	10060463          	beqz	a2,b70 <core_bench_list+0x77c>
     a6c:	00060413          	mv	s0,a2
     a70:	00042903          	lw	s2,0(s0)
     a74:	fff50513          	addi	a0,a0,-1
     a78:	50068663          	beqz	a3,f84 <core_bench_list+0xb90>
     a7c:	0086a023          	sw	s0,0(a3)
     a80:	00040693          	mv	a3,s0
     a84:	0e090663          	beqz	s2,b70 <core_bench_list+0x77c>
     a88:	00090413          	mv	s0,s2
     a8c:	00042803          	lw	a6,0(s0)
     a90:	fff50513          	addi	a0,a0,-1
     a94:	4e068463          	beqz	a3,f7c <core_bench_list+0xb88>
     a98:	0086a023          	sw	s0,0(a3)
     a9c:	00040693          	mv	a3,s0
     aa0:	0c080863          	beqz	a6,b70 <core_bench_list+0x77c>
     aa4:	00080413          	mv	s0,a6
     aa8:	00042703          	lw	a4,0(s0)
     aac:	fff50513          	addi	a0,a0,-1
     ab0:	4c068263          	beqz	a3,f74 <core_bench_list+0xb80>
     ab4:	0086a023          	sw	s0,0(a3)
     ab8:	00040693          	mv	a3,s0
     abc:	0a070a63          	beqz	a4,b70 <core_bench_list+0x77c>
     ac0:	00070413          	mv	s0,a4
     ac4:	00042783          	lw	a5,0(s0)
     ac8:	fff50513          	addi	a0,a0,-1
     acc:	44068863          	beqz	a3,f1c <core_bench_list+0xb28>
     ad0:	0086a023          	sw	s0,0(a3)
     ad4:	44050863          	beqz	a0,f24 <core_bench_list+0xb30>
     ad8:	00040693          	mv	a3,s0
     adc:	08078a63          	beqz	a5,b70 <core_bench_list+0x77c>
     ae0:	0007a483          	lw	s1,0(a5)
     ae4:	44040863          	beqz	s0,f34 <core_bench_list+0xb40>
     ae8:	00f42023          	sw	a5,0(s0)
     aec:	00078693          	mv	a3,a5
     af0:	08048063          	beqz	s1,b70 <core_bench_list+0x77c>
     af4:	0004a403          	lw	s0,0(s1)
     af8:	44078263          	beqz	a5,f3c <core_bench_list+0xb48>
     afc:	0097a023          	sw	s1,0(a5)
     b00:	00048693          	mv	a3,s1
     b04:	06040663          	beqz	s0,b70 <core_bench_list+0x77c>
     b08:	00042a83          	lw	s5,0(s0)
     b0c:	42048c63          	beqz	s1,f44 <core_bench_list+0xb50>
     b10:	0084a023          	sw	s0,0(s1)
     b14:	00040693          	mv	a3,s0
     b18:	040a8c63          	beqz	s5,b70 <core_bench_list+0x77c>
     b1c:	000aa283          	lw	t0,0(s5)
     b20:	42040663          	beqz	s0,f4c <core_bench_list+0xb58>
     b24:	01542023          	sw	s5,0(s0)
     b28:	000a8693          	mv	a3,s5
     b2c:	04028263          	beqz	t0,b70 <core_bench_list+0x77c>
     b30:	0002a583          	lw	a1,0(t0)
     b34:	420a8063          	beqz	s5,f54 <core_bench_list+0xb60>
     b38:	005aa023          	sw	t0,0(s5)
     b3c:	00028693          	mv	a3,t0
     b40:	02058863          	beqz	a1,b70 <core_bench_list+0x77c>
     b44:	0005af83          	lw	t6,0(a1)
     b48:	40028a63          	beqz	t0,f5c <core_bench_list+0xb68>
     b4c:	00b2a023          	sw	a1,0(t0)
     b50:	00058693          	mv	a3,a1
     b54:	000f8e63          	beqz	t6,b70 <core_bench_list+0x77c>
     b58:	000fa403          	lw	s0,0(t6)
     b5c:	ff950513          	addi	a0,a0,-7
     b60:	40058263          	beqz	a1,f64 <core_bench_list+0xb70>
     b64:	01f5a023          	sw	t6,0(a1)
     b68:	000f8693          	mv	a3,t6
     b6c:	f4041ce3          	bnez	s0,ac4 <core_bench_list+0x6d0>
     b70:	0006a023          	sw	zero,0(a3)
     b74:	43ee8463          	beq	t4,t5,f9c <core_bench_list+0xba8>
     b78:	001e1e13          	slli	t3,t3,0x1
     b7c:	00030413          	mv	s0,t1
     b80:	cbdff06f          	j	83c <core_bench_list+0x448>
     b84:	01812383          	lw	t2,24(sp)
     b88:	0043a683          	lw	a3,4(t2)
     b8c:	88068ce3          	beqz	a3,424 <core_bench_list+0x30>
     b90:	9205dae3          	bgez	a1,4c4 <core_bench_list+0xd0>
     b94:	9dc042e3          	bgtz	t3,558 <core_bench_list+0x164>
     b98:	04912a23          	sw	s1,84(sp)
     b9c:	05212823          	sw	s2,80(sp)
     ba0:	05312623          	sw	s3,76(sp)
     ba4:	5a040ce3          	beqz	s0,195c <core_bench_list+0x1568>
     ba8:	00b12e23          	sw	a1,28(sp)
     bac:	00012823          	sw	zero,16(sp)
     bb0:	00012a23          	sw	zero,20(sp)
     bb4:	ab1ff06f          	j	664 <core_bench_list+0x270>
     bb8:	00442783          	lw	a5,4(s0)
     bbc:	02078263          	beqz	a5,be0 <core_bench_list+0x7ec>
     bc0:	00a79803          	lh	a6,10(a5)
     bc4:	1ae80e63          	beq	a6,a4,d80 <core_bench_list+0x98c>
     bc8:	0047a783          	lw	a5,4(a5)
     bcc:	4a0780e3          	beqz	a5,186c <core_bench_list+0x1478>
     bd0:	00a79f03          	lh	t5,10(a5)
     bd4:	06ef0063          	beq	t5,a4,c34 <core_bench_list+0x840>
     bd8:	0047a783          	lw	a5,4(a5)
     bdc:	fe0792e3          	bnez	a5,bc0 <core_bench_list+0x7cc>
     be0:	00188893          	addi	a7,a7,1
     be4:	00068293          	mv	t0,a3
     be8:	0006ae03          	lw	t3,0(a3)
     bec:	00000513          	li	a0,0
     bf0:	00040693          	mv	a3,s0
     bf4:	00028413          	mv	s0,t0
     bf8:	009e0f83          	lb	t6,9(t3)
     bfc:	01c12783          	lw	a5,28(sp)
     c00:	00170713          	addi	a4,a4,1
     c04:	001ff813          	andi	a6,t6,1
     c08:	3c07270b          	th.ext	a4,a4,15,0
     c0c:	01030333          	add	t1,t1,a6
     c10:	8ee798e3          	bne	a5,a4,500 <core_bench_list+0x10c>
     c14:	00261693          	slli	a3,a2,0x2
     c18:	41168633          	sub	a2,a3,a7
     c1c:	00c30333          	add	t1,t1,a2
     c20:	3c03388b          	th.extu	a7,t1,15,0
     c24:	01112823          	sw	a7,16(sp)
     c28:	a20504e3          	beqz	a0,650 <core_bench_list+0x25c>
     c2c:	06c0006f          	j	c98 <core_bench_list+0x8a4>
     c30:	00040793          	mv	a5,s0
     c34:	00879283          	lh	t0,8(a5)
     c38:	00160613          	addi	a2,a2,1
     c3c:	0012ff93          	andi	t6,t0,1
     c40:	000f8663          	beqz	t6,c4c <core_bench_list+0x858>
     c44:	4892d813          	bexti	a6,t0,0x9
     c48:	01030333          	add	t1,t1,a6
     c4c:	15c50263          	beq	a0,t3,d90 <core_bench_list+0x99c>
     c50:	0047af83          	lw	t6,4(a5)
     c54:	0e0f9663          	bnez	t6,d40 <core_bench_list+0x94c>
     c58:	01c12503          	lw	a0,28(sp)
     c5c:	00170813          	addi	a6,a4,1
     c60:	3c08270b          	th.ext	a4,a6,15,0
     c64:	00e50e63          	beq	a0,a4,c80 <core_bench_list+0x88c>
     c68:	4a0680e3          	beqz	a3,1908 <core_bench_list+0x1514>
     c6c:	00100513          	li	a0,1
     c70:	00040293          	mv	t0,s0
     c74:	00068413          	mv	s0,a3
     c78:	00028693          	mv	a3,t0
     c7c:	889ff06f          	j	504 <core_bench_list+0x110>
     c80:	00261793          	slli	a5,a2,0x2
     c84:	41178eb3          	sub	t4,a5,a7
     c88:	01d303b3          	add	t2,t1,t4
     c8c:	3c03bf0b          	th.extu	t5,t2,15,0
     c90:	01e12823          	sw	t5,16(sp)
     c94:	00068413          	mv	s0,a3
     c98:	420400e3          	beqz	s0,18b8 <core_bench_list+0x14c4>
     c9c:	04912a23          	sw	s1,84(sp)
     ca0:	05212823          	sw	s2,80(sp)
     ca4:	05312623          	sw	s3,76(sp)
     ca8:	00042283          	lw	t0,0(s0)
     cac:	00000313          	li	t1,0
     cb0:	00642023          	sw	t1,0(s0)
     cb4:	9a0288e3          	beqz	t0,664 <core_bench_list+0x270>
     cb8:	0002ae03          	lw	t3,0(t0)
     cbc:	0082a023          	sw	s0,0(t0)
     cc0:	00028413          	mv	s0,t0
     cc4:	9a0e00e3          	beqz	t3,664 <core_bench_list+0x270>
     cc8:	000e2f83          	lw	t6,0(t3)
     ccc:	005e2023          	sw	t0,0(t3)
     cd0:	000e0413          	mv	s0,t3
     cd4:	980f88e3          	beqz	t6,664 <core_bench_list+0x270>
     cd8:	000fa803          	lw	a6,0(t6)
     cdc:	01cfa023          	sw	t3,0(t6)
     ce0:	000f8413          	mv	s0,t6
     ce4:	980800e3          	beqz	a6,664 <core_bench_list+0x270>
     ce8:	00082703          	lw	a4,0(a6)
     cec:	01f82023          	sw	t6,0(a6)
     cf0:	00080413          	mv	s0,a6
     cf4:	960708e3          	beqz	a4,664 <core_bench_list+0x270>
     cf8:	00072783          	lw	a5,0(a4)
     cfc:	01072023          	sw	a6,0(a4)
     d00:	00070413          	mv	s0,a4
     d04:	960780e3          	beqz	a5,664 <core_bench_list+0x270>
     d08:	0007a683          	lw	a3,0(a5)
     d0c:	00e7a023          	sw	a4,0(a5)
     d10:	00078413          	mv	s0,a5
     d14:	940688e3          	beqz	a3,664 <core_bench_list+0x270>
     d18:	0006a603          	lw	a2,0(a3)
     d1c:	00f6a023          	sw	a5,0(a3)
     d20:	00068413          	mv	s0,a3
     d24:	00068313          	mv	t1,a3
     d28:	92060ee3          	beqz	a2,664 <core_bench_list+0x270>
     d2c:	00060413          	mv	s0,a2
     d30:	00042283          	lw	t0,0(s0)
     d34:	00642023          	sw	t1,0(s0)
     d38:	f80290e3          	bnez	t0,cb8 <core_bench_list+0x8c4>
     d3c:	929ff06f          	j	664 <core_bench_list+0x270>
     d40:	004fa503          	lw	a0,4(t6)
     d44:	00a7a223          	sw	a0,4(a5)
     d48:	2e0500e3          	beqz	a0,1828 <core_bench_list+0x1434>
     d4c:	00f52023          	sw	a5,0(a0)
     d50:	0046ae83          	lw	t4,4(a3)
     d54:	00dfa023          	sw	a3,0(t6)
     d58:	01dfa223          	sw	t4,4(t6)
     d5c:	280e86e3          	beqz	t4,17e8 <core_bench_list+0x13f4>
     d60:	01c12f03          	lw	t5,28(sp)
     d64:	01fea023          	sw	t6,0(t4)
     d68:	00170393          	addi	t2,a4,1
     d6c:	3c03a70b          	th.ext	a4,t2,15,0
     d70:	01f6a223          	sw	t6,4(a3)
     d74:	29e706e3          	beq	a4,t5,1800 <core_bench_list+0x140c>
     d78:	00100513          	li	a0,1
     d7c:	ef5ff06f          	j	c70 <core_bench_list+0x87c>
     d80:	00879283          	lh	t0,8(a5)
     d84:	00160613          	addi	a2,a2,1
     d88:	0012fe93          	andi	t4,t0,1
     d8c:	ea0e9ce3          	bnez	t4,c44 <core_bench_list+0x850>
     d90:	0007a503          	lw	a0,0(a5)
     d94:	38050c63          	beqz	a0,112c <core_bench_list+0xd38>
     d98:	00052e83          	lw	t4,0(a0)
     d9c:	01d7a023          	sw	t4,0(a5)
     da0:	300e88e3          	beqz	t4,18b0 <core_bench_list+0x14bc>
     da4:	00fea223          	sw	a5,4(t4)
     da8:	0006a383          	lw	t2,0(a3)
     dac:	00d52223          	sw	a3,4(a0)
     db0:	00752023          	sw	t2,0(a0)
     db4:	2e038ae3          	beqz	t2,18a8 <core_bench_list+0x14b4>
     db8:	00a3a223          	sw	a0,4(t2)
     dbc:	01c12283          	lw	t0,28(sp)
     dc0:	00170f13          	addi	t5,a4,1
     dc4:	3c0f270b          	th.ext	a4,t5,15,0
     dc8:	00a6a023          	sw	a0,0(a3)
     dcc:	30e28ae3          	beq	t0,a4,18e0 <core_bench_list+0x14ec>
     dd0:	00000513          	li	a0,0
     dd4:	e9dff06f          	j	c70 <core_bench_list+0x87c>
     dd8:	00879283          	lh	t0,8(a5)
     ddc:	00160613          	addi	a2,a2,1
     de0:	0012ff93          	andi	t6,t0,1
     de4:	e60f90e3          	bnez	t6,c44 <core_bench_list+0x850>
     de8:	e69ff06f          	j	c50 <core_bench_list+0x85c>
     dec:	004f2f83          	lw	t6,4(t5)
     df0:	01f7a223          	sw	t6,4(a5)
     df4:	000f8663          	beqz	t6,e00 <core_bench_list+0xa0c>
     df8:	00ffa023          	sw	a5,0(t6)
     dfc:	00080793          	mv	a5,a6
     e00:	00442283          	lw	t0,4(s0)
     e04:	008f2023          	sw	s0,0(t5)
     e08:	005f2223          	sw	t0,4(t5)
     e0c:	220282e3          	beqz	t0,1830 <core_bench_list+0x143c>
     e10:	01e2a023          	sw	t5,0(t0)
     e14:	01e42223          	sw	t5,4(s0)
     e18:	00100513          	li	a0,1
     e1c:	fb8ff06f          	j	5d4 <core_bench_list+0x1e0>
     e20:	0007a703          	lw	a4,0(a5)
     e24:	32071263          	bnez	a4,1148 <core_bench_list+0xd54>
     e28:	00080793          	mv	a5,a6
     e2c:	00000513          	li	a0,0
     e30:	fa4ff06f          	j	5d4 <core_bench_list+0x1e0>
     e34:	00072883          	lw	a7,0(a4)
     e38:	fff78793          	addi	a5,a5,-1
     e3c:	02068063          	beqz	a3,e5c <core_bench_list+0xa68>
     e40:	00e6a023          	sw	a4,0(a3)
     e44:	08078663          	beqz	a5,ed0 <core_bench_list+0xadc>
     e48:	00070693          	mv	a3,a4
     e4c:	00088713          	mv	a4,a7
     e50:	00072883          	lw	a7,0(a4)
     e54:	fff78793          	addi	a5,a5,-1
     e58:	fe0694e3          	bnez	a3,e40 <core_bench_list+0xa4c>
     e5c:	06078863          	beqz	a5,ecc <core_bench_list+0xad8>
     e60:	00070313          	mv	t1,a4
     e64:	fe5ff06f          	j	e48 <core_bench_list+0xa54>
     e68:	00068913          	mv	s2,a3
     e6c:	fff78793          	addi	a5,a5,-1
     e70:	00070693          	mv	a3,a4
     e74:	00072703          	lw	a4,0(a4)
     e78:	02090063          	beqz	s2,e98 <core_bench_list+0xaa4>
     e7c:	00d92023          	sw	a3,0(s2)
     e80:	b2078ee3          	beqz	a5,9bc <core_bench_list+0x5c8>
     e84:	00068913          	mv	s2,a3
     e88:	fff78793          	addi	a5,a5,-1
     e8c:	00070693          	mv	a3,a4
     e90:	00072703          	lw	a4,0(a4)
     e94:	fe0914e3          	bnez	s2,e7c <core_bench_list+0xa88>
     e98:	06078463          	beqz	a5,f00 <core_bench_list+0xb0c>
     e9c:	00068313          	mv	t1,a3
     ea0:	fe5ff06f          	j	e84 <core_bench_list+0xa90>
     ea4:	00072903          	lw	s2,0(a4)
     ea8:	fff78793          	addi	a5,a5,-1
     eac:	02068863          	beqz	a3,edc <core_bench_list+0xae8>
     eb0:	00e6a023          	sw	a4,0(a3)
     eb4:	02f05a63          	blez	a5,ee8 <core_bench_list+0xaf4>
     eb8:	00070693          	mv	a3,a4
     ebc:	00090713          	mv	a4,s2
     ec0:	ab1ff06f          	j	970 <core_bench_list+0x57c>
     ec4:	00040313          	mv	t1,s0
     ec8:	ae9ff06f          	j	9b0 <core_bench_list+0x5bc>
     ecc:	00070313          	mv	t1,a4
     ed0:	980410e3          	bnez	s0,850 <core_bench_list+0x45c>
     ed4:	00070693          	mv	a3,a4
     ed8:	c99ff06f          	j	b70 <core_bench_list+0x77c>
     edc:	02f05863          	blez	a5,f0c <core_bench_list+0xb18>
     ee0:	00070313          	mv	t1,a4
     ee4:	fd5ff06f          	j	eb8 <core_bench_list+0xac4>
     ee8:	00070693          	mv	a3,a4
     eec:	00090713          	mv	a4,s2
     ef0:	aca048e3          	bgtz	a0,9c0 <core_bench_list+0x5cc>
     ef4:	00068713          	mv	a4,a3
     ef8:	94041ce3          	bnez	s0,850 <core_bench_list+0x45c>
     efc:	fd9ff06f          	j	ed4 <core_bench_list+0xae0>
     f00:	00068313          	mv	t1,a3
     f04:	00000413          	li	s0,0
     f08:	ab5ff06f          	j	9bc <core_bench_list+0x5c8>
     f0c:	00070313          	mv	t1,a4
     f10:	00070693          	mv	a3,a4
     f14:	00090713          	mv	a4,s2
     f18:	aa5ff06f          	j	9bc <core_bench_list+0x5c8>
     f1c:	00040313          	mv	t1,s0
     f20:	ba051ce3          	bnez	a0,ad8 <core_bench_list+0x6e4>
     f24:	00040713          	mv	a4,s0
     f28:	00078413          	mv	s0,a5
     f2c:	920412e3          	bnez	s0,850 <core_bench_list+0x45c>
     f30:	fa5ff06f          	j	ed4 <core_bench_list+0xae0>
     f34:	00078313          	mv	t1,a5
     f38:	bb5ff06f          	j	aec <core_bench_list+0x6f8>
     f3c:	00048313          	mv	t1,s1
     f40:	bc1ff06f          	j	b00 <core_bench_list+0x70c>
     f44:	00040313          	mv	t1,s0
     f48:	bcdff06f          	j	b14 <core_bench_list+0x720>
     f4c:	000a8313          	mv	t1,s5
     f50:	bd9ff06f          	j	b28 <core_bench_list+0x734>
     f54:	00028313          	mv	t1,t0
     f58:	be5ff06f          	j	b3c <core_bench_list+0x748>
     f5c:	00058313          	mv	t1,a1
     f60:	bf1ff06f          	j	b50 <core_bench_list+0x75c>
     f64:	000f8313          	mv	t1,t6
     f68:	c01ff06f          	j	b68 <core_bench_list+0x774>
     f6c:	00040313          	mv	t1,s0
     f70:	a75ff06f          	j	9e4 <core_bench_list+0x5f0>
     f74:	00040313          	mv	t1,s0
     f78:	b41ff06f          	j	ab8 <core_bench_list+0x6c4>
     f7c:	00040313          	mv	t1,s0
     f80:	b1dff06f          	j	a9c <core_bench_list+0x6a8>
     f84:	00040313          	mv	t1,s0
     f88:	af9ff06f          	j	a80 <core_bench_list+0x68c>
     f8c:	00040313          	mv	t1,s0
     f90:	ad5ff06f          	j	a64 <core_bench_list+0x670>
     f94:	00040313          	mv	t1,s0
     f98:	ab1ff06f          	j	a48 <core_bench_list+0x654>
     f9c:	00030713          	mv	a4,t1
     fa0:	00000693          	li	a3,0
     fa4:	08030263          	beqz	t1,1028 <core_bench_list+0xc34>
     fa8:	00072e83          	lw	t4,0(a4)
     fac:	00d72223          	sw	a3,4(a4)
     fb0:	00070693          	mv	a3,a4
     fb4:	060e8a63          	beqz	t4,1028 <core_bench_list+0xc34>
     fb8:	000eaf03          	lw	t5,0(t4)
     fbc:	00eea223          	sw	a4,4(t4)
     fc0:	000e8693          	mv	a3,t4
     fc4:	060f0263          	beqz	t5,1028 <core_bench_list+0xc34>
     fc8:	000f2983          	lw	s3,0(t5)
     fcc:	01df2223          	sw	t4,4(t5)
     fd0:	000f0693          	mv	a3,t5
     fd4:	04098a63          	beqz	s3,1028 <core_bench_list+0xc34>
     fd8:	0009a383          	lw	t2,0(s3)
     fdc:	01e9a223          	sw	t5,4(s3)
     fe0:	00098693          	mv	a3,s3
     fe4:	04038263          	beqz	t2,1028 <core_bench_list+0xc34>
     fe8:	0003a603          	lw	a2,0(t2)
     fec:	0133a223          	sw	s3,4(t2)
     ff0:	00038693          	mv	a3,t2
     ff4:	02060a63          	beqz	a2,1028 <core_bench_list+0xc34>
     ff8:	00062903          	lw	s2,0(a2)
     ffc:	00762223          	sw	t2,4(a2)
    1000:	00060693          	mv	a3,a2
    1004:	02090263          	beqz	s2,1028 <core_bench_list+0xc34>
    1008:	00092803          	lw	a6,0(s2)
    100c:	00c92223          	sw	a2,4(s2)
    1010:	00090693          	mv	a3,s2
    1014:	00080a63          	beqz	a6,1028 <core_bench_list+0xc34>
    1018:	00082703          	lw	a4,0(a6)
    101c:	01282223          	sw	s2,4(a6)
    1020:	00080693          	mv	a3,a6
    1024:	f80712e3          	bnez	a4,fa8 <core_bench_list+0xbb4>
    1028:	01812783          	lw	a5,24(sp)
    102c:	00032903          	lw	s2,0(t1)
    1030:	0067a023          	sw	t1,0(a5)
    1034:	00d7a223          	sw	a3,4(a5)
    1038:	0c090463          	beqz	s2,1100 <core_bench_list+0xd0c>
    103c:	00831403          	lh	s0,8(t1)
    1040:	01012583          	lw	a1,16(sp)
    1044:	00040513          	mv	a0,s0
    1048:	611080ef          	jal	9e58 <crc16>
    104c:	00092483          	lw	s1,0(s2)
    1050:	00a12823          	sw	a0,16(sp)
    1054:	0a048663          	beqz	s1,1100 <core_bench_list+0xd0c>
    1058:	01012583          	lw	a1,16(sp)
    105c:	00040513          	mv	a0,s0
    1060:	5f9080ef          	jal	9e58 <crc16>
    1064:	0004aa83          	lw	s5,0(s1)
    1068:	00a12823          	sw	a0,16(sp)
    106c:	00050593          	mv	a1,a0
    1070:	080a8863          	beqz	s5,1100 <core_bench_list+0xd0c>
    1074:	00040513          	mv	a0,s0
    1078:	5e1080ef          	jal	9e58 <crc16>
    107c:	000aa983          	lw	s3,0(s5)
    1080:	00a12823          	sw	a0,16(sp)
    1084:	00050593          	mv	a1,a0
    1088:	06098c63          	beqz	s3,1100 <core_bench_list+0xd0c>
    108c:	00040513          	mv	a0,s0
    1090:	5c9080ef          	jal	9e58 <crc16>
    1094:	0009a903          	lw	s2,0(s3)
    1098:	00a12823          	sw	a0,16(sp)
    109c:	00050593          	mv	a1,a0
    10a0:	06090063          	beqz	s2,1100 <core_bench_list+0xd0c>
    10a4:	00040513          	mv	a0,s0
    10a8:	5b1080ef          	jal	9e58 <crc16>
    10ac:	00092483          	lw	s1,0(s2)
    10b0:	00a12823          	sw	a0,16(sp)
    10b4:	00050593          	mv	a1,a0
    10b8:	04048463          	beqz	s1,1100 <core_bench_list+0xd0c>
    10bc:	00040513          	mv	a0,s0
    10c0:	599080ef          	jal	9e58 <crc16>
    10c4:	0004aa83          	lw	s5,0(s1)
    10c8:	00a12823          	sw	a0,16(sp)
    10cc:	00050593          	mv	a1,a0
    10d0:	020a8863          	beqz	s5,1100 <core_bench_list+0xd0c>
    10d4:	00040513          	mv	a0,s0
    10d8:	581080ef          	jal	9e58 <crc16>
    10dc:	000aa983          	lw	s3,0(s5)
    10e0:	00a12823          	sw	a0,16(sp)
    10e4:	00050593          	mv	a1,a0
    10e8:	00098c63          	beqz	s3,1100 <core_bench_list+0xd0c>
    10ec:	00040513          	mv	a0,s0
    10f0:	569080ef          	jal	9e58 <crc16>
    10f4:	0009a903          	lw	s2,0(s3)
    10f8:	00a12823          	sw	a0,16(sp)
    10fc:	f40912e3          	bnez	s2,1040 <core_bench_list+0xc4c>
    1100:	05c12083          	lw	ra,92(sp)
    1104:	05812403          	lw	s0,88(sp)
    1108:	01012503          	lw	a0,16(sp)
    110c:	05412483          	lw	s1,84(sp)
    1110:	05012903          	lw	s2,80(sp)
    1114:	04c12983          	lw	s3,76(sp)
    1118:	04412a83          	lw	s5,68(sp)
    111c:	06010113          	addi	sp,sp,96
    1120:	00008067          	ret
    1124:	00048313          	mv	t1,s1
    1128:	909ff06f          	j	a30 <core_bench_list+0x63c>
    112c:	01c12783          	lw	a5,28(sp)
    1130:	00170713          	addi	a4,a4,1
    1134:	3c07270b          	th.ext	a4,a4,15,0
    1138:	7ae78463          	beq	a5,a4,18e0 <core_bench_list+0x14ec>
    113c:	000680e3          	beqz	a3,193c <core_bench_list+0x1548>
    1140:	00000513          	li	a0,0
    1144:	b2dff06f          	j	c70 <core_bench_list+0x87c>
    1148:	00072503          	lw	a0,0(a4)
    114c:	00a7a023          	sw	a0,0(a5)
    1150:	00050663          	beqz	a0,115c <core_bench_list+0xd68>
    1154:	00f52223          	sw	a5,4(a0)
    1158:	00080793          	mv	a5,a6
    115c:	00042803          	lw	a6,0(s0)
    1160:	00872223          	sw	s0,4(a4)
    1164:	01072023          	sw	a6,0(a4)
    1168:	76080863          	beqz	a6,18d8 <core_bench_list+0x14e4>
    116c:	00e82223          	sw	a4,4(a6)
    1170:	00e42023          	sw	a4,0(s0)
    1174:	00000513          	li	a0,0
    1178:	c5cff06f          	j	5d4 <core_bench_list+0x1e0>
    117c:	03b12623          	sw	s11,44(sp)
    1180:	028a8593          	addi	a1,s5,40
    1184:	00100d93          	li	s11,1
    1188:	03a12823          	sw	s10,48(sp)
    118c:	05412423          	sw	s4,72(sp)
    1190:	05612023          	sw	s6,64(sp)
    1194:	03712e23          	sw	s7,60(sp)
    1198:	03812c23          	sw	s8,56(sp)
    119c:	03912a23          	sw	s9,52(sp)
    11a0:	000d8d13          	mv	s10,s11
    11a4:	00b12623          	sw	a1,12(sp)
    11a8:	000406e3          	beqz	s0,19b4 <core_bench_list+0x15c0>
    11ac:	00000c93          	li	s9,0
    11b0:	00000913          	li	s2,0
    11b4:	00012423          	sw	zero,8(sp)
    11b8:	00812b03          	lw	s6,8(sp)
    11bc:	007dfa13          	andi	s4,s11,7
    11c0:	00040793          	mv	a5,s0
    11c4:	001b0b93          	addi	s7,s6,1
    11c8:	01712423          	sw	s7,8(sp)
    11cc:	00000493          	li	s1,0
    11d0:	080a0463          	beqz	s4,1258 <core_bench_list+0xe64>
    11d4:	0fb4d663          	bge	s1,s11,12c0 <core_bench_list+0xecc>
    11d8:	00042783          	lw	a5,0(s0)
    11dc:	00100493          	li	s1,1
    11e0:	0e078063          	beqz	a5,12c0 <core_bench_list+0xecc>
    11e4:	069a0a63          	beq	s4,s1,1258 <core_bench_list+0xe64>
    11e8:	00200c13          	li	s8,2
    11ec:	078a0063          	beq	s4,s8,124c <core_bench_list+0xe58>
    11f0:	00300e13          	li	t3,3
    11f4:	05ca0663          	beq	s4,t3,1240 <core_bench_list+0xe4c>
    11f8:	00400f93          	li	t6,4
    11fc:	03fa0c63          	beq	s4,t6,1234 <core_bench_list+0xe40>
    1200:	00500813          	li	a6,5
    1204:	030a0263          	beq	s4,a6,1228 <core_bench_list+0xe34>
    1208:	00600713          	li	a4,6
    120c:	00ea0863          	beq	s4,a4,121c <core_bench_list+0xe28>
    1210:	0007a783          	lw	a5,0(a5)
    1214:	000c0493          	mv	s1,s8
    1218:	0a078463          	beqz	a5,12c0 <core_bench_list+0xecc>
    121c:	0007a783          	lw	a5,0(a5)
    1220:	00148493          	addi	s1,s1,1
    1224:	08078e63          	beqz	a5,12c0 <core_bench_list+0xecc>
    1228:	0007a783          	lw	a5,0(a5)
    122c:	00148493          	addi	s1,s1,1
    1230:	08078863          	beqz	a5,12c0 <core_bench_list+0xecc>
    1234:	0007a783          	lw	a5,0(a5)
    1238:	00148493          	addi	s1,s1,1
    123c:	08078263          	beqz	a5,12c0 <core_bench_list+0xecc>
    1240:	0007a783          	lw	a5,0(a5)
    1244:	00148493          	addi	s1,s1,1
    1248:	06078c63          	beqz	a5,12c0 <core_bench_list+0xecc>
    124c:	0007a783          	lw	a5,0(a5)
    1250:	00148493          	addi	s1,s1,1
    1254:	06078663          	beqz	a5,12c0 <core_bench_list+0xecc>
    1258:	07b4d463          	bge	s1,s11,12c0 <core_bench_list+0xecc>
    125c:	0007a783          	lw	a5,0(a5)
    1260:	00148493          	addi	s1,s1,1
    1264:	00048613          	mv	a2,s1
    1268:	04078c63          	beqz	a5,12c0 <core_bench_list+0xecc>
    126c:	0007a783          	lw	a5,0(a5)
    1270:	00148493          	addi	s1,s1,1
    1274:	04078663          	beqz	a5,12c0 <core_bench_list+0xecc>
    1278:	0007a783          	lw	a5,0(a5)
    127c:	00260493          	addi	s1,a2,2
    1280:	04078063          	beqz	a5,12c0 <core_bench_list+0xecc>
    1284:	0007a783          	lw	a5,0(a5)
    1288:	00360493          	addi	s1,a2,3
    128c:	02078a63          	beqz	a5,12c0 <core_bench_list+0xecc>
    1290:	0007a783          	lw	a5,0(a5)
    1294:	00460493          	addi	s1,a2,4
    1298:	02078463          	beqz	a5,12c0 <core_bench_list+0xecc>
    129c:	0007a783          	lw	a5,0(a5)
    12a0:	00560493          	addi	s1,a2,5
    12a4:	00078e63          	beqz	a5,12c0 <core_bench_list+0xecc>
    12a8:	0007a783          	lw	a5,0(a5)
    12ac:	00660493          	addi	s1,a2,6
    12b0:	00078863          	beqz	a5,12c0 <core_bench_list+0xecc>
    12b4:	0007a783          	lw	a5,0(a5)
    12b8:	00760493          	addi	s1,a2,7
    12bc:	f8079ee3          	bnez	a5,1258 <core_bench_list+0xe64>
    12c0:	00090993          	mv	s3,s2
    12c4:	000d8c13          	mv	s8,s11
    12c8:	00040913          	mv	s2,s0
    12cc:	00078413          	mv	s0,a5
    12d0:	04905663          	blez	s1,131c <core_bench_list+0xf28>
    12d4:	200c0a63          	beqz	s8,14e8 <core_bench_list+0x10f4>
    12d8:	42040063          	beqz	s0,16f8 <core_bench_list+0x1304>
    12dc:	00891a03          	lh	s4,8(s2)
    12e0:	080a7893          	andi	a7,s4,128
    12e4:	2a088663          	beqz	a7,1590 <core_bench_list+0x119c>
    12e8:	07fa7b93          	andi	s7,s4,127
    12ec:	00841a03          	lh	s4,8(s0)
    12f0:	080a7713          	andi	a4,s4,128
    12f4:	22070463          	beqz	a4,151c <core_bench_list+0x1128>
    12f8:	07fa7f13          	andi	t5,s4,127
    12fc:	277f5663          	bge	t5,s7,1568 <core_bench_list+0x1174>
    1300:	00042b83          	lw	s7,0(s0)
    1304:	fffc0c13          	addi	s8,s8,-1
    1308:	2c098a63          	beqz	s3,15dc <core_bench_list+0x11e8>
    130c:	0089a023          	sw	s0,0(s3)
    1310:	00040993          	mv	s3,s0
    1314:	000b8413          	mv	s0,s7
    1318:	fa904ee3          	bgtz	s1,12d4 <core_bench_list+0xee0>
    131c:	3d805863          	blez	s8,16ec <core_bench_list+0x12f8>
    1320:	1a040863          	beqz	s0,14d0 <core_bench_list+0x10dc>
    1324:	fa049ce3          	bnez	s1,12dc <core_bench_list+0xee8>
    1328:	fffc0913          	addi	s2,s8,-1
    132c:	00797493          	andi	s1,s2,7
    1330:	0e048a63          	beqz	s1,1424 <core_bench_list+0x1030>
    1334:	00042f83          	lw	t6,0(s0)
    1338:	00090c13          	mv	s8,s2
    133c:	44098a63          	beqz	s3,1790 <core_bench_list+0x139c>
    1340:	0089a023          	sw	s0,0(s3)
    1344:	00040993          	mv	s3,s0
    1348:	180f8463          	beqz	t6,14d0 <core_bench_list+0x10dc>
    134c:	00100813          	li	a6,1
    1350:	000f8413          	mv	s0,t6
    1354:	0d048863          	beq	s1,a6,1424 <core_bench_list+0x1030>
    1358:	00200a13          	li	s4,2
    135c:	0b448663          	beq	s1,s4,1408 <core_bench_list+0x1014>
    1360:	00300713          	li	a4,3
    1364:	08e48463          	beq	s1,a4,13ec <core_bench_list+0xff8>
    1368:	00400613          	li	a2,4
    136c:	06c48263          	beq	s1,a2,13d0 <core_bench_list+0xfdc>
    1370:	00500793          	li	a5,5
    1374:	04f48063          	beq	s1,a5,13b4 <core_bench_list+0xfc0>
    1378:	00600313          	li	t1,6
    137c:	00648e63          	beq	s1,t1,1398 <core_bench_list+0xfa4>
    1380:	000fa403          	lw	s0,0(t6)
    1384:	fffc0c13          	addi	s8,s8,-1
    1388:	44098463          	beqz	s3,17d0 <core_bench_list+0x13dc>
    138c:	01f9a023          	sw	t6,0(s3)
    1390:	000f8993          	mv	s3,t6
    1394:	12040e63          	beqz	s0,14d0 <core_bench_list+0x10dc>
    1398:	00042883          	lw	a7,0(s0)
    139c:	fffc0c13          	addi	s8,s8,-1
    13a0:	42098463          	beqz	s3,17c8 <core_bench_list+0x13d4>
    13a4:	0089a023          	sw	s0,0(s3)
    13a8:	00040993          	mv	s3,s0
    13ac:	12088263          	beqz	a7,14d0 <core_bench_list+0x10dc>
    13b0:	00088413          	mv	s0,a7
    13b4:	00042503          	lw	a0,0(s0)
    13b8:	fffc0c13          	addi	s8,s8,-1
    13bc:	3e098a63          	beqz	s3,17b0 <core_bench_list+0x13bc>
    13c0:	0089a023          	sw	s0,0(s3)
    13c4:	00040993          	mv	s3,s0
    13c8:	10050463          	beqz	a0,14d0 <core_bench_list+0x10dc>
    13cc:	00050413          	mv	s0,a0
    13d0:	00042e83          	lw	t4,0(s0)
    13d4:	fffc0c13          	addi	s8,s8,-1
    13d8:	3c098863          	beqz	s3,17a8 <core_bench_list+0x13b4>
    13dc:	0089a023          	sw	s0,0(s3)
    13e0:	00040993          	mv	s3,s0
    13e4:	0e0e8663          	beqz	t4,14d0 <core_bench_list+0x10dc>
    13e8:	000e8413          	mv	s0,t4
    13ec:	00042383          	lw	t2,0(s0)
    13f0:	fffc0c13          	addi	s8,s8,-1
    13f4:	3a098663          	beqz	s3,17a0 <core_bench_list+0x13ac>
    13f8:	0089a023          	sw	s0,0(s3)
    13fc:	00040993          	mv	s3,s0
    1400:	0c038863          	beqz	t2,14d0 <core_bench_list+0x10dc>
    1404:	00038413          	mv	s0,t2
    1408:	00042b03          	lw	s6,0(s0)
    140c:	fffc0c13          	addi	s8,s8,-1
    1410:	38098463          	beqz	s3,1798 <core_bench_list+0x13a4>
    1414:	0089a023          	sw	s0,0(s3)
    1418:	00040993          	mv	s3,s0
    141c:	0a0b0a63          	beqz	s6,14d0 <core_bench_list+0x10dc>
    1420:	000b0413          	mv	s0,s6
    1424:	00042f03          	lw	t5,0(s0)
    1428:	fffc0c13          	addi	s8,s8,-1
    142c:	32098263          	beqz	s3,1750 <core_bench_list+0x135c>
    1430:	0089a023          	sw	s0,0(s3)
    1434:	380c0263          	beqz	s8,17b8 <core_bench_list+0x13c4>
    1438:	00040993          	mv	s3,s0
    143c:	080f0a63          	beqz	t5,14d0 <core_bench_list+0x10dc>
    1440:	000f2283          	lw	t0,0(t5)
    1444:	30040a63          	beqz	s0,1758 <core_bench_list+0x1364>
    1448:	01e42023          	sw	t5,0(s0)
    144c:	000f0993          	mv	s3,t5
    1450:	08028063          	beqz	t0,14d0 <core_bench_list+0x10dc>
    1454:	0002a403          	lw	s0,0(t0)
    1458:	300f0463          	beqz	t5,1760 <core_bench_list+0x136c>
    145c:	005f2023          	sw	t0,0(t5)
    1460:	00028993          	mv	s3,t0
    1464:	06040663          	beqz	s0,14d0 <core_bench_list+0x10dc>
    1468:	00042583          	lw	a1,0(s0)
    146c:	2e028e63          	beqz	t0,1768 <core_bench_list+0x1374>
    1470:	0082a023          	sw	s0,0(t0)
    1474:	00040993          	mv	s3,s0
    1478:	04058c63          	beqz	a1,14d0 <core_bench_list+0x10dc>
    147c:	0005ab83          	lw	s7,0(a1)
    1480:	2e040863          	beqz	s0,1770 <core_bench_list+0x137c>
    1484:	00b42023          	sw	a1,0(s0)
    1488:	00058993          	mv	s3,a1
    148c:	040b8263          	beqz	s7,14d0 <core_bench_list+0x10dc>
    1490:	000ba683          	lw	a3,0(s7)
    1494:	2e058263          	beqz	a1,1778 <core_bench_list+0x1384>
    1498:	0175a023          	sw	s7,0(a1)
    149c:	000b8993          	mv	s3,s7
    14a0:	02068863          	beqz	a3,14d0 <core_bench_list+0x10dc>
    14a4:	0006ae03          	lw	t3,0(a3)
    14a8:	2e0b8063          	beqz	s7,1788 <core_bench_list+0x1394>
    14ac:	00dba023          	sw	a3,0(s7)
    14b0:	00068993          	mv	s3,a3
    14b4:	000e0e63          	beqz	t3,14d0 <core_bench_list+0x10dc>
    14b8:	000e2403          	lw	s0,0(t3)
    14bc:	ff9c0c13          	addi	s8,s8,-7
    14c0:	2c068063          	beqz	a3,1780 <core_bench_list+0x138c>
    14c4:	01c6a023          	sw	t3,0(a3)
    14c8:	000e0993          	mv	s3,t3
    14cc:	f4041ce3          	bnez	s0,1424 <core_bench_list+0x1030>
    14d0:	00812483          	lw	s1,8(sp)
    14d4:	0009a023          	sw	zero,0(s3)
    14d8:	45a48063          	beq	s1,s10,1918 <core_bench_list+0x1524>
    14dc:	001d9d93          	slli	s11,s11,0x1
    14e0:	000c8413          	mv	s0,s9
    14e4:	cc5ff06f          	j	11a8 <core_bench_list+0xdb4>
    14e8:	00092f83          	lw	t6,0(s2)
    14ec:	fff48493          	addi	s1,s1,-1
    14f0:	02098063          	beqz	s3,1510 <core_bench_list+0x111c>
    14f4:	0129a023          	sw	s2,0(s3)
    14f8:	1a048063          	beqz	s1,1698 <core_bench_list+0x12a4>
    14fc:	00090993          	mv	s3,s2
    1500:	000f8913          	mv	s2,t6
    1504:	00092f83          	lw	t6,0(s2)
    1508:	fff48493          	addi	s1,s1,-1
    150c:	fe0994e3          	bnez	s3,14f4 <core_bench_list+0x1100>
    1510:	18048263          	beqz	s1,1694 <core_bench_list+0x12a0>
    1514:	00090c93          	mv	s9,s2
    1518:	fe5ff06f          	j	14fc <core_bench_list+0x1108>
    151c:	183a360b          	th.extu	a2,s4,6,3
    1520:	00461793          	slli	a5,a2,0x4
    1524:	00f608b3          	add	a7,a2,a5
    1528:	007a7313          	andi	t1,s4,7
    152c:	038ad783          	lhu	a5,56(s5)
    1530:	00088713          	mv	a4,a7
    1534:	0c030a63          	beqz	t1,1608 <core_bench_list+0x1214>
    1538:	0ba30663          	beq	t1,s10,15e4 <core_bench_list+0x11f0>
    153c:	3c0a350b          	th.extu	a0,s4,15,0
    1540:	000a0b13          	mv	s6,s4
    1544:	00078593          	mv	a1,a5
    1548:	330080ef          	jal	9878 <crcu16>
    154c:	07fb7f13          	andi	t5,s6,127
    1550:	f00a7693          	andi	a3,s4,-256
    1554:	00df62b3          	or	t0,t5,a3
    1558:	0802e593          	ori	a1,t0,128
    155c:	02aa9c23          	sh	a0,56(s5)
    1560:	00b41423          	sh	a1,8(s0)
    1564:	d97f4ee3          	blt	t5,s7,1300 <core_bench_list+0xf0c>
    1568:	00092e03          	lw	t3,0(s2)
    156c:	fff48493          	addi	s1,s1,-1
    1570:	12098a63          	beqz	s3,16a4 <core_bench_list+0x12b0>
    1574:	0129a023          	sw	s2,0(s3)
    1578:	16905463          	blez	s1,16e0 <core_bench_list+0x12ec>
    157c:	00090993          	mv	s3,s2
    1580:	000e0913          	mv	s2,t3
    1584:	00891a03          	lh	s4,8(s2)
    1588:	080a7893          	andi	a7,s4,128
    158c:	d4089ee3          	bnez	a7,12e8 <core_bench_list+0xef4>
    1590:	183a350b          	th.extu	a0,s4,6,3
    1594:	00451e93          	slli	t4,a0,0x4
    1598:	01d50f33          	add	t5,a0,t4
    159c:	007a7393          	andi	t2,s4,7
    15a0:	038ad783          	lhu	a5,56(s5)
    15a4:	000f0713          	mv	a4,t5
    15a8:	0a038c63          	beqz	t2,1660 <core_bench_list+0x126c>
    15ac:	09a38863          	beq	t2,s10,163c <core_bench_list+0x1248>
    15b0:	3c0a350b          	th.extu	a0,s4,15,0
    15b4:	000a0b13          	mv	s6,s4
    15b8:	00078593          	mv	a1,a5
    15bc:	2bc080ef          	jal	9878 <crcu16>
    15c0:	07fb7b93          	andi	s7,s6,127
    15c4:	f00a7e13          	andi	t3,s4,-256
    15c8:	01cbefb3          	or	t6,s7,t3
    15cc:	080fe813          	ori	a6,t6,128
    15d0:	02aa9c23          	sh	a0,56(s5)
    15d4:	01091423          	sh	a6,8(s2)
    15d8:	d15ff06f          	j	12ec <core_bench_list+0xef8>
    15dc:	00040c93          	mv	s9,s0
    15e0:	d31ff06f          	j	1310 <core_bench_list+0xf1c>
    15e4:	00c12503          	lw	a0,12(sp)
    15e8:	00078613          	mv	a2,a5
    15ec:	00088593          	mv	a1,a7
    15f0:	018030ef          	jal	4608 <core_bench_matrix>
    15f4:	03cad383          	lhu	t2,60(s5)
    15f8:	00050b13          	mv	s6,a0
    15fc:	0c038663          	beqz	t2,16c8 <core_bench_list+0x12d4>
    1600:	038ad783          	lhu	a5,56(s5)
    1604:	f41ff06f          	j	1544 <core_bench_list+0x1150>
    1608:	02100513          	li	a0,33
    160c:	01156463          	bltu	a0,a7,1614 <core_bench_list+0x1220>
    1610:	02200713          	li	a4,34
    1614:	002a9683          	lh	a3,2(s5)
    1618:	000a9603          	lh	a2,0(s5)
    161c:	014aa583          	lw	a1,20(s5)
    1620:	018aa503          	lw	a0,24(s5)
    1624:	2dc070ef          	jal	8900 <core_bench_state>
    1628:	03eade83          	lhu	t4,62(s5)
    162c:	00050b13          	mv	s6,a0
    1630:	080e8063          	beqz	t4,16b0 <core_bench_list+0x12bc>
    1634:	038ad783          	lhu	a5,56(s5)
    1638:	f0dff06f          	j	1544 <core_bench_list+0x1150>
    163c:	00c12503          	lw	a0,12(sp)
    1640:	000f0593          	mv	a1,t5
    1644:	00078613          	mv	a2,a5
    1648:	7c1020ef          	jal	4608 <core_bench_matrix>
    164c:	03cad583          	lhu	a1,60(s5)
    1650:	00050b13          	mv	s6,a0
    1654:	06058463          	beqz	a1,16bc <core_bench_list+0x12c8>
    1658:	038ad783          	lhu	a5,56(s5)
    165c:	f5dff06f          	j	15b8 <core_bench_list+0x11c4>
    1660:	02100693          	li	a3,33
    1664:	01e6e463          	bltu	a3,t5,166c <core_bench_list+0x1278>
    1668:	02200713          	li	a4,34
    166c:	002a9683          	lh	a3,2(s5)
    1670:	000a9603          	lh	a2,0(s5)
    1674:	014aa583          	lw	a1,20(s5)
    1678:	018aa503          	lw	a0,24(s5)
    167c:	284070ef          	jal	8900 <core_bench_state>
    1680:	03ead283          	lhu	t0,62(s5)
    1684:	00050b13          	mv	s6,a0
    1688:	04028663          	beqz	t0,16d4 <core_bench_list+0x12e0>
    168c:	038ad783          	lhu	a5,56(s5)
    1690:	f29ff06f          	j	15b8 <core_bench_list+0x11c4>
    1694:	00090c93          	mv	s9,s2
    1698:	b20410e3          	bnez	s0,11b8 <core_bench_list+0xdc4>
    169c:	00090993          	mv	s3,s2
    16a0:	e31ff06f          	j	14d0 <core_bench_list+0x10dc>
    16a4:	08905e63          	blez	s1,1740 <core_bench_list+0x134c>
    16a8:	00090c93          	mv	s9,s2
    16ac:	ed1ff06f          	j	157c <core_bench_list+0x1188>
    16b0:	038ad783          	lhu	a5,56(s5)
    16b4:	02aa9f23          	sh	a0,62(s5)
    16b8:	e8dff06f          	j	1544 <core_bench_list+0x1150>
    16bc:	038ad783          	lhu	a5,56(s5)
    16c0:	02aa9e23          	sh	a0,60(s5)
    16c4:	ef5ff06f          	j	15b8 <core_bench_list+0x11c4>
    16c8:	038ad783          	lhu	a5,56(s5)
    16cc:	02aa9e23          	sh	a0,60(s5)
    16d0:	e75ff06f          	j	1544 <core_bench_list+0x1150>
    16d4:	038ad783          	lhu	a5,56(s5)
    16d8:	02aa9f23          	sh	a0,62(s5)
    16dc:	eddff06f          	j	15b8 <core_bench_list+0x11c4>
    16e0:	00090993          	mv	s3,s2
    16e4:	000e0913          	mv	s2,t3
    16e8:	c3804ce3          	bgtz	s8,1320 <core_bench_list+0xf2c>
    16ec:	00098913          	mv	s2,s3
    16f0:	ac0414e3          	bnez	s0,11b8 <core_bench_list+0xdc4>
    16f4:	fa9ff06f          	j	169c <core_bench_list+0x12a8>
    16f8:	00098313          	mv	t1,s3
    16fc:	fff48493          	addi	s1,s1,-1
    1700:	00090993          	mv	s3,s2
    1704:	00092903          	lw	s2,0(s2)
    1708:	02030063          	beqz	t1,1728 <core_bench_list+0x1334>
    170c:	01332023          	sw	s3,0(t1)
    1710:	c00486e3          	beqz	s1,131c <core_bench_list+0xf28>
    1714:	00098313          	mv	t1,s3
    1718:	fff48493          	addi	s1,s1,-1
    171c:	00090993          	mv	s3,s2
    1720:	00092903          	lw	s2,0(s2)
    1724:	fe0314e3          	bnez	t1,170c <core_bench_list+0x1318>
    1728:	00048663          	beqz	s1,1734 <core_bench_list+0x1340>
    172c:	00098c93          	mv	s9,s3
    1730:	fe5ff06f          	j	1714 <core_bench_list+0x1320>
    1734:	00098c93          	mv	s9,s3
    1738:	00000413          	li	s0,0
    173c:	be1ff06f          	j	131c <core_bench_list+0xf28>
    1740:	00090c93          	mv	s9,s2
    1744:	00090993          	mv	s3,s2
    1748:	000e0913          	mv	s2,t3
    174c:	bd1ff06f          	j	131c <core_bench_list+0xf28>
    1750:	00040c93          	mv	s9,s0
    1754:	ce1ff06f          	j	1434 <core_bench_list+0x1040>
    1758:	000f0c93          	mv	s9,t5
    175c:	cf1ff06f          	j	144c <core_bench_list+0x1058>
    1760:	00028c93          	mv	s9,t0
    1764:	cfdff06f          	j	1460 <core_bench_list+0x106c>
    1768:	00040c93          	mv	s9,s0
    176c:	d09ff06f          	j	1474 <core_bench_list+0x1080>
    1770:	00058c93          	mv	s9,a1
    1774:	d15ff06f          	j	1488 <core_bench_list+0x1094>
    1778:	000b8c93          	mv	s9,s7
    177c:	d21ff06f          	j	149c <core_bench_list+0x10a8>
    1780:	000e0c93          	mv	s9,t3
    1784:	d45ff06f          	j	14c8 <core_bench_list+0x10d4>
    1788:	00068c93          	mv	s9,a3
    178c:	d25ff06f          	j	14b0 <core_bench_list+0x10bc>
    1790:	00040c93          	mv	s9,s0
    1794:	bb1ff06f          	j	1344 <core_bench_list+0xf50>
    1798:	00040c93          	mv	s9,s0
    179c:	c7dff06f          	j	1418 <core_bench_list+0x1024>
    17a0:	00040c93          	mv	s9,s0
    17a4:	c59ff06f          	j	13fc <core_bench_list+0x1008>
    17a8:	00040c93          	mv	s9,s0
    17ac:	c35ff06f          	j	13e0 <core_bench_list+0xfec>
    17b0:	00040c93          	mv	s9,s0
    17b4:	c11ff06f          	j	13c4 <core_bench_list+0xfd0>
    17b8:	00040913          	mv	s2,s0
    17bc:	000f0413          	mv	s0,t5
    17c0:	9e041ce3          	bnez	s0,11b8 <core_bench_list+0xdc4>
    17c4:	ed9ff06f          	j	169c <core_bench_list+0x12a8>
    17c8:	00040c93          	mv	s9,s0
    17cc:	bddff06f          	j	13a8 <core_bench_list+0xfb4>
    17d0:	000f8c93          	mv	s9,t6
    17d4:	bbdff06f          	j	1390 <core_bench_list+0xf9c>
    17d8:	00042a83          	lw	s5,0(s0)
    17dc:	000a8463          	beqz	s5,17e4 <core_bench_list+0x13f0>
    17e0:	f71fe06f          	j	750 <core_bench_list+0x35c>
    17e4:	834ff06f          	j	818 <core_bench_list+0x424>
    17e8:	01c12f03          	lw	t5,28(sp)
    17ec:	00170393          	addi	t2,a4,1
    17f0:	3c03a70b          	th.ext	a4,t2,15,0
    17f4:	01f6a223          	sw	t6,4(a3)
    17f8:	000f8413          	mv	s0,t6
    17fc:	d7e71e63          	bne	a4,t5,d78 <core_bench_list+0x984>
    1800:	04912a23          	sw	s1,84(sp)
    1804:	00261493          	slli	s1,a2,0x2
    1808:	05212823          	sw	s2,80(sp)
    180c:	41148933          	sub	s2,s1,a7
    1810:	05312623          	sw	s3,76(sp)
    1814:	012309b3          	add	s3,t1,s2
    1818:	3c09b40b          	th.extu	s0,s3,15,0
    181c:	00812823          	sw	s0,16(sp)
    1820:	00068413          	mv	s0,a3
    1824:	c84ff06f          	j	ca8 <core_bench_list+0x8b4>
    1828:	00078413          	mv	s0,a5
    182c:	d24ff06f          	j	d50 <core_bench_list+0x95c>
    1830:	000f0793          	mv	a5,t5
    1834:	de0ff06f          	j	e14 <core_bench_list+0xa20>
    1838:	00040a93          	mv	s5,s0
    183c:	00c0006f          	j	1848 <core_bench_list+0x1454>
    1840:	000aaa83          	lw	s5,0(s5)
    1844:	f80a8ae3          	beqz	s5,17d8 <core_bench_list+0x13e4>
    1848:	008ac883          	lbu	a7,8(s5)
    184c:	01412503          	lw	a0,20(sp)
    1850:	fea898e3          	bne	a7,a0,1840 <core_bench_list+0x144c>
    1854:	efdfe06f          	j	750 <core_bench_list+0x35c>
    1858:	00058713          	mv	a4,a1
    185c:	00000513          	li	a0,0
    1860:	00000893          	li	a7,0
    1864:	00000613          	li	a2,0
    1868:	00000313          	li	t1,0
    186c:	00100e13          	li	t3,1
    1870:	01c888b3          	add	a7,a7,t3
    1874:	b7c50863          	beq	a0,t3,be4 <core_bench_list+0x7f0>
    1878:	00068393          	mv	t2,a3
    187c:	00040693          	mv	a3,s0
    1880:	00038413          	mv	s0,t2
    1884:	00442e03          	lw	t3,4(s0)
    1888:	00100513          	li	a0,1
    188c:	b6cff06f          	j	bf8 <core_bench_list+0x804>
    1890:	01812503          	lw	a0,24(sp)
    1894:	00052023          	sw	zero,0(a0)
    1898:	00052223          	sw	zero,4(a0)
    189c:	0a05c463          	bltz	a1,1944 <core_bench_list+0x1550>
    18a0:	00000693          	li	a3,0
    18a4:	c21fe06f          	j	4c4 <core_bench_list+0xd0>
    18a8:	00050413          	mv	s0,a0
    18ac:	d10ff06f          	j	dbc <core_bench_list+0x9c8>
    18b0:	00078413          	mv	s0,a5
    18b4:	cf4ff06f          	j	da8 <core_bench_list+0x9b4>
    18b8:	01812a83          	lw	s5,24(sp)
    18bc:	000aa023          	sw	zero,0(s5)
    18c0:	000aa223          	sw	zero,4(s5)
    18c4:	0cb04463          	bgtz	a1,198c <core_bench_list+0x1598>
    18c8:	04912a23          	sw	s1,84(sp)
    18cc:	05212823          	sw	s2,80(sp)
    18d0:	05312623          	sw	s3,76(sp)
    18d4:	e29fe06f          	j	6fc <core_bench_list+0x308>
    18d8:	00070793          	mv	a5,a4
    18dc:	895ff06f          	j	1170 <core_bench_list+0xd7c>
    18e0:	00261413          	slli	s0,a2,0x2
    18e4:	41140633          	sub	a2,s0,a7
    18e8:	00c30333          	add	t1,t1,a2
    18ec:	3c03388b          	th.extu	a7,t1,15,0
    18f0:	01112823          	sw	a7,16(sp)
    18f4:	00068413          	mv	s0,a3
    18f8:	d59fe06f          	j	650 <core_bench_list+0x25c>
    18fc:	00b12e23          	sw	a1,28(sp)
    1900:	00012823          	sw	zero,16(sp)
    1904:	d4dfe06f          	j	650 <core_bench_list+0x25c>
    1908:	00040693          	mv	a3,s0
    190c:	00188893          	addi	a7,a7,1
    1910:	00000413          	li	s0,0
    1914:	ad0ff06f          	j	be4 <core_bench_list+0x7f0>
    1918:	000c8413          	mv	s0,s9
    191c:	04812a03          	lw	s4,72(sp)
    1920:	04012b03          	lw	s6,64(sp)
    1924:	03c12b83          	lw	s7,60(sp)
    1928:	03812c03          	lw	s8,56(sp)
    192c:	03412c83          	lw	s9,52(sp)
    1930:	03012d03          	lw	s10,48(sp)
    1934:	02c12d83          	lw	s11,44(sp)
    1938:	dc5fe06f          	j	6fc <core_bench_list+0x308>
    193c:	00188893          	addi	a7,a7,1
    1940:	f45ff06f          	j	1884 <core_bench_list+0x1490>
    1944:	00000693          	li	a3,0
    1948:	01c05463          	blez	t3,1950 <core_bench_list+0x155c>
    194c:	c0dfe06f          	j	558 <core_bench_list+0x164>
    1950:	04912a23          	sw	s1,84(sp)
    1954:	05212823          	sw	s2,80(sp)
    1958:	05312623          	sw	s3,76(sp)
    195c:	01812403          	lw	s0,24(sp)
    1960:	00b12e23          	sw	a1,28(sp)
    1964:	00012823          	sw	zero,16(sp)
    1968:	00042023          	sw	zero,0(s0)
    196c:	00042223          	sw	zero,4(s0)
    1970:	00012a23          	sw	zero,20(sp)
    1974:	00000413          	li	s0,0
    1978:	d85fe06f          	j	6fc <core_bench_list+0x308>
    197c:	04912a23          	sw	s1,84(sp)
    1980:	05212823          	sw	s2,80(sp)
    1984:	05312623          	sw	s3,76(sp)
    1988:	a20ff06f          	j	ba8 <core_bench_list+0x7b4>
    198c:	04912a23          	sw	s1,84(sp)
    1990:	05212823          	sw	s2,80(sp)
    1994:	05312623          	sw	s3,76(sp)
    1998:	05412423          	sw	s4,72(sp)
    199c:	05612023          	sw	s6,64(sp)
    19a0:	03712e23          	sw	s7,60(sp)
    19a4:	03812c23          	sw	s8,56(sp)
    19a8:	03912a23          	sw	s9,52(sp)
    19ac:	03a12823          	sw	s10,48(sp)
    19b0:	03b12623          	sw	s11,44(sp)
    19b4:	00002023          	sw	zero,0(zero) # 0 <_start>
    19b8:	00100073          	ebreak
    19bc:	05412423          	sw	s4,72(sp)
    19c0:	05612023          	sw	s6,64(sp)
    19c4:	03712e23          	sw	s7,60(sp)
    19c8:	03812c23          	sw	s8,56(sp)
    19cc:	03912a23          	sw	s9,52(sp)
    19d0:	03a12823          	sw	s10,48(sp)
    19d4:	03b12623          	sw	s11,44(sp)
    19d8:	00002023          	sw	zero,0(zero) # 0 <_start>
    19dc:	00100073          	ebreak

000019e0 <core_list_init>:
    19e0:	ccccd7b7          	lui	a5,0xccccd
    19e4:	ccd78293          	addi	t0,a5,-819 # cccccccd <_stack_top+0xcccb8ccd>
    19e8:	025536b3          	mulhu	a3,a0,t0
    19ec:	00008337          	lui	t1,0x8
    19f0:	08030393          	addi	t2,t1,128 # 8080 <matrix_add_const+0xd4>
    19f4:	00058713          	mv	a4,a1
    19f8:	0075a423          	sw	t2,8(a1)
    19fc:	0005a023          	sw	zero,0(a1)
    1a00:	0005a223          	sw	zero,4(a1)
    1a04:	01858793          	addi	a5,a1,24
    1a08:	00c70e13          	addi	t3,a4,12
    1a0c:	0046d513          	srli	a0,a3,0x4
    1a10:	ffe50293          	addi	t0,a0,-2
    1a14:	2052a5b3          	sh1add	a1,t0,t0
    1a18:	20e5c333          	sh2add	t1,a1,a4
    1a1c:	2062c8b3          	sh2add	a7,t0,t1
    1a20:	5467fae3          	bgeu	a5,t1,2774 <core_list_init+0xd94>
    1a24:	00830593          	addi	a1,t1,8
    1a28:	5515fce3          	bgeu	a1,a7,2780 <core_list_init+0xda0>
    1a2c:	80000837          	lui	a6,0x80000
    1a30:	fff80e93          	addi	t4,a6,-1 # 7fffffff <_stack_top+0x7ffebfff>
    1a34:	00072623          	sw	zero,12(a4)
    1a38:	00e72823          	sw	a4,16(a4)
    1a3c:	01c72023          	sw	t3,0(a4)
    1a40:	01d72a23          	sw	t4,20(a4)
    1a44:	56028663          	beqz	t0,1fb0 <core_list_init+0x5d0>
    1a48:	ffff8f37          	lui	t5,0xffff8
    1a4c:	0072ff93          	andi	t6,t0,7
    1a50:	ffff4393          	not	t2,t5
    1a54:	00000693          	li	a3,0
    1a58:	280f8a63          	beqz	t6,1cec <core_list_init+0x30c>
    1a5c:	00100513          	li	a0,1
    1a60:	22af8863          	beq	t6,a0,1c90 <core_list_init+0x2b0>
    1a64:	00200e13          	li	t3,2
    1a68:	1dcf8863          	beq	t6,t3,1c38 <core_list_init+0x258>
    1a6c:	00300813          	li	a6,3
    1a70:	170f8863          	beq	t6,a6,1be0 <core_list_init+0x200>
    1a74:	00400e93          	li	t4,4
    1a78:	11df8863          	beq	t6,t4,1b88 <core_list_init+0x1a8>
    1a7c:	00500f13          	li	t5,5
    1a80:	0bef8863          	beq	t6,t5,1b30 <core_list_init+0x150>
    1a84:	00600513          	li	a0,6
    1a88:	04af8863          	beq	t6,a0,1ad8 <core_list_init+0xf8>
    1a8c:	00c78f93          	addi	t6,a5,12
    1a90:	046ff263          	bgeu	t6,t1,1ad4 <core_list_init+0xf4>
    1a94:	00458e13          	addi	t3,a1,4
    1a98:	031e7e63          	bgeu	t3,a7,1ad4 <core_list_init+0xf4>
    1a9c:	00072583          	lw	a1,0(a4)
    1aa0:	00361693          	slli	a3,a2,0x3
    1aa4:	0786f813          	andi	a6,a3,120
    1aa8:	00881e93          	slli	t4,a6,0x8
    1aac:	00b7a023          	sw	a1,0(a5)
    1ab0:	00e7a223          	sw	a4,4(a5)
    1ab4:	01d80f33          	add	t5,a6,t4
    1ab8:	00058463          	beqz	a1,1ac0 <core_list_init+0xe0>
    1abc:	00f5a223          	sw	a5,4(a1)
    1ac0:	00f72023          	sw	a5,0(a4)
    1ac4:	01e79423          	sh	t5,8(a5)
    1ac8:	00779523          	sh	t2,10(a5)
    1acc:	000e0593          	mv	a1,t3
    1ad0:	000f8793          	mv	a5,t6
    1ad4:	00100693          	li	a3,1
    1ad8:	00c78513          	addi	a0,a5,12
    1adc:	04657863          	bgeu	a0,t1,1b2c <core_list_init+0x14c>
    1ae0:	00458813          	addi	a6,a1,4
    1ae4:	05187463          	bgeu	a6,a7,1b2c <core_list_init+0x14c>
    1ae8:	00c6cfb3          	xor	t6,a3,a2
    1aec:	003f9593          	slli	a1,t6,0x3
    1af0:	00072e03          	lw	t3,0(a4)
    1af4:	0785fe93          	andi	t4,a1,120
    1af8:	0076ff13          	andi	t5,a3,7
    1afc:	01eee5b3          	or	a1,t4,t5
    1b00:	00859f93          	slli	t6,a1,0x8
    1b04:	01c7a023          	sw	t3,0(a5)
    1b08:	00e7a223          	sw	a4,4(a5)
    1b0c:	01f58eb3          	add	t4,a1,t6
    1b10:	000e0463          	beqz	t3,1b18 <core_list_init+0x138>
    1b14:	00fe2223          	sw	a5,4(t3)
    1b18:	00f72023          	sw	a5,0(a4)
    1b1c:	01d79423          	sh	t4,8(a5)
    1b20:	00779523          	sh	t2,10(a5)
    1b24:	00080593          	mv	a1,a6
    1b28:	00050793          	mv	a5,a0
    1b2c:	00168693          	addi	a3,a3,1
    1b30:	00c78513          	addi	a0,a5,12
    1b34:	04657863          	bgeu	a0,t1,1b84 <core_list_init+0x1a4>
    1b38:	00458813          	addi	a6,a1,4
    1b3c:	05187463          	bgeu	a6,a7,1b84 <core_list_init+0x1a4>
    1b40:	00c6ce33          	xor	t3,a3,a2
    1b44:	003e1f13          	slli	t5,t3,0x3
    1b48:	00072e83          	lw	t4,0(a4)
    1b4c:	078f7593          	andi	a1,t5,120
    1b50:	0076ff93          	andi	t6,a3,7
    1b54:	01f5ee33          	or	t3,a1,t6
    1b58:	008e1f13          	slli	t5,t3,0x8
    1b5c:	01d7a023          	sw	t4,0(a5)
    1b60:	00e7a223          	sw	a4,4(a5)
    1b64:	01ee05b3          	add	a1,t3,t5
    1b68:	000e8463          	beqz	t4,1b70 <core_list_init+0x190>
    1b6c:	00fea223          	sw	a5,4(t4)
    1b70:	00f72023          	sw	a5,0(a4)
    1b74:	00b79423          	sh	a1,8(a5)
    1b78:	00779523          	sh	t2,10(a5)
    1b7c:	00080593          	mv	a1,a6
    1b80:	00050793          	mv	a5,a0
    1b84:	00168693          	addi	a3,a3,1
    1b88:	00c78513          	addi	a0,a5,12
    1b8c:	04657863          	bgeu	a0,t1,1bdc <core_list_init+0x1fc>
    1b90:	00458813          	addi	a6,a1,4
    1b94:	05187463          	bgeu	a6,a7,1bdc <core_list_init+0x1fc>
    1b98:	00c6ceb3          	xor	t4,a3,a2
    1b9c:	003e9f93          	slli	t6,t4,0x3
    1ba0:	00072e03          	lw	t3,0(a4)
    1ba4:	078fff13          	andi	t5,t6,120
    1ba8:	0076f593          	andi	a1,a3,7
    1bac:	00bf6eb3          	or	t4,t5,a1
    1bb0:	008e9f93          	slli	t6,t4,0x8
    1bb4:	01c7a023          	sw	t3,0(a5)
    1bb8:	00e7a223          	sw	a4,4(a5)
    1bbc:	01fe8f33          	add	t5,t4,t6
    1bc0:	000e0463          	beqz	t3,1bc8 <core_list_init+0x1e8>
    1bc4:	00fe2223          	sw	a5,4(t3)
    1bc8:	00f72023          	sw	a5,0(a4)
    1bcc:	01e79423          	sh	t5,8(a5)
    1bd0:	00779523          	sh	t2,10(a5)
    1bd4:	00080593          	mv	a1,a6
    1bd8:	00050793          	mv	a5,a0
    1bdc:	00168693          	addi	a3,a3,1
    1be0:	00c78513          	addi	a0,a5,12
    1be4:	04657863          	bgeu	a0,t1,1c34 <core_list_init+0x254>
    1be8:	00458813          	addi	a6,a1,4
    1bec:	05187463          	bgeu	a6,a7,1c34 <core_list_init+0x254>
    1bf0:	00c6ce33          	xor	t3,a3,a2
    1bf4:	003e1593          	slli	a1,t3,0x3
    1bf8:	00072e83          	lw	t4,0(a4)
    1bfc:	0785ff13          	andi	t5,a1,120
    1c00:	0076ff93          	andi	t6,a3,7
    1c04:	01ff6e33          	or	t3,t5,t6
    1c08:	008e1593          	slli	a1,t3,0x8
    1c0c:	01d7a023          	sw	t4,0(a5)
    1c10:	00e7a223          	sw	a4,4(a5)
    1c14:	00be0f33          	add	t5,t3,a1
    1c18:	000e8463          	beqz	t4,1c20 <core_list_init+0x240>
    1c1c:	00fea223          	sw	a5,4(t4)
    1c20:	00f72023          	sw	a5,0(a4)
    1c24:	01e79423          	sh	t5,8(a5)
    1c28:	00779523          	sh	t2,10(a5)
    1c2c:	00080593          	mv	a1,a6
    1c30:	00050793          	mv	a5,a0
    1c34:	00168693          	addi	a3,a3,1
    1c38:	00c78513          	addi	a0,a5,12
    1c3c:	04657863          	bgeu	a0,t1,1c8c <core_list_init+0x2ac>
    1c40:	00458813          	addi	a6,a1,4
    1c44:	05187463          	bgeu	a6,a7,1c8c <core_list_init+0x2ac>
    1c48:	00c6ceb3          	xor	t4,a3,a2
    1c4c:	003e9f93          	slli	t6,t4,0x3
    1c50:	00072e03          	lw	t3,0(a4)
    1c54:	078ff593          	andi	a1,t6,120
    1c58:	0076ff13          	andi	t5,a3,7
    1c5c:	01e5eeb3          	or	t4,a1,t5
    1c60:	008e9f93          	slli	t6,t4,0x8
    1c64:	01c7a023          	sw	t3,0(a5)
    1c68:	00e7a223          	sw	a4,4(a5)
    1c6c:	01fe85b3          	add	a1,t4,t6
    1c70:	000e0463          	beqz	t3,1c78 <core_list_init+0x298>
    1c74:	00fe2223          	sw	a5,4(t3)
    1c78:	00f72023          	sw	a5,0(a4)
    1c7c:	00b79423          	sh	a1,8(a5)
    1c80:	00779523          	sh	t2,10(a5)
    1c84:	00080593          	mv	a1,a6
    1c88:	00050793          	mv	a5,a0
    1c8c:	00168693          	addi	a3,a3,1
    1c90:	00c78513          	addi	a0,a5,12
    1c94:	04657863          	bgeu	a0,t1,1ce4 <core_list_init+0x304>
    1c98:	00458813          	addi	a6,a1,4
    1c9c:	05187463          	bgeu	a6,a7,1ce4 <core_list_init+0x304>
    1ca0:	00c6ce33          	xor	t3,a3,a2
    1ca4:	003e1f13          	slli	t5,t3,0x3
    1ca8:	00072e83          	lw	t4,0(a4)
    1cac:	078f7593          	andi	a1,t5,120
    1cb0:	0076ff93          	andi	t6,a3,7
    1cb4:	01f5ee33          	or	t3,a1,t6
    1cb8:	008e1f13          	slli	t5,t3,0x8
    1cbc:	01d7a023          	sw	t4,0(a5)
    1cc0:	00e7a223          	sw	a4,4(a5)
    1cc4:	01ee05b3          	add	a1,t3,t5
    1cc8:	000e8463          	beqz	t4,1cd0 <core_list_init+0x2f0>
    1ccc:	00fea223          	sw	a5,4(t4)
    1cd0:	00f72023          	sw	a5,0(a4)
    1cd4:	00b79423          	sh	a1,8(a5)
    1cd8:	00779523          	sh	t2,10(a5)
    1cdc:	00080593          	mv	a1,a6
    1ce0:	00050793          	mv	a5,a0
    1ce4:	00168693          	addi	a3,a3,1
    1ce8:	2cd28463          	beq	t0,a3,1fb0 <core_list_init+0x5d0>
    1cec:	00c78513          	addi	a0,a5,12
    1cf0:	04657863          	bgeu	a0,t1,1d40 <core_list_init+0x360>
    1cf4:	00458813          	addi	a6,a1,4
    1cf8:	05187463          	bgeu	a6,a7,1d40 <core_list_init+0x360>
    1cfc:	00c6ceb3          	xor	t4,a3,a2
    1d00:	003e9f93          	slli	t6,t4,0x3
    1d04:	00072e03          	lw	t3,0(a4)
    1d08:	078fff13          	andi	t5,t6,120
    1d0c:	0076f593          	andi	a1,a3,7
    1d10:	00bf6eb3          	or	t4,t5,a1
    1d14:	008e9f93          	slli	t6,t4,0x8
    1d18:	01c7a023          	sw	t3,0(a5)
    1d1c:	00e7a223          	sw	a4,4(a5)
    1d20:	01fe8f33          	add	t5,t4,t6
    1d24:	000e0463          	beqz	t3,1d2c <core_list_init+0x34c>
    1d28:	00fe2223          	sw	a5,4(t3)
    1d2c:	00f72023          	sw	a5,0(a4)
    1d30:	01e79423          	sh	t5,8(a5)
    1d34:	00779523          	sh	t2,10(a5)
    1d38:	00080593          	mv	a1,a6
    1d3c:	00050793          	mv	a5,a0
    1d40:	00c78513          	addi	a0,a5,12
    1d44:	00168693          	addi	a3,a3,1
    1d48:	04657863          	bgeu	a0,t1,1d98 <core_list_init+0x3b8>
    1d4c:	00458813          	addi	a6,a1,4
    1d50:	05187463          	bgeu	a6,a7,1d98 <core_list_init+0x3b8>
    1d54:	00c6ce33          	xor	t3,a3,a2
    1d58:	003e1593          	slli	a1,t3,0x3
    1d5c:	00072e83          	lw	t4,0(a4)
    1d60:	0785ff13          	andi	t5,a1,120
    1d64:	0076ff93          	andi	t6,a3,7
    1d68:	01ff6e33          	or	t3,t5,t6
    1d6c:	008e1593          	slli	a1,t3,0x8
    1d70:	01d7a023          	sw	t4,0(a5)
    1d74:	00e7a223          	sw	a4,4(a5)
    1d78:	00be0f33          	add	t5,t3,a1
    1d7c:	000e8463          	beqz	t4,1d84 <core_list_init+0x3a4>
    1d80:	00fea223          	sw	a5,4(t4)
    1d84:	00f72023          	sw	a5,0(a4)
    1d88:	01e79423          	sh	t5,8(a5)
    1d8c:	00779523          	sh	t2,10(a5)
    1d90:	00080593          	mv	a1,a6
    1d94:	00050793          	mv	a5,a0
    1d98:	00c78513          	addi	a0,a5,12
    1d9c:	04657a63          	bgeu	a0,t1,1df0 <core_list_init+0x410>
    1da0:	00458813          	addi	a6,a1,4
    1da4:	05187663          	bgeu	a6,a7,1df0 <core_list_init+0x410>
    1da8:	00168f93          	addi	t6,a3,1
    1dac:	00cfceb3          	xor	t4,t6,a2
    1db0:	003e9e13          	slli	t3,t4,0x3
    1db4:	00072f03          	lw	t5,0(a4)
    1db8:	078e7593          	andi	a1,t3,120
    1dbc:	007fff93          	andi	t6,t6,7
    1dc0:	01f5eeb3          	or	t4,a1,t6
    1dc4:	008e9e13          	slli	t3,t4,0x8
    1dc8:	01e7a023          	sw	t5,0(a5)
    1dcc:	00e7a223          	sw	a4,4(a5)
    1dd0:	01ce85b3          	add	a1,t4,t3
    1dd4:	000f0463          	beqz	t5,1ddc <core_list_init+0x3fc>
    1dd8:	00ff2223          	sw	a5,4(t5) # ffff8004 <_stack_top+0xfffe4004>
    1ddc:	00f72023          	sw	a5,0(a4)
    1de0:	00b79423          	sh	a1,8(a5)
    1de4:	00779523          	sh	t2,10(a5)
    1de8:	00080593          	mv	a1,a6
    1dec:	00050793          	mv	a5,a0
    1df0:	00c78513          	addi	a0,a5,12
    1df4:	04657a63          	bgeu	a0,t1,1e48 <core_list_init+0x468>
    1df8:	00458813          	addi	a6,a1,4
    1dfc:	05187663          	bgeu	a6,a7,1e48 <core_list_init+0x468>
    1e00:	00268f13          	addi	t5,a3,2
    1e04:	00cf4fb3          	xor	t6,t5,a2
    1e08:	003f9e13          	slli	t3,t6,0x3
    1e0c:	00072e83          	lw	t4,0(a4)
    1e10:	078e7593          	andi	a1,t3,120
    1e14:	007f7f13          	andi	t5,t5,7
    1e18:	01e5efb3          	or	t6,a1,t5
    1e1c:	008f9e13          	slli	t3,t6,0x8
    1e20:	01d7a023          	sw	t4,0(a5)
    1e24:	00e7a223          	sw	a4,4(a5)
    1e28:	01cf85b3          	add	a1,t6,t3
    1e2c:	000e8463          	beqz	t4,1e34 <core_list_init+0x454>
    1e30:	00fea223          	sw	a5,4(t4)
    1e34:	00f72023          	sw	a5,0(a4)
    1e38:	00b79423          	sh	a1,8(a5)
    1e3c:	00779523          	sh	t2,10(a5)
    1e40:	00080593          	mv	a1,a6
    1e44:	00050793          	mv	a5,a0
    1e48:	00c78513          	addi	a0,a5,12
    1e4c:	04657a63          	bgeu	a0,t1,1ea0 <core_list_init+0x4c0>
    1e50:	00458813          	addi	a6,a1,4
    1e54:	05187663          	bgeu	a6,a7,1ea0 <core_list_init+0x4c0>
    1e58:	00368f13          	addi	t5,a3,3
    1e5c:	00cf4eb3          	xor	t4,t5,a2
    1e60:	003e9f93          	slli	t6,t4,0x3
    1e64:	00072e83          	lw	t4,0(a4)
    1e68:	078ff593          	andi	a1,t6,120
    1e6c:	007f7e13          	andi	t3,t5,7
    1e70:	01c5ef33          	or	t5,a1,t3
    1e74:	008f1f93          	slli	t6,t5,0x8
    1e78:	01d7a023          	sw	t4,0(a5)
    1e7c:	00e7a223          	sw	a4,4(a5)
    1e80:	01ff05b3          	add	a1,t5,t6
    1e84:	000e8463          	beqz	t4,1e8c <core_list_init+0x4ac>
    1e88:	00fea223          	sw	a5,4(t4)
    1e8c:	00f72023          	sw	a5,0(a4)
    1e90:	00b79423          	sh	a1,8(a5)
    1e94:	00779523          	sh	t2,10(a5)
    1e98:	00080593          	mv	a1,a6
    1e9c:	00050793          	mv	a5,a0
    1ea0:	00c78513          	addi	a0,a5,12
    1ea4:	04657a63          	bgeu	a0,t1,1ef8 <core_list_init+0x518>
    1ea8:	00458813          	addi	a6,a1,4
    1eac:	05187663          	bgeu	a6,a7,1ef8 <core_list_init+0x518>
    1eb0:	00468e13          	addi	t3,a3,4
    1eb4:	00ce4eb3          	xor	t4,t3,a2
    1eb8:	003e9f13          	slli	t5,t4,0x3
    1ebc:	00072f83          	lw	t6,0(a4)
    1ec0:	078f7593          	andi	a1,t5,120
    1ec4:	007e7e13          	andi	t3,t3,7
    1ec8:	01c5eeb3          	or	t4,a1,t3
    1ecc:	008e9f13          	slli	t5,t4,0x8
    1ed0:	01f7a023          	sw	t6,0(a5)
    1ed4:	00e7a223          	sw	a4,4(a5)
    1ed8:	01ee85b3          	add	a1,t4,t5
    1edc:	000f8463          	beqz	t6,1ee4 <core_list_init+0x504>
    1ee0:	00ffa223          	sw	a5,4(t6)
    1ee4:	00f72023          	sw	a5,0(a4)
    1ee8:	00b79423          	sh	a1,8(a5)
    1eec:	00779523          	sh	t2,10(a5)
    1ef0:	00080593          	mv	a1,a6
    1ef4:	00050793          	mv	a5,a0
    1ef8:	00c78513          	addi	a0,a5,12
    1efc:	04657a63          	bgeu	a0,t1,1f50 <core_list_init+0x570>
    1f00:	00458813          	addi	a6,a1,4
    1f04:	05187663          	bgeu	a6,a7,1f50 <core_list_init+0x570>
    1f08:	00568f93          	addi	t6,a3,5
    1f0c:	00cfce33          	xor	t3,t6,a2
    1f10:	003e1f13          	slli	t5,t3,0x3
    1f14:	00072e83          	lw	t4,0(a4)
    1f18:	078f7593          	andi	a1,t5,120
    1f1c:	007fff93          	andi	t6,t6,7
    1f20:	01f5ef33          	or	t5,a1,t6
    1f24:	008f1e13          	slli	t3,t5,0x8
    1f28:	01d7a023          	sw	t4,0(a5)
    1f2c:	00e7a223          	sw	a4,4(a5)
    1f30:	01cf05b3          	add	a1,t5,t3
    1f34:	000e8463          	beqz	t4,1f3c <core_list_init+0x55c>
    1f38:	00fea223          	sw	a5,4(t4)
    1f3c:	00f72023          	sw	a5,0(a4)
    1f40:	00b79423          	sh	a1,8(a5)
    1f44:	00779523          	sh	t2,10(a5)
    1f48:	00080593          	mv	a1,a6
    1f4c:	00050793          	mv	a5,a0
    1f50:	00c78513          	addi	a0,a5,12
    1f54:	04657a63          	bgeu	a0,t1,1fa8 <core_list_init+0x5c8>
    1f58:	00458813          	addi	a6,a1,4
    1f5c:	05187663          	bgeu	a6,a7,1fa8 <core_list_init+0x5c8>
    1f60:	00668f93          	addi	t6,a3,6
    1f64:	00cfceb3          	xor	t4,t6,a2
    1f68:	003e9f13          	slli	t5,t4,0x3
    1f6c:	00072e83          	lw	t4,0(a4)
    1f70:	078f7593          	andi	a1,t5,120
    1f74:	007ffe13          	andi	t3,t6,7
    1f78:	01c5efb3          	or	t6,a1,t3
    1f7c:	008f9f13          	slli	t5,t6,0x8
    1f80:	01d7a023          	sw	t4,0(a5)
    1f84:	00e7a223          	sw	a4,4(a5)
    1f88:	01ef85b3          	add	a1,t6,t5
    1f8c:	000e8463          	beqz	t4,1f94 <core_list_init+0x5b4>
    1f90:	00fea223          	sw	a5,4(t4)
    1f94:	00f72023          	sw	a5,0(a4)
    1f98:	00b79423          	sh	a1,8(a5)
    1f9c:	00779523          	sh	t2,10(a5)
    1fa0:	00080593          	mv	a1,a6
    1fa4:	00050793          	mv	a5,a0
    1fa8:	00768693          	addi	a3,a3,7
    1fac:	d4d290e3          	bne	t0,a3,1cec <core_list_init+0x30c>
    1fb0:	00072e03          	lw	t3,0(a4)
    1fb4:	000e2803          	lw	a6,0(t3)
    1fb8:	06080a63          	beqz	a6,202c <core_list_init+0x64c>
    1fbc:	ccccd337          	lui	t1,0xccccd
    1fc0:	ccd30893          	addi	a7,t1,-819 # cccccccd <_stack_top+0xcccb8ccd>
    1fc4:	0312b2b3          	mulhu	t0,t0,a7
    1fc8:	000043b7          	lui	t2,0x4
    1fcc:	fff38313          	addi	t1,t2,-1 # 3fff <main+0xb27>
    1fd0:	00100693          	li	a3,1
    1fd4:	20000893          	li	a7,512
    1fd8:	0022d393          	srli	t2,t0,0x2
    1fdc:	0276f463          	bgeu	a3,t2,2004 <core_list_init+0x624>
    1fe0:	00082783          	lw	a5,0(a6)
    1fe4:	00068f13          	mv	t5,a3
    1fe8:	01ee1523          	sh	t5,10(t3)
    1fec:	00168693          	addi	a3,a3,1
    1ff0:	10088893          	addi	a7,a7,256
    1ff4:	00080e13          	mv	t3,a6
    1ff8:	02078a63          	beqz	a5,202c <core_list_init+0x64c>
    1ffc:	00078813          	mv	a6,a5
    2000:	fe76e0e3          	bltu	a3,t2,1fe0 <core_list_init+0x600>
    2004:	00c6ceb3          	xor	t4,a3,a2
    2008:	7008f513          	andi	a0,a7,1792
    200c:	00082783          	lw	a5,0(a6)
    2010:	00aeefb3          	or	t6,t4,a0
    2014:	006fff33          	and	t5,t6,t1
    2018:	01ee1523          	sh	t5,10(t3)
    201c:	00168693          	addi	a3,a3,1
    2020:	10088893          	addi	a7,a7,256
    2024:	00080e13          	mv	t3,a6
    2028:	fc079ae3          	bnez	a5,1ffc <core_list_init+0x61c>
    202c:	00100e93          	li	t4,1
    2030:	000e8f93          	mv	t6,t4
    2034:	00000513          	li	a0,0
    2038:	00000793          	li	a5,0
    203c:	00000f13          	li	t5,0
    2040:	007ef593          	andi	a1,t4,7
    2044:	001f0f13          	addi	t5,t5,1
    2048:	00070613          	mv	a2,a4
    204c:	00000693          	li	a3,0
    2050:	08058463          	beqz	a1,20d8 <core_list_init+0x6f8>
    2054:	0fd6d663          	bge	a3,t4,2140 <core_list_init+0x760>
    2058:	00072603          	lw	a2,0(a4)
    205c:	00100693          	li	a3,1
    2060:	0e060063          	beqz	a2,2140 <core_list_init+0x760>
    2064:	06d58a63          	beq	a1,a3,20d8 <core_list_init+0x6f8>
    2068:	00200813          	li	a6,2
    206c:	07058063          	beq	a1,a6,20cc <core_list_init+0x6ec>
    2070:	00300313          	li	t1,3
    2074:	04658663          	beq	a1,t1,20c0 <core_list_init+0x6e0>
    2078:	00400293          	li	t0,4
    207c:	02558c63          	beq	a1,t0,20b4 <core_list_init+0x6d4>
    2080:	00500393          	li	t2,5
    2084:	02758263          	beq	a1,t2,20a8 <core_list_init+0x6c8>
    2088:	00600893          	li	a7,6
    208c:	01158863          	beq	a1,a7,209c <core_list_init+0x6bc>
    2090:	00062603          	lw	a2,0(a2)
    2094:	00080693          	mv	a3,a6
    2098:	0a060463          	beqz	a2,2140 <core_list_init+0x760>
    209c:	00062603          	lw	a2,0(a2)
    20a0:	00168693          	addi	a3,a3,1
    20a4:	08060e63          	beqz	a2,2140 <core_list_init+0x760>
    20a8:	00062603          	lw	a2,0(a2)
    20ac:	00168693          	addi	a3,a3,1
    20b0:	08060863          	beqz	a2,2140 <core_list_init+0x760>
    20b4:	00062603          	lw	a2,0(a2)
    20b8:	00168693          	addi	a3,a3,1
    20bc:	08060263          	beqz	a2,2140 <core_list_init+0x760>
    20c0:	00062603          	lw	a2,0(a2)
    20c4:	00168693          	addi	a3,a3,1
    20c8:	06060c63          	beqz	a2,2140 <core_list_init+0x760>
    20cc:	00062603          	lw	a2,0(a2)
    20d0:	00168693          	addi	a3,a3,1
    20d4:	06060663          	beqz	a2,2140 <core_list_init+0x760>
    20d8:	07d6d463          	bge	a3,t4,2140 <core_list_init+0x760>
    20dc:	00062603          	lw	a2,0(a2)
    20e0:	00168693          	addi	a3,a3,1
    20e4:	00068e13          	mv	t3,a3
    20e8:	04060c63          	beqz	a2,2140 <core_list_init+0x760>
    20ec:	00062603          	lw	a2,0(a2)
    20f0:	00168693          	addi	a3,a3,1
    20f4:	04060663          	beqz	a2,2140 <core_list_init+0x760>
    20f8:	00062603          	lw	a2,0(a2)
    20fc:	002e0693          	addi	a3,t3,2
    2100:	04060063          	beqz	a2,2140 <core_list_init+0x760>
    2104:	00062603          	lw	a2,0(a2)
    2108:	003e0693          	addi	a3,t3,3
    210c:	02060a63          	beqz	a2,2140 <core_list_init+0x760>
    2110:	00062603          	lw	a2,0(a2)
    2114:	004e0693          	addi	a3,t3,4
    2118:	02060463          	beqz	a2,2140 <core_list_init+0x760>
    211c:	00062603          	lw	a2,0(a2)
    2120:	005e0693          	addi	a3,t3,5
    2124:	00060e63          	beqz	a2,2140 <core_list_init+0x760>
    2128:	00062603          	lw	a2,0(a2)
    212c:	006e0693          	addi	a3,t3,6
    2130:	00060863          	beqz	a2,2140 <core_list_init+0x760>
    2134:	00062603          	lw	a2,0(a2)
    2138:	007e0693          	addi	a3,t3,7
    213c:	f8061ee3          	bnez	a2,20d8 <core_list_init+0x6f8>
    2140:	000e8893          	mv	a7,t4
    2144:	20d05c63          	blez	a3,235c <core_list_init+0x97c>
    2148:	26089863          	bnez	a7,23b8 <core_list_init+0x9d8>
    214c:	fff68593          	addi	a1,a3,-1
    2150:	0075f393          	andi	t2,a1,7
    2154:	0e038a63          	beqz	t2,2248 <core_list_init+0x868>
    2158:	00072303          	lw	t1,0(a4)
    215c:	1e078063          	beqz	a5,233c <core_list_init+0x95c>
    2160:	00e7a023          	sw	a4,0(a5)
    2164:	00100e13          	li	t3,1
    2168:	00070793          	mv	a5,a4
    216c:	00058693          	mv	a3,a1
    2170:	00030713          	mv	a4,t1
    2174:	0dc38a63          	beq	t2,t3,2248 <core_list_init+0x868>
    2178:	00200293          	li	t0,2
    217c:	0a538863          	beq	t2,t0,222c <core_list_init+0x84c>
    2180:	00300813          	li	a6,3
    2184:	09038663          	beq	t2,a6,2210 <core_list_init+0x830>
    2188:	00400e13          	li	t3,4
    218c:	07c38463          	beq	t2,t3,21f4 <core_list_init+0x814>
    2190:	00500293          	li	t0,5
    2194:	04538263          	beq	t2,t0,21d8 <core_list_init+0x7f8>
    2198:	00600813          	li	a6,6
    219c:	03038063          	beq	t2,a6,21bc <core_list_init+0x7dc>
    21a0:	00032303          	lw	t1,0(t1)
    21a4:	fff58593          	addi	a1,a1,-1
    21a8:	18078a63          	beqz	a5,233c <core_list_init+0x95c>
    21ac:	00e7a023          	sw	a4,0(a5)
    21b0:	00058693          	mv	a3,a1
    21b4:	00070793          	mv	a5,a4
    21b8:	00030713          	mv	a4,t1
    21bc:	00032303          	lw	t1,0(t1)
    21c0:	fff58593          	addi	a1,a1,-1
    21c4:	16078c63          	beqz	a5,233c <core_list_init+0x95c>
    21c8:	00e7a023          	sw	a4,0(a5)
    21cc:	00058693          	mv	a3,a1
    21d0:	00070793          	mv	a5,a4
    21d4:	00030713          	mv	a4,t1
    21d8:	00032303          	lw	t1,0(t1)
    21dc:	fff58593          	addi	a1,a1,-1
    21e0:	14078e63          	beqz	a5,233c <core_list_init+0x95c>
    21e4:	00e7a023          	sw	a4,0(a5)
    21e8:	00058693          	mv	a3,a1
    21ec:	00070793          	mv	a5,a4
    21f0:	00030713          	mv	a4,t1
    21f4:	00032303          	lw	t1,0(t1)
    21f8:	fff58593          	addi	a1,a1,-1
    21fc:	14078063          	beqz	a5,233c <core_list_init+0x95c>
    2200:	00e7a023          	sw	a4,0(a5)
    2204:	00058693          	mv	a3,a1
    2208:	00070793          	mv	a5,a4
    220c:	00030713          	mv	a4,t1
    2210:	00032303          	lw	t1,0(t1)
    2214:	fff58593          	addi	a1,a1,-1
    2218:	12078263          	beqz	a5,233c <core_list_init+0x95c>
    221c:	00e7a023          	sw	a4,0(a5)
    2220:	00058693          	mv	a3,a1
    2224:	00070793          	mv	a5,a4
    2228:	00030713          	mv	a4,t1
    222c:	00032303          	lw	t1,0(t1)
    2230:	fff58593          	addi	a1,a1,-1
    2234:	10078463          	beqz	a5,233c <core_list_init+0x95c>
    2238:	00e7a023          	sw	a4,0(a5)
    223c:	00058693          	mv	a3,a1
    2240:	00070793          	mv	a5,a4
    2244:	00030713          	mv	a4,t1
    2248:	00072303          	lw	t1,0(a4)
    224c:	fff68593          	addi	a1,a3,-1
    2250:	0e078663          	beqz	a5,233c <core_list_init+0x95c>
    2254:	00e7a023          	sw	a4,0(a5)
    2258:	00070793          	mv	a5,a4
    225c:	18058863          	beqz	a1,23ec <core_list_init+0xa0c>
    2260:	00058693          	mv	a3,a1
    2264:	00058393          	mv	t2,a1
    2268:	00030713          	mv	a4,t1
    226c:	fff58593          	addi	a1,a1,-1
    2270:	00032303          	lw	t1,0(t1)
    2274:	0c078463          	beqz	a5,233c <core_list_init+0x95c>
    2278:	00e7a023          	sw	a4,0(a5)
    227c:	00070e13          	mv	t3,a4
    2280:	00058693          	mv	a3,a1
    2284:	00030713          	mv	a4,t1
    2288:	fff58593          	addi	a1,a1,-1
    228c:	00032303          	lw	t1,0(t1)
    2290:	0a0e0663          	beqz	t3,233c <core_list_init+0x95c>
    2294:	00ee2023          	sw	a4,0(t3)
    2298:	00070293          	mv	t0,a4
    229c:	ffe38693          	addi	a3,t2,-2
    22a0:	00030713          	mv	a4,t1
    22a4:	ffd38593          	addi	a1,t2,-3
    22a8:	00032303          	lw	t1,0(t1)
    22ac:	08028863          	beqz	t0,233c <core_list_init+0x95c>
    22b0:	00e2a023          	sw	a4,0(t0)
    22b4:	00070813          	mv	a6,a4
    22b8:	00058693          	mv	a3,a1
    22bc:	00030713          	mv	a4,t1
    22c0:	ffc38593          	addi	a1,t2,-4
    22c4:	00032303          	lw	t1,0(t1)
    22c8:	06080a63          	beqz	a6,233c <core_list_init+0x95c>
    22cc:	00e82023          	sw	a4,0(a6)
    22d0:	00070793          	mv	a5,a4
    22d4:	00058693          	mv	a3,a1
    22d8:	00030713          	mv	a4,t1
    22dc:	ffb38593          	addi	a1,t2,-5
    22e0:	00032303          	lw	t1,0(t1)
    22e4:	04078c63          	beqz	a5,233c <core_list_init+0x95c>
    22e8:	00e7a023          	sw	a4,0(a5)
    22ec:	00070e13          	mv	t3,a4
    22f0:	00058693          	mv	a3,a1
    22f4:	00030713          	mv	a4,t1
    22f8:	ffa38593          	addi	a1,t2,-6
    22fc:	00032303          	lw	t1,0(t1)
    2300:	020e0e63          	beqz	t3,233c <core_list_init+0x95c>
    2304:	00ee2023          	sw	a4,0(t3)
    2308:	00070293          	mv	t0,a4
    230c:	00058693          	mv	a3,a1
    2310:	00030713          	mv	a4,t1
    2314:	ff938593          	addi	a1,t2,-7
    2318:	00032303          	lw	t1,0(t1)
    231c:	02028063          	beqz	t0,233c <core_list_init+0x95c>
    2320:	00e2a023          	sw	a4,0(t0)
    2324:	00070793          	mv	a5,a4
    2328:	00058693          	mv	a3,a1
    232c:	00030713          	mv	a4,t1
    2330:	00072303          	lw	t1,0(a4)
    2334:	fff68593          	addi	a1,a3,-1
    2338:	f0079ee3          	bnez	a5,2254 <core_list_init+0x874>
    233c:	0a058663          	beqz	a1,23e8 <core_list_init+0xa08>
    2340:	00070513          	mv	a0,a4
    2344:	00070813          	mv	a6,a4
    2348:	00032703          	lw	a4,0(t1)
    234c:	ffe68693          	addi	a3,a3,-2
    2350:	00030793          	mv	a5,t1
    2354:	00f82023          	sw	a5,0(a6)
    2358:	ded048e3          	bgtz	a3,2148 <core_list_init+0x768>
    235c:	00078813          	mv	a6,a5
    2360:	00060793          	mv	a5,a2
    2364:	2b105663          	blez	a7,2610 <core_list_init+0xc30>
    2368:	24078063          	beqz	a5,25a8 <core_list_init+0xbc8>
    236c:	08068a63          	beqz	a3,2400 <core_list_init+0xa20>
    2370:	00a79e03          	lh	t3,10(a5)
    2374:	00871283          	lh	t0,8(a4)
    2378:	00a71303          	lh	t1,10(a4)
    237c:	f002f393          	andi	t2,t0,-256
    2380:	3c82b60b          	th.extu	a2,t0,15,8
    2384:	00c3e5b3          	or	a1,t2,a2
    2388:	00b71423          	sh	a1,8(a4)
    238c:	00879283          	lh	t0,8(a5)
    2390:	f002f393          	andi	t2,t0,-256
    2394:	3c82b60b          	th.extu	a2,t0,15,8
    2398:	00c3e5b3          	or	a1,t2,a2
    239c:	00b79423          	sh	a1,8(a5)
    23a0:	226e5663          	bge	t3,t1,25cc <core_list_init+0xbec>
    23a4:	0007a603          	lw	a2,0(a5)
    23a8:	fff88893          	addi	a7,a7,-1
    23ac:	fa0814e3          	bnez	a6,2354 <core_list_init+0x974>
    23b0:	00078513          	mv	a0,a5
    23b4:	d91ff06f          	j	2144 <core_list_init+0x764>
    23b8:	00060c63          	beqz	a2,23d0 <core_list_init+0x9f0>
    23bc:	23c0006f          	j	25f8 <core_list_init+0xc18>
    23c0:	00e7a023          	sw	a4,0(a5)
    23c4:	28068463          	beqz	a3,264c <core_list_init+0xc6c>
    23c8:	00070793          	mv	a5,a4
    23cc:	00058713          	mv	a4,a1
    23d0:	00072583          	lw	a1,0(a4)
    23d4:	fff68693          	addi	a3,a3,-1
    23d8:	fe0794e3          	bnez	a5,23c0 <core_list_init+0x9e0>
    23dc:	2a068863          	beqz	a3,268c <core_list_init+0xcac>
    23e0:	00070513          	mv	a0,a4
    23e4:	fe5ff06f          	j	23c8 <core_list_init+0x9e8>
    23e8:	00070513          	mv	a0,a4
    23ec:	00070813          	mv	a6,a4
    23f0:	1a060c63          	beqz	a2,25a8 <core_list_init+0xbc8>
    23f4:	00070793          	mv	a5,a4
    23f8:	00060713          	mv	a4,a2
    23fc:	c45ff06f          	j	2040 <core_list_init+0x660>
    2400:	fff88693          	addi	a3,a7,-1
    2404:	0076f713          	andi	a4,a3,7
    2408:	0e070a63          	beqz	a4,24fc <core_list_init+0xb1c>
    240c:	0007a283          	lw	t0,0(a5)
    2410:	00068893          	mv	a7,a3
    2414:	26080863          	beqz	a6,2684 <core_list_init+0xca4>
    2418:	00f82023          	sw	a5,0(a6)
    241c:	00078813          	mv	a6,a5
    2420:	18028463          	beqz	t0,25a8 <core_list_init+0xbc8>
    2424:	00100393          	li	t2,1
    2428:	00028793          	mv	a5,t0
    242c:	0c770863          	beq	a4,t2,24fc <core_list_init+0xb1c>
    2430:	00200613          	li	a2,2
    2434:	0ac70663          	beq	a4,a2,24e0 <core_list_init+0xb00>
    2438:	00300593          	li	a1,3
    243c:	08b70463          	beq	a4,a1,24c4 <core_list_init+0xae4>
    2440:	00400313          	li	t1,4
    2444:	06670263          	beq	a4,t1,24a8 <core_list_init+0xac8>
    2448:	00500e13          	li	t3,5
    244c:	05c70063          	beq	a4,t3,248c <core_list_init+0xaac>
    2450:	00600693          	li	a3,6
    2454:	00d70e63          	beq	a4,a3,2470 <core_list_init+0xa90>
    2458:	0002a783          	lw	a5,0(t0)
    245c:	fff88893          	addi	a7,a7,-1
    2460:	30080663          	beqz	a6,276c <core_list_init+0xd8c>
    2464:	00582023          	sw	t0,0(a6)
    2468:	00028813          	mv	a6,t0
    246c:	12078e63          	beqz	a5,25a8 <core_list_init+0xbc8>
    2470:	0007a703          	lw	a4,0(a5)
    2474:	fff88893          	addi	a7,a7,-1
    2478:	24080263          	beqz	a6,26bc <core_list_init+0xcdc>
    247c:	00f82023          	sw	a5,0(a6)
    2480:	00078813          	mv	a6,a5
    2484:	00070793          	mv	a5,a4
    2488:	12070063          	beqz	a4,25a8 <core_list_init+0xbc8>
    248c:	0007a283          	lw	t0,0(a5)
    2490:	fff88893          	addi	a7,a7,-1
    2494:	22080063          	beqz	a6,26b4 <core_list_init+0xcd4>
    2498:	00f82023          	sw	a5,0(a6)
    249c:	00078813          	mv	a6,a5
    24a0:	00028793          	mv	a5,t0
    24a4:	10028263          	beqz	t0,25a8 <core_list_init+0xbc8>
    24a8:	0007a383          	lw	t2,0(a5)
    24ac:	fff88893          	addi	a7,a7,-1
    24b0:	1e080e63          	beqz	a6,26ac <core_list_init+0xccc>
    24b4:	00f82023          	sw	a5,0(a6)
    24b8:	00078813          	mv	a6,a5
    24bc:	00038793          	mv	a5,t2
    24c0:	0e038463          	beqz	t2,25a8 <core_list_init+0xbc8>
    24c4:	0007a603          	lw	a2,0(a5)
    24c8:	fff88893          	addi	a7,a7,-1
    24cc:	1c080c63          	beqz	a6,26a4 <core_list_init+0xcc4>
    24d0:	00f82023          	sw	a5,0(a6)
    24d4:	00078813          	mv	a6,a5
    24d8:	00060793          	mv	a5,a2
    24dc:	0c060663          	beqz	a2,25a8 <core_list_init+0xbc8>
    24e0:	0007a583          	lw	a1,0(a5)
    24e4:	fff88893          	addi	a7,a7,-1
    24e8:	1a080a63          	beqz	a6,269c <core_list_init+0xcbc>
    24ec:	00f82023          	sw	a5,0(a6)
    24f0:	00078813          	mv	a6,a5
    24f4:	00058793          	mv	a5,a1
    24f8:	0a058863          	beqz	a1,25a8 <core_list_init+0xbc8>
    24fc:	0007a603          	lw	a2,0(a5)
    2500:	fff88893          	addi	a7,a7,-1
    2504:	12080463          	beqz	a6,262c <core_list_init+0xc4c>
    2508:	00f82023          	sw	a5,0(a6)
    250c:	12088463          	beqz	a7,2634 <core_list_init+0xc54>
    2510:	00078813          	mv	a6,a5
    2514:	08060a63          	beqz	a2,25a8 <core_list_init+0xbc8>
    2518:	00062303          	lw	t1,0(a2)
    251c:	12078063          	beqz	a5,263c <core_list_init+0xc5c>
    2520:	00c7a023          	sw	a2,0(a5)
    2524:	00060813          	mv	a6,a2
    2528:	08030063          	beqz	t1,25a8 <core_list_init+0xbc8>
    252c:	00032783          	lw	a5,0(t1)
    2530:	10060a63          	beqz	a2,2644 <core_list_init+0xc64>
    2534:	00662023          	sw	t1,0(a2)
    2538:	00030813          	mv	a6,t1
    253c:	06078663          	beqz	a5,25a8 <core_list_init+0xbc8>
    2540:	0007ae03          	lw	t3,0(a5)
    2544:	10030c63          	beqz	t1,265c <core_list_init+0xc7c>
    2548:	00f32023          	sw	a5,0(t1)
    254c:	00078813          	mv	a6,a5
    2550:	040e0c63          	beqz	t3,25a8 <core_list_init+0xbc8>
    2554:	000e2703          	lw	a4,0(t3)
    2558:	10078663          	beqz	a5,2664 <core_list_init+0xc84>
    255c:	01c7a023          	sw	t3,0(a5)
    2560:	000e0813          	mv	a6,t3
    2564:	04070263          	beqz	a4,25a8 <core_list_init+0xbc8>
    2568:	00072283          	lw	t0,0(a4)
    256c:	100e0063          	beqz	t3,266c <core_list_init+0xc8c>
    2570:	00ee2023          	sw	a4,0(t3)
    2574:	00070813          	mv	a6,a4
    2578:	02028863          	beqz	t0,25a8 <core_list_init+0xbc8>
    257c:	0002a683          	lw	a3,0(t0)
    2580:	0e070a63          	beqz	a4,2674 <core_list_init+0xc94>
    2584:	00572023          	sw	t0,0(a4)
    2588:	00028813          	mv	a6,t0
    258c:	00068e63          	beqz	a3,25a8 <core_list_init+0xbc8>
    2590:	0006a783          	lw	a5,0(a3)
    2594:	ff988893          	addi	a7,a7,-7
    2598:	0e028263          	beqz	t0,267c <core_list_init+0xc9c>
    259c:	00d2a023          	sw	a3,0(t0)
    25a0:	00068813          	mv	a6,a3
    25a4:	f4079ce3          	bnez	a5,24fc <core_list_init+0xb1c>
    25a8:	00082023          	sw	zero,0(a6)
    25ac:	13ff0063          	beq	t5,t6,26cc <core_list_init+0xcec>
    25b0:	10050a63          	beqz	a0,26c4 <core_list_init+0xce4>
    25b4:	00050613          	mv	a2,a0
    25b8:	001e9e93          	slli	t4,t4,0x1
    25bc:	00000513          	li	a0,0
    25c0:	00000713          	li	a4,0
    25c4:	00000f13          	li	t5,0
    25c8:	e2dff06f          	j	23f4 <core_list_init+0xa14>
    25cc:	00072303          	lw	t1,0(a4)
    25d0:	fff68693          	addi	a3,a3,-1
    25d4:	00080c63          	beqz	a6,25ec <core_list_init+0xc0c>
    25d8:	00e82023          	sw	a4,0(a6)
    25dc:	02d05463          	blez	a3,2604 <core_list_init+0xc24>
    25e0:	00070813          	mv	a6,a4
    25e4:	00030713          	mv	a4,t1
    25e8:	d8dff06f          	j	2374 <core_list_init+0x994>
    25ec:	02d05863          	blez	a3,261c <core_list_init+0xc3c>
    25f0:	00070513          	mv	a0,a4
    25f4:	fedff06f          	j	25e0 <core_list_init+0xc00>
    25f8:	00078813          	mv	a6,a5
    25fc:	00060793          	mv	a5,a2
    2600:	d71ff06f          	j	2370 <core_list_init+0x990>
    2604:	00070813          	mv	a6,a4
    2608:	00030713          	mv	a4,t1
    260c:	d5104ee3          	bgtz	a7,2368 <core_list_init+0x988>
    2610:	00080713          	mv	a4,a6
    2614:	00078613          	mv	a2,a5
    2618:	dd5ff06f          	j	23ec <core_list_init+0xa0c>
    261c:	00070513          	mv	a0,a4
    2620:	00070813          	mv	a6,a4
    2624:	00030713          	mv	a4,t1
    2628:	d3dff06f          	j	2364 <core_list_init+0x984>
    262c:	00078513          	mv	a0,a5
    2630:	ee0890e3          	bnez	a7,2510 <core_list_init+0xb30>
    2634:	00078713          	mv	a4,a5
    2638:	db5ff06f          	j	23ec <core_list_init+0xa0c>
    263c:	00060513          	mv	a0,a2
    2640:	ee5ff06f          	j	2524 <core_list_init+0xb44>
    2644:	00030513          	mv	a0,t1
    2648:	ef1ff06f          	j	2538 <core_list_init+0xb58>
    264c:	00070813          	mv	a6,a4
    2650:	00000793          	li	a5,0
    2654:	00058713          	mv	a4,a1
    2658:	d0dff06f          	j	2364 <core_list_init+0x984>
    265c:	00078513          	mv	a0,a5
    2660:	eedff06f          	j	254c <core_list_init+0xb6c>
    2664:	000e0513          	mv	a0,t3
    2668:	ef9ff06f          	j	2560 <core_list_init+0xb80>
    266c:	00070513          	mv	a0,a4
    2670:	f05ff06f          	j	2574 <core_list_init+0xb94>
    2674:	00028513          	mv	a0,t0
    2678:	f11ff06f          	j	2588 <core_list_init+0xba8>
    267c:	00068513          	mv	a0,a3
    2680:	f21ff06f          	j	25a0 <core_list_init+0xbc0>
    2684:	00078513          	mv	a0,a5
    2688:	d95ff06f          	j	241c <core_list_init+0xa3c>
    268c:	00070513          	mv	a0,a4
    2690:	00070813          	mv	a6,a4
    2694:	00058713          	mv	a4,a1
    2698:	ccdff06f          	j	2364 <core_list_init+0x984>
    269c:	00078513          	mv	a0,a5
    26a0:	e51ff06f          	j	24f0 <core_list_init+0xb10>
    26a4:	00078513          	mv	a0,a5
    26a8:	e2dff06f          	j	24d4 <core_list_init+0xaf4>
    26ac:	00078513          	mv	a0,a5
    26b0:	e09ff06f          	j	24b8 <core_list_init+0xad8>
    26b4:	00078513          	mv	a0,a5
    26b8:	de5ff06f          	j	249c <core_list_init+0xabc>
    26bc:	00078513          	mv	a0,a5
    26c0:	dc1ff06f          	j	2480 <core_list_init+0xaa0>
    26c4:	00002023          	sw	zero,0(zero) # 0 <_start>
    26c8:	00100073          	ebreak
    26cc:	00050e13          	mv	t3,a0
    26d0:	00000793          	li	a5,0
    26d4:	08050263          	beqz	a0,2758 <core_list_init+0xd78>
    26d8:	000e2f83          	lw	t6,0(t3)
    26dc:	00fe2223          	sw	a5,4(t3)
    26e0:	000e0793          	mv	a5,t3
    26e4:	060f8a63          	beqz	t6,2758 <core_list_init+0xd78>
    26e8:	000fa603          	lw	a2,0(t6)
    26ec:	01cfa223          	sw	t3,4(t6)
    26f0:	000f8793          	mv	a5,t6
    26f4:	06060263          	beqz	a2,2758 <core_list_init+0xd78>
    26f8:	00062683          	lw	a3,0(a2)
    26fc:	01f62223          	sw	t6,4(a2)
    2700:	00060793          	mv	a5,a2
    2704:	04068a63          	beqz	a3,2758 <core_list_init+0xd78>
    2708:	0006a703          	lw	a4,0(a3)
    270c:	00c6a223          	sw	a2,4(a3)
    2710:	00068793          	mv	a5,a3
    2714:	04070263          	beqz	a4,2758 <core_list_init+0xd78>
    2718:	00072883          	lw	a7,0(a4)
    271c:	00d72223          	sw	a3,4(a4)
    2720:	00070793          	mv	a5,a4
    2724:	02088a63          	beqz	a7,2758 <core_list_init+0xd78>
    2728:	0008a383          	lw	t2,0(a7)
    272c:	00e8a223          	sw	a4,4(a7)
    2730:	00088793          	mv	a5,a7
    2734:	02038263          	beqz	t2,2758 <core_list_init+0xd78>
    2738:	0003a803          	lw	a6,0(t2)
    273c:	0113a223          	sw	a7,4(t2)
    2740:	00038793          	mv	a5,t2
    2744:	00080a63          	beqz	a6,2758 <core_list_init+0xd78>
    2748:	00082e03          	lw	t3,0(a6)
    274c:	00782223          	sw	t2,4(a6)
    2750:	00080793          	mv	a5,a6
    2754:	f80e12e3          	bnez	t3,26d8 <core_list_init+0xcf8>
    2758:	000102b7          	lui	t0,0x10
    275c:	00c28593          	addi	a1,t0,12 # 1000c <core_cached_prev_head>
    2760:	00a5a023          	sw	a0,0(a1)
    2764:	00f5a223          	sw	a5,4(a1)
    2768:	00008067          	ret
    276c:	00028513          	mv	a0,t0
    2770:	cf9ff06f          	j	2468 <core_list_init+0xa88>
    2774:	000e0793          	mv	a5,t3
    2778:	00430593          	addi	a1,t1,4
    277c:	ac8ff06f          	j	1a44 <core_list_init+0x64>
    2780:	000e0793          	mv	a5,t3
    2784:	00430593          	addi	a1,t1,4
    2788:	abcff06f          	j	1a44 <core_list_init+0x64>

0000278c <core_list_insert_new>:
    278c:	00062803          	lw	a6,0(a2)
    2790:	00c80893          	addi	a7,a6,12
    2794:	04e8f463          	bgeu	a7,a4,27dc <core_list_insert_new+0x50>
    2798:	0006a703          	lw	a4,0(a3)
    279c:	00470293          	addi	t0,a4,4
    27a0:	04f2f463          	bgeu	t0,a5,27e8 <core_list_insert_new+0x5c>
    27a4:	01162023          	sw	a7,0(a2)
    27a8:	00052783          	lw	a5,0(a0)
    27ac:	00a82223          	sw	a0,4(a6)
    27b0:	00f82023          	sw	a5,0(a6)
    27b4:	00078463          	beqz	a5,27bc <core_list_insert_new+0x30>
    27b8:	0107a223          	sw	a6,4(a5)
    27bc:	00059603          	lh	a2,0(a1)
    27c0:	00259303          	lh	t1,2(a1)
    27c4:	01052023          	sw	a6,0(a0)
    27c8:	0056a023          	sw	t0,0(a3)
    27cc:	00c81423          	sh	a2,8(a6)
    27d0:	00681523          	sh	t1,10(a6)
    27d4:	00080513          	mv	a0,a6
    27d8:	00008067          	ret
    27dc:	00000813          	li	a6,0
    27e0:	00080513          	mv	a0,a6
    27e4:	00008067          	ret
    27e8:	00000813          	li	a6,0
    27ec:	00080513          	mv	a0,a6
    27f0:	00008067          	ret

000027f4 <core_list_remove>:
    27f4:	00050793          	mv	a5,a0
    27f8:	00052503          	lw	a0,0(a0)
    27fc:	0087a703          	lw	a4,8(a5)
    2800:	00852683          	lw	a3,8(a0)
    2804:	00d7a423          	sw	a3,8(a5)
    2808:	00e52423          	sw	a4,8(a0)
    280c:	0007a283          	lw	t0,0(a5)
    2810:	0002a303          	lw	t1,0(t0)
    2814:	0067a023          	sw	t1,0(a5)
    2818:	00052023          	sw	zero,0(a0)
    281c:	00008067          	ret

00002820 <core_list_undo_remove>:
    2820:	0085a683          	lw	a3,8(a1)
    2824:	00852703          	lw	a4,8(a0)
    2828:	0005a783          	lw	a5,0(a1)
    282c:	00d52423          	sw	a3,8(a0)
    2830:	00e5a423          	sw	a4,8(a1)
    2834:	00f52023          	sw	a5,0(a0)
    2838:	00a5a023          	sw	a0,0(a1)
    283c:	00008067          	ret

00002840 <core_list_find>:
    2840:	00259303          	lh	t1,2(a1)
    2844:	02034063          	bltz	t1,2864 <core_list_find+0x24>
    2848:	00051863          	bnez	a0,2858 <core_list_find+0x18>
    284c:	00008067          	ret
    2850:	00052503          	lw	a0,0(a0)
    2854:	02050663          	beqz	a0,2880 <core_list_find+0x40>
    2858:	00a51283          	lh	t0,10(a0)
    285c:	fe629ae3          	bne	t0,t1,2850 <core_list_find+0x10>
    2860:	00008067          	ret
    2864:	00050e63          	beqz	a0,2880 <core_list_find+0x40>
    2868:	00059703          	lh	a4,0(a1)
    286c:	00c0006f          	j	2878 <core_list_find+0x38>
    2870:	00052503          	lw	a0,0(a0)
    2874:	00050663          	beqz	a0,2880 <core_list_find+0x40>
    2878:	00854783          	lbu	a5,8(a0)
    287c:	fee79ae3          	bne	a5,a4,2870 <core_list_find+0x30>
    2880:	00008067          	ret

00002884 <core_list_reverse>:
    2884:	08050c63          	beqz	a0,291c <core_list_reverse+0x98>
    2888:	00052783          	lw	a5,0(a0)
    288c:	00000813          	li	a6,0
    2890:	01052023          	sw	a6,0(a0)
    2894:	08078463          	beqz	a5,291c <core_list_reverse+0x98>
    2898:	0007a703          	lw	a4,0(a5)
    289c:	00a7a023          	sw	a0,0(a5)
    28a0:	00078513          	mv	a0,a5
    28a4:	06070e63          	beqz	a4,2920 <core_list_reverse+0x9c>
    28a8:	00072683          	lw	a3,0(a4)
    28ac:	00f72023          	sw	a5,0(a4)
    28b0:	00070513          	mv	a0,a4
    28b4:	06068463          	beqz	a3,291c <core_list_reverse+0x98>
    28b8:	0006a283          	lw	t0,0(a3)
    28bc:	00e6a023          	sw	a4,0(a3)
    28c0:	00068513          	mv	a0,a3
    28c4:	04028c63          	beqz	t0,291c <core_list_reverse+0x98>
    28c8:	0002a303          	lw	t1,0(t0)
    28cc:	00d2a023          	sw	a3,0(t0)
    28d0:	00028513          	mv	a0,t0
    28d4:	04030463          	beqz	t1,291c <core_list_reverse+0x98>
    28d8:	00032383          	lw	t2,0(t1)
    28dc:	00532023          	sw	t0,0(t1)
    28e0:	00030513          	mv	a0,t1
    28e4:	02038c63          	beqz	t2,291c <core_list_reverse+0x98>
    28e8:	0003a583          	lw	a1,0(t2)
    28ec:	0063a023          	sw	t1,0(t2)
    28f0:	00038513          	mv	a0,t2
    28f4:	02058463          	beqz	a1,291c <core_list_reverse+0x98>
    28f8:	0005a603          	lw	a2,0(a1)
    28fc:	0075a023          	sw	t2,0(a1)
    2900:	00058513          	mv	a0,a1
    2904:	00058813          	mv	a6,a1
    2908:	00060a63          	beqz	a2,291c <core_list_reverse+0x98>
    290c:	00060513          	mv	a0,a2
    2910:	00052783          	lw	a5,0(a0)
    2914:	01052023          	sw	a6,0(a0)
    2918:	f80790e3          	bnez	a5,2898 <core_list_reverse+0x14>
    291c:	00008067          	ret
    2920:	00008067          	ret

00002924 <core_list_mergesort>:
    2924:	fc010113          	addi	sp,sp,-64
    2928:	03612023          	sw	s6,32(sp)
    292c:	01712e23          	sw	s7,28(sp)
    2930:	01812c23          	sw	s8,24(sp)
    2934:	01a12823          	sw	s10,16(sp)
    2938:	00100c13          	li	s8,1
    293c:	02112e23          	sw	ra,60(sp)
    2940:	02812c23          	sw	s0,56(sp)
    2944:	02912a23          	sw	s1,52(sp)
    2948:	03212823          	sw	s2,48(sp)
    294c:	03312623          	sw	s3,44(sp)
    2950:	03412423          	sw	s4,40(sp)
    2954:	03512223          	sw	s5,36(sp)
    2958:	01912a23          	sw	s9,20(sp)
    295c:	01b12623          	sw	s11,12(sp)
    2960:	00058b93          	mv	s7,a1
    2964:	00060b13          	mv	s6,a2
    2968:	000c0d13          	mv	s10,s8
    296c:	1a050a63          	beqz	a0,2b20 <core_list_mergesort+0x1fc>
    2970:	00000c93          	li	s9,0
    2974:	00000913          	li	s2,0
    2978:	00000a93          	li	s5,0
    297c:	007c7693          	andi	a3,s8,7
    2980:	001c8c93          	addi	s9,s9,1
    2984:	00050793          	mv	a5,a0
    2988:	00000493          	li	s1,0
    298c:	08068463          	beqz	a3,2a14 <core_list_mergesort+0xf0>
    2990:	0f805663          	blez	s8,2a7c <core_list_mergesort+0x158>
    2994:	00052783          	lw	a5,0(a0)
    2998:	00100493          	li	s1,1
    299c:	0e078063          	beqz	a5,2a7c <core_list_mergesort+0x158>
    29a0:	06968a63          	beq	a3,s1,2a14 <core_list_mergesort+0xf0>
    29a4:	00200613          	li	a2,2
    29a8:	06c68063          	beq	a3,a2,2a08 <core_list_mergesort+0xe4>
    29ac:	00300593          	li	a1,3
    29b0:	04b68663          	beq	a3,a1,29fc <core_list_mergesort+0xd8>
    29b4:	00400293          	li	t0,4
    29b8:	02568c63          	beq	a3,t0,29f0 <core_list_mergesort+0xcc>
    29bc:	00500313          	li	t1,5
    29c0:	02668263          	beq	a3,t1,29e4 <core_list_mergesort+0xc0>
    29c4:	00600393          	li	t2,6
    29c8:	00768863          	beq	a3,t2,29d8 <core_list_mergesort+0xb4>
    29cc:	0007a783          	lw	a5,0(a5)
    29d0:	00060493          	mv	s1,a2
    29d4:	0a078463          	beqz	a5,2a7c <core_list_mergesort+0x158>
    29d8:	0007a783          	lw	a5,0(a5)
    29dc:	00148493          	addi	s1,s1,1
    29e0:	08078e63          	beqz	a5,2a7c <core_list_mergesort+0x158>
    29e4:	0007a783          	lw	a5,0(a5)
    29e8:	00148493          	addi	s1,s1,1
    29ec:	08078863          	beqz	a5,2a7c <core_list_mergesort+0x158>
    29f0:	0007a783          	lw	a5,0(a5)
    29f4:	00148493          	addi	s1,s1,1
    29f8:	08078263          	beqz	a5,2a7c <core_list_mergesort+0x158>
    29fc:	0007a783          	lw	a5,0(a5)
    2a00:	00148493          	addi	s1,s1,1
    2a04:	06078c63          	beqz	a5,2a7c <core_list_mergesort+0x158>
    2a08:	0007a783          	lw	a5,0(a5)
    2a0c:	00148493          	addi	s1,s1,1
    2a10:	06078663          	beqz	a5,2a7c <core_list_mergesort+0x158>
    2a14:	0784d463          	bge	s1,s8,2a7c <core_list_mergesort+0x158>
    2a18:	0007a783          	lw	a5,0(a5)
    2a1c:	00148493          	addi	s1,s1,1
    2a20:	00048413          	mv	s0,s1
    2a24:	04078c63          	beqz	a5,2a7c <core_list_mergesort+0x158>
    2a28:	0007a783          	lw	a5,0(a5)
    2a2c:	00148493          	addi	s1,s1,1
    2a30:	04078663          	beqz	a5,2a7c <core_list_mergesort+0x158>
    2a34:	0007a783          	lw	a5,0(a5)
    2a38:	00240493          	addi	s1,s0,2
    2a3c:	04078063          	beqz	a5,2a7c <core_list_mergesort+0x158>
    2a40:	0007a783          	lw	a5,0(a5)
    2a44:	00340493          	addi	s1,s0,3
    2a48:	02078a63          	beqz	a5,2a7c <core_list_mergesort+0x158>
    2a4c:	0007a783          	lw	a5,0(a5)
    2a50:	00440493          	addi	s1,s0,4
    2a54:	02078463          	beqz	a5,2a7c <core_list_mergesort+0x158>
    2a58:	0007a783          	lw	a5,0(a5)
    2a5c:	00540493          	addi	s1,s0,5
    2a60:	00078e63          	beqz	a5,2a7c <core_list_mergesort+0x158>
    2a64:	0007a783          	lw	a5,0(a5)
    2a68:	00640493          	addi	s1,s0,6
    2a6c:	00078863          	beqz	a5,2a7c <core_list_mergesort+0x158>
    2a70:	0007a783          	lw	a5,0(a5)
    2a74:	00740493          	addi	s1,s0,7
    2a78:	f8079ee3          	bnez	a5,2a14 <core_list_mergesort+0xf0>
    2a7c:	00090413          	mv	s0,s2
    2a80:	000c0a13          	mv	s4,s8
    2a84:	00050913          	mv	s2,a0
    2a88:	00078513          	mv	a0,a5
    2a8c:	06905263          	blez	s1,2af0 <core_list_mergesort+0x1cc>
    2a90:	080a0c63          	beqz	s4,2b28 <core_list_mergesort+0x204>
    2a94:	48051863          	bnez	a0,2f24 <core_list_mergesort+0x600>
    2a98:	00092503          	lw	a0,0(s2)
    2a9c:	fff48493          	addi	s1,s1,-1
    2aa0:	54040e63          	beqz	s0,2ffc <core_list_mergesort+0x6d8>
    2aa4:	01242023          	sw	s2,0(s0)
    2aa8:	54049e63          	bnez	s1,3004 <core_list_mergesort+0x6e0>
    2aac:	00090993          	mv	s3,s2
    2ab0:	00000413          	li	s0,0
    2ab4:	00050913          	mv	s2,a0
    2ab8:	05405263          	blez	s4,2afc <core_list_mergesort+0x1d8>
    2abc:	04040863          	beqz	s0,2b0c <core_list_mergesort+0x1e8>
    2ac0:	08048e63          	beqz	s1,2b5c <core_list_mergesort+0x238>
    2ac4:	00840d93          	addi	s11,s0,8
    2ac8:	000b0613          	mv	a2,s6
    2acc:	000d8593          	mv	a1,s11
    2ad0:	00890513          	addi	a0,s2,8
    2ad4:	000b80e7          	jalr	s7
    2ad8:	24a05663          	blez	a0,2d24 <core_list_mergesort+0x400>
    2adc:	00042503          	lw	a0,0(s0)
    2ae0:	fffa0a13          	addi	s4,s4,-1
    2ae4:	06099863          	bnez	s3,2b54 <core_list_mergesort+0x230>
    2ae8:	00040a93          	mv	s5,s0
    2aec:	fa9042e3          	bgtz	s1,2a90 <core_list_mergesort+0x16c>
    2af0:	00040993          	mv	s3,s0
    2af4:	00050413          	mv	s0,a0
    2af8:	fd4042e3          	bgtz	s4,2abc <core_list_mergesort+0x198>
    2afc:	00098913          	mv	s2,s3
    2b00:	00040513          	mv	a0,s0
    2b04:	e6051ce3          	bnez	a0,297c <core_list_mergesort+0x58>
    2b08:	00090993          	mv	s3,s2
    2b0c:	0009a023          	sw	zero,0(s3)
    2b10:	4bac8263          	beq	s9,s10,2fb4 <core_list_mergesort+0x690>
    2b14:	000a8513          	mv	a0,s5
    2b18:	001c1c13          	slli	s8,s8,0x1
    2b1c:	e4051ae3          	bnez	a0,2970 <core_list_mergesort+0x4c>
    2b20:	00002023          	sw	zero,0(zero) # 0 <_start>
    2b24:	00100073          	ebreak
    2b28:	fff48313          	addi	t1,s1,-1
    2b2c:	00737893          	andi	a7,t1,7
    2b30:	30088463          	beqz	a7,2e38 <core_list_mergesort+0x514>
    2b34:	00092603          	lw	a2,0(s2)
    2b38:	20040c63          	beqz	s0,2d50 <core_list_mergesort+0x42c>
    2b3c:	01242023          	sw	s2,0(s0)
    2b40:	fc0302e3          	beqz	t1,2b04 <core_list_mergesort+0x1e0>
    2b44:	00090993          	mv	s3,s2
    2b48:	00062903          	lw	s2,0(a2)
    2b4c:	ffe48493          	addi	s1,s1,-2
    2b50:	00060413          	mv	s0,a2
    2b54:	0089a023          	sw	s0,0(s3)
    2b58:	f35ff06f          	j	2a8c <core_list_mergesort+0x168>
    2b5c:	fffa0813          	addi	a6,s4,-1
    2b60:	00787893          	andi	a7,a6,7
    2b64:	0e088a63          	beqz	a7,2c58 <core_list_mergesort+0x334>
    2b68:	00042903          	lw	s2,0(s0)
    2b6c:	00080a13          	mv	s4,a6
    2b70:	40098a63          	beqz	s3,2f84 <core_list_mergesort+0x660>
    2b74:	0089a023          	sw	s0,0(s3)
    2b78:	00040993          	mv	s3,s0
    2b7c:	f80908e3          	beqz	s2,2b0c <core_list_mergesort+0x1e8>
    2b80:	00100e13          	li	t3,1
    2b84:	00090413          	mv	s0,s2
    2b88:	0dc88863          	beq	a7,t3,2c58 <core_list_mergesort+0x334>
    2b8c:	00200e93          	li	t4,2
    2b90:	0bd88663          	beq	a7,t4,2c3c <core_list_mergesort+0x318>
    2b94:	00300f13          	li	t5,3
    2b98:	09e88463          	beq	a7,t5,2c20 <core_list_mergesort+0x2fc>
    2b9c:	00400f93          	li	t6,4
    2ba0:	07f88263          	beq	a7,t6,2c04 <core_list_mergesort+0x2e0>
    2ba4:	00500693          	li	a3,5
    2ba8:	04d88063          	beq	a7,a3,2be8 <core_list_mergesort+0x2c4>
    2bac:	00600613          	li	a2,6
    2bb0:	00c88e63          	beq	a7,a2,2bcc <core_list_mergesort+0x2a8>
    2bb4:	00092403          	lw	s0,0(s2)
    2bb8:	fffa0a13          	addi	s4,s4,-1
    2bbc:	42098c63          	beqz	s3,2ff4 <core_list_mergesort+0x6d0>
    2bc0:	0129a023          	sw	s2,0(s3)
    2bc4:	00090993          	mv	s3,s2
    2bc8:	f40402e3          	beqz	s0,2b0c <core_list_mergesort+0x1e8>
    2bcc:	00042583          	lw	a1,0(s0)
    2bd0:	fffa0a13          	addi	s4,s4,-1
    2bd4:	3c098c63          	beqz	s3,2fac <core_list_mergesort+0x688>
    2bd8:	0089a023          	sw	s0,0(s3)
    2bdc:	00040993          	mv	s3,s0
    2be0:	f20586e3          	beqz	a1,2b0c <core_list_mergesort+0x1e8>
    2be4:	00058413          	mv	s0,a1
    2be8:	00042283          	lw	t0,0(s0)
    2bec:	fffa0a13          	addi	s4,s4,-1
    2bf0:	3a098a63          	beqz	s3,2fa4 <core_list_mergesort+0x680>
    2bf4:	0089a023          	sw	s0,0(s3)
    2bf8:	00040993          	mv	s3,s0
    2bfc:	f00288e3          	beqz	t0,2b0c <core_list_mergesort+0x1e8>
    2c00:	00028413          	mv	s0,t0
    2c04:	00042303          	lw	t1,0(s0)
    2c08:	fffa0a13          	addi	s4,s4,-1
    2c0c:	38098863          	beqz	s3,2f9c <core_list_mergesort+0x678>
    2c10:	0089a023          	sw	s0,0(s3)
    2c14:	00040993          	mv	s3,s0
    2c18:	ee030ae3          	beqz	t1,2b0c <core_list_mergesort+0x1e8>
    2c1c:	00030413          	mv	s0,t1
    2c20:	00042383          	lw	t2,0(s0)
    2c24:	fffa0a13          	addi	s4,s4,-1
    2c28:	36098663          	beqz	s3,2f94 <core_list_mergesort+0x670>
    2c2c:	0089a023          	sw	s0,0(s3)
    2c30:	00040993          	mv	s3,s0
    2c34:	ec038ce3          	beqz	t2,2b0c <core_list_mergesort+0x1e8>
    2c38:	00038413          	mv	s0,t2
    2c3c:	00042783          	lw	a5,0(s0)
    2c40:	fffa0a13          	addi	s4,s4,-1
    2c44:	34098463          	beqz	s3,2f8c <core_list_mergesort+0x668>
    2c48:	0089a023          	sw	s0,0(s3)
    2c4c:	00040993          	mv	s3,s0
    2c50:	ea078ee3          	beqz	a5,2b0c <core_list_mergesort+0x1e8>
    2c54:	00078413          	mv	s0,a5
    2c58:	00042503          	lw	a0,0(s0)
    2c5c:	fffa0a13          	addi	s4,s4,-1
    2c60:	0a098863          	beqz	s3,2d10 <core_list_mergesort+0x3ec>
    2c64:	0089a023          	sw	s0,0(s3)
    2c68:	0a0a0863          	beqz	s4,2d18 <core_list_mergesort+0x3f4>
    2c6c:	00040993          	mv	s3,s0
    2c70:	e8050ee3          	beqz	a0,2b0c <core_list_mergesort+0x1e8>
    2c74:	00052483          	lw	s1,0(a0)
    2c78:	2c040a63          	beqz	s0,2f4c <core_list_mergesort+0x628>
    2c7c:	00a42023          	sw	a0,0(s0)
    2c80:	00050993          	mv	s3,a0
    2c84:	e80484e3          	beqz	s1,2b0c <core_list_mergesort+0x1e8>
    2c88:	0004a403          	lw	s0,0(s1)
    2c8c:	2c050463          	beqz	a0,2f54 <core_list_mergesort+0x630>
    2c90:	00952023          	sw	s1,0(a0)
    2c94:	00048993          	mv	s3,s1
    2c98:	e6040ae3          	beqz	s0,2b0c <core_list_mergesort+0x1e8>
    2c9c:	00042503          	lw	a0,0(s0)
    2ca0:	2a048e63          	beqz	s1,2f5c <core_list_mergesort+0x638>
    2ca4:	0084a023          	sw	s0,0(s1)
    2ca8:	00040993          	mv	s3,s0
    2cac:	e60500e3          	beqz	a0,2b0c <core_list_mergesort+0x1e8>
    2cb0:	00052d83          	lw	s11,0(a0)
    2cb4:	2a040863          	beqz	s0,2f64 <core_list_mergesort+0x640>
    2cb8:	00a42023          	sw	a0,0(s0)
    2cbc:	00050993          	mv	s3,a0
    2cc0:	e40d86e3          	beqz	s11,2b0c <core_list_mergesort+0x1e8>
    2cc4:	000da803          	lw	a6,0(s11)
    2cc8:	2a050263          	beqz	a0,2f6c <core_list_mergesort+0x648>
    2ccc:	01b52023          	sw	s11,0(a0)
    2cd0:	000d8993          	mv	s3,s11
    2cd4:	e2080ce3          	beqz	a6,2b0c <core_list_mergesort+0x1e8>
    2cd8:	00082703          	lw	a4,0(a6)
    2cdc:	280d8c63          	beqz	s11,2f74 <core_list_mergesort+0x650>
    2ce0:	010da023          	sw	a6,0(s11)
    2ce4:	00080993          	mv	s3,a6
    2ce8:	e20702e3          	beqz	a4,2b0c <core_list_mergesort+0x1e8>
    2cec:	00072403          	lw	s0,0(a4)
    2cf0:	ff9a0a13          	addi	s4,s4,-7
    2cf4:	28080463          	beqz	a6,2f7c <core_list_mergesort+0x658>
    2cf8:	00e82023          	sw	a4,0(a6)
    2cfc:	00070993          	mv	s3,a4
    2d00:	e00406e3          	beqz	s0,2b0c <core_list_mergesort+0x1e8>
    2d04:	00042503          	lw	a0,0(s0)
    2d08:	fffa0a13          	addi	s4,s4,-1
    2d0c:	f4099ce3          	bnez	s3,2c64 <core_list_mergesort+0x340>
    2d10:	00040a93          	mv	s5,s0
    2d14:	f40a1ce3          	bnez	s4,2c6c <core_list_mergesort+0x348>
    2d18:	00040913          	mv	s2,s0
    2d1c:	c60510e3          	bnez	a0,297c <core_list_mergesort+0x58>
    2d20:	de9ff06f          	j	2b08 <core_list_mergesort+0x1e4>
    2d24:	00092703          	lw	a4,0(s2)
    2d28:	fff48493          	addi	s1,s1,-1
    2d2c:	00098c63          	beqz	s3,2d44 <core_list_mergesort+0x420>
    2d30:	0129a023          	sw	s2,0(s3)
    2d34:	1e905e63          	blez	s1,2f30 <core_list_mergesort+0x60c>
    2d38:	00090993          	mv	s3,s2
    2d3c:	00070913          	mv	s2,a4
    2d40:	d89ff06f          	j	2ac8 <core_list_mergesort+0x1a4>
    2d44:	1e905c63          	blez	s1,2f3c <core_list_mergesort+0x618>
    2d48:	00090a93          	mv	s5,s2
    2d4c:	fedff06f          	j	2d38 <core_list_mergesort+0x414>
    2d50:	00100e13          	li	t3,1
    2d54:	00090a93          	mv	s5,s2
    2d58:	00090413          	mv	s0,s2
    2d5c:	00030493          	mv	s1,t1
    2d60:	00060913          	mv	s2,a2
    2d64:	0dc88a63          	beq	a7,t3,2e38 <core_list_mergesort+0x514>
    2d68:	00200e93          	li	t4,2
    2d6c:	0bd88863          	beq	a7,t4,2e1c <core_list_mergesort+0x4f8>
    2d70:	00300f13          	li	t5,3
    2d74:	09e88663          	beq	a7,t5,2e00 <core_list_mergesort+0x4dc>
    2d78:	00400f93          	li	t6,4
    2d7c:	07f88463          	beq	a7,t6,2de4 <core_list_mergesort+0x4c0>
    2d80:	00500693          	li	a3,5
    2d84:	04d88263          	beq	a7,a3,2dc8 <core_list_mergesort+0x4a4>
    2d88:	00600593          	li	a1,6
    2d8c:	02b88063          	beq	a7,a1,2dac <core_list_mergesort+0x488>
    2d90:	00062603          	lw	a2,0(a2)
    2d94:	fff30313          	addi	t1,t1,-1
    2d98:	da0a92e3          	bnez	s5,2b3c <core_list_mergesort+0x218>
    2d9c:	00090a93          	mv	s5,s2
    2da0:	00090413          	mv	s0,s2
    2da4:	00030493          	mv	s1,t1
    2da8:	00060913          	mv	s2,a2
    2dac:	00062603          	lw	a2,0(a2)
    2db0:	fff30313          	addi	t1,t1,-1
    2db4:	d80414e3          	bnez	s0,2b3c <core_list_mergesort+0x218>
    2db8:	00090a93          	mv	s5,s2
    2dbc:	00090413          	mv	s0,s2
    2dc0:	00030493          	mv	s1,t1
    2dc4:	00060913          	mv	s2,a2
    2dc8:	00062603          	lw	a2,0(a2)
    2dcc:	fff30313          	addi	t1,t1,-1
    2dd0:	d60416e3          	bnez	s0,2b3c <core_list_mergesort+0x218>
    2dd4:	00090a93          	mv	s5,s2
    2dd8:	00090413          	mv	s0,s2
    2ddc:	00030493          	mv	s1,t1
    2de0:	00060913          	mv	s2,a2
    2de4:	00062603          	lw	a2,0(a2)
    2de8:	fff30313          	addi	t1,t1,-1
    2dec:	d40418e3          	bnez	s0,2b3c <core_list_mergesort+0x218>
    2df0:	00090a93          	mv	s5,s2
    2df4:	00090413          	mv	s0,s2
    2df8:	00030493          	mv	s1,t1
    2dfc:	00060913          	mv	s2,a2
    2e00:	00062603          	lw	a2,0(a2)
    2e04:	fff30313          	addi	t1,t1,-1
    2e08:	d2041ae3          	bnez	s0,2b3c <core_list_mergesort+0x218>
    2e0c:	00090a93          	mv	s5,s2
    2e10:	00090413          	mv	s0,s2
    2e14:	00030493          	mv	s1,t1
    2e18:	00060913          	mv	s2,a2
    2e1c:	00062603          	lw	a2,0(a2)
    2e20:	fff30313          	addi	t1,t1,-1
    2e24:	d0041ce3          	bnez	s0,2b3c <core_list_mergesort+0x218>
    2e28:	00090a93          	mv	s5,s2
    2e2c:	00090413          	mv	s0,s2
    2e30:	00030493          	mv	s1,t1
    2e34:	00060913          	mv	s2,a2
    2e38:	00092603          	lw	a2,0(s2)
    2e3c:	fff48313          	addi	t1,s1,-1
    2e40:	ce041ee3          	bnez	s0,2b3c <core_list_mergesort+0x218>
    2e44:	00090a93          	mv	s5,s2
    2e48:	00090413          	mv	s0,s2
    2e4c:	ca030ce3          	beqz	t1,2b04 <core_list_mergesort+0x1e0>
    2e50:	00030493          	mv	s1,t1
    2e54:	00030293          	mv	t0,t1
    2e58:	00060913          	mv	s2,a2
    2e5c:	fff30313          	addi	t1,t1,-1
    2e60:	00062603          	lw	a2,0(a2)
    2e64:	cc0a9ce3          	bnez	s5,2b3c <core_list_mergesort+0x218>
    2e68:	00090a93          	mv	s5,s2
    2e6c:	00030493          	mv	s1,t1
    2e70:	00090413          	mv	s0,s2
    2e74:	fff30313          	addi	t1,t1,-1
    2e78:	00060913          	mv	s2,a2
    2e7c:	00062603          	lw	a2,0(a2)
    2e80:	ca0a9ee3          	bnez	s5,2b3c <core_list_mergesort+0x218>
    2e84:	00090a93          	mv	s5,s2
    2e88:	00090413          	mv	s0,s2
    2e8c:	ffe28493          	addi	s1,t0,-2
    2e90:	00060913          	mv	s2,a2
    2e94:	ffd28313          	addi	t1,t0,-3
    2e98:	00062603          	lw	a2,0(a2)
    2e9c:	ca0a90e3          	bnez	s5,2b3c <core_list_mergesort+0x218>
    2ea0:	00090a93          	mv	s5,s2
    2ea4:	00030493          	mv	s1,t1
    2ea8:	00090413          	mv	s0,s2
    2eac:	ffc28313          	addi	t1,t0,-4
    2eb0:	00060913          	mv	s2,a2
    2eb4:	00062603          	lw	a2,0(a2)
    2eb8:	c80a92e3          	bnez	s5,2b3c <core_list_mergesort+0x218>
    2ebc:	00090a93          	mv	s5,s2
    2ec0:	00030493          	mv	s1,t1
    2ec4:	00090413          	mv	s0,s2
    2ec8:	ffb28313          	addi	t1,t0,-5
    2ecc:	00060913          	mv	s2,a2
    2ed0:	00062603          	lw	a2,0(a2)
    2ed4:	c60a94e3          	bnez	s5,2b3c <core_list_mergesort+0x218>
    2ed8:	00090a93          	mv	s5,s2
    2edc:	00030493          	mv	s1,t1
    2ee0:	00090413          	mv	s0,s2
    2ee4:	ffa28313          	addi	t1,t0,-6
    2ee8:	00060913          	mv	s2,a2
    2eec:	00062603          	lw	a2,0(a2)
    2ef0:	c40a96e3          	bnez	s5,2b3c <core_list_mergesort+0x218>
    2ef4:	00090a93          	mv	s5,s2
    2ef8:	00030493          	mv	s1,t1
    2efc:	00090413          	mv	s0,s2
    2f00:	ff928313          	addi	t1,t0,-7
    2f04:	00060913          	mv	s2,a2
    2f08:	00062603          	lw	a2,0(a2)
    2f0c:	c20a98e3          	bnez	s5,2b3c <core_list_mergesort+0x218>
    2f10:	00090a93          	mv	s5,s2
    2f14:	00090413          	mv	s0,s2
    2f18:	00030493          	mv	s1,t1
    2f1c:	00060913          	mv	s2,a2
    2f20:	f19ff06f          	j	2e38 <core_list_mergesort+0x514>
    2f24:	00040993          	mv	s3,s0
    2f28:	00050413          	mv	s0,a0
    2f2c:	b99ff06f          	j	2ac4 <core_list_mergesort+0x1a0>
    2f30:	00090993          	mv	s3,s2
    2f34:	00070913          	mv	s2,a4
    2f38:	b81ff06f          	j	2ab8 <core_list_mergesort+0x194>
    2f3c:	00090993          	mv	s3,s2
    2f40:	00090a93          	mv	s5,s2
    2f44:	00070913          	mv	s2,a4
    2f48:	b71ff06f          	j	2ab8 <core_list_mergesort+0x194>
    2f4c:	00050a93          	mv	s5,a0
    2f50:	d31ff06f          	j	2c80 <core_list_mergesort+0x35c>
    2f54:	00048a93          	mv	s5,s1
    2f58:	d3dff06f          	j	2c94 <core_list_mergesort+0x370>
    2f5c:	00040a93          	mv	s5,s0
    2f60:	d49ff06f          	j	2ca8 <core_list_mergesort+0x384>
    2f64:	00050a93          	mv	s5,a0
    2f68:	d55ff06f          	j	2cbc <core_list_mergesort+0x398>
    2f6c:	000d8a93          	mv	s5,s11
    2f70:	d61ff06f          	j	2cd0 <core_list_mergesort+0x3ac>
    2f74:	00080a93          	mv	s5,a6
    2f78:	d6dff06f          	j	2ce4 <core_list_mergesort+0x3c0>
    2f7c:	00070a93          	mv	s5,a4
    2f80:	d7dff06f          	j	2cfc <core_list_mergesort+0x3d8>
    2f84:	00040a93          	mv	s5,s0
    2f88:	bf1ff06f          	j	2b78 <core_list_mergesort+0x254>
    2f8c:	00040a93          	mv	s5,s0
    2f90:	cbdff06f          	j	2c4c <core_list_mergesort+0x328>
    2f94:	00040a93          	mv	s5,s0
    2f98:	c99ff06f          	j	2c30 <core_list_mergesort+0x30c>
    2f9c:	00040a93          	mv	s5,s0
    2fa0:	c75ff06f          	j	2c14 <core_list_mergesort+0x2f0>
    2fa4:	00040a93          	mv	s5,s0
    2fa8:	c51ff06f          	j	2bf8 <core_list_mergesort+0x2d4>
    2fac:	00040a93          	mv	s5,s0
    2fb0:	c2dff06f          	j	2bdc <core_list_mergesort+0x2b8>
    2fb4:	03c12083          	lw	ra,60(sp)
    2fb8:	03812403          	lw	s0,56(sp)
    2fbc:	03412483          	lw	s1,52(sp)
    2fc0:	03012903          	lw	s2,48(sp)
    2fc4:	02c12983          	lw	s3,44(sp)
    2fc8:	02812a03          	lw	s4,40(sp)
    2fcc:	02012b03          	lw	s6,32(sp)
    2fd0:	01c12b83          	lw	s7,28(sp)
    2fd4:	01812c03          	lw	s8,24(sp)
    2fd8:	01412c83          	lw	s9,20(sp)
    2fdc:	01012d03          	lw	s10,16(sp)
    2fe0:	00c12d83          	lw	s11,12(sp)
    2fe4:	000a8513          	mv	a0,s5
    2fe8:	02412a83          	lw	s5,36(sp)
    2fec:	04010113          	addi	sp,sp,64
    2ff0:	00008067          	ret
    2ff4:	00090a93          	mv	s5,s2
    2ff8:	bcdff06f          	j	2bc4 <core_list_mergesort+0x2a0>
    2ffc:	00048a63          	beqz	s1,3010 <core_list_mergesort+0x6ec>
    3000:	00090a93          	mv	s5,s2
    3004:	00090413          	mv	s0,s2
    3008:	00050913          	mv	s2,a0
    300c:	a8dff06f          	j	2a98 <core_list_mergesort+0x174>
    3010:	00090993          	mv	s3,s2
    3014:	00090a93          	mv	s5,s2
    3018:	00050913          	mv	s2,a0
    301c:	a9dff06f          	j	2ab8 <core_list_mergesort+0x194>

00003020 <iterate>:
    3020:	fe010113          	addi	sp,sp,-32
    3024:	01212823          	sw	s2,16(sp)
    3028:	01c52903          	lw	s2,28(a0)
    302c:	00112e23          	sw	ra,28(sp)
    3030:	02052c23          	sw	zero,56(a0)
    3034:	02052e23          	sw	zero,60(a0)
    3038:	44090063          	beqz	s2,3478 <iterate+0x458>
    303c:	00812c23          	sw	s0,24(sp)
    3040:	00912a23          	sw	s1,20(sp)
    3044:	01312623          	sw	s3,12(sp)
    3048:	00797793          	andi	a5,s2,7
    304c:	00050413          	mv	s0,a0
    3050:	00000493          	li	s1,0
    3054:	1e078a63          	beqz	a5,3248 <iterate+0x228>
    3058:	00100993          	li	s3,1
    305c:	1b378463          	beq	a5,s3,3204 <iterate+0x1e4>
    3060:	00200713          	li	a4,2
    3064:	16e78063          	beq	a5,a4,31c4 <iterate+0x1a4>
    3068:	00300293          	li	t0,3
    306c:	10578c63          	beq	a5,t0,3184 <iterate+0x164>
    3070:	00400313          	li	t1,4
    3074:	0c678863          	beq	a5,t1,3144 <iterate+0x124>
    3078:	00500393          	li	t2,5
    307c:	08778463          	beq	a5,t2,3104 <iterate+0xe4>
    3080:	00600593          	li	a1,6
    3084:	04b78063          	beq	a5,a1,30c4 <iterate+0xa4>
    3088:	00098593          	mv	a1,s3
    308c:	b68fd0ef          	jal	3f4 <core_bench_list>
    3090:	03845583          	lhu	a1,56(s0)
    3094:	3c05250b          	th.ext	a0,a0,15,0
    3098:	00098493          	mv	s1,s3
    309c:	5bd060ef          	jal	9e58 <crc16>
    30a0:	02a41c23          	sh	a0,56(s0)
    30a4:	fff00593          	li	a1,-1
    30a8:	00040513          	mv	a0,s0
    30ac:	b48fd0ef          	jal	3f4 <core_bench_list>
    30b0:	03845583          	lhu	a1,56(s0)
    30b4:	3c05250b          	th.ext	a0,a0,15,0
    30b8:	5a1060ef          	jal	9e58 <crc16>
    30bc:	02a41c23          	sh	a0,56(s0)
    30c0:	02a41d23          	sh	a0,58(s0)
    30c4:	00100593          	li	a1,1
    30c8:	00040513          	mv	a0,s0
    30cc:	b28fd0ef          	jal	3f4 <core_bench_list>
    30d0:	03845583          	lhu	a1,56(s0)
    30d4:	3c05250b          	th.ext	a0,a0,15,0
    30d8:	581060ef          	jal	9e58 <crc16>
    30dc:	02a41c23          	sh	a0,56(s0)
    30e0:	fff00593          	li	a1,-1
    30e4:	00040513          	mv	a0,s0
    30e8:	b0cfd0ef          	jal	3f4 <core_bench_list>
    30ec:	03845583          	lhu	a1,56(s0)
    30f0:	3c05250b          	th.ext	a0,a0,15,0
    30f4:	565060ef          	jal	9e58 <crc16>
    30f8:	02a41c23          	sh	a0,56(s0)
    30fc:	3c048a63          	beqz	s1,34d0 <iterate+0x4b0>
    3100:	00148493          	addi	s1,s1,1
    3104:	00100593          	li	a1,1
    3108:	00040513          	mv	a0,s0
    310c:	ae8fd0ef          	jal	3f4 <core_bench_list>
    3110:	03845583          	lhu	a1,56(s0)
    3114:	3c05250b          	th.ext	a0,a0,15,0
    3118:	541060ef          	jal	9e58 <crc16>
    311c:	02a41c23          	sh	a0,56(s0)
    3120:	fff00593          	li	a1,-1
    3124:	00040513          	mv	a0,s0
    3128:	accfd0ef          	jal	3f4 <core_bench_list>
    312c:	03845583          	lhu	a1,56(s0)
    3130:	3c05250b          	th.ext	a0,a0,15,0
    3134:	525060ef          	jal	9e58 <crc16>
    3138:	02a41c23          	sh	a0,56(s0)
    313c:	36048e63          	beqz	s1,34b8 <iterate+0x498>
    3140:	00148493          	addi	s1,s1,1
    3144:	00100593          	li	a1,1
    3148:	00040513          	mv	a0,s0
    314c:	aa8fd0ef          	jal	3f4 <core_bench_list>
    3150:	03845583          	lhu	a1,56(s0)
    3154:	3c05250b          	th.ext	a0,a0,15,0
    3158:	501060ef          	jal	9e58 <crc16>
    315c:	02a41c23          	sh	a0,56(s0)
    3160:	fff00593          	li	a1,-1
    3164:	00040513          	mv	a0,s0
    3168:	a8cfd0ef          	jal	3f4 <core_bench_list>
    316c:	03845583          	lhu	a1,56(s0)
    3170:	3c05250b          	th.ext	a0,a0,15,0
    3174:	4e5060ef          	jal	9e58 <crc16>
    3178:	02a41c23          	sh	a0,56(s0)
    317c:	32048863          	beqz	s1,34ac <iterate+0x48c>
    3180:	00148493          	addi	s1,s1,1
    3184:	00100593          	li	a1,1
    3188:	00040513          	mv	a0,s0
    318c:	a68fd0ef          	jal	3f4 <core_bench_list>
    3190:	03845583          	lhu	a1,56(s0)
    3194:	3c05250b          	th.ext	a0,a0,15,0
    3198:	4c1060ef          	jal	9e58 <crc16>
    319c:	02a41c23          	sh	a0,56(s0)
    31a0:	fff00593          	li	a1,-1
    31a4:	00040513          	mv	a0,s0
    31a8:	a4cfd0ef          	jal	3f4 <core_bench_list>
    31ac:	03845583          	lhu	a1,56(s0)
    31b0:	3c05250b          	th.ext	a0,a0,15,0
    31b4:	4a5060ef          	jal	9e58 <crc16>
    31b8:	02a41c23          	sh	a0,56(s0)
    31bc:	2e048463          	beqz	s1,34a4 <iterate+0x484>
    31c0:	00148493          	addi	s1,s1,1
    31c4:	00100593          	li	a1,1
    31c8:	00040513          	mv	a0,s0
    31cc:	a28fd0ef          	jal	3f4 <core_bench_list>
    31d0:	03845583          	lhu	a1,56(s0)
    31d4:	3c05250b          	th.ext	a0,a0,15,0
    31d8:	481060ef          	jal	9e58 <crc16>
    31dc:	02a41c23          	sh	a0,56(s0)
    31e0:	fff00593          	li	a1,-1
    31e4:	00040513          	mv	a0,s0
    31e8:	a0cfd0ef          	jal	3f4 <core_bench_list>
    31ec:	03845583          	lhu	a1,56(s0)
    31f0:	3c05250b          	th.ext	a0,a0,15,0
    31f4:	465060ef          	jal	9e58 <crc16>
    31f8:	02a41c23          	sh	a0,56(s0)
    31fc:	2a048063          	beqz	s1,349c <iterate+0x47c>
    3200:	00148493          	addi	s1,s1,1
    3204:	00100593          	li	a1,1
    3208:	00040513          	mv	a0,s0
    320c:	9e8fd0ef          	jal	3f4 <core_bench_list>
    3210:	03845583          	lhu	a1,56(s0)
    3214:	3c05250b          	th.ext	a0,a0,15,0
    3218:	441060ef          	jal	9e58 <crc16>
    321c:	02a41c23          	sh	a0,56(s0)
    3220:	fff00593          	li	a1,-1
    3224:	00040513          	mv	a0,s0
    3228:	9ccfd0ef          	jal	3f4 <core_bench_list>
    322c:	03845583          	lhu	a1,56(s0)
    3230:	3c05250b          	th.ext	a0,a0,15,0
    3234:	425060ef          	jal	9e58 <crc16>
    3238:	02a41c23          	sh	a0,56(s0)
    323c:	24048863          	beqz	s1,348c <iterate+0x46c>
    3240:	00148493          	addi	s1,s1,1
    3244:	26990e63          	beq	s2,s1,34c0 <iterate+0x4a0>
    3248:	00100593          	li	a1,1
    324c:	00040513          	mv	a0,s0
    3250:	9a4fd0ef          	jal	3f4 <core_bench_list>
    3254:	03845583          	lhu	a1,56(s0)
    3258:	3c05250b          	th.ext	a0,a0,15,0
    325c:	3fd060ef          	jal	9e58 <crc16>
    3260:	02a41c23          	sh	a0,56(s0)
    3264:	fff00593          	li	a1,-1
    3268:	00040513          	mv	a0,s0
    326c:	988fd0ef          	jal	3f4 <core_bench_list>
    3270:	03845583          	lhu	a1,56(s0)
    3274:	3c05250b          	th.ext	a0,a0,15,0
    3278:	3e1060ef          	jal	9e58 <crc16>
    327c:	02a41c23          	sh	a0,56(s0)
    3280:	00049463          	bnez	s1,3288 <iterate+0x268>
    3284:	02a41d23          	sh	a0,58(s0)
    3288:	00100593          	li	a1,1
    328c:	00040513          	mv	a0,s0
    3290:	00b484b3          	add	s1,s1,a1
    3294:	960fd0ef          	jal	3f4 <core_bench_list>
    3298:	03845583          	lhu	a1,56(s0)
    329c:	3c05250b          	th.ext	a0,a0,15,0
    32a0:	3b9060ef          	jal	9e58 <crc16>
    32a4:	02a41c23          	sh	a0,56(s0)
    32a8:	fff00593          	li	a1,-1
    32ac:	00040513          	mv	a0,s0
    32b0:	944fd0ef          	jal	3f4 <core_bench_list>
    32b4:	03845583          	lhu	a1,56(s0)
    32b8:	3c05250b          	th.ext	a0,a0,15,0
    32bc:	39d060ef          	jal	9e58 <crc16>
    32c0:	02a41c23          	sh	a0,56(s0)
    32c4:	00049463          	bnez	s1,32cc <iterate+0x2ac>
    32c8:	02a41d23          	sh	a0,58(s0)
    32cc:	00100593          	li	a1,1
    32d0:	00040513          	mv	a0,s0
    32d4:	00b489b3          	add	s3,s1,a1
    32d8:	91cfd0ef          	jal	3f4 <core_bench_list>
    32dc:	03845583          	lhu	a1,56(s0)
    32e0:	3c05250b          	th.ext	a0,a0,15,0
    32e4:	375060ef          	jal	9e58 <crc16>
    32e8:	02a41c23          	sh	a0,56(s0)
    32ec:	fff00593          	li	a1,-1
    32f0:	00040513          	mv	a0,s0
    32f4:	900fd0ef          	jal	3f4 <core_bench_list>
    32f8:	03845583          	lhu	a1,56(s0)
    32fc:	3c05250b          	th.ext	a0,a0,15,0
    3300:	359060ef          	jal	9e58 <crc16>
    3304:	02a41c23          	sh	a0,56(s0)
    3308:	00099463          	bnez	s3,3310 <iterate+0x2f0>
    330c:	02a41d23          	sh	a0,58(s0)
    3310:	00100593          	li	a1,1
    3314:	00040513          	mv	a0,s0
    3318:	8dcfd0ef          	jal	3f4 <core_bench_list>
    331c:	03845583          	lhu	a1,56(s0)
    3320:	3c05250b          	th.ext	a0,a0,15,0
    3324:	00248993          	addi	s3,s1,2
    3328:	331060ef          	jal	9e58 <crc16>
    332c:	02a41c23          	sh	a0,56(s0)
    3330:	fff00593          	li	a1,-1
    3334:	00040513          	mv	a0,s0
    3338:	8bcfd0ef          	jal	3f4 <core_bench_list>
    333c:	03845583          	lhu	a1,56(s0)
    3340:	3c05250b          	th.ext	a0,a0,15,0
    3344:	315060ef          	jal	9e58 <crc16>
    3348:	02a41c23          	sh	a0,56(s0)
    334c:	00099463          	bnez	s3,3354 <iterate+0x334>
    3350:	02a41d23          	sh	a0,58(s0)
    3354:	00100593          	li	a1,1
    3358:	00040513          	mv	a0,s0
    335c:	898fd0ef          	jal	3f4 <core_bench_list>
    3360:	03845583          	lhu	a1,56(s0)
    3364:	3c05250b          	th.ext	a0,a0,15,0
    3368:	00348993          	addi	s3,s1,3
    336c:	2ed060ef          	jal	9e58 <crc16>
    3370:	02a41c23          	sh	a0,56(s0)
    3374:	fff00593          	li	a1,-1
    3378:	00040513          	mv	a0,s0
    337c:	878fd0ef          	jal	3f4 <core_bench_list>
    3380:	03845583          	lhu	a1,56(s0)
    3384:	3c05250b          	th.ext	a0,a0,15,0
    3388:	2d1060ef          	jal	9e58 <crc16>
    338c:	02a41c23          	sh	a0,56(s0)
    3390:	00099463          	bnez	s3,3398 <iterate+0x378>
    3394:	02a41d23          	sh	a0,58(s0)
    3398:	00100593          	li	a1,1
    339c:	00040513          	mv	a0,s0
    33a0:	854fd0ef          	jal	3f4 <core_bench_list>
    33a4:	03845583          	lhu	a1,56(s0)
    33a8:	3c05250b          	th.ext	a0,a0,15,0
    33ac:	00448993          	addi	s3,s1,4
    33b0:	2a9060ef          	jal	9e58 <crc16>
    33b4:	02a41c23          	sh	a0,56(s0)
    33b8:	fff00593          	li	a1,-1
    33bc:	00040513          	mv	a0,s0
    33c0:	834fd0ef          	jal	3f4 <core_bench_list>
    33c4:	03845583          	lhu	a1,56(s0)
    33c8:	3c05250b          	th.ext	a0,a0,15,0
    33cc:	28d060ef          	jal	9e58 <crc16>
    33d0:	02a41c23          	sh	a0,56(s0)
    33d4:	00099463          	bnez	s3,33dc <iterate+0x3bc>
    33d8:	02a41d23          	sh	a0,58(s0)
    33dc:	00100593          	li	a1,1
    33e0:	00040513          	mv	a0,s0
    33e4:	810fd0ef          	jal	3f4 <core_bench_list>
    33e8:	03845583          	lhu	a1,56(s0)
    33ec:	3c05250b          	th.ext	a0,a0,15,0
    33f0:	00548993          	addi	s3,s1,5
    33f4:	265060ef          	jal	9e58 <crc16>
    33f8:	02a41c23          	sh	a0,56(s0)
    33fc:	fff00593          	li	a1,-1
    3400:	00040513          	mv	a0,s0
    3404:	ff1fc0ef          	jal	3f4 <core_bench_list>
    3408:	03845583          	lhu	a1,56(s0)
    340c:	3c05250b          	th.ext	a0,a0,15,0
    3410:	249060ef          	jal	9e58 <crc16>
    3414:	02a41c23          	sh	a0,56(s0)
    3418:	00099463          	bnez	s3,3420 <iterate+0x400>
    341c:	02a41d23          	sh	a0,58(s0)
    3420:	00100593          	li	a1,1
    3424:	00040513          	mv	a0,s0
    3428:	fcdfc0ef          	jal	3f4 <core_bench_list>
    342c:	03845583          	lhu	a1,56(s0)
    3430:	3c05250b          	th.ext	a0,a0,15,0
    3434:	00648993          	addi	s3,s1,6
    3438:	221060ef          	jal	9e58 <crc16>
    343c:	02a41c23          	sh	a0,56(s0)
    3440:	fff00593          	li	a1,-1
    3444:	00040513          	mv	a0,s0
    3448:	fadfc0ef          	jal	3f4 <core_bench_list>
    344c:	03845583          	lhu	a1,56(s0)
    3450:	3c05250b          	th.ext	a0,a0,15,0
    3454:	205060ef          	jal	9e58 <crc16>
    3458:	02a41c23          	sh	a0,56(s0)
    345c:	00099463          	bnez	s3,3464 <iterate+0x444>
    3460:	02a41d23          	sh	a0,58(s0)
    3464:	00748493          	addi	s1,s1,7
    3468:	de9910e3          	bne	s2,s1,3248 <iterate+0x228>
    346c:	01812403          	lw	s0,24(sp)
    3470:	01412483          	lw	s1,20(sp)
    3474:	00c12983          	lw	s3,12(sp)
    3478:	01c12083          	lw	ra,28(sp)
    347c:	01012903          	lw	s2,16(sp)
    3480:	00000513          	li	a0,0
    3484:	02010113          	addi	sp,sp,32
    3488:	00008067          	ret
    348c:	02a41d23          	sh	a0,58(s0)
    3490:	00148493          	addi	s1,s1,1
    3494:	da991ae3          	bne	s2,s1,3248 <iterate+0x228>
    3498:	0280006f          	j	34c0 <iterate+0x4a0>
    349c:	02a41d23          	sh	a0,58(s0)
    34a0:	d61ff06f          	j	3200 <iterate+0x1e0>
    34a4:	02a41d23          	sh	a0,58(s0)
    34a8:	d19ff06f          	j	31c0 <iterate+0x1a0>
    34ac:	02a41d23          	sh	a0,58(s0)
    34b0:	00148493          	addi	s1,s1,1
    34b4:	cd1ff06f          	j	3184 <iterate+0x164>
    34b8:	02a41d23          	sh	a0,58(s0)
    34bc:	c85ff06f          	j	3140 <iterate+0x120>
    34c0:	01812403          	lw	s0,24(sp)
    34c4:	01412483          	lw	s1,20(sp)
    34c8:	00c12983          	lw	s3,12(sp)
    34cc:	fadff06f          	j	3478 <iterate+0x458>
    34d0:	02a41d23          	sh	a0,58(s0)
    34d4:	c2dff06f          	j	3100 <iterate+0xe0>

000034d8 <main>:
    34d8:	f7010113          	addi	sp,sp,-144
    34dc:	00810613          	addi	a2,sp,8
    34e0:	00410593          	addi	a1,sp,4
    34e4:	04e10513          	addi	a0,sp,78
    34e8:	08112623          	sw	ra,140(sp)
    34ec:	08812423          	sw	s0,136(sp)
    34f0:	08912223          	sw	s1,132(sp)
    34f4:	09212023          	sw	s2,128(sp)
    34f8:	07312e23          	sw	s3,124(sp)
    34fc:	07412c23          	sw	s4,120(sp)
    3500:	07712623          	sw	s7,108(sp)
    3504:	07812423          	sw	s8,104(sp)
    3508:	07912223          	sw	s9,100(sp)
    350c:	00012223          	sw	zero,4(sp)
    3510:	555060ef          	jal	a264 <portable_init>
    3514:	00100513          	li	a0,1
    3518:	1e0060ef          	jal	96f8 <get_seed_32>
    351c:	00a11623          	sh	a0,12(sp)
    3520:	00200513          	li	a0,2
    3524:	1d4060ef          	jal	96f8 <get_seed_32>
    3528:	00a11723          	sh	a0,14(sp)
    352c:	00300513          	li	a0,3
    3530:	1c8060ef          	jal	96f8 <get_seed_32>
    3534:	00a11823          	sh	a0,16(sp)
    3538:	00400513          	li	a0,4
    353c:	1bc060ef          	jal	96f8 <get_seed_32>
    3540:	02a12423          	sw	a0,40(sp)
    3544:	00500513          	li	a0,5
    3548:	1b0060ef          	jal	96f8 <get_seed_32>
    354c:	00051463          	bnez	a0,3554 <main+0x7c>
    3550:	00700513          	li	a0,7
    3554:	00c12783          	lw	a5,12(sp)
    3558:	02a12623          	sw	a0,44(sp)
    355c:	7e078a63          	beqz	a5,3d50 <main+0x878>
    3560:	00100713          	li	a4,1
    3564:	00e79463          	bne	a5,a4,356c <main+0x94>
    3568:	0680106f          	j	45d0 <main+0x10f8>
    356c:	00010637          	lui	a2,0x10
    3570:	01460b93          	addi	s7,a2,20 # 10014 <static_memblk>
    3574:	00157993          	andi	s3,a0,1
    3578:	04011623          	sh	zero,76(sp)
    357c:	01712a23          	sw	s7,20(sp)
    3580:	00257693          	andi	a3,a0,2
    3584:	00098913          	mv	s2,s3
    3588:	10069c63          	bnez	a3,36a0 <main+0x1c8>
    358c:	00457513          	andi	a0,a0,4
    3590:	16050a63          	beqz	a0,3704 <main+0x22c>
    3594:	00198893          	addi	a7,s3,1
    3598:	3c08b58b          	th.extu	a1,a7,15,0
    359c:	7d000513          	li	a0,2000
    35a0:	005090ef          	jal	cda4 <__hidden___udivsi3>
    35a4:	02a12223          	sw	a0,36(sp)
    35a8:	00098463          	beqz	s3,35b0 <main+0xd8>
    35ac:	7550006f          	j	4500 <main+0x1028>
    35b0:	02a90f33          	mul	t5,s2,a0
    35b4:	01eb8fb3          	add	t6,s7,t5
    35b8:	03f12023          	sw	t6,32(sp)
    35bc:	02c12483          	lw	s1,44(sp)
    35c0:	0014f713          	andi	a4,s1,1
    35c4:	00070e63          	beqz	a4,35e0 <main+0x108>
    35c8:	00c11603          	lh	a2,12(sp)
    35cc:	01812583          	lw	a1,24(sp)
    35d0:	02412503          	lw	a0,36(sp)
    35d4:	c0cfe0ef          	jal	19e0 <core_list_init>
    35d8:	02c12483          	lw	s1,44(sp)
    35dc:	02a12823          	sw	a0,48(sp)
    35e0:	0024f293          	andi	t0,s1,2
    35e4:	12029a63          	bnez	t0,3718 <main+0x240>
    35e8:	0044f593          	andi	a1,s1,4
    35ec:	00058a63          	beqz	a1,3600 <main+0x128>
    35f0:	02012603          	lw	a2,32(sp)
    35f4:	00c11583          	lh	a1,12(sp)
    35f8:	02412503          	lw	a0,36(sp)
    35fc:	355050ef          	jal	9150 <core_init_state>
    3600:	02812603          	lw	a2,40(sp)
    3604:	12060e63          	beqz	a2,3740 <main+0x268>
    3608:	00c10a13          	addi	s4,sp,12
    360c:	2f5060ef          	jal	a100 <start_time>
    3610:	000a0513          	mv	a0,s4
    3614:	a0dff0ef          	jal	3020 <iterate>
    3618:	385060ef          	jal	a19c <stop_time>
    361c:	41d060ef          	jal	a238 <get_time>
    3620:	00050b93          	mv	s7,a0
    3624:	00c11503          	lh	a0,12(sp)
    3628:	00000593          	li	a1,0
    362c:	02d060ef          	jal	9e58 <crc16>
    3630:	00050593          	mv	a1,a0
    3634:	00e11503          	lh	a0,14(sp)
    3638:	021060ef          	jal	9e58 <crc16>
    363c:	00050593          	mv	a1,a0
    3640:	01011503          	lh	a0,16(sp)
    3644:	015060ef          	jal	9e58 <crc16>
    3648:	00050593          	mv	a1,a0
    364c:	02411503          	lh	a0,36(sp)
    3650:	009060ef          	jal	9e58 <crc16>
    3654:	000087b7          	lui	a5,0x8
    3658:	b0578313          	addi	t1,a5,-1275 # 7b05 <matrix_sum+0xb9>
    365c:	00050c13          	mv	s8,a0
    3660:	00651463          	bne	a0,t1,3668 <main+0x190>
    3664:	7450006f          	j	45a8 <main+0x10d0>
    3668:	58a36463          	bltu	t1,a0,3bf0 <main+0x718>
    366c:	00002e37          	lui	t3,0x2
    3670:	8f2e0e93          	addi	t4,t3,-1806 # 18f2 <core_bench_list+0x14fe>
    3674:	01d51463          	bne	a0,t4,367c <main+0x1a4>
    3678:	71d0006f          	j	4594 <main+0x10bc>
    367c:	000059b7          	lui	s3,0x5
    3680:	eaf98913          	addi	s2,s3,-337 # 4eaf <core_bench_matrix+0x8a7>
    3684:	01250463          	beq	a0,s2,368c <main+0x1b4>
    3688:	65d0006f          	j	44e4 <main+0x100c>
    368c:	0000d4b7          	lui	s1,0xd
    3690:	eac48513          	addi	a0,s1,-340 # ceac <__modsi3+0x8c>
    3694:	41d060ef          	jal	a2b0 <ee_printf>
    3698:	00200c93          	li	s9,2
    369c:	57c0006f          	j	3c18 <main+0x740>
    36a0:	00198a13          	addi	s4,s3,1
    36a4:	00457413          	andi	s0,a0,4
    36a8:	3c0a3c0b          	th.extu	s8,s4,15,0
    36ac:	02040e63          	beqz	s0,36e8 <main+0x210>
    36b0:	00298c93          	addi	s9,s3,2
    36b4:	3c0cb58b          	th.extu	a1,s9,15,0
    36b8:	7d000513          	li	a0,2000
    36bc:	6e8090ef          	jal	cda4 <__hidden___udivsi3>
    36c0:	02a12223          	sw	a0,36(sp)
    36c4:	00098463          	beqz	s3,36cc <main+0x1f4>
    36c8:	62d0006f          	j	44f4 <main+0x101c>
    36cc:	00400413          	li	s0,4
    36d0:	02a90e33          	mul	t3,s2,a0
    36d4:	000c0913          	mv	s2,s8
    36d8:	01cb8eb3          	add	t4,s7,t3
    36dc:	01d12e23          	sw	t4,28(sp)
    36e0:	ec040ee3          	beqz	s0,35bc <main+0xe4>
    36e4:	ecdff06f          	j	35b0 <main+0xd8>
    36e8:	000c0593          	mv	a1,s8
    36ec:	7d000513          	li	a0,2000
    36f0:	6b4090ef          	jal	cda4 <__hidden___udivsi3>
    36f4:	02a12223          	sw	a0,36(sp)
    36f8:	fc098ce3          	beqz	s3,36d0 <main+0x1f8>
    36fc:	01712c23          	sw	s7,24(sp)
    3700:	fd1ff06f          	j	36d0 <main+0x1f8>
    3704:	7d000813          	li	a6,2000
    3708:	03012223          	sw	a6,36(sp)
    370c:	ea0988e3          	beqz	s3,35bc <main+0xe4>
    3710:	01712c23          	sw	s7,24(sp)
    3714:	ea9ff06f          	j	35bc <main+0xe4>
    3718:	00e11783          	lh	a5,14(sp)
    371c:	00c11303          	lh	t1,12(sp)
    3720:	01c12583          	lw	a1,28(sp)
    3724:	02412503          	lw	a0,36(sp)
    3728:	01079393          	slli	t2,a5,0x10
    372c:	0063e633          	or	a2,t2,t1
    3730:	03410693          	addi	a3,sp,52
    3734:	621030ef          	jal	7554 <core_init_matrix>
    3738:	02c12483          	lw	s1,44(sp)
    373c:	eadff06f          	j	35e8 <main+0x110>
    3740:	00100b93          	li	s7,1
    3744:	03712423          	sw	s7,40(sp)
    3748:	00c10a13          	addi	s4,sp,12
    374c:	02812683          	lw	a3,40(sp)
    3750:	00000413          	li	s0,0
    3754:	20d6c9b3          	sh2add	s3,a3,a3
    3758:	00199513          	slli	a0,s3,0x1
    375c:	02a12423          	sw	a0,40(sp)
    3760:	1a1060ef          	jal	a100 <start_time>
    3764:	02812c03          	lw	s8,40(sp)
    3768:	04012223          	sw	zero,68(sp)
    376c:	04012423          	sw	zero,72(sp)
    3770:	420c0463          	beqz	s8,3b98 <main+0x6c0>
    3774:	007c7813          	andi	a6,s8,7
    3778:	1e080e63          	beqz	a6,3974 <main+0x49c>
    377c:	00100c93          	li	s9,1
    3780:	1b980663          	beq	a6,s9,392c <main+0x454>
    3784:	00200893          	li	a7,2
    3788:	17180263          	beq	a6,a7,38ec <main+0x414>
    378c:	00300e13          	li	t3,3
    3790:	11c80e63          	beq	a6,t3,38ac <main+0x3d4>
    3794:	00400913          	li	s2,4
    3798:	0d280a63          	beq	a6,s2,386c <main+0x394>
    379c:	00500e93          	li	t4,5
    37a0:	09d80663          	beq	a6,t4,382c <main+0x354>
    37a4:	00600f13          	li	t5,6
    37a8:	05e80263          	beq	a6,t5,37ec <main+0x314>
    37ac:	000c8593          	mv	a1,s9
    37b0:	000a0513          	mv	a0,s4
    37b4:	c41fc0ef          	jal	3f4 <core_bench_list>
    37b8:	04415583          	lhu	a1,68(sp)
    37bc:	3c05250b          	th.ext	a0,a0,15,0
    37c0:	000c8413          	mv	s0,s9
    37c4:	694060ef          	jal	9e58 <crc16>
    37c8:	04a11223          	sh	a0,68(sp)
    37cc:	fff00593          	li	a1,-1
    37d0:	000a0513          	mv	a0,s4
    37d4:	c21fc0ef          	jal	3f4 <core_bench_list>
    37d8:	04415583          	lhu	a1,68(sp)
    37dc:	3c05250b          	th.ext	a0,a0,15,0
    37e0:	678060ef          	jal	9e58 <crc16>
    37e4:	04a11223          	sh	a0,68(sp)
    37e8:	04a11323          	sh	a0,70(sp)
    37ec:	00100593          	li	a1,1
    37f0:	000a0513          	mv	a0,s4
    37f4:	c01fc0ef          	jal	3f4 <core_bench_list>
    37f8:	04415583          	lhu	a1,68(sp)
    37fc:	3c05250b          	th.ext	a0,a0,15,0
    3800:	658060ef          	jal	9e58 <crc16>
    3804:	04a11223          	sh	a0,68(sp)
    3808:	fff00593          	li	a1,-1
    380c:	000a0513          	mv	a0,s4
    3810:	be5fc0ef          	jal	3f4 <core_bench_list>
    3814:	04415583          	lhu	a1,68(sp)
    3818:	3c05250b          	th.ext	a0,a0,15,0
    381c:	63c060ef          	jal	9e58 <crc16>
    3820:	04a11223          	sh	a0,68(sp)
    3824:	3c040263          	beqz	s0,3be8 <main+0x710>
    3828:	00140413          	addi	s0,s0,1
    382c:	00100593          	li	a1,1
    3830:	000a0513          	mv	a0,s4
    3834:	bc1fc0ef          	jal	3f4 <core_bench_list>
    3838:	04415583          	lhu	a1,68(sp)
    383c:	3c05250b          	th.ext	a0,a0,15,0
    3840:	618060ef          	jal	9e58 <crc16>
    3844:	04a11223          	sh	a0,68(sp)
    3848:	fff00593          	li	a1,-1
    384c:	000a0513          	mv	a0,s4
    3850:	ba5fc0ef          	jal	3f4 <core_bench_list>
    3854:	04415583          	lhu	a1,68(sp)
    3858:	3c05250b          	th.ext	a0,a0,15,0
    385c:	5fc060ef          	jal	9e58 <crc16>
    3860:	04a11223          	sh	a0,68(sp)
    3864:	36040e63          	beqz	s0,3be0 <main+0x708>
    3868:	00140413          	addi	s0,s0,1
    386c:	00100593          	li	a1,1
    3870:	000a0513          	mv	a0,s4
    3874:	b81fc0ef          	jal	3f4 <core_bench_list>
    3878:	04415583          	lhu	a1,68(sp)
    387c:	3c05250b          	th.ext	a0,a0,15,0
    3880:	5d8060ef          	jal	9e58 <crc16>
    3884:	04a11223          	sh	a0,68(sp)
    3888:	fff00593          	li	a1,-1
    388c:	000a0513          	mv	a0,s4
    3890:	b65fc0ef          	jal	3f4 <core_bench_list>
    3894:	04415583          	lhu	a1,68(sp)
    3898:	3c05250b          	th.ext	a0,a0,15,0
    389c:	5bc060ef          	jal	9e58 <crc16>
    38a0:	04a11223          	sh	a0,68(sp)
    38a4:	32040a63          	beqz	s0,3bd8 <main+0x700>
    38a8:	00140413          	addi	s0,s0,1
    38ac:	00100593          	li	a1,1
    38b0:	000a0513          	mv	a0,s4
    38b4:	b41fc0ef          	jal	3f4 <core_bench_list>
    38b8:	04415583          	lhu	a1,68(sp)
    38bc:	3c05250b          	th.ext	a0,a0,15,0
    38c0:	598060ef          	jal	9e58 <crc16>
    38c4:	04a11223          	sh	a0,68(sp)
    38c8:	fff00593          	li	a1,-1
    38cc:	000a0513          	mv	a0,s4
    38d0:	b25fc0ef          	jal	3f4 <core_bench_list>
    38d4:	04415583          	lhu	a1,68(sp)
    38d8:	3c05250b          	th.ext	a0,a0,15,0
    38dc:	57c060ef          	jal	9e58 <crc16>
    38e0:	04a11223          	sh	a0,68(sp)
    38e4:	2e040663          	beqz	s0,3bd0 <main+0x6f8>
    38e8:	00140413          	addi	s0,s0,1
    38ec:	00100593          	li	a1,1
    38f0:	000a0513          	mv	a0,s4
    38f4:	b01fc0ef          	jal	3f4 <core_bench_list>
    38f8:	04415583          	lhu	a1,68(sp)
    38fc:	3c05250b          	th.ext	a0,a0,15,0
    3900:	558060ef          	jal	9e58 <crc16>
    3904:	04a11223          	sh	a0,68(sp)
    3908:	fff00593          	li	a1,-1
    390c:	000a0513          	mv	a0,s4
    3910:	ae5fc0ef          	jal	3f4 <core_bench_list>
    3914:	04415583          	lhu	a1,68(sp)
    3918:	3c05250b          	th.ext	a0,a0,15,0
    391c:	53c060ef          	jal	9e58 <crc16>
    3920:	04a11223          	sh	a0,68(sp)
    3924:	2a040263          	beqz	s0,3bc8 <main+0x6f0>
    3928:	00140413          	addi	s0,s0,1
    392c:	00100593          	li	a1,1
    3930:	000a0513          	mv	a0,s4
    3934:	ac1fc0ef          	jal	3f4 <core_bench_list>
    3938:	04415583          	lhu	a1,68(sp)
    393c:	3c05250b          	th.ext	a0,a0,15,0
    3940:	518060ef          	jal	9e58 <crc16>
    3944:	04a11223          	sh	a0,68(sp)
    3948:	fff00593          	li	a1,-1
    394c:	000a0513          	mv	a0,s4
    3950:	aa5fc0ef          	jal	3f4 <core_bench_list>
    3954:	04415583          	lhu	a1,68(sp)
    3958:	3c05250b          	th.ext	a0,a0,15,0
    395c:	4fc060ef          	jal	9e58 <crc16>
    3960:	04a11223          	sh	a0,68(sp)
    3964:	00041463          	bnez	s0,396c <main+0x494>
    3968:	04a11323          	sh	a0,70(sp)
    396c:	00140413          	addi	s0,s0,1
    3970:	228c0463          	beq	s8,s0,3b98 <main+0x6c0>
    3974:	00100593          	li	a1,1
    3978:	000a0513          	mv	a0,s4
    397c:	a79fc0ef          	jal	3f4 <core_bench_list>
    3980:	04415583          	lhu	a1,68(sp)
    3984:	3c05250b          	th.ext	a0,a0,15,0
    3988:	4d0060ef          	jal	9e58 <crc16>
    398c:	04a11223          	sh	a0,68(sp)
    3990:	fff00593          	li	a1,-1
    3994:	000a0513          	mv	a0,s4
    3998:	a5dfc0ef          	jal	3f4 <core_bench_list>
    399c:	04415583          	lhu	a1,68(sp)
    39a0:	3c05250b          	th.ext	a0,a0,15,0
    39a4:	4b4060ef          	jal	9e58 <crc16>
    39a8:	04a11223          	sh	a0,68(sp)
    39ac:	00041463          	bnez	s0,39b4 <main+0x4dc>
    39b0:	04a11323          	sh	a0,70(sp)
    39b4:	00100593          	li	a1,1
    39b8:	000a0513          	mv	a0,s4
    39bc:	00b40433          	add	s0,s0,a1
    39c0:	a35fc0ef          	jal	3f4 <core_bench_list>
    39c4:	04415583          	lhu	a1,68(sp)
    39c8:	3c05250b          	th.ext	a0,a0,15,0
    39cc:	48c060ef          	jal	9e58 <crc16>
    39d0:	04a11223          	sh	a0,68(sp)
    39d4:	fff00593          	li	a1,-1
    39d8:	000a0513          	mv	a0,s4
    39dc:	a19fc0ef          	jal	3f4 <core_bench_list>
    39e0:	04415583          	lhu	a1,68(sp)
    39e4:	3c05250b          	th.ext	a0,a0,15,0
    39e8:	470060ef          	jal	9e58 <crc16>
    39ec:	04a11223          	sh	a0,68(sp)
    39f0:	00041463          	bnez	s0,39f8 <main+0x520>
    39f4:	04a11323          	sh	a0,70(sp)
    39f8:	00100593          	li	a1,1
    39fc:	000a0513          	mv	a0,s4
    3a00:	00b404b3          	add	s1,s0,a1
    3a04:	9f1fc0ef          	jal	3f4 <core_bench_list>
    3a08:	04415583          	lhu	a1,68(sp)
    3a0c:	3c05250b          	th.ext	a0,a0,15,0
    3a10:	448060ef          	jal	9e58 <crc16>
    3a14:	04a11223          	sh	a0,68(sp)
    3a18:	fff00593          	li	a1,-1
    3a1c:	000a0513          	mv	a0,s4
    3a20:	9d5fc0ef          	jal	3f4 <core_bench_list>
    3a24:	04415583          	lhu	a1,68(sp)
    3a28:	3c05250b          	th.ext	a0,a0,15,0
    3a2c:	42c060ef          	jal	9e58 <crc16>
    3a30:	04a11223          	sh	a0,68(sp)
    3a34:	00049463          	bnez	s1,3a3c <main+0x564>
    3a38:	04a11323          	sh	a0,70(sp)
    3a3c:	00100593          	li	a1,1
    3a40:	000a0513          	mv	a0,s4
    3a44:	9b1fc0ef          	jal	3f4 <core_bench_list>
    3a48:	04415583          	lhu	a1,68(sp)
    3a4c:	3c05250b          	th.ext	a0,a0,15,0
    3a50:	00240b93          	addi	s7,s0,2
    3a54:	404060ef          	jal	9e58 <crc16>
    3a58:	04a11223          	sh	a0,68(sp)
    3a5c:	fff00593          	li	a1,-1
    3a60:	000a0513          	mv	a0,s4
    3a64:	991fc0ef          	jal	3f4 <core_bench_list>
    3a68:	04415583          	lhu	a1,68(sp)
    3a6c:	3c05250b          	th.ext	a0,a0,15,0
    3a70:	3e8060ef          	jal	9e58 <crc16>
    3a74:	04a11223          	sh	a0,68(sp)
    3a78:	000b9463          	bnez	s7,3a80 <main+0x5a8>
    3a7c:	04a11323          	sh	a0,70(sp)
    3a80:	00100593          	li	a1,1
    3a84:	000a0513          	mv	a0,s4
    3a88:	96dfc0ef          	jal	3f4 <core_bench_list>
    3a8c:	04415583          	lhu	a1,68(sp)
    3a90:	3c05250b          	th.ext	a0,a0,15,0
    3a94:	00340993          	addi	s3,s0,3
    3a98:	3c0060ef          	jal	9e58 <crc16>
    3a9c:	04a11223          	sh	a0,68(sp)
    3aa0:	fff00593          	li	a1,-1
    3aa4:	000a0513          	mv	a0,s4
    3aa8:	94dfc0ef          	jal	3f4 <core_bench_list>
    3aac:	04415583          	lhu	a1,68(sp)
    3ab0:	3c05250b          	th.ext	a0,a0,15,0
    3ab4:	3a4060ef          	jal	9e58 <crc16>
    3ab8:	04a11223          	sh	a0,68(sp)
    3abc:	00099463          	bnez	s3,3ac4 <main+0x5ec>
    3ac0:	04a11323          	sh	a0,70(sp)
    3ac4:	00100593          	li	a1,1
    3ac8:	000a0513          	mv	a0,s4
    3acc:	929fc0ef          	jal	3f4 <core_bench_list>
    3ad0:	04415583          	lhu	a1,68(sp)
    3ad4:	3c05250b          	th.ext	a0,a0,15,0
    3ad8:	00440c93          	addi	s9,s0,4
    3adc:	37c060ef          	jal	9e58 <crc16>
    3ae0:	04a11223          	sh	a0,68(sp)
    3ae4:	fff00593          	li	a1,-1
    3ae8:	000a0513          	mv	a0,s4
    3aec:	909fc0ef          	jal	3f4 <core_bench_list>
    3af0:	04415583          	lhu	a1,68(sp)
    3af4:	3c05250b          	th.ext	a0,a0,15,0
    3af8:	360060ef          	jal	9e58 <crc16>
    3afc:	04a11223          	sh	a0,68(sp)
    3b00:	000c9463          	bnez	s9,3b08 <main+0x630>
    3b04:	04a11323          	sh	a0,70(sp)
    3b08:	00100593          	li	a1,1
    3b0c:	000a0513          	mv	a0,s4
    3b10:	8e5fc0ef          	jal	3f4 <core_bench_list>
    3b14:	04415583          	lhu	a1,68(sp)
    3b18:	3c05250b          	th.ext	a0,a0,15,0
    3b1c:	00540913          	addi	s2,s0,5
    3b20:	338060ef          	jal	9e58 <crc16>
    3b24:	04a11223          	sh	a0,68(sp)
    3b28:	fff00593          	li	a1,-1
    3b2c:	000a0513          	mv	a0,s4
    3b30:	8c5fc0ef          	jal	3f4 <core_bench_list>
    3b34:	04415583          	lhu	a1,68(sp)
    3b38:	3c05250b          	th.ext	a0,a0,15,0
    3b3c:	31c060ef          	jal	9e58 <crc16>
    3b40:	04a11223          	sh	a0,68(sp)
    3b44:	00091463          	bnez	s2,3b4c <main+0x674>
    3b48:	04a11323          	sh	a0,70(sp)
    3b4c:	00100593          	li	a1,1
    3b50:	000a0513          	mv	a0,s4
    3b54:	8a1fc0ef          	jal	3f4 <core_bench_list>
    3b58:	04415583          	lhu	a1,68(sp)
    3b5c:	3c05250b          	th.ext	a0,a0,15,0
    3b60:	00640493          	addi	s1,s0,6
    3b64:	2f4060ef          	jal	9e58 <crc16>
    3b68:	04a11223          	sh	a0,68(sp)
    3b6c:	fff00593          	li	a1,-1
    3b70:	000a0513          	mv	a0,s4
    3b74:	881fc0ef          	jal	3f4 <core_bench_list>
    3b78:	04415583          	lhu	a1,68(sp)
    3b7c:	3c05250b          	th.ext	a0,a0,15,0
    3b80:	2d8060ef          	jal	9e58 <crc16>
    3b84:	04a11223          	sh	a0,68(sp)
    3b88:	00049463          	bnez	s1,3b90 <main+0x6b8>
    3b8c:	04a11323          	sh	a0,70(sp)
    3b90:	00740413          	addi	s0,s0,7
    3b94:	de8c10e3          	bne	s8,s0,3974 <main+0x49c>
    3b98:	604060ef          	jal	a19c <stop_time>
    3b9c:	69c060ef          	jal	a238 <get_time>
    3ba0:	6b0060ef          	jal	a250 <time_in_secs>
    3ba4:	ba0504e3          	beqz	a0,374c <main+0x274>
    3ba8:	00050593          	mv	a1,a0
    3bac:	00a00513          	li	a0,10
    3bb0:	1f4090ef          	jal	cda4 <__hidden___udivsi3>
    3bb4:	02812f83          	lw	t6,40(sp)
    3bb8:	00150713          	addi	a4,a0,1
    3bbc:	02ef82b3          	mul	t0,t6,a4
    3bc0:	02512423          	sw	t0,40(sp)
    3bc4:	a49ff06f          	j	360c <main+0x134>
    3bc8:	04a11323          	sh	a0,70(sp)
    3bcc:	d5dff06f          	j	3928 <main+0x450>
    3bd0:	04a11323          	sh	a0,70(sp)
    3bd4:	d15ff06f          	j	38e8 <main+0x410>
    3bd8:	04a11323          	sh	a0,70(sp)
    3bdc:	ccdff06f          	j	38a8 <main+0x3d0>
    3be0:	04a11323          	sh	a0,70(sp)
    3be4:	c85ff06f          	j	3868 <main+0x390>
    3be8:	04a11323          	sh	a0,70(sp)
    3bec:	c3dff06f          	j	3828 <main+0x350>
    3bf0:	000095b7          	lui	a1,0x9
    3bf4:	a0258613          	addi	a2,a1,-1534 # 8a02 <core_bench_state+0x102>
    3bf8:	1cc502e3          	beq	a0,a2,45bc <main+0x10e4>
    3bfc:	0000f6b7          	lui	a3,0xf
    3c00:	9f568513          	addi	a0,a3,-1547 # e9f5 <_data_load_start+0x1031>
    3c04:	16ac1063          	bne	s8,a0,3d64 <main+0x88c>
    3c08:	0000d837          	lui	a6,0xd
    3c0c:	ee080513          	addi	a0,a6,-288 # cee0 <__modsi3+0xc0>
    3c10:	6a0060ef          	jal	a2b0 <ee_printf>
    3c14:	00300c93          	li	s9,3
    3c18:	000104b7          	lui	s1,0x10
    3c1c:	0004a403          	lw	s0,0(s1) # 10000 <default_num_contexts>
    3c20:	1c040ae3          	beqz	s0,45f4 <main+0x111c>
    3c24:	07612823          	sw	s6,112(sp)
    3c28:	0000db37          	lui	s6,0xd
    3c2c:	07a12023          	sw	s10,96(sp)
    3c30:	544b0b13          	addi	s6,s6,1348 # d544 <list_known_crc>
    3c34:	0000dd37          	lui	s10,0xd
    3c38:	07512a23          	sw	s5,116(sp)
    3c3c:	05b12e23          	sw	s11,92(sp)
    3c40:	216caab3          	sh1add	s5,s9,s6
    3c44:	f3cd0d93          	addi	s11,s10,-196 # cf3c <__modsi3+0x11c>
    3c48:	00000a13          	li	s4,0
    3c4c:	00000413          	li	s0,0
    3c50:	0000dd37          	lui	s10,0xd
    3c54:	0280006f          	j	3c7c <main+0x7a4>
    3c58:	00890e33          	add	t3,s2,s0
    3c5c:	202e4f33          	sh2add	t5,t3,sp
    3c60:	04cf5383          	lhu	t2,76(t5)
    3c64:	0004a583          	lw	a1,0(s1)
    3c68:	014389b3          	add	s3,t2,s4
    3c6c:	00140a13          	addi	s4,s0,1
    3c70:	3c0a340b          	th.extu	s0,s4,15,0
    3c74:	00098a13          	mv	s4,s3
    3c78:	0cb47263          	bgeu	s0,a1,3d3c <main+0x864>
    3c7c:	00441913          	slli	s2,s0,0x4
    3c80:	00890fb3          	add	t6,s2,s0
    3c84:	05010713          	addi	a4,sp,80
    3c88:	20efc9b3          	sh2add	s3,t6,a4
    3c8c:	fdc9a783          	lw	a5,-36(s3)
    3c90:	fe099e23          	sh	zero,-4(s3)
    3c94:	0017f293          	andi	t0,a5,1
    3c98:	02028663          	beqz	t0,3cc4 <main+0x7ec>
    3c9c:	ff69d603          	lhu	a2,-10(s3)
    3ca0:	a39b468b          	th.lrhu	a3,s6,s9,1
    3ca4:	02d60063          	beq	a2,a3,3cc4 <main+0x7ec>
    3ca8:	00040593          	mv	a1,s0
    3cac:	000d8513          	mv	a0,s11
    3cb0:	600060ef          	jal	a2b0 <ee_printf>
    3cb4:	ffc9d303          	lhu	t1,-4(s3)
    3cb8:	fdc9a783          	lw	a5,-36(s3)
    3cbc:	00130393          	addi	t2,t1,1
    3cc0:	fe799e23          	sh	t2,-4(s3)
    3cc4:	0027f593          	andi	a1,a5,2
    3cc8:	02058c63          	beqz	a1,3d00 <main+0x828>
    3ccc:	00890633          	add	a2,s2,s0
    3cd0:	05010693          	addi	a3,sp,80
    3cd4:	20d649b3          	sh2add	s3,a2,a3
    3cd8:	ff89d603          	lhu	a2,-8(s3)
    3cdc:	00cad683          	lhu	a3,12(s5)
    3ce0:	02d60063          	beq	a2,a3,3d00 <main+0x828>
    3ce4:	00040593          	mv	a1,s0
    3ce8:	f6cd0513          	addi	a0,s10,-148 # cf6c <__modsi3+0x14c>
    3cec:	5c4060ef          	jal	a2b0 <ee_printf>
    3cf0:	ffc9d503          	lhu	a0,-4(s3)
    3cf4:	fdc9a783          	lw	a5,-36(s3)
    3cf8:	00150813          	addi	a6,a0,1
    3cfc:	ff099e23          	sh	a6,-4(s3)
    3d00:	0047f893          	andi	a7,a5,4
    3d04:	f4088ae3          	beqz	a7,3c58 <main+0x780>
    3d08:	00890933          	add	s2,s2,s0
    3d0c:	05010f93          	addi	t6,sp,80
    3d10:	21f949b3          	sh2add	s3,s2,t6
    3d14:	ffa9d603          	lhu	a2,-6(s3)
    3d18:	018ad683          	lhu	a3,24(s5)
    3d1c:	7ed61663          	bne	a2,a3,4508 <main+0x1030>
    3d20:	ffc9d383          	lhu	t2,-4(s3)
    3d24:	0004a583          	lw	a1,0(s1)
    3d28:	014389b3          	add	s3,t2,s4
    3d2c:	00140a13          	addi	s4,s0,1
    3d30:	3c0a340b          	th.extu	s0,s4,15,0
    3d34:	00098a13          	mv	s4,s3
    3d38:	f4b462e3          	bltu	s0,a1,3c7c <main+0x7a4>
    3d3c:	07412a83          	lw	s5,116(sp)
    3d40:	07012b03          	lw	s6,112(sp)
    3d44:	06012d03          	lw	s10,96(sp)
    3d48:	05c12d83          	lw	s11,92(sp)
    3d4c:	0240006f          	j	3d70 <main+0x898>
    3d50:	01011483          	lh	s1,16(sp)
    3d54:	80049ce3          	bnez	s1,356c <main+0x94>
    3d58:	06600593          	li	a1,102
    3d5c:	00b11823          	sh	a1,16(sp)
    3d60:	80dff06f          	j	356c <main+0x94>
    3d64:	000108b7          	lui	a7,0x10
    3d68:	fff88993          	addi	s3,a7,-1 # ffff <_data_load_start+0x263b>
    3d6c:	000104b7          	lui	s1,0x10
    3d70:	2f0060ef          	jal	a060 <check_data_types>
    3d74:	02412583          	lw	a1,36(sp)
    3d78:	0000d637          	lui	a2,0xd
    3d7c:	013509b3          	add	s3,a0,s3
    3d80:	fd060513          	addi	a0,a2,-48 # cfd0 <__modsi3+0x1b0>
    3d84:	52c060ef          	jal	a2b0 <ee_printf>
    3d88:	0000d6b7          	lui	a3,0xd
    3d8c:	000b8593          	mv	a1,s7
    3d90:	fe868513          	addi	a0,a3,-24 # cfe8 <__modsi3+0x1c8>
    3d94:	51c060ef          	jal	a2b0 <ee_printf>
    3d98:	000b8513          	mv	a0,s7
    3d9c:	4b4060ef          	jal	a250 <time_in_secs>
    3da0:	00050593          	mv	a1,a0
    3da4:	0000d537          	lui	a0,0xd
    3da8:	00050513          	mv	a0,a0
    3dac:	504060ef          	jal	a2b0 <ee_printf>
    3db0:	000b8513          	mv	a0,s7
    3db4:	49c060ef          	jal	a250 <time_in_secs>
    3db8:	78051c63          	bnez	a0,4550 <main+0x1078>
    3dbc:	000b8513          	mv	a0,s7
    3dc0:	490060ef          	jal	a250 <time_in_secs>
    3dc4:	00900b93          	li	s7,9
    3dc8:	76abfa63          	bgeu	s7,a0,453c <main+0x1064>
    3dcc:	02812e83          	lw	t4,40(sp)
    3dd0:	0004af03          	lw	t5,0(s1) # 10000 <default_num_contexts>
    3dd4:	0000dfb7          	lui	t6,0xd
    3dd8:	070f8513          	addi	a0,t6,112 # d070 <__modsi3+0x250>
    3ddc:	03ee85b3          	mul	a1,t4,t5
    3de0:	0000d437          	lui	s0,0xd
    3de4:	3c09aa0b          	th.ext	s4,s3,15,0
    3de8:	4c8060ef          	jal	a2b0 <ee_printf>
    3dec:	0000d737          	lui	a4,0xd
    3df0:	0000d2b7          	lui	t0,0xd
    3df4:	08870593          	addi	a1,a4,136 # d088 <__modsi3+0x268>
    3df8:	09428513          	addi	a0,t0,148 # d094 <__modsi3+0x274>
    3dfc:	4b4060ef          	jal	a2b0 <ee_printf>
    3e00:	0000d337          	lui	t1,0xd
    3e04:	0000d3b7          	lui	t2,0xd
    3e08:	0ac30593          	addi	a1,t1,172 # d0ac <__modsi3+0x28c>
    3e0c:	29838513          	addi	a0,t2,664 # d298 <__modsi3+0x478>
    3e10:	4a0060ef          	jal	a2b0 <ee_printf>
    3e14:	0000d5b7          	lui	a1,0xd
    3e18:	2b058593          	addi	a1,a1,688 # d2b0 <__modsi3+0x490>
    3e1c:	2bc40513          	addi	a0,s0,700 # d2bc <__modsi3+0x49c>
    3e20:	490060ef          	jal	a2b0 <ee_printf>
    3e24:	000c0593          	mv	a1,s8
    3e28:	0000dc37          	lui	s8,0xd
    3e2c:	2d4c0513          	addi	a0,s8,724 # d2d4 <__modsi3+0x4b4>
    3e30:	480060ef          	jal	a2b0 <ee_printf>
    3e34:	02c12b83          	lw	s7,44(sp)
    3e38:	001bfc93          	andi	s9,s7,1
    3e3c:	180c8c63          	beqz	s9,3fd4 <main+0xafc>
    3e40:	0004a603          	lw	a2,0(s1)
    3e44:	18060863          	beqz	a2,3fd4 <main+0xafc>
    3e48:	0000d6b7          	lui	a3,0xd
    3e4c:	2f068913          	addi	s2,a3,752 # d2f0 <__modsi3+0x4d0>
    3e50:	00000c93          	li	s9,0
    3e54:	004c9513          	slli	a0,s9,0x4
    3e58:	01950833          	add	a6,a0,s9
    3e5c:	202848b3          	sh2add	a7,a6,sp
    3e60:	0468d603          	lhu	a2,70(a7)
    3e64:	000c8593          	mv	a1,s9
    3e68:	00090513          	mv	a0,s2
    3e6c:	444060ef          	jal	a2b0 <ee_printf>
    3e70:	001c8e13          	addi	t3,s9,1
    3e74:	3c0e398b          	th.extu	s3,t3,15,0
    3e78:	0004ab83          	lw	s7,0(s1)
    3e7c:	00499e93          	slli	t4,s3,0x4
    3e80:	013e8f33          	add	t5,t4,s3
    3e84:	05010f93          	addi	t6,sp,80
    3e88:	00090513          	mv	a0,s2
    3e8c:	21ff4733          	sh2add	a4,t5,t6
    3e90:	00098593          	mv	a1,s3
    3e94:	1379fe63          	bgeu	s3,s7,3fd0 <main+0xaf8>
    3e98:	ff675603          	lhu	a2,-10(a4)
    3e9c:	05010c13          	addi	s8,sp,80
    3ea0:	410060ef          	jal	a2b0 <ee_printf>
    3ea4:	00198313          	addi	t1,s3,1
    3ea8:	3c03340b          	th.extu	s0,t1,15,0
    3eac:	0004a283          	lw	t0,0(s1)
    3eb0:	00441393          	slli	t2,s0,0x4
    3eb4:	008385b3          	add	a1,t2,s0
    3eb8:	2185ccb3          	sh2add	s9,a1,s8
    3ebc:	00090513          	mv	a0,s2
    3ec0:	00040593          	mv	a1,s0
    3ec4:	10547663          	bgeu	s0,t0,3fd0 <main+0xaf8>
    3ec8:	ff6cd603          	lhu	a2,-10(s9)
    3ecc:	3e4060ef          	jal	a2b0 <ee_printf>
    3ed0:	00140693          	addi	a3,s0,1
    3ed4:	3c06bb8b          	th.extu	s7,a3,15,0
    3ed8:	0004a603          	lw	a2,0(s1)
    3edc:	004b9813          	slli	a6,s7,0x4
    3ee0:	017807b3          	add	a5,a6,s7
    3ee4:	05010893          	addi	a7,sp,80
    3ee8:	00090513          	mv	a0,s2
    3eec:	2117ce33          	sh2add	t3,a5,a7
    3ef0:	000b8593          	mv	a1,s7
    3ef4:	0ccbfe63          	bgeu	s7,a2,3fd0 <main+0xaf8>
    3ef8:	ff6e5603          	lhu	a2,-10(t3)
    3efc:	3b4060ef          	jal	a2b0 <ee_printf>
    3f00:	001b8e93          	addi	t4,s7,1
    3f04:	3c0eb40b          	th.extu	s0,t4,15,0
    3f08:	0004a983          	lw	s3,0(s1)
    3f0c:	00441f13          	slli	t5,s0,0x4
    3f10:	008f0fb3          	add	t6,t5,s0
    3f14:	05010713          	addi	a4,sp,80
    3f18:	00090513          	mv	a0,s2
    3f1c:	20efc2b3          	sh2add	t0,t6,a4
    3f20:	00040593          	mv	a1,s0
    3f24:	0b347663          	bgeu	s0,s3,3fd0 <main+0xaf8>
    3f28:	ff62d603          	lhu	a2,-10(t0)
    3f2c:	384060ef          	jal	a2b0 <ee_printf>
    3f30:	00140393          	addi	t2,s0,1
    3f34:	3c03bc0b          	th.extu	s8,t2,15,0
    3f38:	0004a303          	lw	t1,0(s1)
    3f3c:	004c1593          	slli	a1,s8,0x4
    3f40:	01858cb3          	add	s9,a1,s8
    3f44:	05010613          	addi	a2,sp,80
    3f48:	00090513          	mv	a0,s2
    3f4c:	20ccc6b3          	sh2add	a3,s9,a2
    3f50:	000c0593          	mv	a1,s8
    3f54:	066c7e63          	bgeu	s8,t1,3fd0 <main+0xaf8>
    3f58:	ff66d603          	lhu	a2,-10(a3)
    3f5c:	354060ef          	jal	a2b0 <ee_printf>
    3f60:	001c0813          	addi	a6,s8,1
    3f64:	3c08398b          	th.extu	s3,a6,15,0
    3f68:	0004ab83          	lw	s7,0(s1)
    3f6c:	00499793          	slli	a5,s3,0x4
    3f70:	013788b3          	add	a7,a5,s3
    3f74:	05010e13          	addi	t3,sp,80
    3f78:	00090513          	mv	a0,s2
    3f7c:	21c8ceb3          	sh2add	t4,a7,t3
    3f80:	00098593          	mv	a1,s3
    3f84:	0579f663          	bgeu	s3,s7,3fd0 <main+0xaf8>
    3f88:	ff6ed603          	lhu	a2,-10(t4)
    3f8c:	00198413          	addi	s0,s3,1
    3f90:	3c043c0b          	th.extu	s8,s0,15,0
    3f94:	31c060ef          	jal	a2b0 <ee_printf>
    3f98:	0004af03          	lw	t5,0(s1)
    3f9c:	004c1f93          	slli	t6,s8,0x4
    3fa0:	018f8733          	add	a4,t6,s8
    3fa4:	05010293          	addi	t0,sp,80
    3fa8:	00090513          	mv	a0,s2
    3fac:	20574333          	sh2add	t1,a4,t0
    3fb0:	000c0593          	mv	a1,s8
    3fb4:	01ec7e63          	bgeu	s8,t5,3fd0 <main+0xaf8>
    3fb8:	ff635603          	lhu	a2,-10(t1)
    3fbc:	2f4060ef          	jal	a2b0 <ee_printf>
    3fc0:	0004a503          	lw	a0,0(s1)
    3fc4:	001c0393          	addi	t2,s8,1
    3fc8:	3c03bc8b          	th.extu	s9,t2,15,0
    3fcc:	e8ace4e3          	bltu	s9,a0,3e54 <main+0x97c>
    3fd0:	02c12b83          	lw	s7,44(sp)
    3fd4:	002bf913          	andi	s2,s7,2
    3fd8:	18090c63          	beqz	s2,4170 <main+0xc98>
    3fdc:	0004a583          	lw	a1,0(s1)
    3fe0:	60058e63          	beqz	a1,45fc <main+0x1124>
    3fe4:	0000d6b7          	lui	a3,0xd
    3fe8:	30c68b93          	addi	s7,a3,780 # d30c <__modsi3+0x4ec>
    3fec:	00000413          	li	s0,0
    3ff0:	00441813          	slli	a6,s0,0x4
    3ff4:	008809b3          	add	s3,a6,s0
    3ff8:	2029c8b3          	sh2add	a7,s3,sp
    3ffc:	0488d603          	lhu	a2,72(a7)
    4000:	00040593          	mv	a1,s0
    4004:	000b8513          	mv	a0,s7
    4008:	2a8060ef          	jal	a2b0 <ee_printf>
    400c:	00140e93          	addi	t4,s0,1
    4010:	3c0eb40b          	th.extu	s0,t4,15,0
    4014:	0004ae03          	lw	t3,0(s1)
    4018:	00441f13          	slli	t5,s0,0x4
    401c:	008f0c33          	add	s8,t5,s0
    4020:	05010f93          	addi	t6,sp,80
    4024:	000b8513          	mv	a0,s7
    4028:	21fc4733          	sh2add	a4,s8,t6
    402c:	00040593          	mv	a1,s0
    4030:	13c47e63          	bgeu	s0,t3,416c <main+0xc94>
    4034:	ff875603          	lhu	a2,-8(a4)
    4038:	278060ef          	jal	a2b0 <ee_printf>
    403c:	00140313          	addi	t1,s0,1
    4040:	3c033c8b          	th.extu	s9,t1,15,0
    4044:	0004a283          	lw	t0,0(s1)
    4048:	004c9393          	slli	t2,s9,0x4
    404c:	05010593          	addi	a1,sp,80
    4050:	01938933          	add	s2,t2,s9
    4054:	20b94633          	sh2add	a2,s2,a1
    4058:	000b8513          	mv	a0,s7
    405c:	000c8593          	mv	a1,s9
    4060:	105cf663          	bgeu	s9,t0,416c <main+0xc94>
    4064:	ff865603          	lhu	a2,-8(a2)
    4068:	248060ef          	jal	a2b0 <ee_printf>
    406c:	001c8693          	addi	a3,s9,1
    4070:	3c06b98b          	th.extu	s3,a3,15,0
    4074:	0004a803          	lw	a6,0(s1)
    4078:	00499793          	slli	a5,s3,0x4
    407c:	013788b3          	add	a7,a5,s3
    4080:	05010e13          	addi	t3,sp,80
    4084:	000b8513          	mv	a0,s7
    4088:	21c8ceb3          	sh2add	t4,a7,t3
    408c:	00098593          	mv	a1,s3
    4090:	0d09fe63          	bgeu	s3,a6,416c <main+0xc94>
    4094:	ff8ed603          	lhu	a2,-8(t4)
    4098:	00198413          	addi	s0,s3,1
    409c:	3c043c0b          	th.extu	s8,s0,15,0
    40a0:	210060ef          	jal	a2b0 <ee_printf>
    40a4:	0004af03          	lw	t5,0(s1)
    40a8:	004c1f93          	slli	t6,s8,0x4
    40ac:	018f8733          	add	a4,t6,s8
    40b0:	05010293          	addi	t0,sp,80
    40b4:	000b8513          	mv	a0,s7
    40b8:	20574333          	sh2add	t1,a4,t0
    40bc:	000c0593          	mv	a1,s8
    40c0:	0bec7663          	bgeu	s8,t5,416c <main+0xc94>
    40c4:	ff835603          	lhu	a2,-8(t1)
    40c8:	1e8060ef          	jal	a2b0 <ee_printf>
    40cc:	001c0393          	addi	t2,s8,1
    40d0:	3c03b90b          	th.extu	s2,t2,15,0
    40d4:	0004ac83          	lw	s9,0(s1)
    40d8:	00491593          	slli	a1,s2,0x4
    40dc:	01258633          	add	a2,a1,s2
    40e0:	05010813          	addi	a6,sp,80
    40e4:	000b8513          	mv	a0,s7
    40e8:	210646b3          	sh2add	a3,a2,a6
    40ec:	00090593          	mv	a1,s2
    40f0:	07997e63          	bgeu	s2,s9,416c <main+0xc94>
    40f4:	ff86d603          	lhu	a2,-8(a3)
    40f8:	1b8060ef          	jal	a2b0 <ee_printf>
    40fc:	00190793          	addi	a5,s2,1
    4100:	3c07b40b          	th.extu	s0,a5,15,0
    4104:	0004a983          	lw	s3,0(s1)
    4108:	00441893          	slli	a7,s0,0x4
    410c:	00888e33          	add	t3,a7,s0
    4110:	05010e93          	addi	t4,sp,80
    4114:	000b8513          	mv	a0,s7
    4118:	21de4f33          	sh2add	t5,t3,t4
    411c:	00040593          	mv	a1,s0
    4120:	05347663          	bgeu	s0,s3,416c <main+0xc94>
    4124:	ff8f5603          	lhu	a2,-8(t5)
    4128:	188060ef          	jal	a2b0 <ee_printf>
    412c:	00140f93          	addi	t6,s0,1
    4130:	3c0fbc8b          	th.extu	s9,t6,15,0
    4134:	0004ac03          	lw	s8,0(s1)
    4138:	004c9713          	slli	a4,s9,0x4
    413c:	019702b3          	add	t0,a4,s9
    4140:	05010313          	addi	t1,sp,80
    4144:	000b8513          	mv	a0,s7
    4148:	2062c3b3          	sh2add	t2,t0,t1
    414c:	000c8593          	mv	a1,s9
    4150:	018cfe63          	bgeu	s9,s8,416c <main+0xc94>
    4154:	ff83d603          	lhu	a2,-8(t2)
    4158:	001c8913          	addi	s2,s9,1
    415c:	3c09340b          	th.extu	s0,s2,15,0
    4160:	150060ef          	jal	a2b0 <ee_printf>
    4164:	0004a503          	lw	a0,0(s1)
    4168:	e8a464e3          	bltu	s0,a0,3ff0 <main+0xb18>
    416c:	02c12b83          	lw	s7,44(sp)
    4170:	004bf593          	andi	a1,s7,4
    4174:	18058a63          	beqz	a1,4308 <main+0xe30>
    4178:	0004a603          	lw	a2,0(s1)
    417c:	30060e63          	beqz	a2,4498 <main+0xfc0>
    4180:	0000d837          	lui	a6,0xd
    4184:	32880993          	addi	s3,a6,808 # d328 <__modsi3+0x508>
    4188:	00000c13          	li	s8,0
    418c:	004c1693          	slli	a3,s8,0x4
    4190:	018687b3          	add	a5,a3,s8
    4194:	2027ce33          	sh2add	t3,a5,sp
    4198:	04ae5603          	lhu	a2,74(t3)
    419c:	000c0593          	mv	a1,s8
    41a0:	00098513          	mv	a0,s3
    41a4:	10c060ef          	jal	a2b0 <ee_printf>
    41a8:	001c0f13          	addi	t5,s8,1
    41ac:	3c0f3c0b          	th.extu	s8,t5,15,0
    41b0:	0004ae83          	lw	t4,0(s1)
    41b4:	004c1f93          	slli	t6,s8,0x4
    41b8:	018f8cb3          	add	s9,t6,s8
    41bc:	05010713          	addi	a4,sp,80
    41c0:	00098513          	mv	a0,s3
    41c4:	20ecc2b3          	sh2add	t0,s9,a4
    41c8:	000c0593          	mv	a1,s8
    41cc:	13dc7e63          	bgeu	s8,t4,4308 <main+0xe30>
    41d0:	ffa2d603          	lhu	a2,-6(t0)
    41d4:	0dc060ef          	jal	a2b0 <ee_printf>
    41d8:	001c0393          	addi	t2,s8,1
    41dc:	3c03b90b          	th.extu	s2,t2,15,0
    41e0:	0004a303          	lw	t1,0(s1)
    41e4:	00491413          	slli	s0,s2,0x4
    41e8:	05010593          	addi	a1,sp,80
    41ec:	01240bb3          	add	s7,s0,s2
    41f0:	20bbc633          	sh2add	a2,s7,a1
    41f4:	00098513          	mv	a0,s3
    41f8:	00090593          	mv	a1,s2
    41fc:	10697663          	bgeu	s2,t1,4308 <main+0xe30>
    4200:	ffa65603          	lhu	a2,-6(a2)
    4204:	0ac060ef          	jal	a2b0 <ee_printf>
    4208:	00190693          	addi	a3,s2,1
    420c:	3c06bc0b          	th.extu	s8,a3,15,0
    4210:	0004a803          	lw	a6,0(s1)
    4214:	004c1793          	slli	a5,s8,0x4
    4218:	018788b3          	add	a7,a5,s8
    421c:	05010e13          	addi	t3,sp,80
    4220:	00098513          	mv	a0,s3
    4224:	21c8ceb3          	sh2add	t4,a7,t3
    4228:	000c0593          	mv	a1,s8
    422c:	0d0c7e63          	bgeu	s8,a6,4308 <main+0xe30>
    4230:	ffaed603          	lhu	a2,-6(t4)
    4234:	07c060ef          	jal	a2b0 <ee_printf>
    4238:	001c0f93          	addi	t6,s8,1
    423c:	3c0fbc8b          	th.extu	s9,t6,15,0
    4240:	0004af03          	lw	t5,0(s1)
    4244:	004c9713          	slli	a4,s9,0x4
    4248:	019702b3          	add	t0,a4,s9
    424c:	05010313          	addi	t1,sp,80
    4250:	00098513          	mv	a0,s3
    4254:	2062c3b3          	sh2add	t2,t0,t1
    4258:	000c8593          	mv	a1,s9
    425c:	0becf663          	bgeu	s9,t5,4308 <main+0xe30>
    4260:	ffa3d603          	lhu	a2,-6(t2)
    4264:	001c8413          	addi	s0,s9,1
    4268:	3c043b8b          	th.extu	s7,s0,15,0
    426c:	044060ef          	jal	a2b0 <ee_printf>
    4270:	0004a903          	lw	s2,0(s1)
    4274:	004b9593          	slli	a1,s7,0x4
    4278:	01758633          	add	a2,a1,s7
    427c:	05010813          	addi	a6,sp,80
    4280:	00098513          	mv	a0,s3
    4284:	210646b3          	sh2add	a3,a2,a6
    4288:	000b8593          	mv	a1,s7
    428c:	072bfe63          	bgeu	s7,s2,4308 <main+0xe30>
    4290:	ffa6d603          	lhu	a2,-6(a3)
    4294:	01c060ef          	jal	a2b0 <ee_printf>
    4298:	001b8793          	addi	a5,s7,1
    429c:	3c07bc8b          	th.extu	s9,a5,15,0
    42a0:	0004ac03          	lw	s8,0(s1)
    42a4:	004c9893          	slli	a7,s9,0x4
    42a8:	01988e33          	add	t3,a7,s9
    42ac:	05010e93          	addi	t4,sp,80
    42b0:	00098513          	mv	a0,s3
    42b4:	21de4f33          	sh2add	t5,t3,t4
    42b8:	000c8593          	mv	a1,s9
    42bc:	058cf663          	bgeu	s9,s8,4308 <main+0xe30>
    42c0:	ffaf5603          	lhu	a2,-6(t5)
    42c4:	7ed050ef          	jal	a2b0 <ee_printf>
    42c8:	001c8713          	addi	a4,s9,1
    42cc:	3c07390b          	th.extu	s2,a4,15,0
    42d0:	0004af83          	lw	t6,0(s1)
    42d4:	00491293          	slli	t0,s2,0x4
    42d8:	01228333          	add	t1,t0,s2
    42dc:	05010393          	addi	t2,sp,80
    42e0:	00098513          	mv	a0,s3
    42e4:	20734433          	sh2add	s0,t1,t2
    42e8:	00090593          	mv	a1,s2
    42ec:	01f97e63          	bgeu	s2,t6,4308 <main+0xe30>
    42f0:	ffa45603          	lhu	a2,-6(s0)
    42f4:	00190b93          	addi	s7,s2,1
    42f8:	3c0bbc0b          	th.extu	s8,s7,15,0
    42fc:	7b5050ef          	jal	a2b0 <ee_printf>
    4300:	0004a503          	lw	a0,0(s1)
    4304:	e8ac64e3          	bltu	s8,a0,418c <main+0xcb4>
    4308:	0004a983          	lw	s3,0(s1)
    430c:	18098663          	beqz	s3,4498 <main+0xfc0>
    4310:	0000d5b7          	lui	a1,0xd
    4314:	34458c93          	addi	s9,a1,836 # d344 <__modsi3+0x524>
    4318:	00000c13          	li	s8,0
    431c:	004c1613          	slli	a2,s8,0x4
    4320:	01860833          	add	a6,a2,s8
    4324:	202847b3          	sh2add	a5,a6,sp
    4328:	0447d603          	lhu	a2,68(a5)
    432c:	000c0593          	mv	a1,s8
    4330:	000c8513          	mv	a0,s9
    4334:	77d050ef          	jal	a2b0 <ee_printf>
    4338:	001c0e13          	addi	t3,s8,1
    433c:	3c0e390b          	th.extu	s2,t3,15,0
    4340:	0004a883          	lw	a7,0(s1)
    4344:	00491e93          	slli	t4,s2,0x4
    4348:	012e8f33          	add	t5,t4,s2
    434c:	05010f93          	addi	t6,sp,80
    4350:	000c8513          	mv	a0,s9
    4354:	21ff4733          	sh2add	a4,t5,t6
    4358:	00090593          	mv	a1,s2
    435c:	13197e63          	bgeu	s2,a7,4498 <main+0xfc0>
    4360:	ff475603          	lhu	a2,-12(a4)
    4364:	05010c13          	addi	s8,sp,80
    4368:	749050ef          	jal	a2b0 <ee_printf>
    436c:	00190313          	addi	t1,s2,1
    4370:	3c03340b          	th.extu	s0,t1,15,0
    4374:	0004a283          	lw	t0,0(s1)
    4378:	00441393          	slli	t2,s0,0x4
    437c:	00838bb3          	add	s7,t2,s0
    4380:	000c8513          	mv	a0,s9
    4384:	218bc9b3          	sh2add	s3,s7,s8
    4388:	00040593          	mv	a1,s0
    438c:	10547663          	bgeu	s0,t0,4498 <main+0xfc0>
    4390:	ff49d603          	lhu	a2,-12(s3)
    4394:	71d050ef          	jal	a2b0 <ee_printf>
    4398:	00140593          	addi	a1,s0,1
    439c:	3c05b90b          	th.extu	s2,a1,15,0
    43a0:	0004a603          	lw	a2,0(s1)
    43a4:	00491813          	slli	a6,s2,0x4
    43a8:	012807b3          	add	a5,a6,s2
    43ac:	05010693          	addi	a3,sp,80
    43b0:	000c8513          	mv	a0,s9
    43b4:	20d7c8b3          	sh2add	a7,a5,a3
    43b8:	00090593          	mv	a1,s2
    43bc:	0cc97e63          	bgeu	s2,a2,4498 <main+0xfc0>
    43c0:	ff48d603          	lhu	a2,-12(a7)
    43c4:	6ed050ef          	jal	a2b0 <ee_printf>
    43c8:	00190e93          	addi	t4,s2,1
    43cc:	3c0eb40b          	th.extu	s0,t4,15,0
    43d0:	0004ae03          	lw	t3,0(s1)
    43d4:	00441f13          	slli	t5,s0,0x4
    43d8:	008f0fb3          	add	t6,t5,s0
    43dc:	05010713          	addi	a4,sp,80
    43e0:	000c8513          	mv	a0,s9
    43e4:	20efc2b3          	sh2add	t0,t6,a4
    43e8:	00040593          	mv	a1,s0
    43ec:	0bc47663          	bgeu	s0,t3,4498 <main+0xfc0>
    43f0:	ff42d603          	lhu	a2,-12(t0)
    43f4:	6bd050ef          	jal	a2b0 <ee_printf>
    43f8:	00140393          	addi	t2,s0,1
    43fc:	3c03bb8b          	th.extu	s7,t2,15,0
    4400:	0004a303          	lw	t1,0(s1)
    4404:	004b9c13          	slli	s8,s7,0x4
    4408:	017c09b3          	add	s3,s8,s7
    440c:	05010613          	addi	a2,sp,80
    4410:	000c8513          	mv	a0,s9
    4414:	20c9c933          	sh2add	s2,s3,a2
    4418:	000b8593          	mv	a1,s7
    441c:	066bfe63          	bgeu	s7,t1,4498 <main+0xfc0>
    4420:	ff495603          	lhu	a2,-12(s2)
    4424:	68d050ef          	jal	a2b0 <ee_printf>
    4428:	001b8593          	addi	a1,s7,1
    442c:	3c05b40b          	th.extu	s0,a1,15,0
    4430:	0004a803          	lw	a6,0(s1)
    4434:	00441793          	slli	a5,s0,0x4
    4438:	008788b3          	add	a7,a5,s0
    443c:	05010693          	addi	a3,sp,80
    4440:	000c8513          	mv	a0,s9
    4444:	20d8ce33          	sh2add	t3,a7,a3
    4448:	00040593          	mv	a1,s0
    444c:	05047663          	bgeu	s0,a6,4498 <main+0xfc0>
    4450:	ff4e5603          	lhu	a2,-12(t3)
    4454:	65d050ef          	jal	a2b0 <ee_printf>
    4458:	00140f13          	addi	t5,s0,1
    445c:	3c0f3b8b          	th.extu	s7,t5,15,0
    4460:	0004ae83          	lw	t4,0(s1)
    4464:	004b9f93          	slli	t6,s7,0x4
    4468:	017f8733          	add	a4,t6,s7
    446c:	05010293          	addi	t0,sp,80
    4470:	000c8513          	mv	a0,s9
    4474:	20574333          	sh2add	t1,a4,t0
    4478:	000b8593          	mv	a1,s7
    447c:	01dbfe63          	bgeu	s7,t4,4498 <main+0xfc0>
    4480:	ff435603          	lhu	a2,-12(t1)
    4484:	62d050ef          	jal	a2b0 <ee_printf>
    4488:	0004a503          	lw	a0,0(s1)
    448c:	001b8393          	addi	t2,s7,1
    4490:	3c03bc0b          	th.extu	s8,t2,15,0
    4494:	e8ac64e3          	bltu	s8,a0,431c <main+0xe44>
    4498:	080a0a63          	beqz	s4,452c <main+0x1054>
    449c:	0f405463          	blez	s4,4584 <main+0x10ac>
    44a0:	0000da37          	lui	s4,0xd
    44a4:	410a0513          	addi	a0,s4,1040 # d410 <__modsi3+0x5f0>
    44a8:	609050ef          	jal	a2b0 <ee_printf>
    44ac:	04e10513          	addi	a0,sp,78
    44b0:	5d5050ef          	jal	a284 <portable_fini>
    44b4:	08c12083          	lw	ra,140(sp)
    44b8:	08812403          	lw	s0,136(sp)
    44bc:	08412483          	lw	s1,132(sp)
    44c0:	08012903          	lw	s2,128(sp)
    44c4:	07c12983          	lw	s3,124(sp)
    44c8:	07812a03          	lw	s4,120(sp)
    44cc:	06c12b83          	lw	s7,108(sp)
    44d0:	06812c03          	lw	s8,104(sp)
    44d4:	06412c83          	lw	s9,100(sp)
    44d8:	00000513          	li	a0,0
    44dc:	09010113          	addi	sp,sp,144
    44e0:	00008067          	ret
    44e4:	00010cb7          	lui	s9,0x10
    44e8:	fffc8993          	addi	s3,s9,-1 # ffff <_data_load_start+0x263b>
    44ec:	000104b7          	lui	s1,0x10
    44f0:	881ff06f          	j	3d70 <main+0x898>
    44f4:	01712c23          	sw	s7,24(sp)
    44f8:	00400413          	li	s0,4
    44fc:	9d4ff06f          	j	36d0 <main+0x1f8>
    4500:	01712c23          	sw	s7,24(sp)
    4504:	8acff06f          	j	35b0 <main+0xd8>
    4508:	0000d737          	lui	a4,0xd
    450c:	fa070513          	addi	a0,a4,-96 # cfa0 <__modsi3+0x180>
    4510:	00040593          	mv	a1,s0
    4514:	59d050ef          	jal	a2b0 <ee_printf>
    4518:	ffc9d283          	lhu	t0,-4(s3)
    451c:	00128313          	addi	t1,t0,1
    4520:	3c03338b          	th.extu	t2,t1,15,0
    4524:	fe799e23          	sh	t2,-4(s3)
    4528:	f3cff06f          	j	3c64 <main+0x78c>
    452c:	0000dcb7          	lui	s9,0xd
    4530:	360c8513          	addi	a0,s9,864 # d360 <__modsi3+0x540>
    4534:	57d050ef          	jal	a2b0 <ee_printf>
    4538:	f75ff06f          	j	44ac <main+0xfd4>
    453c:	0000de37          	lui	t3,0xd
    4540:	030e0513          	addi	a0,t3,48 # d030 <__modsi3+0x210>
    4544:	56d050ef          	jal	a2b0 <ee_printf>
    4548:	00198993          	addi	s3,s3,1
    454c:	881ff06f          	j	3dcc <main+0x8f4>
    4550:	02812803          	lw	a6,40(sp)
    4554:	0004a783          	lw	a5,0(s1) # 10000 <default_num_contexts>
    4558:	000b8513          	mv	a0,s7
    455c:	02f80933          	mul	s2,a6,a5
    4560:	4f1050ef          	jal	a250 <time_in_secs>
    4564:	00050593          	mv	a1,a0
    4568:	00090513          	mv	a0,s2
    456c:	039080ef          	jal	cda4 <__hidden___udivsi3>
    4570:	0000d8b7          	lui	a7,0xd
    4574:	00050593          	mv	a1,a0
    4578:	01888513          	addi	a0,a7,24 # d018 <__modsi3+0x1f8>
    457c:	535050ef          	jal	a2b0 <ee_printf>
    4580:	83dff06f          	j	3dbc <main+0x8e4>
    4584:	0000d4b7          	lui	s1,0xd
    4588:	3ac48513          	addi	a0,s1,940 # d3ac <__modsi3+0x58c>
    458c:	525050ef          	jal	a2b0 <ee_printf>
    4590:	f1dff06f          	j	44ac <main+0xfd4>
    4594:	0000df37          	lui	t5,0xd
    4598:	f10f0513          	addi	a0,t5,-240 # cf10 <__modsi3+0xf0>
    459c:	515050ef          	jal	a2b0 <ee_printf>
    45a0:	00400c93          	li	s9,4
    45a4:	e74ff06f          	j	3c18 <main+0x740>
    45a8:	0000d3b7          	lui	t2,0xd
    45ac:	e8038513          	addi	a0,t2,-384 # ce80 <__modsi3+0x60>
    45b0:	501050ef          	jal	a2b0 <ee_printf>
    45b4:	00100c93          	li	s9,1
    45b8:	e60ff06f          	j	3c18 <main+0x740>
    45bc:	0000da37          	lui	s4,0xd
    45c0:	e50a0513          	addi	a0,s4,-432 # ce50 <__modsi3+0x30>
    45c4:	4ed050ef          	jal	a2b0 <ee_printf>
    45c8:	00000c93          	li	s9,0
    45cc:	e4cff06f          	j	3c18 <main+0x740>
    45d0:	01011283          	lh	t0,16(sp)
    45d4:	00028463          	beqz	t0,45dc <main+0x1104>
    45d8:	f95fe06f          	j	356c <main+0x94>
    45dc:	34153337          	lui	t1,0x34153
    45e0:	41530393          	addi	t2,t1,1045 # 34153415 <_stack_top+0x3413f415>
    45e4:	06600413          	li	s0,102
    45e8:	00712623          	sw	t2,12(sp)
    45ec:	00811823          	sh	s0,16(sp)
    45f0:	f7dfe06f          	j	356c <main+0x94>
    45f4:	00000993          	li	s3,0
    45f8:	f78ff06f          	j	3d70 <main+0x898>
    45fc:	004bf613          	andi	a2,s7,4
    4600:	d00604e3          	beqz	a2,4308 <main+0xe30>
    4604:	e95ff06f          	j	4498 <main+0xfc0>

00004608 <core_bench_matrix>:
    4608:	00052803          	lw	a6,0(a0) # d000 <__modsi3+0x1e0>
    460c:	fc010113          	addi	sp,sp,-64
    4610:	01b12623          	sw	s11,12(sp)
    4614:	02112e23          	sw	ra,60(sp)
    4618:	00060d93          	mv	s11,a2
    461c:	00081463          	bnez	a6,4624 <core_bench_matrix+0x1c>
    4620:	7580106f          	j	5d78 <core_bench_matrix+0x1770>
    4624:	03412423          	sw	s4,40(sp)
    4628:	00452a03          	lw	s4,4(a0)
    462c:	03512223          	sw	s5,36(sp)
    4630:	01912a23          	sw	s9,20(sp)
    4634:	00852a83          	lw	s5,8(a0)
    4638:	00c52c83          	lw	s9,12(a0)
    463c:	03212823          	sw	s2,48(sp)
    4640:	01812c23          	sw	s8,24(sp)
    4644:	fffff937          	lui	s2,0xfffff
    4648:	21482c33          	sh1add	s8,a6,s4
    464c:	02812c23          	sw	s0,56(sp)
    4650:	03312623          	sw	s3,44(sp)
    4654:	01a12823          	sw	s10,16(sp)
    4658:	02912a23          	sw	s1,52(sp)
    465c:	03612023          	sw	s6,32(sp)
    4660:	01712e23          	sw	s7,28(sp)
    4664:	00058993          	mv	s3,a1
    4668:	0125e933          	or	s2,a1,s2
    466c:	000c0693          	mv	a3,s8
    4670:	00181413          	slli	s0,a6,0x1
    4674:	00000d13          	li	s10,0
    4678:	ffe40713          	addi	a4,s0,-2
    467c:	00175293          	srli	t0,a4,0x1
    4680:	00128313          	addi	t1,t0,1
    4684:	00737393          	andi	t2,t1,7
    4688:	408687b3          	sub	a5,a3,s0
    468c:	0a038463          	beqz	t2,4734 <core_bench_matrix+0x12c>
    4690:	00100613          	li	a2,1
    4694:	08c38663          	beq	t2,a2,4720 <core_bench_matrix+0x118>
    4698:	00200493          	li	s1,2
    469c:	06938a63          	beq	t2,s1,4710 <core_bench_matrix+0x108>
    46a0:	00300513          	li	a0,3
    46a4:	04a38e63          	beq	t2,a0,4700 <core_bench_matrix+0xf8>
    46a8:	00400593          	li	a1,4
    46ac:	04b38263          	beq	t2,a1,46f0 <core_bench_matrix+0xe8>
    46b0:	00500893          	li	a7,5
    46b4:	03138663          	beq	t2,a7,46e0 <core_bench_matrix+0xd8>
    46b8:	00600b13          	li	s6,6
    46bc:	01638a63          	beq	t2,s6,46d0 <core_bench_matrix+0xc8>
    46c0:	0007db83          	lhu	s7,0(a5)
    46c4:	00278793          	addi	a5,a5,2
    46c8:	01798e33          	add	t3,s3,s7
    46cc:	ffc79f23          	sh	t3,-2(a5)
    46d0:	0007de83          	lhu	t4,0(a5)
    46d4:	00278793          	addi	a5,a5,2
    46d8:	01d98f33          	add	t5,s3,t4
    46dc:	ffe79f23          	sh	t5,-2(a5)
    46e0:	0007df83          	lhu	t6,0(a5)
    46e4:	00278793          	addi	a5,a5,2
    46e8:	01f98733          	add	a4,s3,t6
    46ec:	fee79f23          	sh	a4,-2(a5)
    46f0:	0007d283          	lhu	t0,0(a5)
    46f4:	00278793          	addi	a5,a5,2
    46f8:	00598333          	add	t1,s3,t0
    46fc:	fe679f23          	sh	t1,-2(a5)
    4700:	0007d383          	lhu	t2,0(a5)
    4704:	00278793          	addi	a5,a5,2
    4708:	00798633          	add	a2,s3,t2
    470c:	fec79f23          	sh	a2,-2(a5)
    4710:	0007d483          	lhu	s1,0(a5)
    4714:	00278793          	addi	a5,a5,2
    4718:	00998533          	add	a0,s3,s1
    471c:	fea79f23          	sh	a0,-2(a5)
    4720:	0007d583          	lhu	a1,0(a5)
    4724:	00278793          	addi	a5,a5,2
    4728:	00b988b3          	add	a7,s3,a1
    472c:	ff179f23          	sh	a7,-2(a5)
    4730:	06d78663          	beq	a5,a3,479c <core_bench_matrix+0x194>
    4734:	0007db03          	lhu	s6,0(a5)
    4738:	0027db83          	lhu	s7,2(a5)
    473c:	0047df03          	lhu	t5,4(a5)
    4740:	0067df83          	lhu	t6,6(a5)
    4744:	0087d283          	lhu	t0,8(a5)
    4748:	00a7d383          	lhu	t2,10(a5)
    474c:	00c7d603          	lhu	a2,12(a5)
    4750:	00e7d703          	lhu	a4,14(a5)
    4754:	01698eb3          	add	t4,s3,s6
    4758:	01798e33          	add	t3,s3,s7
    475c:	01e98333          	add	t1,s3,t5
    4760:	01f984b3          	add	s1,s3,t6
    4764:	00598533          	add	a0,s3,t0
    4768:	007985b3          	add	a1,s3,t2
    476c:	00c988b3          	add	a7,s3,a2
    4770:	00e98b33          	add	s6,s3,a4
    4774:	01d79023          	sh	t4,0(a5)
    4778:	01c79123          	sh	t3,2(a5)
    477c:	00679223          	sh	t1,4(a5)
    4780:	00979323          	sh	s1,6(a5)
    4784:	00a79423          	sh	a0,8(a5)
    4788:	00b79523          	sh	a1,10(a5)
    478c:	01179623          	sh	a7,12(a5)
    4790:	01679723          	sh	s6,14(a5)
    4794:	01078793          	addi	a5,a5,16
    4798:	f8d79ee3          	bne	a5,a3,4734 <core_bench_matrix+0x12c>
    479c:	001d0493          	addi	s1,s10,1
    47a0:	008786b3          	add	a3,a5,s0
    47a4:	00980663          	beq	a6,s1,47b0 <core_bench_matrix+0x1a8>
    47a8:	00048d13          	mv	s10,s1
    47ac:	ecdff06f          	j	4678 <core_bench_matrix+0x70>
    47b0:	00249b93          	slli	s7,s1,0x2
    47b4:	000c8b13          	mv	s6,s9
    47b8:	000c8613          	mv	a2,s9
    47bc:	000a0693          	mv	a3,s4
    47c0:	00000313          	li	t1,0
    47c4:	0074f813          	andi	a6,s1,7
    47c8:	00000793          	li	a5,0
    47cc:	0a080463          	beqz	a6,4874 <core_bench_matrix+0x26c>
    47d0:	00100f13          	li	t5,1
    47d4:	09e80663          	beq	a6,t5,4860 <core_bench_matrix+0x258>
    47d8:	00200f93          	li	t6,2
    47dc:	07f80a63          	beq	a6,t6,4850 <core_bench_matrix+0x248>
    47e0:	00300293          	li	t0,3
    47e4:	04580e63          	beq	a6,t0,4840 <core_bench_matrix+0x238>
    47e8:	00400393          	li	t2,4
    47ec:	04780263          	beq	a6,t2,4830 <core_bench_matrix+0x228>
    47f0:	00500713          	li	a4,5
    47f4:	02e80663          	beq	a6,a4,4820 <core_bench_matrix+0x218>
    47f8:	00600e93          	li	t4,6
    47fc:	01d80a63          	beq	a6,t4,4810 <core_bench_matrix+0x208>
    4800:	00069e03          	lh	t3,0(a3)
    4804:	000f0793          	mv	a5,t5
    4808:	033e0533          	mul	a0,t3,s3
    480c:	00a62023          	sw	a0,0(a2)
    4810:	22f6c58b          	th.lrh	a1,a3,a5,1
    4814:	033588b3          	mul	a7,a1,s3
    4818:	44f6588b          	th.srw	a7,a2,a5,2
    481c:	00178793          	addi	a5,a5,1
    4820:	22f6c80b          	th.lrh	a6,a3,a5,1
    4824:	03380f33          	mul	t5,a6,s3
    4828:	44f65f0b          	th.srw	t5,a2,a5,2
    482c:	00178793          	addi	a5,a5,1
    4830:	22f6cf8b          	th.lrh	t6,a3,a5,1
    4834:	033f82b3          	mul	t0,t6,s3
    4838:	44f6528b          	th.srw	t0,a2,a5,2
    483c:	00178793          	addi	a5,a5,1
    4840:	22f6c38b          	th.lrh	t2,a3,a5,1
    4844:	03338733          	mul	a4,t2,s3
    4848:	44f6570b          	th.srw	a4,a2,a5,2
    484c:	00178793          	addi	a5,a5,1
    4850:	22f6ce8b          	th.lrh	t4,a3,a5,1
    4854:	033e8e33          	mul	t3,t4,s3
    4858:	44f65e0b          	th.srw	t3,a2,a5,2
    485c:	00178793          	addi	a5,a5,1
    4860:	22f6c50b          	th.lrh	a0,a3,a5,1
    4864:	033505b3          	mul	a1,a0,s3
    4868:	44f6558b          	th.srw	a1,a2,a5,2
    486c:	00178793          	addi	a5,a5,1
    4870:	08978463          	beq	a5,s1,48f8 <core_bench_matrix+0x2f0>
    4874:	22f6c88b          	th.lrh	a7,a3,a5,1
    4878:	00178393          	addi	t2,a5,1
    487c:	2276ce8b          	th.lrh	t4,a3,t2,1
    4880:	03388533          	mul	a0,a7,s3
    4884:	00278e13          	addi	t3,a5,2
    4888:	23c6c70b          	th.lrh	a4,a3,t3,1
    488c:	00378293          	addi	t0,a5,3
    4890:	2256c88b          	th.lrh	a7,a3,t0,1
    4894:	00478f93          	addi	t6,a5,4
    4898:	23f6c80b          	th.lrh	a6,a3,t6,1
    489c:	00578f13          	addi	t5,a5,5
    48a0:	033e85b3          	mul	a1,t4,s3
    48a4:	44f6550b          	th.srw	a0,a2,a5,2
    48a8:	23e6c50b          	th.lrh	a0,a3,t5,1
    48ac:	00678e93          	addi	t4,a5,6
    48b0:	4476558b          	th.srw	a1,a2,t2,2
    48b4:	033703b3          	mul	t2,a4,s3
    48b8:	23d6c58b          	th.lrh	a1,a3,t4,1
    48bc:	033888b3          	mul	a7,a7,s3
    48c0:	45c6538b          	th.srw	t2,a2,t3,2
    48c4:	00778e13          	addi	t3,a5,7
    48c8:	23c6c70b          	th.lrh	a4,a3,t3,1
    48cc:	00878793          	addi	a5,a5,8
    48d0:	4456588b          	th.srw	a7,a2,t0,2
    48d4:	033802b3          	mul	t0,a6,s3
    48d8:	03350833          	mul	a6,a0,s3
    48dc:	45f6528b          	th.srw	t0,a2,t6,2
    48e0:	03358fb3          	mul	t6,a1,s3
    48e4:	45e6580b          	th.srw	a6,a2,t5,2
    48e8:	03370f33          	mul	t5,a4,s3
    48ec:	45d65f8b          	th.srw	t6,a2,t4,2
    48f0:	45c65f0b          	th.srw	t5,a2,t3,2
    48f4:	f89790e3          	bne	a5,s1,4874 <core_bench_matrix+0x26c>
    48f8:	008686b3          	add	a3,a3,s0
    48fc:	01760633          	add	a2,a2,s7
    4900:	01a30663          	beq	t1,s10,490c <core_bench_matrix+0x304>
    4904:	00130313          	addi	t1,t1,1
    4908:	ebdff06f          	j	47c4 <core_bench_matrix+0x1bc>
    490c:	017c8633          	add	a2,s9,s7
    4910:	00000813          	li	a6,0
    4914:	00000793          	li	a5,0
    4918:	00000513          	li	a0,0
    491c:	00000593          	li	a1,0
    4920:	ffcb8313          	addi	t1,s7,-4
    4924:	00235393          	srli	t2,t1,0x2
    4928:	00138e93          	addi	t4,t2,1
    492c:	007efe13          	andi	t3,t4,7
    4930:	41760733          	sub	a4,a2,s7
    4934:	1c0e0463          	beqz	t3,4afc <core_bench_matrix+0x4f4>
    4938:	00100893          	li	a7,1
    493c:	0f1e0463          	beq	t3,a7,4a24 <core_bench_matrix+0x41c>
    4940:	00200293          	li	t0,2
    4944:	0c5e0063          	beq	t3,t0,4a04 <core_bench_matrix+0x3fc>
    4948:	00300f93          	li	t6,3
    494c:	09fe0e63          	beq	t3,t6,49e8 <core_bench_matrix+0x3e0>
    4950:	00400f13          	li	t5,4
    4954:	07ee0a63          	beq	t3,t5,49c8 <core_bench_matrix+0x3c0>
    4958:	00500693          	li	a3,5
    495c:	04de0663          	beq	t3,a3,49a8 <core_bench_matrix+0x3a0>
    4960:	00600313          	li	t1,6
    4964:	026e0263          	beq	t3,t1,4988 <core_bench_matrix+0x380>
    4968:	00080393          	mv	t2,a6
    496c:	00072803          	lw	a6,0(a4)
    4970:	010787b3          	add	a5,a5,a6
    4974:	00f94463          	blt	s2,a5,497c <core_bench_matrix+0x374>
    4978:	3cc0106f          	j	5d44 <core_bench_matrix+0x173c>
    497c:	00a50513          	addi	a0,a0,10
    4980:	00000793          	li	a5,0
    4984:	00470713          	addi	a4,a4,4
    4988:	00080e13          	mv	t3,a6
    498c:	00072803          	lw	a6,0(a4)
    4990:	010787b3          	add	a5,a5,a6
    4994:	24f95663          	bge	s2,a5,4be0 <core_bench_matrix+0x5d8>
    4998:	00a50293          	addi	t0,a0,10
    499c:	00000793          	li	a5,0
    49a0:	00028513          	mv	a0,t0
    49a4:	00470713          	addi	a4,a4,4
    49a8:	00080f93          	mv	t6,a6
    49ac:	00072803          	lw	a6,0(a4)
    49b0:	010787b3          	add	a5,a5,a6
    49b4:	22f95063          	bge	s2,a5,4bd4 <core_bench_matrix+0x5cc>
    49b8:	00a50693          	addi	a3,a0,10
    49bc:	00000793          	li	a5,0
    49c0:	00068513          	mv	a0,a3
    49c4:	00470713          	addi	a4,a4,4
    49c8:	00080313          	mv	t1,a6
    49cc:	00072803          	lw	a6,0(a4)
    49d0:	010787b3          	add	a5,a5,a6
    49d4:	1ef95a63          	bge	s2,a5,4bc8 <core_bench_matrix+0x5c0>
    49d8:	00a50e93          	addi	t4,a0,10
    49dc:	00000793          	li	a5,0
    49e0:	000e8513          	mv	a0,t4
    49e4:	00470713          	addi	a4,a4,4
    49e8:	00080e13          	mv	t3,a6
    49ec:	00072803          	lw	a6,0(a4)
    49f0:	010787b3          	add	a5,a5,a6
    49f4:	1cf95463          	bge	s2,a5,4bbc <core_bench_matrix+0x5b4>
    49f8:	00a50513          	addi	a0,a0,10
    49fc:	00000793          	li	a5,0
    4a00:	00470713          	addi	a4,a4,4
    4a04:	00080293          	mv	t0,a6
    4a08:	00072803          	lw	a6,0(a4)
    4a0c:	010787b3          	add	a5,a5,a6
    4a10:	1af95063          	bge	s2,a5,4bb0 <core_bench_matrix+0x5a8>
    4a14:	00a50f13          	addi	t5,a0,10
    4a18:	00000793          	li	a5,0
    4a1c:	000f0513          	mv	a0,t5
    4a20:	00470713          	addi	a4,a4,4
    4a24:	00080693          	mv	a3,a6
    4a28:	00072803          	lw	a6,0(a4)
    4a2c:	010787b3          	add	a5,a5,a6
    4a30:	16f95a63          	bge	s2,a5,4ba4 <core_bench_matrix+0x59c>
    4a34:	00a50393          	addi	t2,a0,10
    4a38:	00000793          	li	a5,0
    4a3c:	00470713          	addi	a4,a4,4
    4a40:	3c03a50b          	th.ext	a0,t2,15,0
    4a44:	0ae61c63          	bne	a2,a4,4afc <core_bench_matrix+0x4f4>
    4a48:	01760633          	add	a2,a2,s7
    4a4c:	1ba58063          	beq	a1,s10,4bec <core_bench_matrix+0x5e4>
    4a50:	00158593          	addi	a1,a1,1
    4a54:	ecdff06f          	j	4920 <core_bench_matrix+0x318>
    4a58:	00472283          	lw	t0,4(a4)
    4a5c:	01d82833          	slt	a6,a6,t4
    4a60:	01050e33          	add	t3,a0,a6
    4a64:	00578fb3          	add	t6,a5,t0
    4a68:	00470713          	addi	a4,a4,4
    4a6c:	0bf95a63          	bge	s2,t6,4b20 <core_bench_matrix+0x518>
    4a70:	00472503          	lw	a0,4(a4)
    4a74:	00000f93          	li	t6,0
    4a78:	00ae0f13          	addi	t5,t3,10
    4a7c:	00af8333          	add	t1,t6,a0
    4a80:	0a695a63          	bge	s2,t1,4b34 <core_bench_matrix+0x52c>
    4a84:	00872e83          	lw	t4,8(a4)
    4a88:	00000313          	li	t1,0
    4a8c:	00af0393          	addi	t2,t5,10
    4a90:	01d30833          	add	a6,t1,t4
    4a94:	0b095a63          	bge	s2,a6,4b48 <core_bench_matrix+0x540>
    4a98:	00c72f83          	lw	t6,12(a4)
    4a9c:	00000813          	li	a6,0
    4aa0:	00a38293          	addi	t0,t2,10
    4aa4:	01f807b3          	add	a5,a6,t6
    4aa8:	0af95a63          	bge	s2,a5,4b5c <core_bench_matrix+0x554>
    4aac:	01072303          	lw	t1,16(a4)
    4ab0:	00000793          	li	a5,0
    4ab4:	00a28f13          	addi	t5,t0,10
    4ab8:	006783b3          	add	t2,a5,t1
    4abc:	0a795a63          	bge	s2,t2,4b70 <core_bench_matrix+0x568>
    4ac0:	01472e83          	lw	t4,20(a4)
    4ac4:	00000393          	li	t2,0
    4ac8:	00af0693          	addi	a3,t5,10
    4acc:	01d38e33          	add	t3,t2,t4
    4ad0:	0bc95a63          	bge	s2,t3,4b84 <core_bench_matrix+0x57c>
    4ad4:	01872803          	lw	a6,24(a4)
    4ad8:	00000e13          	li	t3,0
    4adc:	00a68293          	addi	t0,a3,10
    4ae0:	010e07b3          	add	a5,t3,a6
    4ae4:	0af95a63          	bge	s2,a5,4b98 <core_bench_matrix+0x590>
    4ae8:	00a28893          	addi	a7,t0,10
    4aec:	00000793          	li	a5,0
    4af0:	01c70713          	addi	a4,a4,28
    4af4:	3c08a50b          	th.ext	a0,a7,15,0
    4af8:	f4e608e3          	beq	a2,a4,4a48 <core_bench_matrix+0x440>
    4afc:	00072e83          	lw	t4,0(a4)
    4b00:	01d787b3          	add	a5,a5,t4
    4b04:	f4f95ae3          	bge	s2,a5,4a58 <core_bench_matrix+0x450>
    4b08:	00472283          	lw	t0,4(a4)
    4b0c:	00000793          	li	a5,0
    4b10:	00a50e13          	addi	t3,a0,10
    4b14:	00578fb3          	add	t6,a5,t0
    4b18:	00470713          	addi	a4,a4,4
    4b1c:	f5f94ae3          	blt	s2,t6,4a70 <core_bench_matrix+0x468>
    4b20:	00472503          	lw	a0,4(a4)
    4b24:	005ea8b3          	slt	a7,t4,t0
    4b28:	011e0f33          	add	t5,t3,a7
    4b2c:	00af8333          	add	t1,t6,a0
    4b30:	f4694ae3          	blt	s2,t1,4a84 <core_bench_matrix+0x47c>
    4b34:	00872e83          	lw	t4,8(a4)
    4b38:	00a2a6b3          	slt	a3,t0,a0
    4b3c:	00df03b3          	add	t2,t5,a3
    4b40:	01d30833          	add	a6,t1,t4
    4b44:	f5094ae3          	blt	s2,a6,4a98 <core_bench_matrix+0x490>
    4b48:	00c72f83          	lw	t6,12(a4)
    4b4c:	01d52e33          	slt	t3,a0,t4
    4b50:	01c382b3          	add	t0,t2,t3
    4b54:	01f807b3          	add	a5,a6,t6
    4b58:	f4f94ae3          	blt	s2,a5,4aac <core_bench_matrix+0x4a4>
    4b5c:	01072303          	lw	t1,16(a4)
    4b60:	01fea8b3          	slt	a7,t4,t6
    4b64:	01128f33          	add	t5,t0,a7
    4b68:	006783b3          	add	t2,a5,t1
    4b6c:	f4794ae3          	blt	s2,t2,4ac0 <core_bench_matrix+0x4b8>
    4b70:	01472e83          	lw	t4,20(a4)
    4b74:	006fa533          	slt	a0,t6,t1
    4b78:	00af06b3          	add	a3,t5,a0
    4b7c:	01d38e33          	add	t3,t2,t4
    4b80:	f5c94ae3          	blt	s2,t3,4ad4 <core_bench_matrix+0x4cc>
    4b84:	01d32833          	slt	a6,t1,t4
    4b88:	010682b3          	add	t0,a3,a6
    4b8c:	01872803          	lw	a6,24(a4)
    4b90:	010e07b3          	add	a5,t3,a6
    4b94:	f4f94ae3          	blt	s2,a5,4ae8 <core_bench_matrix+0x4e0>
    4b98:	010eafb3          	slt	t6,t4,a6
    4b9c:	01f288b3          	add	a7,t0,t6
    4ba0:	f51ff06f          	j	4af0 <core_bench_matrix+0x4e8>
    4ba4:	0106a333          	slt	t1,a3,a6
    4ba8:	006503b3          	add	t2,a0,t1
    4bac:	e91ff06f          	j	4a3c <core_bench_matrix+0x434>
    4bb0:	0102afb3          	slt	t6,t0,a6
    4bb4:	01f50f33          	add	t5,a0,t6
    4bb8:	e65ff06f          	j	4a1c <core_bench_matrix+0x414>
    4bbc:	010e28b3          	slt	a7,t3,a6
    4bc0:	01150533          	add	a0,a0,a7
    4bc4:	e3dff06f          	j	4a00 <core_bench_matrix+0x3f8>
    4bc8:	010323b3          	slt	t2,t1,a6
    4bcc:	00750eb3          	add	t4,a0,t2
    4bd0:	e11ff06f          	j	49e0 <core_bench_matrix+0x3d8>
    4bd4:	010faf33          	slt	t5,t6,a6
    4bd8:	01e506b3          	add	a3,a0,t5
    4bdc:	de5ff06f          	j	49c0 <core_bench_matrix+0x3b8>
    4be0:	010e28b3          	slt	a7,t3,a6
    4be4:	011502b3          	add	t0,a0,a7
    4be8:	db9ff06f          	j	49a0 <core_bench_matrix+0x398>
    4bec:	00000593          	li	a1,0
    4bf0:	268050ef          	jal	9e58 <crc16>
    4bf4:	00050593          	mv	a1,a0
    4bf8:	000a0613          	mv	a2,s4
    4bfc:	00000513          	li	a0,0
    4c00:	0074ff13          	andi	t5,s1,7
    4c04:	00000893          	li	a7,0
    4c08:	00000793          	li	a5,0
    4c0c:	0c0f0063          	beqz	t5,4ccc <core_bench_matrix+0x6c4>
    4c10:	00100313          	li	t1,1
    4c14:	0a6f0063          	beq	t5,t1,4cb4 <core_bench_matrix+0x6ac>
    4c18:	00200393          	li	t2,2
    4c1c:	087f0263          	beq	t5,t2,4ca0 <core_bench_matrix+0x698>
    4c20:	00300693          	li	a3,3
    4c24:	06df0463          	beq	t5,a3,4c8c <core_bench_matrix+0x684>
    4c28:	00400e93          	li	t4,4
    4c2c:	05df0663          	beq	t5,t4,4c78 <core_bench_matrix+0x670>
    4c30:	00500e13          	li	t3,5
    4c34:	03cf0863          	beq	t5,t3,4c64 <core_bench_matrix+0x65c>
    4c38:	00600293          	li	t0,6
    4c3c:	005f0a63          	beq	t5,t0,4c50 <core_bench_matrix+0x648>
    4c40:	00061803          	lh	a6,0(a2)
    4c44:	000a9f83          	lh	t6,0(s5)
    4c48:	00030793          	mv	a5,t1
    4c4c:	03f808b3          	mul	a7,a6,t6
    4c50:	22f6470b          	th.lrh	a4,a2,a5,1
    4c54:	22facf0b          	th.lrh	t5,s5,a5,1
    4c58:	00178793          	addi	a5,a5,1
    4c5c:	03e70333          	mul	t1,a4,t5
    4c60:	006888b3          	add	a7,a7,t1
    4c64:	22f6438b          	th.lrh	t2,a2,a5,1
    4c68:	22fac68b          	th.lrh	a3,s5,a5,1
    4c6c:	00178793          	addi	a5,a5,1
    4c70:	02d38eb3          	mul	t4,t2,a3
    4c74:	01d888b3          	add	a7,a7,t4
    4c78:	22f64e0b          	th.lrh	t3,a2,a5,1
    4c7c:	22fac28b          	th.lrh	t0,s5,a5,1
    4c80:	00178793          	addi	a5,a5,1
    4c84:	025e0833          	mul	a6,t3,t0
    4c88:	010888b3          	add	a7,a7,a6
    4c8c:	22f64f8b          	th.lrh	t6,a2,a5,1
    4c90:	22fac70b          	th.lrh	a4,s5,a5,1
    4c94:	00178793          	addi	a5,a5,1
    4c98:	02ef8f33          	mul	t5,t6,a4
    4c9c:	01e888b3          	add	a7,a7,t5
    4ca0:	22f6430b          	th.lrh	t1,a2,a5,1
    4ca4:	22fac38b          	th.lrh	t2,s5,a5,1
    4ca8:	00178793          	addi	a5,a5,1
    4cac:	027306b3          	mul	a3,t1,t2
    4cb0:	00d888b3          	add	a7,a7,a3
    4cb4:	22f64e8b          	th.lrh	t4,a2,a5,1
    4cb8:	22face0b          	th.lrh	t3,s5,a5,1
    4cbc:	00178793          	addi	a5,a5,1
    4cc0:	03ce82b3          	mul	t0,t4,t3
    4cc4:	005888b3          	add	a7,a7,t0
    4cc8:	0a978463          	beq	a5,s1,4d70 <core_bench_matrix+0x768>
    4ccc:	00178f13          	addi	t5,a5,1
    4cd0:	22f64f8b          	th.lrh	t6,a2,a5,1
    4cd4:	22fac70b          	th.lrh	a4,s5,a5,1
    4cd8:	00278313          	addi	t1,a5,2
    4cdc:	23eac38b          	th.lrh	t2,s5,t5,1
    4ce0:	23e6480b          	th.lrh	a6,a2,t5,1
    4ce4:	226ace8b          	th.lrh	t4,s5,t1,1
    4ce8:	2266468b          	th.lrh	a3,a2,t1,1
    4cec:	02ef8733          	mul	a4,t6,a4
    4cf0:	00378e13          	addi	t3,a5,3
    4cf4:	23c6428b          	th.lrh	t0,a2,t3,1
    4cf8:	23cace0b          	th.lrh	t3,s5,t3,1
    4cfc:	00478f93          	addi	t6,a5,4
    4d00:	00578f13          	addi	t5,a5,5
    4d04:	23f6430b          	th.lrh	t1,a2,t6,1
    4d08:	23facf8b          	th.lrh	t6,s5,t6,1
    4d0c:	02780833          	mul	a6,a6,t2
    4d10:	00e883b3          	add	t2,a7,a4
    4d14:	23e6488b          	th.lrh	a7,a2,t5,1
    4d18:	23eacf0b          	th.lrh	t5,s5,t5,1
    4d1c:	03d686b3          	mul	a3,a3,t4
    4d20:	00678e93          	addi	t4,a5,6
    4d24:	01038733          	add	a4,t2,a6
    4d28:	23dac38b          	th.lrh	t2,s5,t4,1
    4d2c:	23d6480b          	th.lrh	a6,a2,t4,1
    4d30:	03c282b3          	mul	t0,t0,t3
    4d34:	00778e13          	addi	t3,a5,7
    4d38:	00d70733          	add	a4,a4,a3
    4d3c:	23cace8b          	th.lrh	t4,s5,t3,1
    4d40:	23c6468b          	th.lrh	a3,a2,t3,1
    4d44:	00878793          	addi	a5,a5,8
    4d48:	03f30333          	mul	t1,t1,t6
    4d4c:	00570fb3          	add	t6,a4,t0
    4d50:	03e888b3          	mul	a7,a7,t5
    4d54:	006f8f33          	add	t5,t6,t1
    4d58:	02780833          	mul	a6,a6,t2
    4d5c:	011f03b3          	add	t2,t5,a7
    4d60:	03d682b3          	mul	t0,a3,t4
    4d64:	01038733          	add	a4,t2,a6
    4d68:	005708b3          	add	a7,a4,t0
    4d6c:	f69790e3          	bne	a5,s1,4ccc <core_bench_matrix+0x6c4>
    4d70:	44acd88b          	th.srw	a7,s9,a0,2
    4d74:	00860633          	add	a2,a2,s0
    4d78:	01a50663          	beq	a0,s10,4d84 <core_bench_matrix+0x77c>
    4d7c:	00150513          	addi	a0,a0,1
    4d80:	e81ff06f          	j	4c00 <core_bench_matrix+0x5f8>
    4d84:	000c8613          	mv	a2,s9
    4d88:	00000893          	li	a7,0
    4d8c:	00000793          	li	a5,0
    4d90:	00000513          	li	a0,0
    4d94:	00000813          	li	a6,0
    4d98:	00088d13          	mv	s10,a7
    4d9c:	00062883          	lw	a7,0(a2)
    4da0:	fff48e13          	addi	t3,s1,-1
    4da4:	007e7693          	andi	a3,t3,7
    4da8:	011787b3          	add	a5,a5,a7
    4dac:	64f958e3          	bge	s2,a5,5bfc <core_bench_matrix+0x15f4>
    4db0:	00a50513          	addi	a0,a0,10
    4db4:	00000793          	li	a5,0
    4db8:	00100713          	li	a4,1
    4dbc:	3c05250b          	th.ext	a0,a0,15,0
    4dc0:	10977863          	bgeu	a4,s1,4ed0 <core_bench_matrix+0x8c8>
    4dc4:	26068ae3          	beqz	a3,5838 <core_bench_matrix+0x1230>
    4dc8:	0ee68263          	beq	a3,a4,4eac <core_bench_matrix+0x8a4>
    4dcc:	00200313          	li	t1,2
    4dd0:	0c668063          	beq	a3,t1,4e90 <core_bench_matrix+0x888>
    4dd4:	00300f93          	li	t6,3
    4dd8:	09f68c63          	beq	a3,t6,4e70 <core_bench_matrix+0x868>
    4ddc:	00400f13          	li	t5,4
    4de0:	07e68863          	beq	a3,t5,4e50 <core_bench_matrix+0x848>
    4de4:	00500393          	li	t2,5
    4de8:	04768463          	beq	a3,t2,4e30 <core_bench_matrix+0x828>
    4dec:	00600293          	li	t0,6
    4df0:	02568263          	beq	a3,t0,4e14 <core_bench_matrix+0x80c>
    4df4:	00088d13          	mv	s10,a7
    4df8:	44e6488b          	th.lrw	a7,a2,a4,2
    4dfc:	011787b3          	add	a5,a5,a7
    4e00:	76f946e3          	blt	s2,a5,5d6c <core_bench_matrix+0x1764>
    4e04:	011d2e33          	slt	t3,s10,a7
    4e08:	01c506b3          	add	a3,a0,t3
    4e0c:	00068513          	mv	a0,a3
    4e10:	00170713          	addi	a4,a4,1
    4e14:	00088e93          	mv	t4,a7
    4e18:	44e6488b          	th.lrw	a7,a2,a4,2
    4e1c:	011787b3          	add	a5,a5,a7
    4e20:	6cf958e3          	bge	s2,a5,5cf0 <core_bench_matrix+0x16e8>
    4e24:	00a50513          	addi	a0,a0,10
    4e28:	00000793          	li	a5,0
    4e2c:	00170713          	addi	a4,a4,1
    4e30:	00088f93          	mv	t6,a7
    4e34:	44e6488b          	th.lrw	a7,a2,a4,2
    4e38:	011787b3          	add	a5,a5,a7
    4e3c:	66f95ae3          	bge	s2,a5,5cb0 <core_bench_matrix+0x16a8>
    4e40:	00a50393          	addi	t2,a0,10
    4e44:	00000793          	li	a5,0
    4e48:	00038513          	mv	a0,t2
    4e4c:	00170713          	addi	a4,a4,1
    4e50:	00088293          	mv	t0,a7
    4e54:	44e6488b          	th.lrw	a7,a2,a4,2
    4e58:	011787b3          	add	a5,a5,a7
    4e5c:	62f95ee3          	bge	s2,a5,5c98 <core_bench_matrix+0x1690>
    4e60:	00a50e13          	addi	t3,a0,10
    4e64:	00000793          	li	a5,0
    4e68:	000e0513          	mv	a0,t3
    4e6c:	00170713          	addi	a4,a4,1
    4e70:	00088693          	mv	a3,a7
    4e74:	44e6488b          	th.lrw	a7,a2,a4,2
    4e78:	011787b3          	add	a5,a5,a7
    4e7c:	5ef95ce3          	bge	s2,a5,5c74 <core_bench_matrix+0x166c>
    4e80:	00a50313          	addi	t1,a0,10
    4e84:	00000793          	li	a5,0
    4e88:	00030513          	mv	a0,t1
    4e8c:	00170713          	addi	a4,a4,1
    4e90:	00088f93          	mv	t6,a7
    4e94:	44e6488b          	th.lrw	a7,a2,a4,2
    4e98:	011787b3          	add	a5,a5,a7
    4e9c:	5af95ee3          	bge	s2,a5,5c58 <core_bench_matrix+0x1650>
    4ea0:	00a50513          	addi	a0,a0,10
    4ea4:	00000793          	li	a5,0
    4ea8:	00170713          	addi	a4,a4,1
    4eac:	00088393          	mv	t2,a7
    4eb0:	44e6488b          	th.lrw	a7,a2,a4,2
    4eb4:	011787b3          	add	a5,a5,a7
    4eb8:	54f95ee3          	bge	s2,a5,5c14 <core_bench_matrix+0x160c>
    4ebc:	00a50d13          	addi	s10,a0,10
    4ec0:	00000793          	li	a5,0
    4ec4:	00170713          	addi	a4,a4,1
    4ec8:	3c0d250b          	th.ext	a0,s10,15,0
    4ecc:	169766e3          	bltu	a4,s1,5838 <core_bench_matrix+0x1230>
    4ed0:	00180813          	addi	a6,a6,1
    4ed4:	01760633          	add	a2,a2,s7
    4ed8:	ec9860e3          	bltu	a6,s1,4d98 <core_bench_matrix+0x790>
    4edc:	77d040ef          	jal	9e58 <crc16>
    4ee0:	00050593          	mv	a1,a0
    4ee4:	000a0813          	mv	a6,s4
    4ee8:	000c8313          	mv	t1,s9
    4eec:	00000e13          	li	t3,0
    4ef0:	000a8893          	mv	a7,s5
    4ef4:	00000513          	li	a0,0
    4ef8:	00081e83          	lh	t4,0(a6)
    4efc:	00089683          	lh	a3,0(a7)
    4f00:	fff48f93          	addi	t6,s1,-1
    4f04:	00100793          	li	a5,1
    4f08:	02de86b3          	mul	a3,t4,a3
    4f0c:	007ff393          	andi	t2,t6,7
    4f10:	00888733          	add	a4,a7,s0
    4f14:	1897fa63          	bgeu	a5,s1,50a8 <core_bench_matrix+0xaa0>
    4f18:	0c038e63          	beqz	t2,4ff4 <core_bench_matrix+0x9ec>
    4f1c:	0af38e63          	beq	t2,a5,4fd8 <core_bench_matrix+0x9d0>
    4f20:	00200293          	li	t0,2
    4f24:	08538e63          	beq	t2,t0,4fc0 <core_bench_matrix+0x9b8>
    4f28:	00300f13          	li	t5,3
    4f2c:	07e38e63          	beq	t2,t5,4fa8 <core_bench_matrix+0x9a0>
    4f30:	00400d13          	li	s10,4
    4f34:	05a38e63          	beq	t2,s10,4f90 <core_bench_matrix+0x988>
    4f38:	00500613          	li	a2,5
    4f3c:	02c38e63          	beq	t2,a2,4f78 <core_bench_matrix+0x970>
    4f40:	00600e93          	li	t4,6
    4f44:	01d38e63          	beq	t2,t4,4f60 <core_bench_matrix+0x958>
    4f48:	00281f83          	lh	t6,2(a6)
    4f4c:	2088c38b          	th.lrh	t2,a7,s0,0
    4f50:	00028793          	mv	a5,t0
    4f54:	00870733          	add	a4,a4,s0
    4f58:	027f82b3          	mul	t0,t6,t2
    4f5c:	005686b3          	add	a3,a3,t0
    4f60:	22f84f0b          	th.lrh	t5,a6,a5,1
    4f64:	00071d03          	lh	s10,0(a4)
    4f68:	00178793          	addi	a5,a5,1
    4f6c:	00870733          	add	a4,a4,s0
    4f70:	03af0633          	mul	a2,t5,s10
    4f74:	00c686b3          	add	a3,a3,a2
    4f78:	22f84f8b          	th.lrh	t6,a6,a5,1
    4f7c:	00071e83          	lh	t4,0(a4)
    4f80:	00178793          	addi	a5,a5,1
    4f84:	00870733          	add	a4,a4,s0
    4f88:	03df83b3          	mul	t2,t6,t4
    4f8c:	007686b3          	add	a3,a3,t2
    4f90:	22f8428b          	th.lrh	t0,a6,a5,1
    4f94:	00071f03          	lh	t5,0(a4)
    4f98:	00178793          	addi	a5,a5,1
    4f9c:	00870733          	add	a4,a4,s0
    4fa0:	03e28d33          	mul	s10,t0,t5
    4fa4:	01a686b3          	add	a3,a3,s10
    4fa8:	22f8460b          	th.lrh	a2,a6,a5,1
    4fac:	00071f83          	lh	t6,0(a4)
    4fb0:	00178793          	addi	a5,a5,1
    4fb4:	00870733          	add	a4,a4,s0
    4fb8:	03f60eb3          	mul	t4,a2,t6
    4fbc:	01d686b3          	add	a3,a3,t4
    4fc0:	22f8438b          	th.lrh	t2,a6,a5,1
    4fc4:	00071283          	lh	t0,0(a4)
    4fc8:	00178793          	addi	a5,a5,1
    4fcc:	00870733          	add	a4,a4,s0
    4fd0:	02538f33          	mul	t5,t2,t0
    4fd4:	01e686b3          	add	a3,a3,t5
    4fd8:	22f84d0b          	th.lrh	s10,a6,a5,1
    4fdc:	00071603          	lh	a2,0(a4)
    4fe0:	00178793          	addi	a5,a5,1
    4fe4:	00870733          	add	a4,a4,s0
    4fe8:	02cd0fb3          	mul	t6,s10,a2
    4fec:	01f686b3          	add	a3,a3,t6
    4ff0:	0a97fc63          	bgeu	a5,s1,50a8 <core_bench_matrix+0xaa0>
    4ff4:	22f84d0b          	th.lrh	s10,a6,a5,1
    4ff8:	00071e83          	lh	t4,0(a4)
    4ffc:	00178393          	addi	t2,a5,1
    5000:	20874f0b          	th.lrh	t5,a4,s0,0
    5004:	2278438b          	th.lrh	t2,a6,t2,1
    5008:	03dd0633          	mul	a2,s10,t4
    500c:	00278293          	addi	t0,a5,2
    5010:	22874d0b          	th.lrh	s10,a4,s0,1
    5014:	2258428b          	th.lrh	t0,a6,t0,1
    5018:	00478e93          	addi	t4,a5,4
    501c:	20e42733          	sh1add	a4,s0,a4
    5020:	00378f93          	addi	t6,a5,3
    5024:	23f84f8b          	th.lrh	t6,a6,t6,1
    5028:	03e383b3          	mul	t2,t2,t5
    502c:	23d84f0b          	th.lrh	t5,a6,t4,1
    5030:	00c686b3          	add	a3,a3,a2
    5034:	2087460b          	th.lrh	a2,a4,s0,0
    5038:	03a28eb3          	mul	t4,t0,s10
    503c:	007686b3          	add	a3,a3,t2
    5040:	2287438b          	th.lrh	t2,a4,s0,1
    5044:	00578293          	addi	t0,a5,5
    5048:	20e42733          	sh1add	a4,s0,a4
    504c:	2258428b          	th.lrh	t0,a6,t0,1
    5050:	02cf8d33          	mul	s10,t6,a2
    5054:	20874f8b          	th.lrh	t6,a4,s0,0
    5058:	01d68633          	add	a2,a3,t4
    505c:	00678e93          	addi	t4,a5,6
    5060:	00778693          	addi	a3,a5,7
    5064:	23d84e8b          	th.lrh	t4,a6,t4,1
    5068:	22d8468b          	th.lrh	a3,a6,a3,1
    506c:	00878793          	addi	a5,a5,8
    5070:	027f03b3          	mul	t2,t5,t2
    5074:	22874f0b          	th.lrh	t5,a4,s0,1
    5078:	20e42733          	sh1add	a4,s0,a4
    507c:	01a60d33          	add	s10,a2,s10
    5080:	03f28fb3          	mul	t6,t0,t6
    5084:	2087428b          	th.lrh	t0,a4,s0,0
    5088:	007d0633          	add	a2,s10,t2
    508c:	20e42733          	sh1add	a4,s0,a4
    5090:	03ee8eb3          	mul	t4,t4,t5
    5094:	01f603b3          	add	t2,a2,t6
    5098:	02568d33          	mul	s10,a3,t0
    509c:	01d38f33          	add	t5,t2,t4
    50a0:	01af06b3          	add	a3,t5,s10
    50a4:	f497e8e3          	bltu	a5,s1,4ff4 <core_bench_matrix+0x9ec>
    50a8:	44a3568b          	th.srw	a3,t1,a0,2
    50ac:	00150513          	addi	a0,a0,1
    50b0:	00288893          	addi	a7,a7,2
    50b4:	e49562e3          	bltu	a0,s1,4ef8 <core_bench_matrix+0x8f0>
    50b8:	001e0e13          	addi	t3,t3,1
    50bc:	01730333          	add	t1,t1,s7
    50c0:	00880833          	add	a6,a6,s0
    50c4:	e29e66e3          	bltu	t3,s1,4ef0 <core_bench_matrix+0x8e8>
    50c8:	000c8613          	mv	a2,s9
    50cc:	00000893          	li	a7,0
    50d0:	00000793          	li	a5,0
    50d4:	00000513          	li	a0,0
    50d8:	00000813          	li	a6,0
    50dc:	00088713          	mv	a4,a7
    50e0:	00062883          	lw	a7,0(a2)
    50e4:	fff48693          	addi	a3,s1,-1
    50e8:	0076ff93          	andi	t6,a3,7
    50ec:	011787b3          	add	a5,a5,a7
    50f0:	30f95ce3          	bge	s2,a5,5c08 <core_bench_matrix+0x1600>
    50f4:	00a50513          	addi	a0,a0,10
    50f8:	00000793          	li	a5,0
    50fc:	00100713          	li	a4,1
    5100:	3c05250b          	th.ext	a0,a0,15,0
    5104:	10977863          	bgeu	a4,s1,5214 <core_bench_matrix+0xc0c>
    5108:	0a0f86e3          	beqz	t6,59b4 <core_bench_matrix+0x13ac>
    510c:	0eef8263          	beq	t6,a4,51f0 <core_bench_matrix+0xbe8>
    5110:	00200e93          	li	t4,2
    5114:	0ddf8063          	beq	t6,t4,51d4 <core_bench_matrix+0xbcc>
    5118:	00300393          	li	t2,3
    511c:	087f8c63          	beq	t6,t2,51b4 <core_bench_matrix+0xbac>
    5120:	00400d13          	li	s10,4
    5124:	07af8863          	beq	t6,s10,5194 <core_bench_matrix+0xb8c>
    5128:	00500f13          	li	t5,5
    512c:	05ef8463          	beq	t6,t5,5174 <core_bench_matrix+0xb6c>
    5130:	00600e13          	li	t3,6
    5134:	03cf8263          	beq	t6,t3,5158 <core_bench_matrix+0xb50>
    5138:	00088313          	mv	t1,a7
    513c:	44e6488b          	th.lrw	a7,a2,a4,2
    5140:	011787b3          	add	a5,a5,a7
    5144:	40f94ee3          	blt	s2,a5,5d60 <core_bench_matrix+0x1758>
    5148:	011326b3          	slt	a3,t1,a7
    514c:	00d50fb3          	add	t6,a0,a3
    5150:	000f8513          	mv	a0,t6
    5154:	00170713          	addi	a4,a4,1
    5158:	00088293          	mv	t0,a7
    515c:	44e6488b          	th.lrw	a7,a2,a4,2
    5160:	011787b3          	add	a5,a5,a7
    5164:	36f95ee3          	bge	s2,a5,5ce0 <core_bench_matrix+0x16d8>
    5168:	00a50513          	addi	a0,a0,10
    516c:	00000793          	li	a5,0
    5170:	00170713          	addi	a4,a4,1
    5174:	00088393          	mv	t2,a7
    5178:	44e6488b          	th.lrw	a7,a2,a4,2
    517c:	011787b3          	add	a5,a5,a7
    5180:	34f954e3          	bge	s2,a5,5cc8 <core_bench_matrix+0x16c0>
    5184:	00a50f13          	addi	t5,a0,10
    5188:	00000793          	li	a5,0
    518c:	000f0513          	mv	a0,t5
    5190:	00170713          	addi	a4,a4,1
    5194:	00088e13          	mv	t3,a7
    5198:	44e6488b          	th.lrw	a7,a2,a4,2
    519c:	011787b3          	add	a5,a5,a7
    51a0:	2ef956e3          	bge	s2,a5,5c8c <core_bench_matrix+0x1684>
    51a4:	00a50693          	addi	a3,a0,10
    51a8:	00000793          	li	a5,0
    51ac:	00068513          	mv	a0,a3
    51b0:	00170713          	addi	a4,a4,1
    51b4:	00088f93          	mv	t6,a7
    51b8:	44e6488b          	th.lrw	a7,a2,a4,2
    51bc:	011787b3          	add	a5,a5,a7
    51c0:	2cf950e3          	bge	s2,a5,5c80 <core_bench_matrix+0x1678>
    51c4:	00a50e93          	addi	t4,a0,10
    51c8:	00000793          	li	a5,0
    51cc:	000e8513          	mv	a0,t4
    51d0:	00170713          	addi	a4,a4,1
    51d4:	00088393          	mv	t2,a7
    51d8:	44e6488b          	th.lrw	a7,a2,a4,2
    51dc:	011787b3          	add	a5,a5,a7
    51e0:	24f95ce3          	bge	s2,a5,5c38 <core_bench_matrix+0x1630>
    51e4:	00a50513          	addi	a0,a0,10
    51e8:	00000793          	li	a5,0
    51ec:	00170713          	addi	a4,a4,1
    51f0:	00088f13          	mv	t5,a7
    51f4:	44e6488b          	th.lrw	a7,a2,a4,2
    51f8:	011787b3          	add	a5,a5,a7
    51fc:	22f952e3          	bge	s2,a5,5c20 <core_bench_matrix+0x1618>
    5200:	00a50313          	addi	t1,a0,10
    5204:	00000793          	li	a5,0
    5208:	00170713          	addi	a4,a4,1
    520c:	3c03250b          	th.ext	a0,t1,15,0
    5210:	7a976263          	bltu	a4,s1,59b4 <core_bench_matrix+0x13ac>
    5214:	00180813          	addi	a6,a6,1
    5218:	01760633          	add	a2,a2,s7
    521c:	ec9860e3          	bltu	a6,s1,50dc <core_bench_matrix+0xad4>
    5220:	439040ef          	jal	9e58 <crc16>
    5224:	00050593          	mv	a1,a0
    5228:	000a0893          	mv	a7,s4
    522c:	00000513          	li	a0,0
    5230:	000a8313          	mv	t1,s5
    5234:	00000e13          	li	t3,0
    5238:	00089f83          	lh	t6,0(a7)
    523c:	00031283          	lh	t0,0(t1)
    5240:	fff48693          	addi	a3,s1,-1
    5244:	00100793          	li	a5,1
    5248:	025f8eb3          	mul	t4,t6,t0
    524c:	0076f393          	andi	t2,a3,7
    5250:	00830733          	add	a4,t1,s0
    5254:	142ebd0b          	th.extu	s10,t4,5,2
    5258:	2c5ebf0b          	th.extu	t5,t4,11,5
    525c:	03ed06b3          	mul	a3,s10,t5
    5260:	2497f463          	bgeu	a5,s1,54a8 <core_bench_matrix+0xea0>
    5264:	12038863          	beqz	t2,5394 <core_bench_matrix+0xd8c>
    5268:	10f38263          	beq	t2,a5,536c <core_bench_matrix+0xd64>
    526c:	00200813          	li	a6,2
    5270:	0d038c63          	beq	t2,a6,5348 <core_bench_matrix+0xd40>
    5274:	00300613          	li	a2,3
    5278:	0ac38663          	beq	t2,a2,5324 <core_bench_matrix+0xd1c>
    527c:	00400f93          	li	t6,4
    5280:	09f38063          	beq	t2,t6,5300 <core_bench_matrix+0xcf8>
    5284:	00500293          	li	t0,5
    5288:	04538a63          	beq	t2,t0,52dc <core_bench_matrix+0xcd4>
    528c:	00600e93          	li	t4,6
    5290:	03d38463          	beq	t2,t4,52b8 <core_bench_matrix+0xcb0>
    5294:	00289383          	lh	t2,2(a7)
    5298:	20834d0b          	th.lrh	s10,t1,s0,0
    529c:	00080793          	mv	a5,a6
    52a0:	00870733          	add	a4,a4,s0
    52a4:	03a38f33          	mul	t5,t2,s10
    52a8:	142f380b          	th.extu	a6,t5,5,2
    52ac:	2c5f360b          	th.extu	a2,t5,11,5
    52b0:	02c80fb3          	mul	t6,a6,a2
    52b4:	01f686b3          	add	a3,a3,t6
    52b8:	22f8c28b          	th.lrh	t0,a7,a5,1
    52bc:	00071e83          	lh	t4,0(a4)
    52c0:	00178793          	addi	a5,a5,1
    52c4:	00870733          	add	a4,a4,s0
    52c8:	03d283b3          	mul	t2,t0,t4
    52cc:	1423bd0b          	th.extu	s10,t2,5,2
    52d0:	2c53bf0b          	th.extu	t5,t2,11,5
    52d4:	03ed0833          	mul	a6,s10,t5
    52d8:	010686b3          	add	a3,a3,a6
    52dc:	22f8c60b          	th.lrh	a2,a7,a5,1
    52e0:	00071f83          	lh	t6,0(a4)
    52e4:	00178793          	addi	a5,a5,1
    52e8:	00870733          	add	a4,a4,s0
    52ec:	03f602b3          	mul	t0,a2,t6
    52f0:	1422be8b          	th.extu	t4,t0,5,2
    52f4:	2c52b38b          	th.extu	t2,t0,11,5
    52f8:	027e8d33          	mul	s10,t4,t2
    52fc:	01a686b3          	add	a3,a3,s10
    5300:	22f8cf0b          	th.lrh	t5,a7,a5,1
    5304:	00071803          	lh	a6,0(a4)
    5308:	00178793          	addi	a5,a5,1
    530c:	00870733          	add	a4,a4,s0
    5310:	030f0633          	mul	a2,t5,a6
    5314:	14263f8b          	th.extu	t6,a2,5,2
    5318:	2c56328b          	th.extu	t0,a2,11,5
    531c:	025f8eb3          	mul	t4,t6,t0
    5320:	01d686b3          	add	a3,a3,t4
    5324:	22f8c38b          	th.lrh	t2,a7,a5,1
    5328:	00071d03          	lh	s10,0(a4)
    532c:	00178793          	addi	a5,a5,1
    5330:	00870733          	add	a4,a4,s0
    5334:	03a38f33          	mul	t5,t2,s10
    5338:	142f380b          	th.extu	a6,t5,5,2
    533c:	2c5f360b          	th.extu	a2,t5,11,5
    5340:	02c80fb3          	mul	t6,a6,a2
    5344:	01f686b3          	add	a3,a3,t6
    5348:	22f8c28b          	th.lrh	t0,a7,a5,1
    534c:	00071e83          	lh	t4,0(a4)
    5350:	00178793          	addi	a5,a5,1
    5354:	00870733          	add	a4,a4,s0
    5358:	03d283b3          	mul	t2,t0,t4
    535c:	1423bd0b          	th.extu	s10,t2,5,2
    5360:	2c53bf0b          	th.extu	t5,t2,11,5
    5364:	03ed0833          	mul	a6,s10,t5
    5368:	010686b3          	add	a3,a3,a6
    536c:	22f8c60b          	th.lrh	a2,a7,a5,1
    5370:	00071f83          	lh	t6,0(a4)
    5374:	00178793          	addi	a5,a5,1
    5378:	00870733          	add	a4,a4,s0
    537c:	03f602b3          	mul	t0,a2,t6
    5380:	1422be8b          	th.extu	t4,t0,5,2
    5384:	2c52b38b          	th.extu	t2,t0,11,5
    5388:	027e8d33          	mul	s10,t4,t2
    538c:	01a686b3          	add	a3,a3,s10
    5390:	1097fc63          	bgeu	a5,s1,54a8 <core_bench_matrix+0xea0>
    5394:	00071f03          	lh	t5,0(a4)
    5398:	22f8c80b          	th.lrh	a6,a7,a5,1
