
D:\BaiduSyncdisk\02_icdc_workspace\.worktrees\coremark7-dmips5-20260508\YH_rv_cpu\build\sw\state_cache_cm100.elf:     file format elf32-littleriscv


Disassembly of section .text:

00000000 <_start>:
       0:	00014117          	auipc	sp,0x14
       4:	00010113          	mv	sp,sp
       8:	0000c517          	auipc	a0,0xc
       c:	76c50513          	addi	a0,a0,1900 # c774 <_data_load_start>
      10:	00010597          	auipc	a1,0x10
      14:	ff058593          	addi	a1,a1,-16 # 10000 <default_num_contexts>
      18:	00010617          	auipc	a2,0x10
      1c:	ff460613          	addi	a2,a2,-12 # 1000c <core_cached_prev_head>
      20:	00c5fc63          	bgeu	a1,a2,38 <_start+0x38>
      24:	00054283          	lbu	t0,0(a0)
      28:	00558023          	sb	t0,0(a1)
      2c:	00150513          	addi	a0,a0,1
      30:	00158593          	addi	a1,a1,1
      34:	fedff06f          	j	20 <_start+0x20>
      38:	00010517          	auipc	a0,0x10
      3c:	fd450513          	addi	a0,a0,-44 # 1000c <core_cached_prev_head>
      40:	00011597          	auipc	a1,0x11
      44:	80458593          	addi	a1,a1,-2044 # 10844 <_bss_end>
      48:	00b57863          	bgeu	a0,a1,58 <_start+0x58>
      4c:	00050023          	sb	zero,0(a0)
      50:	00150513          	addi	a0,a0,1
      54:	ff5ff06f          	j	48 <_start+0x48>
      58:	661020ef          	jal	2eb8 <main>
      5c:	0000006f          	j	5c <_start+0x5c>

00000060 <calc_func>:
      60:	fe010113          	addi	sp,sp,-32 # 13fe0 <_bss_end+0x379c>
      64:	00112e23          	sw	ra,28(sp)
      68:	00812c23          	sw	s0,24(sp)
      6c:	00051403          	lh	s0,0(a0)
      70:	48745793          	bexti	a5,s0,0x7
      74:	00078c63          	beqz	a5,8c <calc_func+0x2c>
      78:	07f47513          	andi	a0,s0,127
      7c:	01c12083          	lw	ra,28(sp)
      80:	01812403          	lw	s0,24(sp)
      84:	02010113          	addi	sp,sp,32
      88:	00008067          	ret
      8c:	00912a23          	sw	s1,20(sp)
      90:	01212823          	sw	s2,16(sp)
      94:	01312623          	sw	s3,12(sp)
      98:	00058493          	mv	s1,a1
      9c:	00050913          	mv	s2,a0
      a0:	00747693          	andi	a3,s0,7
      a4:	1834370b          	th.extu	a4,s0,6,3
      a8:	00471293          	slli	t0,a4,0x4
      ac:	00570633          	add	a2,a4,t0
      b0:	00060713          	mv	a4,a2
      b4:	0385d783          	lhu	a5,56(a1)
      b8:	06068a63          	beqz	a3,12c <calc_func+0xcc>
      bc:	00100513          	li	a0,1
      c0:	06a69063          	bne	a3,a0,120 <calc_func+0xc0>
      c4:	00078613          	mv	a2,a5
      c8:	00070593          	mv	a1,a4
      cc:	02848513          	addi	a0,s1,40
      d0:	709030ef          	jal	3fd8 <core_bench_matrix>
      d4:	00050993          	mv	s3,a0
      d8:	03c4d583          	lhu	a1,60(s1)
      dc:	00059463          	bnez	a1,e4 <calc_func+0x84>
      e0:	02a49e23          	sh	a0,60(s1)
      e4:	0384d583          	lhu	a1,56(s1)
      e8:	3d9070ef          	jal	7cc0 <crcu16>
      ec:	02a49c23          	sh	a0,56(s1)
      f0:	07f9f513          	andi	a0,s3,127
      f4:	f0047813          	andi	a6,s0,-256
      f8:	010568b3          	or	a7,a0,a6
      fc:	0808ee13          	ori	t3,a7,128
     100:	01c91023          	sh	t3,0(s2)
     104:	01412483          	lw	s1,20(sp)
     108:	01012903          	lw	s2,16(sp)
     10c:	00c12983          	lw	s3,12(sp)
     110:	01c12083          	lw	ra,28(sp)
     114:	01812403          	lw	s0,24(sp)
     118:	02010113          	addi	sp,sp,32
     11c:	00008067          	ret
     120:	3c04350b          	th.extu	a0,s0,15,0
     124:	00040993          	mv	s3,s0
     128:	fbdff06f          	j	e4 <calc_func+0x84>
     12c:	02100313          	li	t1,33
     130:	00c36463          	bltu	t1,a2,138 <calc_func+0xd8>
     134:	02200713          	li	a4,34
     138:	00249683          	lh	a3,2(s1)
     13c:	00049603          	lh	a2,0(s1)
     140:	0144a583          	lw	a1,20(s1)
     144:	0184a503          	lw	a0,24(s1)
     148:	684060ef          	jal	67cc <core_bench_state>
     14c:	00050993          	mv	s3,a0
     150:	03e4d383          	lhu	t2,62(s1)
     154:	f80398e3          	bnez	t2,e4 <calc_func+0x84>
     158:	02a49f23          	sh	a0,62(s1)
     15c:	f89ff06f          	j	e4 <calc_func+0x84>

00000160 <cmp_complex>:
     160:	fe010113          	addi	sp,sp,-32
     164:	00112e23          	sw	ra,28(sp)
     168:	00812c23          	sw	s0,24(sp)
     16c:	00912a23          	sw	s1,20(sp)
     170:	01212823          	sw	s2,16(sp)
     174:	01312623          	sw	s3,12(sp)
     178:	00058993          	mv	s3,a1
     17c:	00060493          	mv	s1,a2
     180:	00051403          	lh	s0,0(a0)
     184:	48745793          	bexti	a5,s0,0x7
     188:	02078c63          	beqz	a5,1c0 <cmp_complex+0x60>
     18c:	07f47913          	andi	s2,s0,127
     190:	00099403          	lh	s0,0(s3)
     194:	48745e93          	bexti	t4,s0,0x7
     198:	0a0e8263          	beqz	t4,23c <cmp_complex+0xdc>
     19c:	07f47493          	andi	s1,s0,127
     1a0:	40990533          	sub	a0,s2,s1
     1a4:	01c12083          	lw	ra,28(sp)
     1a8:	01812403          	lw	s0,24(sp)
     1ac:	01412483          	lw	s1,20(sp)
     1b0:	01012903          	lw	s2,16(sp)
     1b4:	00c12983          	lw	s3,12(sp)
     1b8:	02010113          	addi	sp,sp,32
     1bc:	00008067          	ret
     1c0:	01412423          	sw	s4,8(sp)
     1c4:	00050a13          	mv	s4,a0
     1c8:	00747693          	andi	a3,s0,7
     1cc:	1834370b          	th.extu	a4,s0,6,3
     1d0:	00471293          	slli	t0,a4,0x4
     1d4:	00570633          	add	a2,a4,t0
     1d8:	00060713          	mv	a4,a2
     1dc:	0384d783          	lhu	a5,56(s1)
     1e0:	12068a63          	beqz	a3,314 <cmp_complex+0x1b4>
     1e4:	00100513          	li	a0,1
     1e8:	0ea69063          	bne	a3,a0,2c8 <cmp_complex+0x168>
     1ec:	00078613          	mv	a2,a5
     1f0:	00070593          	mv	a1,a4
     1f4:	02848513          	addi	a0,s1,40
     1f8:	5e1030ef          	jal	3fd8 <core_bench_matrix>
     1fc:	00050913          	mv	s2,a0
     200:	03c4d583          	lhu	a1,60(s1)
     204:	00059463          	bnez	a1,20c <cmp_complex+0xac>
     208:	02a49e23          	sh	a0,60(s1)
     20c:	0384d583          	lhu	a1,56(s1)
     210:	2b1070ef          	jal	7cc0 <crcu16>
     214:	02a49c23          	sh	a0,56(s1)
     218:	07f97913          	andi	s2,s2,127
     21c:	f0047813          	andi	a6,s0,-256
     220:	010968b3          	or	a7,s2,a6
     224:	0808ee13          	ori	t3,a7,128
     228:	01ca1023          	sh	t3,0(s4)
     22c:	00812a03          	lw	s4,8(sp)
     230:	00099403          	lh	s0,0(s3)
     234:	48745e93          	bexti	t4,s0,0x7
     238:	f60e92e3          	bnez	t4,19c <cmp_complex+0x3c>
     23c:	01412423          	sw	s4,8(sp)
     240:	00747f13          	andi	t5,s0,7
     244:	18343f8b          	th.extu	t6,s0,6,3
     248:	004f9793          	slli	a5,t6,0x4
     24c:	00ff8a33          	add	s4,t6,a5
     250:	000a0713          	mv	a4,s4
     254:	0384d783          	lhu	a5,56(s1)
     258:	080f0463          	beqz	t5,2e0 <cmp_complex+0x180>
     25c:	00100293          	li	t0,1
     260:	065f1a63          	bne	t5,t0,2d4 <cmp_complex+0x174>
     264:	00078613          	mv	a2,a5
     268:	000a0593          	mv	a1,s4
     26c:	02848513          	addi	a0,s1,40
     270:	569030ef          	jal	3fd8 <core_bench_matrix>
     274:	00050a13          	mv	s4,a0
     278:	03c4d603          	lhu	a2,60(s1)
     27c:	00061463          	bnez	a2,284 <cmp_complex+0x124>
     280:	02a49e23          	sh	a0,60(s1)
     284:	0384d583          	lhu	a1,56(s1)
     288:	239070ef          	jal	7cc0 <crcu16>
     28c:	02a49c23          	sh	a0,56(s1)
     290:	07fa7493          	andi	s1,s4,127
     294:	f0047313          	andi	t1,s0,-256
     298:	0064e3b3          	or	t2,s1,t1
     29c:	0803e513          	ori	a0,t2,128
     2a0:	00a99023          	sh	a0,0(s3)
     2a4:	00812a03          	lw	s4,8(sp)
     2a8:	40990533          	sub	a0,s2,s1
     2ac:	01c12083          	lw	ra,28(sp)
     2b0:	01812403          	lw	s0,24(sp)
     2b4:	01412483          	lw	s1,20(sp)
     2b8:	01012903          	lw	s2,16(sp)
     2bc:	00c12983          	lw	s3,12(sp)
     2c0:	02010113          	addi	sp,sp,32
     2c4:	00008067          	ret
     2c8:	3c04350b          	th.extu	a0,s0,15,0
     2cc:	00040913          	mv	s2,s0
     2d0:	f3dff06f          	j	20c <cmp_complex+0xac>
     2d4:	3c04350b          	th.extu	a0,s0,15,0
     2d8:	00040a13          	mv	s4,s0
     2dc:	fa9ff06f          	j	284 <cmp_complex+0x124>
     2e0:	02100693          	li	a3,33
     2e4:	0146e463          	bltu	a3,s4,2ec <cmp_complex+0x18c>
     2e8:	02200713          	li	a4,34
     2ec:	00249683          	lh	a3,2(s1)
     2f0:	00049603          	lh	a2,0(s1)
     2f4:	0144a583          	lw	a1,20(s1)
     2f8:	0184a503          	lw	a0,24(s1)
     2fc:	4d0060ef          	jal	67cc <core_bench_state>
     300:	00050a13          	mv	s4,a0
     304:	03e4d703          	lhu	a4,62(s1)
     308:	f6071ee3          	bnez	a4,284 <cmp_complex+0x124>
     30c:	02a49f23          	sh	a0,62(s1)
     310:	f75ff06f          	j	284 <cmp_complex+0x124>
     314:	02100313          	li	t1,33
     318:	00c36463          	bltu	t1,a2,320 <cmp_complex+0x1c0>
     31c:	02200713          	li	a4,34
     320:	00249683          	lh	a3,2(s1)
     324:	00049603          	lh	a2,0(s1)
     328:	0144a583          	lw	a1,20(s1)
     32c:	0184a503          	lw	a0,24(s1)
     330:	49c060ef          	jal	67cc <core_bench_state>
     334:	00050913          	mv	s2,a0
     338:	03e4d383          	lhu	t2,62(s1)
     33c:	ec0398e3          	bnez	t2,20c <cmp_complex+0xac>
     340:	02a49f23          	sh	a0,62(s1)
     344:	ec9ff06f          	j	20c <cmp_complex+0xac>

00000348 <cmp_idx>:
     348:	00060a63          	beqz	a2,35c <cmp_idx+0x14>
     34c:	00251503          	lh	a0,2(a0)
     350:	00259583          	lh	a1,2(a1)
     354:	40b50533          	sub	a0,a0,a1
     358:	00008067          	ret
     35c:	00051783          	lh	a5,0(a0)
     360:	f007f713          	andi	a4,a5,-256
     364:	3c87b28b          	th.extu	t0,a5,15,8
     368:	00576333          	or	t1,a4,t0
     36c:	00651023          	sh	t1,0(a0)
     370:	00059383          	lh	t2,0(a1)
     374:	f003f613          	andi	a2,t2,-256
     378:	3c83b68b          	th.extu	a3,t2,15,8
     37c:	00d66833          	or	a6,a2,a3
     380:	01059023          	sh	a6,0(a1)
     384:	00251503          	lh	a0,2(a0)
     388:	00259583          	lh	a1,2(a1)
     38c:	40b50533          	sub	a0,a0,a1
     390:	00008067          	ret

00000394 <copy_info>:
     394:	00059783          	lh	a5,0(a1)
     398:	00f51023          	sh	a5,0(a0)
     39c:	00259283          	lh	t0,2(a1)
     3a0:	00551123          	sh	t0,2(a0)
     3a4:	00008067          	ret

000003a8 <core_bench_list>:
     3a8:	fa010113          	addi	sp,sp,-96
     3ac:	04112e23          	sw	ra,92(sp)
     3b0:	04812c23          	sw	s0,88(sp)
     3b4:	02452403          	lw	s0,36(a0)
     3b8:	00451883          	lh	a7,4(a0)
     3bc:	000107b7          	lui	a5,0x10
     3c0:	00c78293          	addi	t0,a5,12 # 1000c <core_cached_prev_head>
     3c4:	0002a703          	lw	a4,0(t0)
     3c8:	26870463          	beq	a4,s0,630 <core_bench_list+0x288>
     3cc:	00041463          	bnez	s0,3d4 <core_bench_list+0x2c>
     3d0:	3740106f          	j	1744 <core_bench_list+0x139c>
     3d4:	00040793          	mv	a5,s0
     3d8:	00000293          	li	t0,0
     3dc:	0057a223          	sw	t0,4(a5)
     3e0:	00078293          	mv	t0,a5
     3e4:	0007a683          	lw	a3,0(a5)
     3e8:	06068a63          	beqz	a3,45c <core_bench_list+0xb4>
     3ec:	00f6a223          	sw	a5,4(a3)
     3f0:	00068293          	mv	t0,a3
     3f4:	0006a603          	lw	a2,0(a3)
     3f8:	06060263          	beqz	a2,45c <core_bench_list+0xb4>
     3fc:	00d62223          	sw	a3,4(a2)
     400:	00060293          	mv	t0,a2
     404:	00062803          	lw	a6,0(a2)
     408:	04080a63          	beqz	a6,45c <core_bench_list+0xb4>
     40c:	00c82223          	sw	a2,4(a6)
     410:	00080293          	mv	t0,a6
     414:	00082e03          	lw	t3,0(a6)
     418:	040e0263          	beqz	t3,45c <core_bench_list+0xb4>
     41c:	010e2223          	sw	a6,4(t3)
     420:	000e0293          	mv	t0,t3
     424:	000e2e83          	lw	t4,0(t3)
     428:	020e8a63          	beqz	t4,45c <core_bench_list+0xb4>
     42c:	01cea223          	sw	t3,4(t4)
     430:	000e8293          	mv	t0,t4
     434:	000eaf03          	lw	t5,0(t4)
     438:	020f0263          	beqz	t5,45c <core_bench_list+0xb4>
     43c:	01df2223          	sw	t4,4(t5)
     440:	000f0293          	mv	t0,t5
     444:	000f2f83          	lw	t6,0(t5)
     448:	000f8a63          	beqz	t6,45c <core_bench_list+0xb4>
     44c:	01efa223          	sw	t5,4(t6)
     450:	000f8293          	mv	t0,t6
     454:	000fa783          	lw	a5,0(t6)
     458:	f80792e3          	bnez	a5,3dc <core_bench_list+0x34>
     45c:	00010737          	lui	a4,0x10
     460:	00c70313          	addi	t1,a4,12 # 1000c <core_cached_prev_head>
     464:	00832023          	sw	s0,0(t1)
     468:	00532223          	sw	t0,4(t1)
     46c:	0c05ca63          	bltz	a1,540 <core_bench_list+0x198>
     470:	fff88813          	addi	a6,a7,-1
     474:	0ff87613          	zext.b	a2,a6
     478:	00c12a23          	sw	a2,20(sp)
     47c:	01104463          	bgtz	a7,484 <core_bench_list+0xdc>
     480:	3140106f          	j	1794 <core_bench_list+0x13ec>
     484:	00b888b3          	add	a7,a7,a1
     488:	3c08ae0b          	th.ext	t3,a7,15,0
     48c:	01c12c23          	sw	t3,24(sp)
     490:	00041463          	bnez	s0,498 <core_bench_list+0xf0>
     494:	2980106f          	j	172c <core_bench_list+0x1384>
     498:	00058693          	mv	a3,a1
     49c:	00000793          	li	a5,0
     4a0:	00000e13          	li	t3,0
     4a4:	00000e93          	li	t4,0
     4a8:	00000613          	li	a2,0
     4ac:	06079463          	bnez	a5,514 <core_bench_list+0x16c>
     4b0:	00040793          	mv	a5,s0
     4b4:	00c0006f          	j	4c0 <core_bench_list+0x118>
     4b8:	0007a783          	lw	a5,0(a5)
     4bc:	6a078063          	beqz	a5,b5c <core_bench_list+0x7b4>
     4c0:	00a79f03          	lh	t5,10(a5)
     4c4:	fedf1ae3          	bne	t5,a3,4b8 <core_bench_list+0x110>
     4c8:	00028713          	mv	a4,t0
     4cc:	00040293          	mv	t0,s0
     4d0:	00070413          	mv	s0,a4
     4d4:	00000893          	li	a7,0
     4d8:	001e8e93          	addi	t4,t4,1
     4dc:	00879f83          	lh	t6,8(a5)
     4e0:	001ff313          	andi	t1,t6,1
     4e4:	00030663          	beqz	t1,4f0 <core_bench_list+0x148>
     4e8:	489fd393          	bexti	t2,t6,0x9
     4ec:	00760633          	add	a2,a2,t2
     4f0:	7a089663          	bnez	a7,c9c <core_bench_list+0x8f4>
     4f4:	0047a303          	lw	t1,4(a5)
     4f8:	74031863          	bnez	t1,c48 <core_bench_list+0x8a0>
     4fc:	00168393          	addi	t2,a3,1
     500:	3c03a68b          	th.ext	a3,t2,15,0
     504:	01812803          	lw	a6,24(sp)
     508:	00d81463          	bne	a6,a3,510 <core_bench_list+0x168>
     50c:	1e00106f          	j	16ec <core_bench_list+0x1344>
     510:	2e0406e3          	beqz	s0,ffc <core_bench_list+0xc54>
     514:	00040793          	mv	a5,s0
     518:	00100893          	li	a7,1
     51c:	00c0006f          	j	528 <core_bench_list+0x180>
     520:	0047a783          	lw	a5,4(a5)
     524:	62078a63          	beqz	a5,b58 <core_bench_list+0x7b0>
     528:	00a79303          	lh	t1,10(a5)
     52c:	fed31ae3          	bne	t1,a3,520 <core_bench_list+0x178>
     530:	00028393          	mv	t2,t0
     534:	00040293          	mv	t0,s0
     538:	00038413          	mv	s0,t2
     53c:	f9dff06f          	j	4d8 <core_bench_list+0x130>
     540:	11105463          	blez	a7,648 <core_bench_list+0x2a0>
     544:	00041463          	bnez	s0,54c <core_bench_list+0x1a4>
     548:	2300106f          	j	1778 <core_bench_list+0x13d0>
     54c:	00000793          	li	a5,0
     550:	00000813          	li	a6,0
     554:	00000e13          	li	t3,0
     558:	00000e93          	li	t4,0
     55c:	00012a23          	sw	zero,20(sp)
     560:	00000613          	li	a2,0
     564:	08079e63          	bnez	a5,600 <core_bench_list+0x258>
     568:	00040793          	mv	a5,s0
     56c:	00c0006f          	j	578 <core_bench_list+0x1d0>
     570:	0007a783          	lw	a5,0(a5)
     574:	78078e63          	beqz	a5,d10 <core_bench_list+0x968>
     578:	0087c383          	lbu	t2,8(a5)
     57c:	01412683          	lw	a3,20(sp)
     580:	fed398e3          	bne	t2,a3,570 <core_bench_list+0x1c8>
     584:	00028f13          	mv	t5,t0
     588:	00040293          	mv	t0,s0
     58c:	000f0413          	mv	s0,t5
     590:	00000713          	li	a4,0
     594:	001e8e93          	addi	t4,t4,1
     598:	00879303          	lh	t1,8(a5)
     59c:	00137f93          	andi	t6,t1,1
     5a0:	000f8663          	beqz	t6,5ac <core_bench_list+0x204>
     5a4:	48935693          	bexti	a3,t1,0x9
     5a8:	00d60633          	add	a2,a2,a3
     5ac:	000716e3          	bnez	a4,db8 <core_bench_list+0xa10>
     5b0:	0047a683          	lw	a3,4(a5)
     5b4:	7a068063          	beqz	a3,d54 <core_bench_list+0x9ac>
     5b8:	0046af03          	lw	t5,4(a3)
     5bc:	01e7a223          	sw	t5,4(a5)
     5c0:	000f1463          	bnez	t5,5c8 <core_bench_list+0x220>
     5c4:	1600106f          	j	1724 <core_bench_list+0x137c>
     5c8:	00ff2023          	sw	a5,0(t5)
     5cc:	00442783          	lw	a5,4(s0)
     5d0:	00f6a223          	sw	a5,4(a3)
     5d4:	0086a023          	sw	s0,0(a3)
     5d8:	00079463          	bnez	a5,5e0 <core_bench_list+0x238>
     5dc:	1280106f          	j	1704 <core_bench_list+0x135c>
     5e0:	00d7a023          	sw	a3,0(a5)
     5e4:	00d42223          	sw	a3,4(s0)
     5e8:	00180713          	addi	a4,a6,1
     5ec:	3c07280b          	th.ext	a6,a4,15,0
     5f0:	01089463          	bne	a7,a6,5f8 <core_bench_list+0x250>
     5f4:	1280106f          	j	171c <core_bench_list+0x1374>
     5f8:	0ff77f93          	zext.b	t6,a4
     5fc:	01f12a23          	sw	t6,20(sp)
     600:	00040793          	mv	a5,s0
     604:	00100713          	li	a4,1
     608:	00c0006f          	j	614 <core_bench_list+0x26c>
     60c:	0047a783          	lw	a5,4(a5)
     610:	6e078e63          	beqz	a5,d0c <core_bench_list+0x964>
     614:	0087c383          	lbu	t2,8(a5)
     618:	01412683          	lw	a3,20(sp)
     61c:	fed398e3          	bne	t2,a3,60c <core_bench_list+0x264>
     620:	00028313          	mv	t1,t0
     624:	00040293          	mv	t0,s0
     628:	00030413          	mv	s0,t1
     62c:	f69ff06f          	j	594 <core_bench_list+0x1ec>
     630:	0042a283          	lw	t0,4(t0)
     634:	d8028ce3          	beqz	t0,3cc <core_bench_list+0x24>
     638:	e205dce3          	bgez	a1,470 <core_bench_list+0xc8>
     63c:	f11044e3          	bgtz	a7,544 <core_bench_list+0x19c>
     640:	00041463          	bnez	s0,648 <core_bench_list+0x2a0>
     644:	1640106f          	j	17a8 <core_bench_list+0x1400>
     648:	00b12c23          	sw	a1,24(sp)
     64c:	00012623          	sw	zero,12(sp)
     650:	00012a23          	sw	zero,20(sp)
     654:	00040e13          	mv	t3,s0
     658:	00000293          	li	t0,0
     65c:	005e2223          	sw	t0,4(t3)
     660:	000e0293          	mv	t0,t3
     664:	000e2e03          	lw	t3,0(t3)
     668:	060e0a63          	beqz	t3,6dc <core_bench_list+0x334>
     66c:	005e2223          	sw	t0,4(t3)
     670:	000e0293          	mv	t0,t3
     674:	000e2e03          	lw	t3,0(t3)
     678:	060e0263          	beqz	t3,6dc <core_bench_list+0x334>
     67c:	005e2223          	sw	t0,4(t3)
     680:	000e0293          	mv	t0,t3
     684:	000e2e03          	lw	t3,0(t3)
     688:	040e0a63          	beqz	t3,6dc <core_bench_list+0x334>
     68c:	005e2223          	sw	t0,4(t3)
     690:	000e0293          	mv	t0,t3
     694:	000e2e03          	lw	t3,0(t3)
     698:	040e0263          	beqz	t3,6dc <core_bench_list+0x334>
     69c:	005e2223          	sw	t0,4(t3)
     6a0:	000e0293          	mv	t0,t3
     6a4:	000e2e03          	lw	t3,0(t3)
     6a8:	020e0a63          	beqz	t3,6dc <core_bench_list+0x334>
     6ac:	005e2223          	sw	t0,4(t3)
     6b0:	000e0293          	mv	t0,t3
     6b4:	000e2e03          	lw	t3,0(t3)
     6b8:	020e0263          	beqz	t3,6dc <core_bench_list+0x334>
     6bc:	005e2223          	sw	t0,4(t3)
     6c0:	000e0293          	mv	t0,t3
     6c4:	000e2e03          	lw	t3,0(t3)
     6c8:	000e0a63          	beqz	t3,6dc <core_bench_list+0x334>
     6cc:	005e2223          	sw	t0,4(t3)
     6d0:	000e0293          	mv	t0,t3
     6d4:	000e2e03          	lw	t3,0(t3)
     6d8:	f80e12e3          	bnez	t3,65c <core_bench_list+0x2b4>
     6dc:	00010eb7          	lui	t4,0x10
     6e0:	00ce8613          	addi	a2,t4,12 # 1000c <core_cached_prev_head>
     6e4:	00862023          	sw	s0,0(a2)
     6e8:	00562223          	sw	t0,4(a2)
     6ec:	18b042e3          	bgtz	a1,1070 <core_bench_list+0xcc8>
     6f0:	00042383          	lw	t2,0(s0)
     6f4:	0003a683          	lw	a3,0(t2)
     6f8:	0083a803          	lw	a6,8(t2)
     6fc:	0086af03          	lw	t5,8(a3)
     700:	01e3a423          	sw	t5,8(t2)
     704:	0106a423          	sw	a6,8(a3)
     708:	0003a783          	lw	a5,0(t2)
     70c:	0007af83          	lw	t6,0(a5)
     710:	01f3a023          	sw	t6,0(t2)
     714:	0006a023          	sw	zero,0(a3)
     718:	01812883          	lw	a7,24(sp)
     71c:	7a08c4e3          	bltz	a7,16c4 <core_bench_list+0x131c>
     720:	00040393          	mv	t2,s0
     724:	00c0006f          	j	730 <core_bench_list+0x388>
     728:	0003a383          	lw	t2,0(t2)
     72c:	780386e3          	beqz	t2,16b8 <core_bench_list+0x1310>
     730:	00a39283          	lh	t0,10(t2)
     734:	01812e03          	lw	t3,24(sp)
     738:	ffc298e3          	bne	t0,t3,728 <core_bench_list+0x380>
     73c:	00845e83          	lhu	t4,8(s0)
     740:	00c12603          	lw	a2,12(sp)
     744:	50ce858b          	.insn	4, 0x50ce858b
     748:	3c05b50b          	th.extu	a0,a1,15,0
     74c:	00a12623          	sw	a0,12(sp)
     750:	0003a383          	lw	t2,0(t2)
     754:	08038863          	beqz	t2,7e4 <core_bench_list+0x43c>
     758:	50ae880b          	.insn	4, 0x50ae880b
     75c:	3c083f0b          	th.extu	t5,a6,15,0
     760:	01e12623          	sw	t5,12(sp)
     764:	0003a783          	lw	a5,0(t2)
     768:	06078e63          	beqz	a5,7e4 <core_bench_list+0x43c>
     76c:	51ee8f8b          	.insn	4, 0x51ee8f8b
     770:	3c0fb88b          	th.extu	a7,t6,15,0
     774:	01112623          	sw	a7,12(sp)
     778:	0007a703          	lw	a4,0(a5)
     77c:	06070463          	beqz	a4,7e4 <core_bench_list+0x43c>
     780:	511e830b          	.insn	4, 0x511e830b
     784:	3c03328b          	th.extu	t0,t1,15,0
     788:	00512623          	sw	t0,12(sp)
     78c:	00072e03          	lw	t3,0(a4)
     790:	040e0a63          	beqz	t3,7e4 <core_bench_list+0x43c>
     794:	505e860b          	.insn	4, 0x505e860b
     798:	3c06358b          	th.extu	a1,a2,15,0
     79c:	00b12623          	sw	a1,12(sp)
     7a0:	000e2503          	lw	a0,0(t3)
     7a4:	04050063          	beqz	a0,7e4 <core_bench_list+0x43c>
     7a8:	50be838b          	.insn	4, 0x50be838b
     7ac:	3c03b80b          	th.extu	a6,t2,15,0
     7b0:	01012623          	sw	a6,12(sp)
     7b4:	00052f03          	lw	t5,0(a0)
     7b8:	020f0663          	beqz	t5,7e4 <core_bench_list+0x43c>
     7bc:	510e878b          	.insn	4, 0x510e878b
     7c0:	3c07bf8b          	th.extu	t6,a5,15,0
     7c4:	01f12623          	sw	t6,12(sp)
     7c8:	000f2883          	lw	a7,0(t5)
     7cc:	00088c63          	beqz	a7,7e4 <core_bench_list+0x43c>
     7d0:	51fe870b          	.insn	4, 0x51fe870b
     7d4:	3c07330b          	th.extu	t1,a4,15,0
     7d8:	00612623          	sw	t1,12(sp)
     7dc:	0008a383          	lw	t2,0(a7)
     7e0:	f60390e3          	bnez	t2,740 <core_bench_list+0x398>
     7e4:	00042383          	lw	t2,0(s0)
     7e8:	0086ae83          	lw	t4,8(a3)
     7ec:	0083a283          	lw	t0,8(t2)
     7f0:	0056a423          	sw	t0,8(a3)
     7f4:	01d3a423          	sw	t4,8(t2)
     7f8:	0003ae03          	lw	t3,0(t2)
     7fc:	01c6a023          	sw	t3,0(a3)
     800:	00d3a023          	sw	a3,0(t2)
     804:	00100893          	li	a7,1
     808:	00088e13          	mv	t3,a7
     80c:	00041463          	bnez	s0,814 <core_bench_list+0x46c>
     810:	1140106f          	j	1924 <core_bench_list+0x157c>
     814:	00000813          	li	a6,0
     818:	00000713          	li	a4,0
     81c:	00000313          	li	t1,0
     820:	00130313          	addi	t1,t1,1
     824:	00040613          	mv	a2,s0
     828:	00000793          	li	a5,0
     82c:	0078f693          	andi	a3,a7,7
     830:	08068463          	beqz	a3,8b8 <core_bench_list+0x510>
     834:	0f17d663          	bge	a5,a7,920 <core_bench_list+0x578>
     838:	00100793          	li	a5,1
     83c:	00042603          	lw	a2,0(s0)
     840:	0e060063          	beqz	a2,920 <core_bench_list+0x578>
     844:	06f68a63          	beq	a3,a5,8b8 <core_bench_list+0x510>
     848:	00200593          	li	a1,2
     84c:	06b68063          	beq	a3,a1,8ac <core_bench_list+0x504>
     850:	00300513          	li	a0,3
     854:	04a68663          	beq	a3,a0,8a0 <core_bench_list+0x4f8>
     858:	00400f13          	li	t5,4
     85c:	03e68c63          	beq	a3,t5,894 <core_bench_list+0x4ec>
     860:	00500f93          	li	t6,5
     864:	03f68263          	beq	a3,t6,888 <core_bench_list+0x4e0>
     868:	00600393          	li	t2,6
     86c:	00768863          	beq	a3,t2,87c <core_bench_list+0x4d4>
     870:	00058793          	mv	a5,a1
     874:	00062603          	lw	a2,0(a2)
     878:	0a060463          	beqz	a2,920 <core_bench_list+0x578>
     87c:	00178793          	addi	a5,a5,1
     880:	00062603          	lw	a2,0(a2)
     884:	08060e63          	beqz	a2,920 <core_bench_list+0x578>
     888:	00178793          	addi	a5,a5,1
     88c:	00062603          	lw	a2,0(a2)
     890:	08060863          	beqz	a2,920 <core_bench_list+0x578>
     894:	00178793          	addi	a5,a5,1
     898:	00062603          	lw	a2,0(a2)
     89c:	08060263          	beqz	a2,920 <core_bench_list+0x578>
     8a0:	00178793          	addi	a5,a5,1
     8a4:	00062603          	lw	a2,0(a2)
     8a8:	06060c63          	beqz	a2,920 <core_bench_list+0x578>
     8ac:	00178793          	addi	a5,a5,1
     8b0:	00062603          	lw	a2,0(a2)
     8b4:	06060663          	beqz	a2,920 <core_bench_list+0x578>
     8b8:	0717d463          	bge	a5,a7,920 <core_bench_list+0x578>
     8bc:	00178793          	addi	a5,a5,1
     8c0:	00078e93          	mv	t4,a5
     8c4:	00062603          	lw	a2,0(a2)
     8c8:	04060c63          	beqz	a2,920 <core_bench_list+0x578>
     8cc:	00178793          	addi	a5,a5,1
     8d0:	00062603          	lw	a2,0(a2)
     8d4:	04060663          	beqz	a2,920 <core_bench_list+0x578>
     8d8:	002e8793          	addi	a5,t4,2
     8dc:	00062603          	lw	a2,0(a2)
     8e0:	04060063          	beqz	a2,920 <core_bench_list+0x578>
     8e4:	003e8793          	addi	a5,t4,3
     8e8:	00062603          	lw	a2,0(a2)
     8ec:	02060a63          	beqz	a2,920 <core_bench_list+0x578>
     8f0:	004e8793          	addi	a5,t4,4
     8f4:	00062603          	lw	a2,0(a2)
     8f8:	02060463          	beqz	a2,920 <core_bench_list+0x578>
     8fc:	005e8793          	addi	a5,t4,5
     900:	00062603          	lw	a2,0(a2)
     904:	00060e63          	beqz	a2,920 <core_bench_list+0x578>
     908:	006e8793          	addi	a5,t4,6
     90c:	00062603          	lw	a2,0(a2)
     910:	00060863          	beqz	a2,920 <core_bench_list+0x578>
     914:	007e8793          	addi	a5,t4,7
     918:	00062603          	lw	a2,0(a2)
     91c:	f8061ee3          	bnez	a2,8b8 <core_bench_list+0x510>
     920:	00088513          	mv	a0,a7
     924:	00070693          	mv	a3,a4
     928:	00040713          	mv	a4,s0
     92c:	00060413          	mv	s0,a2
     930:	04f05e63          	blez	a5,98c <core_bench_list+0x5e4>
     934:	4a050663          	beqz	a0,de0 <core_bench_list+0xa38>
     938:	52040c63          	beqz	s0,e70 <core_bench_list+0xac8>
     93c:	00871f03          	lh	t5,8(a4)
     940:	f00f7593          	andi	a1,t5,-256
     944:	3c8f3f8b          	th.extu	t6,t5,15,8
     948:	01f5e3b3          	or	t2,a1,t6
     94c:	00771423          	sh	t2,8(a4)
     950:	00841e83          	lh	t4,8(s0)
     954:	f00ef293          	andi	t0,t4,-256
     958:	3c8eb60b          	th.extu	a2,t4,15,8
     95c:	00c2ef33          	or	t5,t0,a2
     960:	01e41423          	sh	t5,8(s0)
     964:	00a71583          	lh	a1,10(a4)
     968:	00a41f83          	lh	t6,10(s0)
     96c:	4abfd463          	bge	t6,a1,e14 <core_bench_list+0xa6c>
     970:	00042383          	lw	t2,0(s0)
     974:	fff50513          	addi	a0,a0,-1
     978:	4a068e63          	beqz	a3,e34 <core_bench_list+0xa8c>
     97c:	0086a023          	sw	s0,0(a3)
     980:	00040693          	mv	a3,s0
     984:	00038413          	mv	s0,t2
     988:	faf046e3          	bgtz	a5,934 <core_bench_list+0x58c>
     98c:	4ca05c63          	blez	a0,e64 <core_bench_list+0xabc>
     990:	1a040a63          	beqz	s0,b44 <core_bench_list+0x79c>
     994:	fa0794e3          	bnez	a5,93c <core_bench_list+0x594>
     998:	fff50293          	addi	t0,a0,-1
     99c:	0072f793          	andi	a5,t0,7
     9a0:	0e078c63          	beqz	a5,a98 <core_bench_list+0x6f0>
     9a4:	00042703          	lw	a4,0(s0)
     9a8:	00028513          	mv	a0,t0
     9ac:	56068663          	beqz	a3,f18 <core_bench_list+0xb70>
     9b0:	0086a023          	sw	s0,0(a3)
     9b4:	00040693          	mv	a3,s0
     9b8:	18070663          	beqz	a4,b44 <core_bench_list+0x79c>
     9bc:	00070413          	mv	s0,a4
     9c0:	00100613          	li	a2,1
     9c4:	0cc78a63          	beq	a5,a2,a98 <core_bench_list+0x6f0>
     9c8:	00200f13          	li	t5,2
     9cc:	0be78863          	beq	a5,t5,a7c <core_bench_list+0x6d4>
     9d0:	00300593          	li	a1,3
     9d4:	08b78663          	beq	a5,a1,a60 <core_bench_list+0x6b8>
     9d8:	00400f93          	li	t6,4
     9dc:	07f78463          	beq	a5,t6,a44 <core_bench_list+0x69c>
     9e0:	00500393          	li	t2,5
     9e4:	04778263          	beq	a5,t2,a28 <core_bench_list+0x680>
     9e8:	00600e93          	li	t4,6
     9ec:	03d78063          	beq	a5,t4,a0c <core_bench_list+0x664>
     9f0:	00072283          	lw	t0,0(a4)
     9f4:	fff50513          	addi	a0,a0,-1
     9f8:	5e068063          	beqz	a3,fd8 <core_bench_list+0xc30>
     9fc:	00e6a023          	sw	a4,0(a3)
     a00:	00040693          	mv	a3,s0
     a04:	14028063          	beqz	t0,b44 <core_bench_list+0x79c>
     a08:	00028413          	mv	s0,t0
     a0c:	00042783          	lw	a5,0(s0)
     a10:	fff50513          	addi	a0,a0,-1
     a14:	52068663          	beqz	a3,f40 <core_bench_list+0xb98>
     a18:	0086a023          	sw	s0,0(a3)
     a1c:	00040693          	mv	a3,s0
     a20:	12078263          	beqz	a5,b44 <core_bench_list+0x79c>
     a24:	00078413          	mv	s0,a5
     a28:	00042703          	lw	a4,0(s0)
     a2c:	fff50513          	addi	a0,a0,-1
     a30:	50068463          	beqz	a3,f38 <core_bench_list+0xb90>
     a34:	0086a023          	sw	s0,0(a3)
     a38:	00040693          	mv	a3,s0
     a3c:	10070463          	beqz	a4,b44 <core_bench_list+0x79c>
     a40:	00070413          	mv	s0,a4
     a44:	00042603          	lw	a2,0(s0)
     a48:	fff50513          	addi	a0,a0,-1
     a4c:	4e068263          	beqz	a3,f30 <core_bench_list+0xb88>
     a50:	0086a023          	sw	s0,0(a3)
     a54:	00040693          	mv	a3,s0
     a58:	0e060663          	beqz	a2,b44 <core_bench_list+0x79c>
     a5c:	00060413          	mv	s0,a2
     a60:	00042f03          	lw	t5,0(s0)
     a64:	fff50513          	addi	a0,a0,-1
     a68:	4c068063          	beqz	a3,f28 <core_bench_list+0xb80>
     a6c:	0086a023          	sw	s0,0(a3)
     a70:	00040693          	mv	a3,s0
     a74:	0c0f0863          	beqz	t5,b44 <core_bench_list+0x79c>
     a78:	000f0413          	mv	s0,t5
     a7c:	00042583          	lw	a1,0(s0)
     a80:	fff50513          	addi	a0,a0,-1
     a84:	48068e63          	beqz	a3,f20 <core_bench_list+0xb78>
     a88:	0086a023          	sw	s0,0(a3)
     a8c:	00040693          	mv	a3,s0
     a90:	0a058a63          	beqz	a1,b44 <core_bench_list+0x79c>
     a94:	00058413          	mv	s0,a1
     a98:	00042f83          	lw	t6,0(s0)
     a9c:	fff50513          	addi	a0,a0,-1
     aa0:	42068463          	beqz	a3,ec8 <core_bench_list+0xb20>
     aa4:	0086a023          	sw	s0,0(a3)
     aa8:	42050463          	beqz	a0,ed0 <core_bench_list+0xb28>
     aac:	00040693          	mv	a3,s0
     ab0:	080f8a63          	beqz	t6,b44 <core_bench_list+0x79c>
     ab4:	000fa383          	lw	t2,0(t6)
     ab8:	42040463          	beqz	s0,ee0 <core_bench_list+0xb38>
     abc:	01f42023          	sw	t6,0(s0)
     ac0:	000f8693          	mv	a3,t6
     ac4:	08038063          	beqz	t2,b44 <core_bench_list+0x79c>
     ac8:	0003a403          	lw	s0,0(t2)
     acc:	400f8e63          	beqz	t6,ee8 <core_bench_list+0xb40>
     ad0:	007fa023          	sw	t2,0(t6)
     ad4:	00038693          	mv	a3,t2
     ad8:	06040663          	beqz	s0,b44 <core_bench_list+0x79c>
     adc:	00042e83          	lw	t4,0(s0)
     ae0:	40038863          	beqz	t2,ef0 <core_bench_list+0xb48>
     ae4:	0083a023          	sw	s0,0(t2)
     ae8:	00040693          	mv	a3,s0
     aec:	040e8c63          	beqz	t4,b44 <core_bench_list+0x79c>
     af0:	000ea283          	lw	t0,0(t4)
     af4:	40040263          	beqz	s0,ef8 <core_bench_list+0xb50>
     af8:	01d42023          	sw	t4,0(s0)
     afc:	000e8693          	mv	a3,t4
     b00:	04028263          	beqz	t0,b44 <core_bench_list+0x79c>
     b04:	0002a603          	lw	a2,0(t0)
     b08:	3e0e8c63          	beqz	t4,f00 <core_bench_list+0xb58>
     b0c:	005ea023          	sw	t0,0(t4)
     b10:	00028693          	mv	a3,t0
     b14:	02060863          	beqz	a2,b44 <core_bench_list+0x79c>
     b18:	00062783          	lw	a5,0(a2)
     b1c:	3e028663          	beqz	t0,f08 <core_bench_list+0xb60>
     b20:	00c2a023          	sw	a2,0(t0)
     b24:	00060693          	mv	a3,a2
     b28:	00078e63          	beqz	a5,b44 <core_bench_list+0x79c>
     b2c:	0007a403          	lw	s0,0(a5)
     b30:	ff950513          	addi	a0,a0,-7
     b34:	3c060e63          	beqz	a2,f10 <core_bench_list+0xb68>
     b38:	00f62023          	sw	a5,0(a2)
     b3c:	00078693          	mv	a3,a5
     b40:	f4041ce3          	bnez	s0,a98 <core_bench_list+0x6f0>
     b44:	0006a023          	sw	zero,0(a3)
     b48:	41c30063          	beq	t1,t3,f48 <core_bench_list+0xba0>
     b4c:	00189893          	slli	a7,a7,0x1
     b50:	00080413          	mv	s0,a6
     b54:	cb9ff06f          	j	80c <core_bench_list+0x464>
     b58:	00100793          	li	a5,1
     b5c:	001e0e13          	addi	t3,t3,1
     b60:	4a079063          	bnez	a5,1000 <core_bench_list+0xc58>
     b64:	0042a803          	lw	a6,4(t0)
     b68:	00028713          	mv	a4,t0
     b6c:	00040293          	mv	t0,s0
     b70:	00070413          	mv	s0,a4
     b74:	00100793          	li	a5,1
     b78:	00980f83          	lb	t6,9(a6)
     b7c:	001ff893          	andi	a7,t6,1
     b80:	01160633          	add	a2,a2,a7
     b84:	00168693          	addi	a3,a3,1
     b88:	3c06a68b          	th.ext	a3,a3,15,0
     b8c:	01812303          	lw	t1,24(sp)
     b90:	90669ee3          	bne	a3,t1,4ac <core_bench_list+0x104>
     b94:	20cec2b3          	sh2add	t0,t4,a2
     b98:	41c28e33          	sub	t3,t0,t3
     b9c:	3c0e3e8b          	th.extu	t4,t3,15,0
     ba0:	01d12623          	sw	t4,12(sp)
     ba4:	aa0788e3          	beqz	a5,654 <core_bench_list+0x2ac>
     ba8:	00000313          	li	t1,0
     bac:	00042603          	lw	a2,0(s0)
     bb0:	00642023          	sw	t1,0(s0)
     bb4:	00040393          	mv	t2,s0
     bb8:	a8060ee3          	beqz	a2,654 <core_bench_list+0x2ac>
     bbc:	00060413          	mv	s0,a2
     bc0:	00062803          	lw	a6,0(a2)
     bc4:	00762023          	sw	t2,0(a2)
     bc8:	a80806e3          	beqz	a6,654 <core_bench_list+0x2ac>
     bcc:	00080413          	mv	s0,a6
     bd0:	00082783          	lw	a5,0(a6)
     bd4:	00c82023          	sw	a2,0(a6)
     bd8:	a6078ee3          	beqz	a5,654 <core_bench_list+0x2ac>
     bdc:	00078413          	mv	s0,a5
     be0:	0007af03          	lw	t5,0(a5)
     be4:	0107a023          	sw	a6,0(a5)
     be8:	a60f06e3          	beqz	t5,654 <core_bench_list+0x2ac>
     bec:	000f0413          	mv	s0,t5
     bf0:	000f2703          	lw	a4,0(t5)
     bf4:	00ff2023          	sw	a5,0(t5)
     bf8:	a4070ee3          	beqz	a4,654 <core_bench_list+0x2ac>
     bfc:	00070413          	mv	s0,a4
     c00:	00072f83          	lw	t6,0(a4)
     c04:	01e72023          	sw	t5,0(a4)
     c08:	a40f86e3          	beqz	t6,654 <core_bench_list+0x2ac>
     c0c:	000f8413          	mv	s0,t6
     c10:	000fa883          	lw	a7,0(t6)
     c14:	00efa023          	sw	a4,0(t6)
     c18:	a2088ee3          	beqz	a7,654 <core_bench_list+0x2ac>
     c1c:	00088413          	mv	s0,a7
     c20:	0008a683          	lw	a3,0(a7)
     c24:	01f8a023          	sw	t6,0(a7)
     c28:	00088313          	mv	t1,a7
     c2c:	a20684e3          	beqz	a3,654 <core_bench_list+0x2ac>
     c30:	00068413          	mv	s0,a3
     c34:	00042603          	lw	a2,0(s0)
     c38:	00642023          	sw	t1,0(s0)
     c3c:	00040393          	mv	t2,s0
     c40:	f6061ee3          	bnez	a2,bbc <core_bench_list+0x814>
     c44:	a11ff06f          	j	654 <core_bench_list+0x2ac>
     c48:	00432f03          	lw	t5,4(t1)
     c4c:	01e7a223          	sw	t5,4(a5)
     c50:	3c0f0863          	beqz	t5,1020 <core_bench_list+0xc78>
     c54:	00ff2023          	sw	a5,0(t5)
     c58:	00442703          	lw	a4,4(s0)
     c5c:	00e32223          	sw	a4,4(t1)
     c60:	00832023          	sw	s0,0(t1)
     c64:	3a070a63          	beqz	a4,1018 <core_bench_list+0xc70>
     c68:	00672023          	sw	t1,0(a4)
     c6c:	00642223          	sw	t1,4(s0)
     c70:	00168693          	addi	a3,a3,1
     c74:	3c06a68b          	th.ext	a3,a3,15,0
     c78:	01812f83          	lw	t6,24(sp)
     c7c:	88df9ce3          	bne	t6,a3,514 <core_bench_list+0x16c>
     c80:	01412383          	lw	t2,20(sp)
     c84:	20cec2b3          	sh2add	t0,t4,a2
     c88:	41c28eb3          	sub	t4,t0,t3
     c8c:	3c0eb60b          	th.extu	a2,t4,15,0
     c90:	00c12623          	sw	a2,12(sp)
     c94:	00712a23          	sw	t2,20(sp)
     c98:	f11ff06f          	j	ba8 <core_bench_list+0x800>
     c9c:	0007a803          	lw	a6,0(a5)
     ca0:	34080063          	beqz	a6,fe0 <core_bench_list+0xc38>
     ca4:	00082f03          	lw	t5,0(a6)
     ca8:	01e7a023          	sw	t5,0(a5)
     cac:	2c0f02e3          	beqz	t5,1770 <core_bench_list+0x13c8>
     cb0:	00ff2223          	sw	a5,4(t5)
     cb4:	00042703          	lw	a4,0(s0)
     cb8:	00e82023          	sw	a4,0(a6)
     cbc:	00882223          	sw	s0,4(a6)
     cc0:	2a0704e3          	beqz	a4,1768 <core_bench_list+0x13c0>
     cc4:	01072223          	sw	a6,4(a4)
     cc8:	01042023          	sw	a6,0(s0)
     ccc:	00168693          	addi	a3,a3,1
     cd0:	3c06a68b          	th.ext	a3,a3,15,0
     cd4:	01812f83          	lw	t6,24(sp)
     cd8:	fcdf9c63          	bne	t6,a3,4b0 <core_bench_list+0x108>
     cdc:	20cec2b3          	sh2add	t0,t4,a2
     ce0:	41c28eb3          	sub	t4,t0,t3
     ce4:	3c0eb60b          	th.extu	a2,t4,15,0
     ce8:	00c12623          	sw	a2,12(sp)
     cec:	960414e3          	bnez	s0,654 <core_bench_list+0x2ac>
     cf0:	00010437          	lui	s0,0x10
     cf4:	00c40513          	addi	a0,s0,12 # 1000c <core_cached_prev_head>
     cf8:	00052023          	sw	zero,0(a0)
     cfc:	00052223          	sw	zero,4(a0)
     d00:	3eb048e3          	bgtz	a1,18f0 <core_bench_list+0x1548>
     d04:	00000413          	li	s0,0
     d08:	9e9ff06f          	j	6f0 <core_bench_list+0x348>
     d0c:	00100793          	li	a5,1
     d10:	001e0e13          	addi	t3,t3,1
     d14:	04079e63          	bnez	a5,d70 <core_bench_list+0x9c8>
     d18:	0042a383          	lw	t2,4(t0)
     d1c:	00028713          	mv	a4,t0
     d20:	00040293          	mv	t0,s0
     d24:	00070413          	mv	s0,a4
     d28:	00100793          	li	a5,1
     d2c:	00938f83          	lb	t6,9(t2)
     d30:	001ff693          	andi	a3,t6,1
     d34:	00d60633          	add	a2,a2,a3
     d38:	00180313          	addi	t1,a6,1
     d3c:	3c03280b          	th.ext	a6,t1,15,0
     d40:	05088e63          	beq	a7,a6,d9c <core_bench_list+0x9f4>
     d44:	0ff37393          	zext.b	t2,t1
     d48:	00712a23          	sw	t2,20(sp)
     d4c:	80078ee3          	beqz	a5,568 <core_bench_list+0x1c0>
     d50:	8b1ff06f          	j	600 <core_bench_list+0x258>
     d54:	00180313          	addi	t1,a6,1
     d58:	3c03280b          	th.ext	a6,t1,15,0
     d5c:	190884e3          	beq	a7,a6,16e4 <core_bench_list+0x133c>
     d60:	0ff37393          	zext.b	t2,t1
     d64:	00712a23          	sw	t2,20(sp)
     d68:	88041ce3          	bnez	s0,600 <core_bench_list+0x258>
     d6c:	001e0e13          	addi	t3,t3,1
     d70:	0002a383          	lw	t2,0(t0)
     d74:	00028f13          	mv	t5,t0
     d78:	00040293          	mv	t0,s0
     d7c:	000f0413          	mv	s0,t5
     d80:	00000793          	li	a5,0
     d84:	00938f83          	lb	t6,9(t2)
     d88:	001ff693          	andi	a3,t6,1
     d8c:	00d60633          	add	a2,a2,a3
     d90:	00180313          	addi	t1,a6,1
     d94:	3c03280b          	th.ext	a6,t1,15,0
     d98:	fb0896e3          	bne	a7,a6,d44 <core_bench_list+0x99c>
     d9c:	00b12c23          	sw	a1,24(sp)
     da0:	20cec2b3          	sh2add	t0,t4,a2
     da4:	41c28e33          	sub	t3,t0,t3
     da8:	3c0e3e8b          	th.extu	t4,t3,15,0
     dac:	01d12623          	sw	t4,12(sp)
     db0:	8a0782e3          	beqz	a5,654 <core_bench_list+0x2ac>
     db4:	df5ff06f          	j	ba8 <core_bench_list+0x800>
     db8:	0007a303          	lw	t1,0(a5)
     dbc:	26031663          	bnez	t1,1028 <core_bench_list+0xc80>
     dc0:	00180793          	addi	a5,a6,1
     dc4:	3c07a80b          	th.ext	a6,a5,15,0
     dc8:	211802e3          	beq	a6,a7,17cc <core_bench_list+0x1424>
     dcc:	0ff7f393          	zext.b	t2,a5
     dd0:	00712a23          	sw	t2,20(sp)
     dd4:	f8041a63          	bnez	s0,568 <core_bench_list+0x1c0>
     dd8:	001e0e13          	addi	t3,t3,1
     ddc:	f3dff06f          	j	d18 <core_bench_list+0x970>
     de0:	00072f03          	lw	t5,0(a4)
     de4:	fff78793          	addi	a5,a5,-1
     de8:	02068063          	beqz	a3,e08 <core_bench_list+0xa60>
     dec:	00e6a023          	sw	a4,0(a3)
     df0:	04078863          	beqz	a5,e40 <core_bench_list+0xa98>
     df4:	00070693          	mv	a3,a4
     df8:	000f0713          	mv	a4,t5
     dfc:	00072f03          	lw	t5,0(a4)
     e00:	fff78793          	addi	a5,a5,-1
     e04:	fe0694e3          	bnez	a3,dec <core_bench_list+0xa44>
     e08:	02078a63          	beqz	a5,e3c <core_bench_list+0xa94>
     e0c:	00070813          	mv	a6,a4
     e10:	fe5ff06f          	j	df4 <core_bench_list+0xa4c>
     e14:	00072e83          	lw	t4,0(a4)
     e18:	fff78793          	addi	a5,a5,-1
     e1c:	02068863          	beqz	a3,e4c <core_bench_list+0xaa4>
     e20:	00e6a023          	sw	a4,0(a3)
     e24:	02f05a63          	blez	a5,e58 <core_bench_list+0xab0>
     e28:	00070693          	mv	a3,a4
     e2c:	000e8713          	mv	a4,t4
     e30:	b0dff06f          	j	93c <core_bench_list+0x594>
     e34:	00040813          	mv	a6,s0
     e38:	b49ff06f          	j	980 <core_bench_list+0x5d8>
     e3c:	00070813          	mv	a6,a4
     e40:	9e0410e3          	bnez	s0,820 <core_bench_list+0x478>
     e44:	00070693          	mv	a3,a4
     e48:	cfdff06f          	j	b44 <core_bench_list+0x79c>
     e4c:	06f05663          	blez	a5,eb8 <core_bench_list+0xb10>
     e50:	00070813          	mv	a6,a4
     e54:	fd5ff06f          	j	e28 <core_bench_list+0xa80>
     e58:	00070693          	mv	a3,a4
     e5c:	000e8713          	mv	a4,t4
     e60:	b2a048e3          	bgtz	a0,990 <core_bench_list+0x5e8>
     e64:	00068713          	mv	a4,a3
     e68:	9a041ce3          	bnez	s0,820 <core_bench_list+0x478>
     e6c:	fd9ff06f          	j	e44 <core_bench_list+0xa9c>
     e70:	00068293          	mv	t0,a3
     e74:	00070693          	mv	a3,a4
     e78:	0006a703          	lw	a4,0(a3)
     e7c:	fff78793          	addi	a5,a5,-1
     e80:	02028063          	beqz	t0,ea0 <core_bench_list+0xaf8>
     e84:	00d2a023          	sw	a3,0(t0)
     e88:	b00782e3          	beqz	a5,98c <core_bench_list+0x5e4>
     e8c:	00068293          	mv	t0,a3
     e90:	00070693          	mv	a3,a4
     e94:	0006a703          	lw	a4,0(a3)
     e98:	fff78793          	addi	a5,a5,-1
     e9c:	fe0294e3          	bnez	t0,e84 <core_bench_list+0xadc>
     ea0:	00078663          	beqz	a5,eac <core_bench_list+0xb04>
     ea4:	00068813          	mv	a6,a3
     ea8:	fe5ff06f          	j	e8c <core_bench_list+0xae4>
     eac:	00068813          	mv	a6,a3
     eb0:	00000413          	li	s0,0
     eb4:	ad9ff06f          	j	98c <core_bench_list+0x5e4>
     eb8:	00070813          	mv	a6,a4
     ebc:	00070693          	mv	a3,a4
     ec0:	000e8713          	mv	a4,t4
     ec4:	ac9ff06f          	j	98c <core_bench_list+0x5e4>
     ec8:	00040813          	mv	a6,s0
     ecc:	be0510e3          	bnez	a0,aac <core_bench_list+0x704>
     ed0:	00040713          	mv	a4,s0
     ed4:	000f8413          	mv	s0,t6
     ed8:	940414e3          	bnez	s0,820 <core_bench_list+0x478>
     edc:	f69ff06f          	j	e44 <core_bench_list+0xa9c>
     ee0:	000f8813          	mv	a6,t6
     ee4:	bddff06f          	j	ac0 <core_bench_list+0x718>
     ee8:	00038813          	mv	a6,t2
     eec:	be9ff06f          	j	ad4 <core_bench_list+0x72c>
     ef0:	00040813          	mv	a6,s0
     ef4:	bf5ff06f          	j	ae8 <core_bench_list+0x740>
     ef8:	000e8813          	mv	a6,t4
     efc:	c01ff06f          	j	afc <core_bench_list+0x754>
     f00:	00028813          	mv	a6,t0
     f04:	c0dff06f          	j	b10 <core_bench_list+0x768>
     f08:	00060813          	mv	a6,a2
     f0c:	c19ff06f          	j	b24 <core_bench_list+0x77c>
     f10:	00078813          	mv	a6,a5
     f14:	c29ff06f          	j	b3c <core_bench_list+0x794>
     f18:	00040813          	mv	a6,s0
     f1c:	a99ff06f          	j	9b4 <core_bench_list+0x60c>
     f20:	00040813          	mv	a6,s0
     f24:	b69ff06f          	j	a8c <core_bench_list+0x6e4>
     f28:	00040813          	mv	a6,s0
     f2c:	b45ff06f          	j	a70 <core_bench_list+0x6c8>
     f30:	00040813          	mv	a6,s0
     f34:	b21ff06f          	j	a54 <core_bench_list+0x6ac>
     f38:	00040813          	mv	a6,s0
     f3c:	afdff06f          	j	a38 <core_bench_list+0x690>
     f40:	00040813          	mv	a6,s0
     f44:	ad9ff06f          	j	a1c <core_bench_list+0x674>
     f48:	080808e3          	beqz	a6,17d8 <core_bench_list+0x1430>
     f4c:	00080293          	mv	t0,a6
     f50:	00000e93          	li	t4,0
     f54:	01d2a223          	sw	t4,4(t0)
     f58:	00028e93          	mv	t4,t0
     f5c:	0002a303          	lw	t1,0(t0)
     f60:	06030ee3          	beqz	t1,17dc <core_bench_list+0x1434>
     f64:	00532223          	sw	t0,4(t1)
     f68:	00030e93          	mv	t4,t1
     f6c:	00032e03          	lw	t3,0(t1)
     f70:	060e06e3          	beqz	t3,17dc <core_bench_list+0x1434>
     f74:	006e2223          	sw	t1,4(t3)
     f78:	000e0e93          	mv	t4,t3
     f7c:	000e2583          	lw	a1,0(t3)
     f80:	04058ee3          	beqz	a1,17dc <core_bench_list+0x1434>
     f84:	01c5a223          	sw	t3,4(a1)
     f88:	00058e93          	mv	t4,a1
     f8c:	0005af83          	lw	t6,0(a1)
     f90:	040f86e3          	beqz	t6,17dc <core_bench_list+0x1434>
     f94:	00bfa223          	sw	a1,4(t6)
     f98:	000f8e93          	mv	t4,t6
     f9c:	000fa703          	lw	a4,0(t6)
     fa0:	02070ee3          	beqz	a4,17dc <core_bench_list+0x1434>
     fa4:	01f72223          	sw	t6,4(a4)
     fa8:	00070e93          	mv	t4,a4
     fac:	00072383          	lw	t2,0(a4)
     fb0:	020386e3          	beqz	t2,17dc <core_bench_list+0x1434>
     fb4:	00e3a223          	sw	a4,4(t2)
     fb8:	00038e93          	mv	t4,t2
     fbc:	0003a403          	lw	s0,0(t2)
     fc0:	00040ee3          	beqz	s0,17dc <core_bench_list+0x1434>
     fc4:	00742223          	sw	t2,4(s0)
     fc8:	00040e93          	mv	t4,s0
     fcc:	00042283          	lw	t0,0(s0)
     fd0:	f80292e3          	bnez	t0,f54 <core_bench_list+0xbac>
     fd4:	0090006f          	j	17dc <core_bench_list+0x1434>
     fd8:	00070813          	mv	a6,a4
     fdc:	a25ff06f          	j	a00 <core_bench_list+0x658>
     fe0:	00168793          	addi	a5,a3,1
     fe4:	3c07a68b          	th.ext	a3,a5,15,0
     fe8:	01812883          	lw	a7,24(sp)
     fec:	ced888e3          	beq	a7,a3,cdc <core_bench_list+0x934>
     ff0:	cc041063          	bnez	s0,4b0 <core_bench_list+0x108>
     ff4:	001e0e13          	addi	t3,t3,1
     ff8:	b6dff06f          	j	b64 <core_bench_list+0x7bc>
     ffc:	001e0e13          	addi	t3,t3,1
    1000:	0002a803          	lw	a6,0(t0)
    1004:	00028f13          	mv	t5,t0
    1008:	00040293          	mv	t0,s0
    100c:	000f0413          	mv	s0,t5
    1010:	00000793          	li	a5,0
    1014:	b65ff06f          	j	b78 <core_bench_list+0x7d0>
    1018:	00030293          	mv	t0,t1
    101c:	c51ff06f          	j	c6c <core_bench_list+0x8c4>
    1020:	00078293          	mv	t0,a5
    1024:	c35ff06f          	j	c58 <core_bench_list+0x8b0>
    1028:	00032f03          	lw	t5,0(t1)
    102c:	01e7a023          	sw	t5,0(a5)
    1030:	000f0663          	beqz	t5,103c <core_bench_list+0xc94>
    1034:	00ff2223          	sw	a5,4(t5)
    1038:	00028793          	mv	a5,t0
    103c:	00042283          	lw	t0,0(s0)
    1040:	00532023          	sw	t0,0(t1)
    1044:	00832223          	sw	s0,4(t1)
    1048:	70028c63          	beqz	t0,1760 <core_bench_list+0x13b8>
    104c:	0062a223          	sw	t1,4(t0)
    1050:	00642023          	sw	t1,0(s0)
    1054:	00180713          	addi	a4,a6,1
    1058:	3c07280b          	th.ext	a6,a4,15,0
    105c:	77180863          	beq	a6,a7,17cc <core_bench_list+0x1424>
    1060:	0ff77f93          	zext.b	t6,a4
    1064:	01f12a23          	sw	t6,20(sp)
    1068:	00078293          	mv	t0,a5
    106c:	cfcff06f          	j	568 <core_bench_list+0x1c0>
    1070:	04912a23          	sw	s1,84(sp)
    1074:	05212823          	sw	s2,80(sp)
    1078:	05312623          	sw	s3,76(sp)
    107c:	05412423          	sw	s4,72(sp)
    1080:	05512223          	sw	s5,68(sp)
    1084:	05612023          	sw	s6,64(sp)
    1088:	03712e23          	sw	s7,60(sp)
    108c:	03812c23          	sw	s8,56(sp)
    1090:	03912a23          	sw	s9,52(sp)
    1094:	03a12823          	sw	s10,48(sp)
    1098:	03b12623          	sw	s11,44(sp)
    109c:	00050a93          	mv	s5,a0
    10a0:	00100d93          	li	s11,1
    10a4:	01c12e23          	sw	t3,28(sp)
    10a8:	000d8d13          	mv	s10,s11
    10ac:	060408e3          	beqz	s0,191c <core_bench_list+0x1574>
    10b0:	01c12983          	lw	s3,28(sp)
    10b4:	00098c93          	mv	s9,s3
    10b8:	00012423          	sw	zero,8(sp)
    10bc:	028a8493          	addi	s1,s5,40
    10c0:	00912823          	sw	s1,16(sp)
    10c4:	00812583          	lw	a1,8(sp)
    10c8:	00158913          	addi	s2,a1,1
    10cc:	01212423          	sw	s2,8(sp)
    10d0:	00040793          	mv	a5,s0
    10d4:	00000493          	li	s1,0
    10d8:	007dfa13          	andi	s4,s11,7
    10dc:	080a0463          	beqz	s4,1164 <core_bench_list+0xdbc>
    10e0:	0fb4d663          	bge	s1,s11,11cc <core_bench_list+0xe24>
    10e4:	00100493          	li	s1,1
    10e8:	00042783          	lw	a5,0(s0)
    10ec:	0e078063          	beqz	a5,11cc <core_bench_list+0xe24>
    10f0:	069a0a63          	beq	s4,s1,1164 <core_bench_list+0xdbc>
    10f4:	00200b13          	li	s6,2
    10f8:	076a0063          	beq	s4,s6,1158 <core_bench_list+0xdb0>
    10fc:	00300b93          	li	s7,3
    1100:	057a0663          	beq	s4,s7,114c <core_bench_list+0xda4>
    1104:	00400c13          	li	s8,4
    1108:	038a0c63          	beq	s4,s8,1140 <core_bench_list+0xd98>
    110c:	00500513          	li	a0,5
    1110:	02aa0263          	beq	s4,a0,1134 <core_bench_list+0xd8c>
    1114:	00600393          	li	t2,6
    1118:	007a0863          	beq	s4,t2,1128 <core_bench_list+0xd80>
    111c:	000b0493          	mv	s1,s6
    1120:	0007a783          	lw	a5,0(a5)
    1124:	0a078463          	beqz	a5,11cc <core_bench_list+0xe24>
    1128:	00148493          	addi	s1,s1,1
    112c:	0007a783          	lw	a5,0(a5)
    1130:	08078e63          	beqz	a5,11cc <core_bench_list+0xe24>
    1134:	00148493          	addi	s1,s1,1
    1138:	0007a783          	lw	a5,0(a5)
    113c:	08078863          	beqz	a5,11cc <core_bench_list+0xe24>
    1140:	00148493          	addi	s1,s1,1
    1144:	0007a783          	lw	a5,0(a5)
    1148:	08078263          	beqz	a5,11cc <core_bench_list+0xe24>
    114c:	00148493          	addi	s1,s1,1
    1150:	0007a783          	lw	a5,0(a5)
    1154:	06078c63          	beqz	a5,11cc <core_bench_list+0xe24>
    1158:	00148493          	addi	s1,s1,1
    115c:	0007a783          	lw	a5,0(a5)
    1160:	06078663          	beqz	a5,11cc <core_bench_list+0xe24>
    1164:	07b4d463          	bge	s1,s11,11cc <core_bench_list+0xe24>
    1168:	00148493          	addi	s1,s1,1
    116c:	00048813          	mv	a6,s1
    1170:	0007a783          	lw	a5,0(a5)
    1174:	04078c63          	beqz	a5,11cc <core_bench_list+0xe24>
    1178:	00148493          	addi	s1,s1,1
    117c:	0007a783          	lw	a5,0(a5)
    1180:	04078663          	beqz	a5,11cc <core_bench_list+0xe24>
    1184:	00280493          	addi	s1,a6,2
    1188:	0007a783          	lw	a5,0(a5)
    118c:	04078063          	beqz	a5,11cc <core_bench_list+0xe24>
    1190:	00380493          	addi	s1,a6,3
    1194:	0007a783          	lw	a5,0(a5)
    1198:	02078a63          	beqz	a5,11cc <core_bench_list+0xe24>
    119c:	00480493          	addi	s1,a6,4
    11a0:	0007a783          	lw	a5,0(a5)
    11a4:	02078463          	beqz	a5,11cc <core_bench_list+0xe24>
    11a8:	00580493          	addi	s1,a6,5
    11ac:	0007a783          	lw	a5,0(a5)
    11b0:	00078e63          	beqz	a5,11cc <core_bench_list+0xe24>
    11b4:	00680493          	addi	s1,a6,6
    11b8:	0007a783          	lw	a5,0(a5)
    11bc:	00078863          	beqz	a5,11cc <core_bench_list+0xe24>
    11c0:	00780493          	addi	s1,a6,7
    11c4:	0007a783          	lw	a5,0(a5)
    11c8:	f8079ee3          	bnez	a5,1164 <core_bench_list+0xdbc>
    11cc:	000d8c13          	mv	s8,s11
    11d0:	00098913          	mv	s2,s3
    11d4:	00040993          	mv	s3,s0
    11d8:	00078413          	mv	s0,a5
    11dc:	04905663          	blez	s1,1228 <core_bench_list+0xe80>
    11e0:	200c0c63          	beqz	s8,13f8 <core_bench_list+0x1050>
    11e4:	3e040a63          	beqz	s0,15d8 <core_bench_list+0x1230>
    11e8:	00899a03          	lh	s4,8(s3)
    11ec:	080a7713          	andi	a4,s4,128
    11f0:	2a070863          	beqz	a4,14a0 <core_bench_list+0x10f8>
    11f4:	07fa7b93          	andi	s7,s4,127
    11f8:	00841a03          	lh	s4,8(s0)
    11fc:	080a7393          	andi	t2,s4,128
    1200:	22038663          	beqz	t2,142c <core_bench_list+0x1084>
    1204:	07fa7313          	andi	t1,s4,127
    1208:	27735863          	bge	t1,s7,1478 <core_bench_list+0x10d0>
    120c:	00042b83          	lw	s7,0(s0)
    1210:	fffc0c13          	addi	s8,s8,-1
    1214:	2c090c63          	beqz	s2,14ec <core_bench_list+0x1144>
    1218:	00892023          	sw	s0,0(s2)
    121c:	00040913          	mv	s2,s0
    1220:	000b8413          	mv	s0,s7
    1224:	fa904ee3          	bgtz	s1,11e0 <core_bench_list+0xe38>
    1228:	3b805263          	blez	s8,15cc <core_bench_list+0x1224>
    122c:	1a040a63          	beqz	s0,13e0 <core_bench_list+0x1038>
    1230:	fa049ce3          	bnez	s1,11e8 <core_bench_list+0xe40>
    1234:	fffc0993          	addi	s3,s8,-1
    1238:	0079f493          	andi	s1,s3,7
    123c:	0e048c63          	beqz	s1,1334 <core_bench_list+0xf8c>
    1240:	00042583          	lw	a1,0(s0)
    1244:	00098c13          	mv	s8,s3
    1248:	42090463          	beqz	s2,1670 <core_bench_list+0x12c8>
    124c:	00892023          	sw	s0,0(s2)
    1250:	00040913          	mv	s2,s0
    1254:	18058663          	beqz	a1,13e0 <core_bench_list+0x1038>
    1258:	00058413          	mv	s0,a1
    125c:	00100513          	li	a0,1
    1260:	0ca48a63          	beq	s1,a0,1334 <core_bench_list+0xf8c>
    1264:	00200a13          	li	s4,2
    1268:	0b448863          	beq	s1,s4,1318 <core_bench_list+0xf70>
    126c:	00300393          	li	t2,3
    1270:	08748663          	beq	s1,t2,12fc <core_bench_list+0xf54>
    1274:	00400813          	li	a6,4
    1278:	07048463          	beq	s1,a6,12e0 <core_bench_list+0xf38>
    127c:	00500f13          	li	t5,5
    1280:	05e48263          	beq	s1,t5,12c4 <core_bench_list+0xf1c>
    1284:	00600793          	li	a5,6
    1288:	02f48063          	beq	s1,a5,12a8 <core_bench_list+0xf00>
    128c:	0005af83          	lw	t6,0(a1)
    1290:	fffc0c13          	addi	s8,s8,-1
    1294:	40090e63          	beqz	s2,16b0 <core_bench_list+0x1308>
    1298:	00b92023          	sw	a1,0(s2)
    129c:	00040913          	mv	s2,s0
    12a0:	140f8063          	beqz	t6,13e0 <core_bench_list+0x1038>
    12a4:	000f8413          	mv	s0,t6
    12a8:	00042883          	lw	a7,0(s0)
    12ac:	fffc0c13          	addi	s8,s8,-1
    12b0:	3e090c63          	beqz	s2,16a8 <core_bench_list+0x1300>
    12b4:	00892023          	sw	s0,0(s2)
    12b8:	00040913          	mv	s2,s0
    12bc:	12088263          	beqz	a7,13e0 <core_bench_list+0x1038>
    12c0:	00088413          	mv	s0,a7
    12c4:	00042703          	lw	a4,0(s0)
    12c8:	fffc0c13          	addi	s8,s8,-1
    12cc:	3c090263          	beqz	s2,1690 <core_bench_list+0x12e8>
    12d0:	00892023          	sw	s0,0(s2)
    12d4:	00040913          	mv	s2,s0
    12d8:	10070463          	beqz	a4,13e0 <core_bench_list+0x1038>
    12dc:	00070413          	mv	s0,a4
    12e0:	00042b03          	lw	s6,0(s0)
    12e4:	fffc0c13          	addi	s8,s8,-1
    12e8:	3a090063          	beqz	s2,1688 <core_bench_list+0x12e0>
    12ec:	00892023          	sw	s0,0(s2)
    12f0:	00040913          	mv	s2,s0
    12f4:	0e0b0663          	beqz	s6,13e0 <core_bench_list+0x1038>
    12f8:	000b0413          	mv	s0,s6
    12fc:	00042683          	lw	a3,0(s0)
    1300:	fffc0c13          	addi	s8,s8,-1
    1304:	36090e63          	beqz	s2,1680 <core_bench_list+0x12d8>
    1308:	00892023          	sw	s0,0(s2)
    130c:	00040913          	mv	s2,s0
    1310:	0c068863          	beqz	a3,13e0 <core_bench_list+0x1038>
    1314:	00068413          	mv	s0,a3
    1318:	00042303          	lw	t1,0(s0)
    131c:	fffc0c13          	addi	s8,s8,-1
    1320:	34090c63          	beqz	s2,1678 <core_bench_list+0x12d0>
    1324:	00892023          	sw	s0,0(s2)
    1328:	00040913          	mv	s2,s0
    132c:	0a030a63          	beqz	t1,13e0 <core_bench_list+0x1038>
    1330:	00030413          	mv	s0,t1
    1334:	00042283          	lw	t0,0(s0)
    1338:	fffc0c13          	addi	s8,s8,-1
    133c:	2e090a63          	beqz	s2,1630 <core_bench_list+0x1288>
    1340:	00892023          	sw	s0,0(s2)
    1344:	340c0a63          	beqz	s8,1698 <core_bench_list+0x12f0>
    1348:	00040913          	mv	s2,s0
    134c:	08028a63          	beqz	t0,13e0 <core_bench_list+0x1038>
    1350:	0002ae03          	lw	t3,0(t0)
    1354:	2e040263          	beqz	s0,1638 <core_bench_list+0x1290>
    1358:	00542023          	sw	t0,0(s0)
    135c:	00028913          	mv	s2,t0
    1360:	080e0063          	beqz	t3,13e0 <core_bench_list+0x1038>
    1364:	000e2403          	lw	s0,0(t3)
    1368:	2c028c63          	beqz	t0,1640 <core_bench_list+0x1298>
    136c:	01c2a023          	sw	t3,0(t0)
    1370:	000e0913          	mv	s2,t3
    1374:	06040663          	beqz	s0,13e0 <core_bench_list+0x1038>
    1378:	00042e83          	lw	t4,0(s0)
    137c:	2c0e0663          	beqz	t3,1648 <core_bench_list+0x12a0>
    1380:	008e2023          	sw	s0,0(t3)
    1384:	00040913          	mv	s2,s0
    1388:	040e8c63          	beqz	t4,13e0 <core_bench_list+0x1038>
    138c:	000eab83          	lw	s7,0(t4)
    1390:	2c040063          	beqz	s0,1650 <core_bench_list+0x12a8>
    1394:	01d42023          	sw	t4,0(s0)
    1398:	000e8913          	mv	s2,t4
    139c:	040b8263          	beqz	s7,13e0 <core_bench_list+0x1038>
    13a0:	000ba603          	lw	a2,0(s7)
    13a4:	2a0e8a63          	beqz	t4,1658 <core_bench_list+0x12b0>
    13a8:	017ea023          	sw	s7,0(t4)
    13ac:	000b8913          	mv	s2,s7
    13b0:	02060863          	beqz	a2,13e0 <core_bench_list+0x1038>
    13b4:	00062483          	lw	s1,0(a2)
    13b8:	2a0b8863          	beqz	s7,1668 <core_bench_list+0x12c0>
    13bc:	00cba023          	sw	a2,0(s7)
    13c0:	00060913          	mv	s2,a2
    13c4:	00048e63          	beqz	s1,13e0 <core_bench_list+0x1038>
    13c8:	0004a403          	lw	s0,0(s1)
    13cc:	ff9c0c13          	addi	s8,s8,-7
    13d0:	28060863          	beqz	a2,1660 <core_bench_list+0x12b8>
    13d4:	00962023          	sw	s1,0(a2)
    13d8:	00048913          	mv	s2,s1
    13dc:	f4041ce3          	bnez	s0,1334 <core_bench_list+0xf8c>
    13e0:	00092023          	sw	zero,0(s2)
    13e4:	00812503          	lw	a0,8(sp)
    13e8:	4da50463          	beq	a0,s10,18b0 <core_bench_list+0x1508>
    13ec:	001d9d93          	slli	s11,s11,0x1
    13f0:	000c8413          	mv	s0,s9
    13f4:	cb9ff06f          	j	10ac <core_bench_list+0xd04>
    13f8:	0009a583          	lw	a1,0(s3)
    13fc:	fff48493          	addi	s1,s1,-1
    1400:	02090063          	beqz	s2,1420 <core_bench_list+0x1078>
    1404:	01392023          	sw	s3,0(s2)
    1408:	1a048063          	beqz	s1,15a8 <core_bench_list+0x1200>
    140c:	00098913          	mv	s2,s3
    1410:	00058993          	mv	s3,a1
    1414:	0009a583          	lw	a1,0(s3)
    1418:	fff48493          	addi	s1,s1,-1
    141c:	fe0914e3          	bnez	s2,1404 <core_bench_list+0x105c>
    1420:	18048263          	beqz	s1,15a4 <core_bench_list+0x11fc>
    1424:	00098c93          	mv	s9,s3
    1428:	fe5ff06f          	j	140c <core_bench_list+0x1064>
    142c:	007a7813          	andi	a6,s4,7
    1430:	183a3f0b          	th.extu	t5,s4,6,3
    1434:	004f1793          	slli	a5,t5,0x4
    1438:	00ff0fb3          	add	t6,t5,a5
    143c:	000f8713          	mv	a4,t6
    1440:	038ad783          	lhu	a5,56(s5)
    1444:	0c080a63          	beqz	a6,1518 <core_bench_list+0x1170>
    1448:	0ba80663          	beq	a6,s10,14f4 <core_bench_list+0x114c>
    144c:	3c0a350b          	th.extu	a0,s4,15,0
    1450:	000a0b13          	mv	s6,s4
    1454:	038ad583          	lhu	a1,56(s5)
    1458:	069060ef          	jal	7cc0 <crcu16>
    145c:	02aa9c23          	sh	a0,56(s5)
    1460:	07fb7313          	andi	t1,s6,127
    1464:	f00a7293          	andi	t0,s4,-256
    1468:	00536e33          	or	t3,t1,t0
    146c:	080e6e93          	ori	t4,t3,128
    1470:	01d41423          	sh	t4,8(s0)
    1474:	d9734ce3          	blt	t1,s7,120c <core_bench_list+0xe64>
    1478:	0009a603          	lw	a2,0(s3)
    147c:	fff48493          	addi	s1,s1,-1
    1480:	12090a63          	beqz	s2,15b4 <core_bench_list+0x120c>
    1484:	01392023          	sw	s3,0(s2)
    1488:	12905c63          	blez	s1,15c0 <core_bench_list+0x1218>
    148c:	00098913          	mv	s2,s3
    1490:	00060993          	mv	s3,a2
    1494:	00899a03          	lh	s4,8(s3)
    1498:	080a7713          	andi	a4,s4,128
    149c:	d4071ce3          	bnez	a4,11f4 <core_bench_list+0xe4c>
    14a0:	007a7f93          	andi	t6,s4,7
    14a4:	183a388b          	th.extu	a7,s4,6,3
    14a8:	00489693          	slli	a3,a7,0x4
    14ac:	00d88333          	add	t1,a7,a3
    14b0:	00030713          	mv	a4,t1
    14b4:	038ad783          	lhu	a5,56(s5)
    14b8:	0a0f8c63          	beqz	t6,1570 <core_bench_list+0x11c8>
    14bc:	09af8863          	beq	t6,s10,154c <core_bench_list+0x11a4>
    14c0:	3c0a350b          	th.extu	a0,s4,15,0
    14c4:	000a0b13          	mv	s6,s4
    14c8:	038ad583          	lhu	a1,56(s5)
    14cc:	7f4060ef          	jal	7cc0 <crcu16>
    14d0:	02aa9c23          	sh	a0,56(s5)
    14d4:	07fb7b93          	andi	s7,s6,127
    14d8:	f00a7613          	andi	a2,s4,-256
    14dc:	00cbe5b3          	or	a1,s7,a2
    14e0:	0805e513          	ori	a0,a1,128
    14e4:	00a99423          	sh	a0,8(s3)
    14e8:	d11ff06f          	j	11f8 <core_bench_list+0xe50>
    14ec:	00040c93          	mv	s9,s0
    14f0:	d2dff06f          	j	121c <core_bench_list+0xe74>
    14f4:	00078613          	mv	a2,a5
    14f8:	000f8593          	mv	a1,t6
    14fc:	01012503          	lw	a0,16(sp)
    1500:	2d9020ef          	jal	3fd8 <core_bench_matrix>
    1504:	00050b13          	mv	s6,a0
    1508:	03cad683          	lhu	a3,60(s5)
    150c:	f40694e3          	bnez	a3,1454 <core_bench_list+0x10ac>
    1510:	02aa9e23          	sh	a0,60(s5)
    1514:	f41ff06f          	j	1454 <core_bench_list+0x10ac>
    1518:	02100893          	li	a7,33
    151c:	01f8e463          	bltu	a7,t6,1524 <core_bench_list+0x117c>
    1520:	02200713          	li	a4,34
    1524:	002a9683          	lh	a3,2(s5)
    1528:	000a9603          	lh	a2,0(s5)
    152c:	014aa583          	lw	a1,20(s5)
    1530:	018aa503          	lw	a0,24(s5)
    1534:	298050ef          	jal	67cc <core_bench_state>
    1538:	00050b13          	mv	s6,a0
    153c:	03ead703          	lhu	a4,62(s5)
    1540:	f0071ae3          	bnez	a4,1454 <core_bench_list+0x10ac>
    1544:	02aa9f23          	sh	a0,62(s5)
    1548:	f0dff06f          	j	1454 <core_bench_list+0x10ac>
    154c:	00078613          	mv	a2,a5
    1550:	00030593          	mv	a1,t1
    1554:	01012503          	lw	a0,16(sp)
    1558:	281020ef          	jal	3fd8 <core_bench_matrix>
    155c:	00050b13          	mv	s6,a0
    1560:	03cade83          	lhu	t4,60(s5)
    1564:	f60e92e3          	bnez	t4,14c8 <core_bench_list+0x1120>
    1568:	02aa9e23          	sh	a0,60(s5)
    156c:	f5dff06f          	j	14c8 <core_bench_list+0x1120>
    1570:	02100293          	li	t0,33
    1574:	0062e463          	bltu	t0,t1,157c <core_bench_list+0x11d4>
    1578:	02200713          	li	a4,34
    157c:	002a9683          	lh	a3,2(s5)
    1580:	000a9603          	lh	a2,0(s5)
    1584:	014aa583          	lw	a1,20(s5)
    1588:	018aa503          	lw	a0,24(s5)
    158c:	240050ef          	jal	67cc <core_bench_state>
    1590:	00050b13          	mv	s6,a0
    1594:	03eade03          	lhu	t3,62(s5)
    1598:	f20e18e3          	bnez	t3,14c8 <core_bench_list+0x1120>
    159c:	02aa9f23          	sh	a0,62(s5)
    15a0:	f29ff06f          	j	14c8 <core_bench_list+0x1120>
    15a4:	00098c93          	mv	s9,s3
    15a8:	b0041ee3          	bnez	s0,10c4 <core_bench_list+0xd1c>
    15ac:	00098913          	mv	s2,s3
    15b0:	e31ff06f          	j	13e0 <core_bench_list+0x1038>
    15b4:	06905663          	blez	s1,1620 <core_bench_list+0x1278>
    15b8:	00098c93          	mv	s9,s3
    15bc:	ed1ff06f          	j	148c <core_bench_list+0x10e4>
    15c0:	00098913          	mv	s2,s3
    15c4:	00060993          	mv	s3,a2
    15c8:	c78042e3          	bgtz	s8,122c <core_bench_list+0xe84>
    15cc:	00090993          	mv	s3,s2
    15d0:	ae041ae3          	bnez	s0,10c4 <core_bench_list+0xd1c>
    15d4:	fd9ff06f          	j	15ac <core_bench_list+0x1204>
    15d8:	00090f13          	mv	t5,s2
    15dc:	00098913          	mv	s2,s3
    15e0:	00092983          	lw	s3,0(s2)
    15e4:	fff48493          	addi	s1,s1,-1
    15e8:	020f0063          	beqz	t5,1608 <core_bench_list+0x1260>
    15ec:	012f2023          	sw	s2,0(t5)
    15f0:	c2048ce3          	beqz	s1,1228 <core_bench_list+0xe80>
    15f4:	00090f13          	mv	t5,s2
    15f8:	00098913          	mv	s2,s3
    15fc:	00092983          	lw	s3,0(s2)
    1600:	fff48493          	addi	s1,s1,-1
    1604:	fe0f14e3          	bnez	t5,15ec <core_bench_list+0x1244>
    1608:	00048663          	beqz	s1,1614 <core_bench_list+0x126c>
    160c:	00090c93          	mv	s9,s2
    1610:	fe5ff06f          	j	15f4 <core_bench_list+0x124c>
    1614:	00090c93          	mv	s9,s2
    1618:	00000413          	li	s0,0
    161c:	c0dff06f          	j	1228 <core_bench_list+0xe80>
    1620:	00098c93          	mv	s9,s3
    1624:	00098913          	mv	s2,s3
    1628:	00060993          	mv	s3,a2
    162c:	bfdff06f          	j	1228 <core_bench_list+0xe80>
    1630:	00040c93          	mv	s9,s0
    1634:	d11ff06f          	j	1344 <core_bench_list+0xf9c>
    1638:	00028c93          	mv	s9,t0
    163c:	d21ff06f          	j	135c <core_bench_list+0xfb4>
    1640:	000e0c93          	mv	s9,t3
    1644:	d2dff06f          	j	1370 <core_bench_list+0xfc8>
    1648:	00040c93          	mv	s9,s0
    164c:	d39ff06f          	j	1384 <core_bench_list+0xfdc>
    1650:	000e8c93          	mv	s9,t4
    1654:	d45ff06f          	j	1398 <core_bench_list+0xff0>
    1658:	000b8c93          	mv	s9,s7
    165c:	d51ff06f          	j	13ac <core_bench_list+0x1004>
    1660:	00048c93          	mv	s9,s1
    1664:	d75ff06f          	j	13d8 <core_bench_list+0x1030>
    1668:	00060c93          	mv	s9,a2
    166c:	d55ff06f          	j	13c0 <core_bench_list+0x1018>
    1670:	00040c93          	mv	s9,s0
    1674:	bddff06f          	j	1250 <core_bench_list+0xea8>
    1678:	00040c93          	mv	s9,s0
    167c:	cadff06f          	j	1328 <core_bench_list+0xf80>
    1680:	00040c93          	mv	s9,s0
    1684:	c89ff06f          	j	130c <core_bench_list+0xf64>
    1688:	00040c93          	mv	s9,s0
    168c:	c65ff06f          	j	12f0 <core_bench_list+0xf48>
    1690:	00040c93          	mv	s9,s0
    1694:	c41ff06f          	j	12d4 <core_bench_list+0xf2c>
    1698:	00040993          	mv	s3,s0
    169c:	00028413          	mv	s0,t0
    16a0:	a20412e3          	bnez	s0,10c4 <core_bench_list+0xd1c>
    16a4:	f09ff06f          	j	15ac <core_bench_list+0x1204>
    16a8:	00040c93          	mv	s9,s0
    16ac:	c0dff06f          	j	12b8 <core_bench_list+0xf10>
    16b0:	00058c93          	mv	s9,a1
    16b4:	be9ff06f          	j	129c <core_bench_list+0xef4>
    16b8:	00042383          	lw	t2,0(s0)
    16bc:	88039063          	bnez	t2,73c <core_bench_list+0x394>
    16c0:	928ff06f          	j	7e8 <core_bench_list+0x440>
    16c4:	00040393          	mv	t2,s0
    16c8:	00c0006f          	j	16d4 <core_bench_list+0x132c>
    16cc:	0003a383          	lw	t2,0(t2)
    16d0:	fe0384e3          	beqz	t2,16b8 <core_bench_list+0x1310>
    16d4:	0083c703          	lbu	a4,8(t2)
    16d8:	01412303          	lw	t1,20(sp)
    16dc:	fe6718e3          	bne	a4,t1,16cc <core_bench_list+0x1324>
    16e0:	85cff06f          	j	73c <core_bench_list+0x394>
    16e4:	00b12c23          	sw	a1,24(sp)
    16e8:	00712a23          	sw	t2,20(sp)
    16ec:	20cec7b3          	sh2add	a5,t4,a2
    16f0:	41c78e33          	sub	t3,a5,t3
    16f4:	3c0e388b          	th.extu	a7,t3,15,0
    16f8:	01112623          	sw	a7,12(sp)
    16fc:	ca041663          	bnez	s0,ba8 <core_bench_list+0x800>
    1700:	df0ff06f          	j	cf0 <core_bench_list+0x948>
    1704:	00068293          	mv	t0,a3
    1708:	00d42223          	sw	a3,4(s0)
    170c:	00180713          	addi	a4,a6,1
    1710:	3c07280b          	th.ext	a6,a4,15,0
    1714:	01088463          	beq	a7,a6,171c <core_bench_list+0x1374>
    1718:	ee1fe06f          	j	5f8 <core_bench_list+0x250>
    171c:	00b12c23          	sw	a1,24(sp)
    1720:	d64ff06f          	j	c84 <core_bench_list+0x8dc>
    1724:	00078293          	mv	t0,a5
    1728:	ea5fe06f          	j	5cc <core_bench_list+0x224>
    172c:	00058693          	mv	a3,a1
    1730:	00000793          	li	a5,0
    1734:	00000e13          	li	t3,0
    1738:	00000e93          	li	t4,0
    173c:	00000613          	li	a2,0
    1740:	c1cff06f          	j	b5c <core_bench_list+0x7b4>
    1744:	00010337          	lui	t1,0x10
    1748:	00c30393          	addi	t2,t1,12 # 1000c <core_cached_prev_head>
    174c:	0003a023          	sw	zero,0(t2)
    1750:	0003a223          	sw	zero,4(t2)
    1754:	1805c863          	bltz	a1,18e4 <core_bench_list+0x153c>
    1758:	00000293          	li	t0,0
    175c:	d15fe06f          	j	470 <core_bench_list+0xc8>
    1760:	00030793          	mv	a5,t1
    1764:	8edff06f          	j	1050 <core_bench_list+0xca8>
    1768:	00080293          	mv	t0,a6
    176c:	d5cff06f          	j	cc8 <core_bench_list+0x920>
    1770:	00078293          	mv	t0,a5
    1774:	d40ff06f          	j	cb4 <core_bench_list+0x90c>
    1778:	00000793          	li	a5,0
    177c:	00000813          	li	a6,0
    1780:	00000e13          	li	t3,0
    1784:	00000e93          	li	t4,0
    1788:	00012a23          	sw	zero,20(sp)
    178c:	00000613          	li	a2,0
    1790:	d80ff06f          	j	d10 <core_bench_list+0x968>
    1794:	00b12c23          	sw	a1,24(sp)
    1798:	00012623          	sw	zero,12(sp)
    179c:	00040463          	beqz	s0,17a4 <core_bench_list+0x13fc>
    17a0:	eb5fe06f          	j	654 <core_bench_list+0x2ac>
    17a4:	d4cff06f          	j	cf0 <core_bench_list+0x948>
    17a8:	00010437          	lui	s0,0x10
    17ac:	00c40513          	addi	a0,s0,12 # 1000c <core_cached_prev_head>
    17b0:	00052023          	sw	zero,0(a0)
    17b4:	00052223          	sw	zero,4(a0)
    17b8:	00b12c23          	sw	a1,24(sp)
    17bc:	00012623          	sw	zero,12(sp)
    17c0:	00012a23          	sw	zero,20(sp)
    17c4:	00000413          	li	s0,0
    17c8:	f29fe06f          	j	6f0 <core_bench_list+0x348>
    17cc:	00b12c23          	sw	a1,24(sp)
    17d0:	00712a23          	sw	t2,20(sp)
    17d4:	d08ff06f          	j	cdc <core_bench_list+0x934>
    17d8:	00000e93          	li	t4,0
    17dc:	00010637          	lui	a2,0x10
    17e0:	00c60793          	addi	a5,a2,12 # 1000c <core_cached_prev_head>
    17e4:	0107a023          	sw	a6,0(a5)
    17e8:	01d7a223          	sw	t4,4(a5)
    17ec:	00082703          	lw	a4,0(a6)
    17f0:	0a070663          	beqz	a4,189c <core_bench_list+0x14f4>
    17f4:	00885803          	lhu	a6,8(a6)
    17f8:	00c12503          	lw	a0,12(sp)
    17fc:	50a8068b          	.insn	4, 0x50a8068b
    1800:	3c06bf0b          	th.extu	t5,a3,15,0
    1804:	01e12623          	sw	t5,12(sp)
    1808:	00072883          	lw	a7,0(a4)
    180c:	08088863          	beqz	a7,189c <core_bench_list+0x14f4>
    1810:	51e8030b          	.insn	4, 0x51e8030b
    1814:	3c033e0b          	th.extu	t3,t1,15,0
    1818:	01c12623          	sw	t3,12(sp)
    181c:	0008a583          	lw	a1,0(a7)
    1820:	06058e63          	beqz	a1,189c <core_bench_list+0x14f4>
    1824:	51c80f8b          	.insn	4, 0x51c80f8b
    1828:	3c0fb38b          	th.extu	t2,t6,15,0
    182c:	00712623          	sw	t2,12(sp)
    1830:	0005a703          	lw	a4,0(a1)
    1834:	06070463          	beqz	a4,189c <core_bench_list+0x14f4>
    1838:	5078040b          	.insn	4, 0x5078040b
    183c:	3c043e8b          	th.extu	t4,s0,15,0
    1840:	01d12623          	sw	t4,12(sp)
    1844:	00072283          	lw	t0,0(a4)
    1848:	04028a63          	beqz	t0,189c <core_bench_list+0x14f4>
    184c:	51d8060b          	.insn	4, 0x51d8060b
    1850:	3c06378b          	th.extu	a5,a2,15,0
    1854:	00f12623          	sw	a5,12(sp)
    1858:	0002a503          	lw	a0,0(t0)
    185c:	04050063          	beqz	a0,189c <core_bench_list+0x14f4>
    1860:	50f8068b          	.insn	4, 0x50f8068b
    1864:	3c06bf0b          	th.extu	t5,a3,15,0
    1868:	01e12623          	sw	t5,12(sp)
    186c:	00052883          	lw	a7,0(a0)
    1870:	02088663          	beqz	a7,189c <core_bench_list+0x14f4>
    1874:	51e8030b          	.insn	4, 0x51e8030b
    1878:	3c033e0b          	th.extu	t3,t1,15,0
    187c:	01c12623          	sw	t3,12(sp)
    1880:	0008a583          	lw	a1,0(a7)
    1884:	00058c63          	beqz	a1,189c <core_bench_list+0x14f4>
    1888:	51c80f8b          	.insn	4, 0x51c80f8b
    188c:	3c0fb38b          	th.extu	t2,t6,15,0
    1890:	00712623          	sw	t2,12(sp)
    1894:	0005a703          	lw	a4,0(a1)
    1898:	f60710e3          	bnez	a4,17f8 <core_bench_list+0x1450>
    189c:	00c12503          	lw	a0,12(sp)
    18a0:	05c12083          	lw	ra,92(sp)
    18a4:	05812403          	lw	s0,88(sp)
    18a8:	06010113          	addi	sp,sp,96
    18ac:	00008067          	ret
    18b0:	000c8413          	mv	s0,s9
    18b4:	05412483          	lw	s1,84(sp)
    18b8:	05012903          	lw	s2,80(sp)
    18bc:	04c12983          	lw	s3,76(sp)
    18c0:	04812a03          	lw	s4,72(sp)
    18c4:	04412a83          	lw	s5,68(sp)
    18c8:	04012b03          	lw	s6,64(sp)
    18cc:	03c12b83          	lw	s7,60(sp)
    18d0:	03812c03          	lw	s8,56(sp)
    18d4:	03412c83          	lw	s9,52(sp)
    18d8:	03012d03          	lw	s10,48(sp)
    18dc:	02c12d83          	lw	s11,44(sp)
    18e0:	e11fe06f          	j	6f0 <core_bench_list+0x348>
    18e4:	ed1052e3          	blez	a7,17a8 <core_bench_list+0x1400>
    18e8:	00000293          	li	t0,0
    18ec:	c59fe06f          	j	544 <core_bench_list+0x19c>
    18f0:	04912a23          	sw	s1,84(sp)
    18f4:	05212823          	sw	s2,80(sp)
    18f8:	05312623          	sw	s3,76(sp)
    18fc:	05412423          	sw	s4,72(sp)
    1900:	05512223          	sw	s5,68(sp)
    1904:	05612023          	sw	s6,64(sp)
    1908:	03712e23          	sw	s7,60(sp)
    190c:	03812c23          	sw	s8,56(sp)
    1910:	03912a23          	sw	s9,52(sp)
    1914:	03a12823          	sw	s10,48(sp)
    1918:	03b12623          	sw	s11,44(sp)
    191c:	00002023          	sw	zero,0(zero) # 0 <_start>
    1920:	00100073          	ebreak
    1924:	04912a23          	sw	s1,84(sp)
    1928:	05212823          	sw	s2,80(sp)
    192c:	05312623          	sw	s3,76(sp)
    1930:	05412423          	sw	s4,72(sp)
    1934:	05512223          	sw	s5,68(sp)
    1938:	05612023          	sw	s6,64(sp)
    193c:	03712e23          	sw	s7,60(sp)
    1940:	03812c23          	sw	s8,56(sp)
    1944:	03912a23          	sw	s9,52(sp)
    1948:	03a12823          	sw	s10,48(sp)
    194c:	03b12623          	sw	s11,44(sp)
    1950:	00042023          	sw	zero,0(s0)
    1954:	00100073          	ebreak

00001958 <core_list_init>:
    1958:	00058713          	mv	a4,a1
    195c:	ccccd7b7          	lui	a5,0xccccd
    1960:	ccd78293          	addi	t0,a5,-819 # cccccccd <_stack_top+0xcccb8ccd>
    1964:	025535b3          	mulhu	a1,a0,t0
    1968:	0045d313          	srli	t1,a1,0x4
    196c:	ffe30393          	addi	t2,t1,-2
    1970:	2073a833          	sh1add	a6,t2,t2
    1974:	20e84fb3          	sh2add	t6,a6,a4
    1978:	21f3cf33          	sh2add	t5,t2,t6
    197c:	00072023          	sw	zero,0(a4)
    1980:	00072223          	sw	zero,4(a4)
    1984:	00008537          	lui	a0,0x8
    1988:	08050693          	addi	a3,a0,128 # 8080 <ee_printf+0x14c>
    198c:	00d72423          	sw	a3,8(a4)
    1990:	00c70513          	addi	a0,a4,12
    1994:	01870693          	addi	a3,a4,24
    1998:	09f6f0e3          	bgeu	a3,t6,2218 <core_list_init+0x8c0>
    199c:	008f8313          	addi	t1,t6,8
    19a0:	07e374e3          	bgeu	t1,t5,2208 <core_list_init+0x8b0>
    19a4:	00072623          	sw	zero,12(a4)
    19a8:	00e72823          	sw	a4,16(a4)
    19ac:	00a72023          	sw	a0,0(a4)
    19b0:	800008b7          	lui	a7,0x80000
    19b4:	fff88e13          	addi	t3,a7,-1 # 7fffffff <_stack_top+0x7ffebfff>
    19b8:	01c72a23          	sw	t3,20(a4)
    19bc:	06038c63          	beqz	t2,1a34 <core_list_init+0xdc>
    19c0:	00000513          	li	a0,0
    19c4:	ffff8eb7          	lui	t4,0xffff8
    19c8:	fffec293          	not	t0,t4
    19cc:	00c68893          	addi	a7,a3,12
    19d0:	07f8f063          	bgeu	a7,t6,1a30 <core_list_init+0xd8>
    19d4:	00430e13          	addi	t3,t1,4
    19d8:	77ee7663          	bgeu	t3,t5,2144 <core_list_init+0x7ec>
    19dc:	00c547b3          	xor	a5,a0,a2
    19e0:	00379593          	slli	a1,a5,0x3
    19e4:	0785f813          	andi	a6,a1,120
    19e8:	00757313          	andi	t1,a0,7
    19ec:	00686eb3          	or	t4,a6,t1
    19f0:	008e9793          	slli	a5,t4,0x8
    19f4:	00fe85b3          	add	a1,t4,a5
    19f8:	00072803          	lw	a6,0(a4)
    19fc:	0106a023          	sw	a6,0(a3)
    1a00:	00e6a223          	sw	a4,4(a3)
    1a04:	00080463          	beqz	a6,1a0c <core_list_init+0xb4>
    1a08:	00d82223          	sw	a3,4(a6)
    1a0c:	00d72023          	sw	a3,0(a4)
    1a10:	00b69423          	sh	a1,8(a3)
    1a14:	00569523          	sh	t0,10(a3)
    1a18:	00150513          	addi	a0,a0,1
    1a1c:	00a38a63          	beq	t2,a0,1a30 <core_list_init+0xd8>
    1a20:	000e0313          	mv	t1,t3
    1a24:	00088693          	mv	a3,a7
    1a28:	00c68893          	addi	a7,a3,12
    1a2c:	fbf8e4e3          	bltu	a7,t6,19d4 <core_list_init+0x7c>
    1a30:	00072503          	lw	a0,0(a4)
    1a34:	00052803          	lw	a6,0(a0)
    1a38:	06080863          	beqz	a6,1aa8 <core_list_init+0x150>
    1a3c:	ccccdfb7          	lui	t6,0xccccd
    1a40:	ccdf8f13          	addi	t5,t6,-819 # cccccccd <_stack_top+0xcccb8ccd>
    1a44:	03e3b3b3          	mulhu	t2,t2,t5
    1a48:	0023d293          	srli	t0,t2,0x2
    1a4c:	20000893          	li	a7,512
    1a50:	00100793          	li	a5,1
    1a54:	00004eb7          	lui	t4,0x4
    1a58:	fffe8313          	addi	t1,t4,-1 # 3fff <core_bench_matrix+0x27>
    1a5c:	0257f263          	bgeu	a5,t0,1a80 <core_list_init+0x128>
    1a60:	00f51523          	sh	a5,10(a0)
    1a64:	00082f03          	lw	t5,0(a6)
    1a68:	040f0063          	beqz	t5,1aa8 <core_list_init+0x150>
    1a6c:	00178793          	addi	a5,a5,1
    1a70:	10088893          	addi	a7,a7,256
    1a74:	00080513          	mv	a0,a6
    1a78:	000f0813          	mv	a6,t5
    1a7c:	fe57e2e3          	bltu	a5,t0,1a60 <core_list_init+0x108>
    1a80:	7008f593          	andi	a1,a7,1792
    1a84:	00c7ce33          	xor	t3,a5,a2
    1a88:	01c5e6b3          	or	a3,a1,t3
    1a8c:	0066ffb3          	and	t6,a3,t1
    1a90:	01f51523          	sh	t6,10(a0)
    1a94:	00082f03          	lw	t5,0(a6)
    1a98:	000f0863          	beqz	t5,1aa8 <core_list_init+0x150>
    1a9c:	00178793          	addi	a5,a5,1
    1aa0:	10088893          	addi	a7,a7,256
    1aa4:	fd1ff06f          	j	1a74 <core_list_init+0x11c>
    1aa8:	00100e13          	li	t3,1
    1aac:	00000513          	li	a0,0
    1ab0:	00000793          	li	a5,0
    1ab4:	00000e93          	li	t4,0
    1ab8:	000e0f13          	mv	t5,t3
    1abc:	001e8e93          	addi	t4,t4,1
    1ac0:	00070613          	mv	a2,a4
    1ac4:	00000693          	li	a3,0
    1ac8:	007e7393          	andi	t2,t3,7
    1acc:	08038463          	beqz	t2,1b54 <core_list_init+0x1fc>
    1ad0:	0fc6d663          	bge	a3,t3,1bbc <core_list_init+0x264>
    1ad4:	00100693          	li	a3,1
    1ad8:	00072603          	lw	a2,0(a4)
    1adc:	0e060063          	beqz	a2,1bbc <core_list_init+0x264>
    1ae0:	06d38a63          	beq	t2,a3,1b54 <core_list_init+0x1fc>
    1ae4:	00200813          	li	a6,2
    1ae8:	07038063          	beq	t2,a6,1b48 <core_list_init+0x1f0>
    1aec:	00300293          	li	t0,3
    1af0:	04538663          	beq	t2,t0,1b3c <core_list_init+0x1e4>
    1af4:	00400313          	li	t1,4
    1af8:	02638c63          	beq	t2,t1,1b30 <core_list_init+0x1d8>
    1afc:	00500593          	li	a1,5
    1b00:	02b38263          	beq	t2,a1,1b24 <core_list_init+0x1cc>
    1b04:	00600f93          	li	t6,6
    1b08:	01f38863          	beq	t2,t6,1b18 <core_list_init+0x1c0>
    1b0c:	00080693          	mv	a3,a6
    1b10:	00062603          	lw	a2,0(a2)
    1b14:	0a060463          	beqz	a2,1bbc <core_list_init+0x264>
    1b18:	00168693          	addi	a3,a3,1
    1b1c:	00062603          	lw	a2,0(a2)
    1b20:	08060e63          	beqz	a2,1bbc <core_list_init+0x264>
    1b24:	00168693          	addi	a3,a3,1
    1b28:	00062603          	lw	a2,0(a2)
    1b2c:	08060863          	beqz	a2,1bbc <core_list_init+0x264>
    1b30:	00168693          	addi	a3,a3,1
    1b34:	00062603          	lw	a2,0(a2)
    1b38:	08060263          	beqz	a2,1bbc <core_list_init+0x264>
    1b3c:	00168693          	addi	a3,a3,1
    1b40:	00062603          	lw	a2,0(a2)
    1b44:	06060c63          	beqz	a2,1bbc <core_list_init+0x264>
    1b48:	00168693          	addi	a3,a3,1
    1b4c:	00062603          	lw	a2,0(a2)
    1b50:	06060663          	beqz	a2,1bbc <core_list_init+0x264>
    1b54:	07c6d463          	bge	a3,t3,1bbc <core_list_init+0x264>
    1b58:	00168693          	addi	a3,a3,1
    1b5c:	00068893          	mv	a7,a3
    1b60:	00062603          	lw	a2,0(a2)
    1b64:	04060c63          	beqz	a2,1bbc <core_list_init+0x264>
    1b68:	00168693          	addi	a3,a3,1
    1b6c:	00062603          	lw	a2,0(a2)
    1b70:	04060663          	beqz	a2,1bbc <core_list_init+0x264>
    1b74:	00288693          	addi	a3,a7,2
    1b78:	00062603          	lw	a2,0(a2)
    1b7c:	04060063          	beqz	a2,1bbc <core_list_init+0x264>
    1b80:	00388693          	addi	a3,a7,3
    1b84:	00062603          	lw	a2,0(a2)
    1b88:	02060a63          	beqz	a2,1bbc <core_list_init+0x264>
    1b8c:	00488693          	addi	a3,a7,4
    1b90:	00062603          	lw	a2,0(a2)
    1b94:	02060463          	beqz	a2,1bbc <core_list_init+0x264>
    1b98:	00588693          	addi	a3,a7,5
    1b9c:	00062603          	lw	a2,0(a2)
    1ba0:	00060e63          	beqz	a2,1bbc <core_list_init+0x264>
    1ba4:	00688693          	addi	a3,a7,6
    1ba8:	00062603          	lw	a2,0(a2)
    1bac:	00060863          	beqz	a2,1bbc <core_list_init+0x264>
    1bb0:	00788693          	addi	a3,a7,7
    1bb4:	00062603          	lw	a2,0(a2)
    1bb8:	f8061ee3          	bnez	a2,1b54 <core_list_init+0x1fc>
    1bbc:	000e0f93          	mv	t6,t3
    1bc0:	20d05e63          	blez	a3,1ddc <core_list_init+0x484>
    1bc4:	260f9a63          	bnez	t6,1e38 <core_list_init+0x4e0>
    1bc8:	fff68313          	addi	t1,a3,-1
    1bcc:	00737393          	andi	t2,t1,7
    1bd0:	0e038c63          	beqz	t2,1cc8 <core_list_init+0x370>
    1bd4:	00072583          	lw	a1,0(a4)
    1bd8:	00030893          	mv	a7,t1
    1bdc:	1e078063          	beqz	a5,1dbc <core_list_init+0x464>
    1be0:	00e7a023          	sw	a4,0(a5)
    1be4:	00070793          	mv	a5,a4
    1be8:	00058713          	mv	a4,a1
    1bec:	00030693          	mv	a3,t1
    1bf0:	00100893          	li	a7,1
    1bf4:	0d138a63          	beq	t2,a7,1cc8 <core_list_init+0x370>
    1bf8:	00200293          	li	t0,2
    1bfc:	0a538863          	beq	t2,t0,1cac <core_list_init+0x354>
    1c00:	00300813          	li	a6,3
    1c04:	09038663          	beq	t2,a6,1c90 <core_list_init+0x338>
    1c08:	00400313          	li	t1,4
    1c0c:	06638463          	beq	t2,t1,1c74 <core_list_init+0x31c>
    1c10:	00500893          	li	a7,5
    1c14:	05138263          	beq	t2,a7,1c58 <core_list_init+0x300>
    1c18:	00600293          	li	t0,6
    1c1c:	02538063          	beq	t2,t0,1c3c <core_list_init+0x2e4>
    1c20:	0005a583          	lw	a1,0(a1)
    1c24:	fff68893          	addi	a7,a3,-1
    1c28:	18078a63          	beqz	a5,1dbc <core_list_init+0x464>
    1c2c:	00e7a023          	sw	a4,0(a5)
    1c30:	00070793          	mv	a5,a4
    1c34:	00058713          	mv	a4,a1
    1c38:	00088693          	mv	a3,a7
    1c3c:	00072583          	lw	a1,0(a4)
    1c40:	fff68893          	addi	a7,a3,-1
    1c44:	16078c63          	beqz	a5,1dbc <core_list_init+0x464>
    1c48:	00e7a023          	sw	a4,0(a5)
    1c4c:	00070793          	mv	a5,a4
    1c50:	00058713          	mv	a4,a1
    1c54:	00088693          	mv	a3,a7
    1c58:	00072583          	lw	a1,0(a4)
    1c5c:	fff68893          	addi	a7,a3,-1
    1c60:	14078e63          	beqz	a5,1dbc <core_list_init+0x464>
    1c64:	00e7a023          	sw	a4,0(a5)
    1c68:	00070793          	mv	a5,a4
    1c6c:	00058713          	mv	a4,a1
    1c70:	00088693          	mv	a3,a7
    1c74:	00072583          	lw	a1,0(a4)
    1c78:	fff68893          	addi	a7,a3,-1
    1c7c:	14078063          	beqz	a5,1dbc <core_list_init+0x464>
    1c80:	00e7a023          	sw	a4,0(a5)
    1c84:	00070793          	mv	a5,a4
    1c88:	00058713          	mv	a4,a1
    1c8c:	00088693          	mv	a3,a7
    1c90:	00072583          	lw	a1,0(a4)
    1c94:	fff68893          	addi	a7,a3,-1
    1c98:	12078263          	beqz	a5,1dbc <core_list_init+0x464>
    1c9c:	00e7a023          	sw	a4,0(a5)
    1ca0:	00070793          	mv	a5,a4
    1ca4:	00058713          	mv	a4,a1
    1ca8:	00088693          	mv	a3,a7
    1cac:	00072583          	lw	a1,0(a4)
    1cb0:	fff68893          	addi	a7,a3,-1
    1cb4:	10078463          	beqz	a5,1dbc <core_list_init+0x464>
    1cb8:	00e7a023          	sw	a4,0(a5)
    1cbc:	00070793          	mv	a5,a4
    1cc0:	00058713          	mv	a4,a1
    1cc4:	00088693          	mv	a3,a7
    1cc8:	00072583          	lw	a1,0(a4)
    1ccc:	fff68893          	addi	a7,a3,-1
    1cd0:	0e078663          	beqz	a5,1dbc <core_list_init+0x464>
    1cd4:	00e7a023          	sw	a4,0(a5)
    1cd8:	00070393          	mv	t2,a4
    1cdc:	18088863          	beqz	a7,1e6c <core_list_init+0x514>
    1ce0:	00058713          	mv	a4,a1
    1ce4:	00088793          	mv	a5,a7
    1ce8:	00088693          	mv	a3,a7
    1cec:	0005a583          	lw	a1,0(a1)
    1cf0:	fff88893          	addi	a7,a7,-1
    1cf4:	0c038463          	beqz	t2,1dbc <core_list_init+0x464>
    1cf8:	00e3a023          	sw	a4,0(t2)
    1cfc:	00070813          	mv	a6,a4
    1d00:	00058713          	mv	a4,a1
    1d04:	00088693          	mv	a3,a7
    1d08:	0005a583          	lw	a1,0(a1)
    1d0c:	fff88893          	addi	a7,a7,-1
    1d10:	0a080663          	beqz	a6,1dbc <core_list_init+0x464>
    1d14:	00e82023          	sw	a4,0(a6)
    1d18:	00070313          	mv	t1,a4
    1d1c:	00058713          	mv	a4,a1
    1d20:	ffe78693          	addi	a3,a5,-2
    1d24:	0005a583          	lw	a1,0(a1)
    1d28:	ffd78893          	addi	a7,a5,-3
    1d2c:	08030863          	beqz	t1,1dbc <core_list_init+0x464>
    1d30:	00e32023          	sw	a4,0(t1)
    1d34:	00070293          	mv	t0,a4
    1d38:	00058713          	mv	a4,a1
    1d3c:	00088693          	mv	a3,a7
    1d40:	0005a583          	lw	a1,0(a1)
    1d44:	ffc78893          	addi	a7,a5,-4
    1d48:	06028a63          	beqz	t0,1dbc <core_list_init+0x464>
    1d4c:	00e2a023          	sw	a4,0(t0)
    1d50:	00070393          	mv	t2,a4
    1d54:	00058713          	mv	a4,a1
    1d58:	00088693          	mv	a3,a7
    1d5c:	0005a583          	lw	a1,0(a1)
    1d60:	ffb78893          	addi	a7,a5,-5
    1d64:	04038c63          	beqz	t2,1dbc <core_list_init+0x464>
    1d68:	00e3a023          	sw	a4,0(t2)
    1d6c:	00070813          	mv	a6,a4
    1d70:	00058713          	mv	a4,a1
    1d74:	00088693          	mv	a3,a7
    1d78:	0005a583          	lw	a1,0(a1)
    1d7c:	ffa78893          	addi	a7,a5,-6
    1d80:	02080e63          	beqz	a6,1dbc <core_list_init+0x464>
    1d84:	00e82023          	sw	a4,0(a6)
    1d88:	00070313          	mv	t1,a4
    1d8c:	00058713          	mv	a4,a1
    1d90:	00088693          	mv	a3,a7
    1d94:	0005a583          	lw	a1,0(a1)
    1d98:	ff978893          	addi	a7,a5,-7
    1d9c:	02030063          	beqz	t1,1dbc <core_list_init+0x464>
    1da0:	00e32023          	sw	a4,0(t1)
    1da4:	00070793          	mv	a5,a4
    1da8:	00058713          	mv	a4,a1
    1dac:	00088693          	mv	a3,a7
    1db0:	00072583          	lw	a1,0(a4)
    1db4:	fff68893          	addi	a7,a3,-1
    1db8:	f0079ee3          	bnez	a5,1cd4 <core_list_init+0x37c>
    1dbc:	0a088663          	beqz	a7,1e68 <core_list_init+0x510>
    1dc0:	ffe68693          	addi	a3,a3,-2
    1dc4:	00070513          	mv	a0,a4
    1dc8:	00070813          	mv	a6,a4
    1dcc:	0005a703          	lw	a4,0(a1)
    1dd0:	00058793          	mv	a5,a1
    1dd4:	00f82023          	sw	a5,0(a6)
    1dd8:	ded046e3          	bgtz	a3,1bc4 <core_list_init+0x26c>
    1ddc:	00078813          	mv	a6,a5
    1de0:	00060793          	mv	a5,a2
    1de4:	0df05e63          	blez	t6,1ec0 <core_list_init+0x568>
    1de8:	28078863          	beqz	a5,2078 <core_list_init+0x720>
    1dec:	0e068063          	beqz	a3,1ecc <core_list_init+0x574>
    1df0:	00871283          	lh	t0,8(a4)
    1df4:	f002f313          	andi	t1,t0,-256
    1df8:	3c82b58b          	th.extu	a1,t0,15,8
    1dfc:	00b368b3          	or	a7,t1,a1
    1e00:	01171423          	sh	a7,8(a4)
    1e04:	00879603          	lh	a2,8(a5)
    1e08:	f0067393          	andi	t2,a2,-256
    1e0c:	3c86328b          	th.extu	t0,a2,15,8
    1e10:	0053e333          	or	t1,t2,t0
    1e14:	00679423          	sh	t1,8(a5)
    1e18:	00a71583          	lh	a1,10(a4)
    1e1c:	00a79883          	lh	a7,10(a5)
    1e20:	04b8de63          	bge	a7,a1,1e7c <core_list_init+0x524>
    1e24:	0007a603          	lw	a2,0(a5)
    1e28:	ffff8f93          	addi	t6,t6,-1
    1e2c:	fa0814e3          	bnez	a6,1dd4 <core_list_init+0x47c>
    1e30:	00078513          	mv	a0,a5
    1e34:	d8dff06f          	j	1bc0 <core_list_init+0x268>
    1e38:	02061263          	bnez	a2,1e5c <core_list_init+0x504>
    1e3c:	00072383          	lw	t2,0(a4)
    1e40:	fff68693          	addi	a3,a3,-1
    1e44:	06078263          	beqz	a5,1ea8 <core_list_init+0x550>
    1e48:	00e7a023          	sw	a4,0(a5)
    1e4c:	28068063          	beqz	a3,20cc <core_list_init+0x774>
    1e50:	00070793          	mv	a5,a4
    1e54:	00038713          	mv	a4,t2
    1e58:	fe0602e3          	beqz	a2,1e3c <core_list_init+0x4e4>
    1e5c:	00078813          	mv	a6,a5
    1e60:	00060793          	mv	a5,a2
    1e64:	f8dff06f          	j	1df0 <core_list_init+0x498>
    1e68:	00070513          	mv	a0,a4
    1e6c:	3c060263          	beqz	a2,2230 <core_list_init+0x8d8>
    1e70:	00070793          	mv	a5,a4
    1e74:	00060713          	mv	a4,a2
    1e78:	c45ff06f          	j	1abc <core_list_init+0x164>
    1e7c:	00072603          	lw	a2,0(a4)
    1e80:	fff68693          	addi	a3,a3,-1
    1e84:	00080c63          	beqz	a6,1e9c <core_list_init+0x544>
    1e88:	00e82023          	sw	a4,0(a6)
    1e8c:	02d05463          	blez	a3,1eb4 <core_list_init+0x55c>
    1e90:	00070813          	mv	a6,a4
    1e94:	00060713          	mv	a4,a2
    1e98:	f59ff06f          	j	1df0 <core_list_init+0x498>
    1e9c:	20d05063          	blez	a3,209c <core_list_init+0x744>
    1ea0:	00070513          	mv	a0,a4
    1ea4:	fedff06f          	j	1e90 <core_list_init+0x538>
    1ea8:	26068263          	beqz	a3,210c <core_list_init+0x7b4>
    1eac:	00070513          	mv	a0,a4
    1eb0:	fa1ff06f          	j	1e50 <core_list_init+0x4f8>
    1eb4:	00070813          	mv	a6,a4
    1eb8:	00060713          	mv	a4,a2
    1ebc:	f3f046e3          	bgtz	t6,1de8 <core_list_init+0x490>
    1ec0:	00080713          	mv	a4,a6
    1ec4:	00078613          	mv	a2,a5
    1ec8:	fa5ff06f          	j	1e6c <core_list_init+0x514>
    1ecc:	ffff8393          	addi	t2,t6,-1
    1ed0:	0073f713          	andi	a4,t2,7
    1ed4:	0e070c63          	beqz	a4,1fcc <core_list_init+0x674>
    1ed8:	0007a683          	lw	a3,0(a5)
    1edc:	00038f93          	mv	t6,t2
    1ee0:	22080263          	beqz	a6,2104 <core_list_init+0x7ac>
    1ee4:	00f82023          	sw	a5,0(a6)
    1ee8:	00078813          	mv	a6,a5
    1eec:	18068663          	beqz	a3,2078 <core_list_init+0x720>
    1ef0:	00068793          	mv	a5,a3
    1ef4:	00100293          	li	t0,1
    1ef8:	0c570a63          	beq	a4,t0,1fcc <core_list_init+0x674>
    1efc:	00200313          	li	t1,2
    1f00:	0a670863          	beq	a4,t1,1fb0 <core_list_init+0x658>
    1f04:	00300593          	li	a1,3
    1f08:	08b70663          	beq	a4,a1,1f94 <core_list_init+0x63c>
    1f0c:	00400893          	li	a7,4
    1f10:	07170463          	beq	a4,a7,1f78 <core_list_init+0x620>
    1f14:	00500613          	li	a2,5
    1f18:	04c70263          	beq	a4,a2,1f5c <core_list_init+0x604>
    1f1c:	00600393          	li	t2,6
    1f20:	02770063          	beq	a4,t2,1f40 <core_list_init+0x5e8>
    1f24:	0006a703          	lw	a4,0(a3)
    1f28:	ffff8f93          	addi	t6,t6,-1
    1f2c:	2c080a63          	beqz	a6,2200 <core_list_init+0x8a8>
    1f30:	00d82023          	sw	a3,0(a6)
    1f34:	00078813          	mv	a6,a5
    1f38:	14070063          	beqz	a4,2078 <core_list_init+0x720>
    1f3c:	00070793          	mv	a5,a4
    1f40:	0007a683          	lw	a3,0(a5)
    1f44:	ffff8f93          	addi	t6,t6,-1
    1f48:	1e080a63          	beqz	a6,213c <core_list_init+0x7e4>
    1f4c:	00f82023          	sw	a5,0(a6)
    1f50:	00078813          	mv	a6,a5
    1f54:	12068263          	beqz	a3,2078 <core_list_init+0x720>
    1f58:	00068793          	mv	a5,a3
    1f5c:	0007a283          	lw	t0,0(a5)
    1f60:	ffff8f93          	addi	t6,t6,-1
    1f64:	1c080863          	beqz	a6,2134 <core_list_init+0x7dc>
    1f68:	00f82023          	sw	a5,0(a6)
    1f6c:	00078813          	mv	a6,a5
    1f70:	10028463          	beqz	t0,2078 <core_list_init+0x720>
    1f74:	00028793          	mv	a5,t0
    1f78:	0007a303          	lw	t1,0(a5)
    1f7c:	ffff8f93          	addi	t6,t6,-1
    1f80:	1a080663          	beqz	a6,212c <core_list_init+0x7d4>
    1f84:	00f82023          	sw	a5,0(a6)
    1f88:	00078813          	mv	a6,a5
    1f8c:	0e030663          	beqz	t1,2078 <core_list_init+0x720>
    1f90:	00030793          	mv	a5,t1
    1f94:	0007a583          	lw	a1,0(a5)
    1f98:	ffff8f93          	addi	t6,t6,-1
    1f9c:	18080463          	beqz	a6,2124 <core_list_init+0x7cc>
    1fa0:	00f82023          	sw	a5,0(a6)
    1fa4:	00078813          	mv	a6,a5
    1fa8:	0c058863          	beqz	a1,2078 <core_list_init+0x720>
    1fac:	00058793          	mv	a5,a1
    1fb0:	0007a883          	lw	a7,0(a5)
    1fb4:	ffff8f93          	addi	t6,t6,-1
    1fb8:	16080263          	beqz	a6,211c <core_list_init+0x7c4>
    1fbc:	00f82023          	sw	a5,0(a6)
    1fc0:	00078813          	mv	a6,a5
    1fc4:	0a088a63          	beqz	a7,2078 <core_list_init+0x720>
    1fc8:	00088793          	mv	a5,a7
    1fcc:	0007a603          	lw	a2,0(a5)
    1fd0:	ffff8f93          	addi	t6,t6,-1
    1fd4:	0c080c63          	beqz	a6,20ac <core_list_init+0x754>
    1fd8:	00f82023          	sw	a5,0(a6)
    1fdc:	0c0f8c63          	beqz	t6,20b4 <core_list_init+0x75c>
    1fe0:	00078813          	mv	a6,a5
    1fe4:	08060a63          	beqz	a2,2078 <core_list_init+0x720>
    1fe8:	00062383          	lw	t2,0(a2)
    1fec:	0c078863          	beqz	a5,20bc <core_list_init+0x764>
    1ff0:	00c7a023          	sw	a2,0(a5)
    1ff4:	00060813          	mv	a6,a2
    1ff8:	08038063          	beqz	t2,2078 <core_list_init+0x720>
    1ffc:	0003a783          	lw	a5,0(t2)
    2000:	0c060263          	beqz	a2,20c4 <core_list_init+0x76c>
    2004:	00762023          	sw	t2,0(a2)
    2008:	00038813          	mv	a6,t2
    200c:	06078663          	beqz	a5,2078 <core_list_init+0x720>
    2010:	0007a683          	lw	a3,0(a5)
    2014:	0c038463          	beqz	t2,20dc <core_list_init+0x784>
    2018:	00f3a023          	sw	a5,0(t2)
    201c:	00078813          	mv	a6,a5
    2020:	04068c63          	beqz	a3,2078 <core_list_init+0x720>
    2024:	0006a703          	lw	a4,0(a3)
    2028:	0a078e63          	beqz	a5,20e4 <core_list_init+0x78c>
    202c:	00d7a023          	sw	a3,0(a5)
    2030:	00068813          	mv	a6,a3
    2034:	04070263          	beqz	a4,2078 <core_list_init+0x720>
    2038:	00072603          	lw	a2,0(a4)
    203c:	0a068863          	beqz	a3,20ec <core_list_init+0x794>
    2040:	00e6a023          	sw	a4,0(a3)
    2044:	00070813          	mv	a6,a4
    2048:	02060863          	beqz	a2,2078 <core_list_init+0x720>
    204c:	00062283          	lw	t0,0(a2)
    2050:	0a070263          	beqz	a4,20f4 <core_list_init+0x79c>
    2054:	00c72023          	sw	a2,0(a4)
    2058:	00060813          	mv	a6,a2
    205c:	00028e63          	beqz	t0,2078 <core_list_init+0x720>
    2060:	0002a783          	lw	a5,0(t0)
    2064:	ff9f8f93          	addi	t6,t6,-7
    2068:	08060a63          	beqz	a2,20fc <core_list_init+0x7a4>
    206c:	00562023          	sw	t0,0(a2)
    2070:	00028813          	mv	a6,t0
    2074:	f4079ce3          	bnez	a5,1fcc <core_list_init+0x674>
    2078:	00082023          	sw	zero,0(a6)
    207c:	0fee8263          	beq	t4,t5,2160 <core_list_init+0x808>
    2080:	0c050c63          	beqz	a0,2158 <core_list_init+0x800>
    2084:	001e1e13          	slli	t3,t3,0x1
    2088:	00050613          	mv	a2,a0
    208c:	00000513          	li	a0,0
    2090:	00000713          	li	a4,0
    2094:	00000e93          	li	t4,0
    2098:	dd9ff06f          	j	1e70 <core_list_init+0x518>
    209c:	00070513          	mv	a0,a4
    20a0:	00070813          	mv	a6,a4
    20a4:	00060713          	mv	a4,a2
    20a8:	d3dff06f          	j	1de4 <core_list_init+0x48c>
    20ac:	00078513          	mv	a0,a5
    20b0:	f20f98e3          	bnez	t6,1fe0 <core_list_init+0x688>
    20b4:	00078713          	mv	a4,a5
    20b8:	db5ff06f          	j	1e6c <core_list_init+0x514>
    20bc:	00060513          	mv	a0,a2
    20c0:	f35ff06f          	j	1ff4 <core_list_init+0x69c>
    20c4:	00038513          	mv	a0,t2
    20c8:	f41ff06f          	j	2008 <core_list_init+0x6b0>
    20cc:	00070813          	mv	a6,a4
    20d0:	00038713          	mv	a4,t2
    20d4:	00000793          	li	a5,0
    20d8:	d0dff06f          	j	1de4 <core_list_init+0x48c>
    20dc:	00078513          	mv	a0,a5
    20e0:	f3dff06f          	j	201c <core_list_init+0x6c4>
    20e4:	00068513          	mv	a0,a3
    20e8:	f49ff06f          	j	2030 <core_list_init+0x6d8>
    20ec:	00070513          	mv	a0,a4
    20f0:	f55ff06f          	j	2044 <core_list_init+0x6ec>
    20f4:	00060513          	mv	a0,a2
    20f8:	f61ff06f          	j	2058 <core_list_init+0x700>
    20fc:	00028513          	mv	a0,t0
    2100:	f71ff06f          	j	2070 <core_list_init+0x718>
    2104:	00078513          	mv	a0,a5
    2108:	de1ff06f          	j	1ee8 <core_list_init+0x590>
    210c:	00070513          	mv	a0,a4
    2110:	00070813          	mv	a6,a4
    2114:	00038713          	mv	a4,t2
    2118:	ccdff06f          	j	1de4 <core_list_init+0x48c>
    211c:	00078513          	mv	a0,a5
    2120:	ea1ff06f          	j	1fc0 <core_list_init+0x668>
    2124:	00078513          	mv	a0,a5
    2128:	e7dff06f          	j	1fa4 <core_list_init+0x64c>
    212c:	00078513          	mv	a0,a5
    2130:	e59ff06f          	j	1f88 <core_list_init+0x630>
    2134:	00078513          	mv	a0,a5
    2138:	e35ff06f          	j	1f6c <core_list_init+0x614>
    213c:	00078513          	mv	a0,a5
    2140:	e11ff06f          	j	1f50 <core_list_init+0x5f8>
    2144:	00150513          	addi	a0,a0,1
    2148:	8ea384e3          	beq	t2,a0,1a30 <core_list_init+0xd8>
    214c:	00030e13          	mv	t3,t1
    2150:	00068893          	mv	a7,a3
    2154:	8cdff06f          	j	1a20 <core_list_init+0xc8>
    2158:	00052023          	sw	zero,0(a0)
    215c:	00100073          	ebreak
    2160:	0c050463          	beqz	a0,2228 <core_list_init+0x8d0>
    2164:	00050813          	mv	a6,a0
    2168:	00000793          	li	a5,0
    216c:	00f82223          	sw	a5,4(a6)
    2170:	00080793          	mv	a5,a6
    2174:	00082f03          	lw	t5,0(a6)
    2178:	060f0a63          	beqz	t5,21ec <core_list_init+0x894>
    217c:	010f2223          	sw	a6,4(t5)
    2180:	000f0793          	mv	a5,t5
    2184:	000f2683          	lw	a3,0(t5)
    2188:	06068263          	beqz	a3,21ec <core_list_init+0x894>
    218c:	01e6a223          	sw	t5,4(a3)
    2190:	00068793          	mv	a5,a3
    2194:	0006a703          	lw	a4,0(a3)
    2198:	04070a63          	beqz	a4,21ec <core_list_init+0x894>
    219c:	00d72223          	sw	a3,4(a4)
    21a0:	00070793          	mv	a5,a4
    21a4:	00072603          	lw	a2,0(a4)
    21a8:	04060263          	beqz	a2,21ec <core_list_init+0x894>
    21ac:	00e62223          	sw	a4,4(a2)
    21b0:	00060793          	mv	a5,a2
    21b4:	00062f83          	lw	t6,0(a2)
    21b8:	020f8a63          	beqz	t6,21ec <core_list_init+0x894>
    21bc:	00cfa223          	sw	a2,4(t6)
    21c0:	000f8793          	mv	a5,t6
    21c4:	000fa283          	lw	t0,0(t6)
    21c8:	02028263          	beqz	t0,21ec <core_list_init+0x894>
    21cc:	01f2a223          	sw	t6,4(t0)
    21d0:	00028793          	mv	a5,t0
    21d4:	0002a383          	lw	t2,0(t0)
    21d8:	00038a63          	beqz	t2,21ec <core_list_init+0x894>
    21dc:	0053a223          	sw	t0,4(t2)
    21e0:	00038793          	mv	a5,t2
    21e4:	0003a803          	lw	a6,0(t2)
    21e8:	f80812e3          	bnez	a6,216c <core_list_init+0x814>
    21ec:	00010337          	lui	t1,0x10
    21f0:	00c30593          	addi	a1,t1,12 # 1000c <core_cached_prev_head>
    21f4:	00a5a023          	sw	a0,0(a1)
    21f8:	00f5a223          	sw	a5,4(a1)
    21fc:	00008067          	ret
    2200:	00068513          	mv	a0,a3
    2204:	d31ff06f          	j	1f34 <core_list_init+0x5dc>
    2208:	004f8313          	addi	t1,t6,4
    220c:	00050693          	mv	a3,a0
    2210:	00000513          	li	a0,0
    2214:	fa8ff06f          	j	19bc <core_list_init+0x64>
    2218:	004f8313          	addi	t1,t6,4
    221c:	00050693          	mv	a3,a0
    2220:	00000513          	li	a0,0
    2224:	f98ff06f          	j	19bc <core_list_init+0x64>
    2228:	00000793          	li	a5,0
    222c:	fc1ff06f          	j	21ec <core_list_init+0x894>
    2230:	00070813          	mv	a6,a4
    2234:	e45ff06f          	j	2078 <core_list_init+0x720>

00002238 <core_list_insert_new>:
    2238:	00050813          	mv	a6,a0
    223c:	00062503          	lw	a0,0(a2)
    2240:	00c50893          	addi	a7,a0,12
    2244:	04e8f263          	bgeu	a7,a4,2288 <core_list_insert_new+0x50>
    2248:	0006a703          	lw	a4,0(a3)
    224c:	00470293          	addi	t0,a4,4
    2250:	04f2f063          	bgeu	t0,a5,2290 <core_list_insert_new+0x58>
    2254:	01162023          	sw	a7,0(a2)
    2258:	00082783          	lw	a5,0(a6)
    225c:	00f52023          	sw	a5,0(a0)
    2260:	01052223          	sw	a6,4(a0)
    2264:	00078463          	beqz	a5,226c <core_list_insert_new+0x34>
    2268:	00a7a223          	sw	a0,4(a5)
    226c:	00a82023          	sw	a0,0(a6)
    2270:	0056a023          	sw	t0,0(a3)
    2274:	00059303          	lh	t1,0(a1)
    2278:	00651423          	sh	t1,8(a0)
    227c:	00259383          	lh	t2,2(a1)
    2280:	00751523          	sh	t2,10(a0)
    2284:	00008067          	ret
    2288:	00000513          	li	a0,0
    228c:	00008067          	ret
    2290:	00000513          	li	a0,0
    2294:	00008067          	ret

00002298 <core_list_remove>:
    2298:	00050793          	mv	a5,a0
    229c:	00052503          	lw	a0,0(a0)
    22a0:	0087a703          	lw	a4,8(a5)
    22a4:	00852683          	lw	a3,8(a0)
    22a8:	00d7a423          	sw	a3,8(a5)
    22ac:	00e52423          	sw	a4,8(a0)
    22b0:	0007a283          	lw	t0,0(a5)
    22b4:	0002a303          	lw	t1,0(t0)
    22b8:	0067a023          	sw	t1,0(a5)
    22bc:	00052023          	sw	zero,0(a0)
    22c0:	00008067          	ret

000022c4 <core_list_undo_remove>:
    22c4:	00852783          	lw	a5,8(a0)
    22c8:	0085a703          	lw	a4,8(a1)
    22cc:	00e52423          	sw	a4,8(a0)
    22d0:	00f5a423          	sw	a5,8(a1)
    22d4:	0005a283          	lw	t0,0(a1)
    22d8:	00552023          	sw	t0,0(a0)
    22dc:	00a5a023          	sw	a0,0(a1)
    22e0:	00008067          	ret

000022e4 <core_list_find>:
    22e4:	00259303          	lh	t1,2(a1)
    22e8:	02034063          	bltz	t1,2308 <core_list_find+0x24>
    22ec:	00051863          	bnez	a0,22fc <core_list_find+0x18>
    22f0:	00008067          	ret
    22f4:	00052503          	lw	a0,0(a0)
    22f8:	02050663          	beqz	a0,2324 <core_list_find+0x40>
    22fc:	00a51283          	lh	t0,10(a0)
    2300:	fe629ae3          	bne	t0,t1,22f4 <core_list_find+0x10>
    2304:	00008067          	ret
    2308:	00050e63          	beqz	a0,2324 <core_list_find+0x40>
    230c:	00059703          	lh	a4,0(a1)
    2310:	00c0006f          	j	231c <core_list_find+0x38>
    2314:	00052503          	lw	a0,0(a0)
    2318:	00050663          	beqz	a0,2324 <core_list_find+0x40>
    231c:	00854783          	lbu	a5,8(a0)
    2320:	fee79ae3          	bne	a5,a4,2314 <core_list_find+0x30>
    2324:	00008067          	ret

00002328 <core_list_reverse>:
    2328:	0a050063          	beqz	a0,23c8 <core_list_reverse+0xa0>
    232c:	00000893          	li	a7,0
    2330:	00052783          	lw	a5,0(a0)
    2334:	01152023          	sw	a7,0(a0)
    2338:	00050693          	mv	a3,a0
    233c:	08078663          	beqz	a5,23c8 <core_list_reverse+0xa0>
    2340:	00078513          	mv	a0,a5
    2344:	0007a703          	lw	a4,0(a5)
    2348:	00d7a023          	sw	a3,0(a5)
    234c:	08070063          	beqz	a4,23cc <core_list_reverse+0xa4>
    2350:	00070513          	mv	a0,a4
    2354:	00072283          	lw	t0,0(a4)
    2358:	00f72023          	sw	a5,0(a4)
    235c:	06028663          	beqz	t0,23c8 <core_list_reverse+0xa0>
    2360:	00028513          	mv	a0,t0
    2364:	0002a303          	lw	t1,0(t0)
    2368:	00e2a023          	sw	a4,0(t0)
    236c:	04030e63          	beqz	t1,23c8 <core_list_reverse+0xa0>
    2370:	00030513          	mv	a0,t1
    2374:	00032383          	lw	t2,0(t1)
    2378:	00532023          	sw	t0,0(t1)
    237c:	04038663          	beqz	t2,23c8 <core_list_reverse+0xa0>
    2380:	00038513          	mv	a0,t2
    2384:	0003a583          	lw	a1,0(t2)
    2388:	0063a023          	sw	t1,0(t2)
    238c:	02058e63          	beqz	a1,23c8 <core_list_reverse+0xa0>
    2390:	00058513          	mv	a0,a1
    2394:	0005a603          	lw	a2,0(a1)
    2398:	0075a023          	sw	t2,0(a1)
    239c:	02060663          	beqz	a2,23c8 <core_list_reverse+0xa0>
    23a0:	00060513          	mv	a0,a2
    23a4:	00062803          	lw	a6,0(a2)
    23a8:	00b62023          	sw	a1,0(a2)
    23ac:	00060893          	mv	a7,a2
    23b0:	00080c63          	beqz	a6,23c8 <core_list_reverse+0xa0>
    23b4:	00080513          	mv	a0,a6
    23b8:	00052783          	lw	a5,0(a0)
    23bc:	01152023          	sw	a7,0(a0)
    23c0:	00050693          	mv	a3,a0
    23c4:	f6079ee3          	bnez	a5,2340 <core_list_reverse+0x18>
    23c8:	00008067          	ret
    23cc:	00008067          	ret

000023d0 <core_list_mergesort>:
    23d0:	fc010113          	addi	sp,sp,-64
    23d4:	02112e23          	sw	ra,60(sp)
    23d8:	02812c23          	sw	s0,56(sp)
    23dc:	02912a23          	sw	s1,52(sp)
    23e0:	03212823          	sw	s2,48(sp)
    23e4:	03312623          	sw	s3,44(sp)
    23e8:	03412423          	sw	s4,40(sp)
    23ec:	03512223          	sw	s5,36(sp)
    23f0:	03612023          	sw	s6,32(sp)
    23f4:	01712e23          	sw	s7,28(sp)
    23f8:	01812c23          	sw	s8,24(sp)
    23fc:	01912a23          	sw	s9,20(sp)
    2400:	01a12823          	sw	s10,16(sp)
    2404:	01b12623          	sw	s11,12(sp)
    2408:	00050713          	mv	a4,a0
    240c:	00058b93          	mv	s7,a1
    2410:	00060b13          	mv	s6,a2
    2414:	00100c13          	li	s8,1
    2418:	000c0d13          	mv	s10,s8
    241c:	1a070a63          	beqz	a4,25d0 <core_list_mergesort+0x200>
    2420:	00000c93          	li	s9,0
    2424:	00000913          	li	s2,0
    2428:	00000a93          	li	s5,0
    242c:	001c8c93          	addi	s9,s9,1
    2430:	00070793          	mv	a5,a4
    2434:	00000493          	li	s1,0
    2438:	007c7693          	andi	a3,s8,7
    243c:	08068463          	beqz	a3,24c4 <core_list_mergesort+0xf4>
    2440:	0f805663          	blez	s8,252c <core_list_mergesort+0x15c>
    2444:	00100493          	li	s1,1
    2448:	00072783          	lw	a5,0(a4)
    244c:	0e078063          	beqz	a5,252c <core_list_mergesort+0x15c>
    2450:	06968a63          	beq	a3,s1,24c4 <core_list_mergesort+0xf4>
    2454:	00200613          	li	a2,2
    2458:	06c68063          	beq	a3,a2,24b8 <core_list_mergesort+0xe8>
    245c:	00300593          	li	a1,3
    2460:	04b68663          	beq	a3,a1,24ac <core_list_mergesort+0xdc>
    2464:	00400293          	li	t0,4
    2468:	02568c63          	beq	a3,t0,24a0 <core_list_mergesort+0xd0>
    246c:	00500313          	li	t1,5
    2470:	02668263          	beq	a3,t1,2494 <core_list_mergesort+0xc4>
    2474:	00600393          	li	t2,6
    2478:	00768863          	beq	a3,t2,2488 <core_list_mergesort+0xb8>
    247c:	00060493          	mv	s1,a2
    2480:	0007a783          	lw	a5,0(a5)
    2484:	0a078463          	beqz	a5,252c <core_list_mergesort+0x15c>
    2488:	00148493          	addi	s1,s1,1
    248c:	0007a783          	lw	a5,0(a5)
    2490:	08078e63          	beqz	a5,252c <core_list_mergesort+0x15c>
    2494:	00148493          	addi	s1,s1,1
    2498:	0007a783          	lw	a5,0(a5)
    249c:	08078863          	beqz	a5,252c <core_list_mergesort+0x15c>
    24a0:	00148493          	addi	s1,s1,1
    24a4:	0007a783          	lw	a5,0(a5)
    24a8:	08078263          	beqz	a5,252c <core_list_mergesort+0x15c>
    24ac:	00148493          	addi	s1,s1,1
    24b0:	0007a783          	lw	a5,0(a5)
    24b4:	06078c63          	beqz	a5,252c <core_list_mergesort+0x15c>
    24b8:	00148493          	addi	s1,s1,1
    24bc:	0007a783          	lw	a5,0(a5)
    24c0:	06078663          	beqz	a5,252c <core_list_mergesort+0x15c>
    24c4:	0784d463          	bge	s1,s8,252c <core_list_mergesort+0x15c>
    24c8:	00148493          	addi	s1,s1,1
    24cc:	00048413          	mv	s0,s1
    24d0:	0007a783          	lw	a5,0(a5)
    24d4:	04078c63          	beqz	a5,252c <core_list_mergesort+0x15c>
    24d8:	00148493          	addi	s1,s1,1
    24dc:	0007a783          	lw	a5,0(a5)
    24e0:	04078663          	beqz	a5,252c <core_list_mergesort+0x15c>
    24e4:	00240493          	addi	s1,s0,2
    24e8:	0007a783          	lw	a5,0(a5)
    24ec:	04078063          	beqz	a5,252c <core_list_mergesort+0x15c>
    24f0:	00340493          	addi	s1,s0,3
    24f4:	0007a783          	lw	a5,0(a5)
    24f8:	02078a63          	beqz	a5,252c <core_list_mergesort+0x15c>
    24fc:	00440493          	addi	s1,s0,4
    2500:	0007a783          	lw	a5,0(a5)
    2504:	02078463          	beqz	a5,252c <core_list_mergesort+0x15c>
    2508:	00540493          	addi	s1,s0,5
    250c:	0007a783          	lw	a5,0(a5)
    2510:	00078e63          	beqz	a5,252c <core_list_mergesort+0x15c>
    2514:	00640493          	addi	s1,s0,6
    2518:	0007a783          	lw	a5,0(a5)
    251c:	00078863          	beqz	a5,252c <core_list_mergesort+0x15c>
    2520:	00740493          	addi	s1,s0,7
    2524:	0007a783          	lw	a5,0(a5)
    2528:	f8079ee3          	bnez	a5,24c4 <core_list_mergesort+0xf4>
    252c:	000c0a13          	mv	s4,s8
    2530:	00090413          	mv	s0,s2
    2534:	00070913          	mv	s2,a4
    2538:	00078713          	mv	a4,a5
    253c:	06905263          	blez	s1,25a0 <core_list_mergesort+0x1d0>
    2540:	080a0c63          	beqz	s4,25d8 <core_list_mergesort+0x208>
    2544:	48071c63          	bnez	a4,29dc <core_list_mergesort+0x60c>
    2548:	00092503          	lw	a0,0(s2)
    254c:	fff48493          	addi	s1,s1,-1
    2550:	56040263          	beqz	s0,2ab4 <core_list_mergesort+0x6e4>
    2554:	01242023          	sw	s2,0(s0)
    2558:	56049263          	bnez	s1,2abc <core_list_mergesort+0x6ec>
    255c:	00090993          	mv	s3,s2
    2560:	00000413          	li	s0,0
    2564:	00050913          	mv	s2,a0
    2568:	05405263          	blez	s4,25ac <core_list_mergesort+0x1dc>
    256c:	04040863          	beqz	s0,25bc <core_list_mergesort+0x1ec>
    2570:	0a048063          	beqz	s1,2610 <core_list_mergesort+0x240>
    2574:	00840d93          	addi	s11,s0,8
    2578:	000b0613          	mv	a2,s6
    257c:	000d8593          	mv	a1,s11
    2580:	00890513          	addi	a0,s2,8
    2584:	000b80e7          	jalr	s7
    2588:	24a05a63          	blez	a0,27dc <core_list_mergesort+0x40c>
    258c:	00042703          	lw	a4,0(s0)
    2590:	fffa0a13          	addi	s4,s4,-1
    2594:	06099a63          	bnez	s3,2608 <core_list_mergesort+0x238>
    2598:	00040a93          	mv	s5,s0
    259c:	fa9042e3          	bgtz	s1,2540 <core_list_mergesort+0x170>
    25a0:	00040993          	mv	s3,s0
    25a4:	00070413          	mv	s0,a4
    25a8:	fd4042e3          	bgtz	s4,256c <core_list_mergesort+0x19c>
    25ac:	00098913          	mv	s2,s3
    25b0:	00040713          	mv	a4,s0
    25b4:	e6071ce3          	bnez	a4,242c <core_list_mergesort+0x5c>
    25b8:	00090993          	mv	s3,s2
    25bc:	0009a023          	sw	zero,0(s3)
    25c0:	4bac8663          	beq	s9,s10,2a6c <core_list_mergesort+0x69c>
    25c4:	001c1c13          	slli	s8,s8,0x1
    25c8:	000a8713          	mv	a4,s5
    25cc:	e4071ae3          	bnez	a4,2420 <core_list_mergesort+0x50>
    25d0:	00072023          	sw	zero,0(a4)
    25d4:	00100073          	ebreak
    25d8:	fff48e13          	addi	t3,s1,-1
    25dc:	007e7e93          	andi	t4,t3,7
    25e0:	300e8863          	beqz	t4,28f0 <core_list_mergesort+0x520>
    25e4:	00092583          	lw	a1,0(s2)
    25e8:	000e0793          	mv	a5,t3
    25ec:	20040e63          	beqz	s0,2808 <core_list_mergesort+0x438>
    25f0:	01242023          	sw	s2,0(s0)
    25f4:	fc0780e3          	beqz	a5,25b4 <core_list_mergesort+0x1e4>
    25f8:	ffe48493          	addi	s1,s1,-2
    25fc:	00090993          	mv	s3,s2
    2600:	00058413          	mv	s0,a1
    2604:	0005a903          	lw	s2,0(a1)
    2608:	0089a023          	sw	s0,0(s3)
    260c:	f31ff06f          	j	253c <core_list_mergesort+0x16c>
    2610:	fffa0813          	addi	a6,s4,-1
    2614:	00787893          	andi	a7,a6,7
    2618:	0e088c63          	beqz	a7,2710 <core_list_mergesort+0x340>
    261c:	00042903          	lw	s2,0(s0)
    2620:	00080a13          	mv	s4,a6
    2624:	40098c63          	beqz	s3,2a3c <core_list_mergesort+0x66c>
    2628:	0089a023          	sw	s0,0(s3)
    262c:	00040993          	mv	s3,s0
    2630:	f80906e3          	beqz	s2,25bc <core_list_mergesort+0x1ec>
    2634:	00090413          	mv	s0,s2
    2638:	00100e13          	li	t3,1
    263c:	0dc88a63          	beq	a7,t3,2710 <core_list_mergesort+0x340>
    2640:	00200e93          	li	t4,2
    2644:	0bd88863          	beq	a7,t4,26f4 <core_list_mergesort+0x324>
    2648:	00300f13          	li	t5,3
    264c:	09e88663          	beq	a7,t5,26d8 <core_list_mergesort+0x308>
    2650:	00400f93          	li	t6,4
    2654:	07f88463          	beq	a7,t6,26bc <core_list_mergesort+0x2ec>
    2658:	00500693          	li	a3,5
    265c:	04d88263          	beq	a7,a3,26a0 <core_list_mergesort+0x2d0>
    2660:	00600613          	li	a2,6
    2664:	02c88063          	beq	a7,a2,2684 <core_list_mergesort+0x2b4>
    2668:	00092583          	lw	a1,0(s2)
    266c:	fffa0a13          	addi	s4,s4,-1
    2670:	42098e63          	beqz	s3,2aac <core_list_mergesort+0x6dc>
    2674:	0129a023          	sw	s2,0(s3)
    2678:	00040993          	mv	s3,s0
    267c:	f40580e3          	beqz	a1,25bc <core_list_mergesort+0x1ec>
    2680:	00058413          	mv	s0,a1
    2684:	00042283          	lw	t0,0(s0)
    2688:	fffa0a13          	addi	s4,s4,-1
    268c:	3c098c63          	beqz	s3,2a64 <core_list_mergesort+0x694>
    2690:	0089a023          	sw	s0,0(s3)
    2694:	00040993          	mv	s3,s0
    2698:	f20282e3          	beqz	t0,25bc <core_list_mergesort+0x1ec>
    269c:	00028413          	mv	s0,t0
    26a0:	00042303          	lw	t1,0(s0)
    26a4:	fffa0a13          	addi	s4,s4,-1
    26a8:	3a098a63          	beqz	s3,2a5c <core_list_mergesort+0x68c>
    26ac:	0089a023          	sw	s0,0(s3)
    26b0:	00040993          	mv	s3,s0
    26b4:	f00304e3          	beqz	t1,25bc <core_list_mergesort+0x1ec>
    26b8:	00030413          	mv	s0,t1
    26bc:	00042383          	lw	t2,0(s0)
    26c0:	fffa0a13          	addi	s4,s4,-1
    26c4:	38098863          	beqz	s3,2a54 <core_list_mergesort+0x684>
    26c8:	0089a023          	sw	s0,0(s3)
    26cc:	00040993          	mv	s3,s0
    26d0:	ee0386e3          	beqz	t2,25bc <core_list_mergesort+0x1ec>
    26d4:	00038413          	mv	s0,t2
    26d8:	00042483          	lw	s1,0(s0)
    26dc:	fffa0a13          	addi	s4,s4,-1
    26e0:	36098663          	beqz	s3,2a4c <core_list_mergesort+0x67c>
    26e4:	0089a023          	sw	s0,0(s3)
    26e8:	00040993          	mv	s3,s0
    26ec:	ec0488e3          	beqz	s1,25bc <core_list_mergesort+0x1ec>
    26f0:	00048413          	mv	s0,s1
    26f4:	00042783          	lw	a5,0(s0)
    26f8:	fffa0a13          	addi	s4,s4,-1
    26fc:	34098463          	beqz	s3,2a44 <core_list_mergesort+0x674>
    2700:	0089a023          	sw	s0,0(s3)
    2704:	00040993          	mv	s3,s0
    2708:	ea078ae3          	beqz	a5,25bc <core_list_mergesort+0x1ec>
    270c:	00078413          	mv	s0,a5
    2710:	00042703          	lw	a4,0(s0)
    2714:	fffa0a13          	addi	s4,s4,-1
    2718:	0a098863          	beqz	s3,27c8 <core_list_mergesort+0x3f8>
    271c:	0089a023          	sw	s0,0(s3)
    2720:	0a0a0863          	beqz	s4,27d0 <core_list_mergesort+0x400>
    2724:	00040993          	mv	s3,s0
    2728:	e8070ae3          	beqz	a4,25bc <core_list_mergesort+0x1ec>
    272c:	00072503          	lw	a0,0(a4)
    2730:	2c040a63          	beqz	s0,2a04 <core_list_mergesort+0x634>
    2734:	00e42023          	sw	a4,0(s0)
    2738:	00070993          	mv	s3,a4
    273c:	e80500e3          	beqz	a0,25bc <core_list_mergesort+0x1ec>
    2740:	00052403          	lw	s0,0(a0)
    2744:	2c070463          	beqz	a4,2a0c <core_list_mergesort+0x63c>
    2748:	00a72023          	sw	a0,0(a4)
    274c:	00050993          	mv	s3,a0
    2750:	e60406e3          	beqz	s0,25bc <core_list_mergesort+0x1ec>
    2754:	00042703          	lw	a4,0(s0)
    2758:	2a050e63          	beqz	a0,2a14 <core_list_mergesort+0x644>
    275c:	00852023          	sw	s0,0(a0)
    2760:	00040993          	mv	s3,s0
    2764:	e4070ce3          	beqz	a4,25bc <core_list_mergesort+0x1ec>
    2768:	00072d83          	lw	s11,0(a4)
    276c:	2a040863          	beqz	s0,2a1c <core_list_mergesort+0x64c>
    2770:	00e42023          	sw	a4,0(s0)
    2774:	00070993          	mv	s3,a4
    2778:	e40d82e3          	beqz	s11,25bc <core_list_mergesort+0x1ec>
    277c:	000da803          	lw	a6,0(s11)
    2780:	2a070263          	beqz	a4,2a24 <core_list_mergesort+0x654>
    2784:	01b72023          	sw	s11,0(a4)
    2788:	000d8993          	mv	s3,s11
    278c:	e20808e3          	beqz	a6,25bc <core_list_mergesort+0x1ec>
    2790:	00082883          	lw	a7,0(a6)
    2794:	280d8c63          	beqz	s11,2a2c <core_list_mergesort+0x65c>
    2798:	010da023          	sw	a6,0(s11)
    279c:	00080993          	mv	s3,a6
    27a0:	e0088ee3          	beqz	a7,25bc <core_list_mergesort+0x1ec>
    27a4:	0008a403          	lw	s0,0(a7)
    27a8:	ff9a0a13          	addi	s4,s4,-7
    27ac:	28080463          	beqz	a6,2a34 <core_list_mergesort+0x664>
    27b0:	01182023          	sw	a7,0(a6)
    27b4:	00088993          	mv	s3,a7
    27b8:	e00402e3          	beqz	s0,25bc <core_list_mergesort+0x1ec>
    27bc:	00042703          	lw	a4,0(s0)
    27c0:	fffa0a13          	addi	s4,s4,-1
    27c4:	f4099ce3          	bnez	s3,271c <core_list_mergesort+0x34c>
    27c8:	00040a93          	mv	s5,s0
    27cc:	f40a1ce3          	bnez	s4,2724 <core_list_mergesort+0x354>
    27d0:	00040913          	mv	s2,s0
    27d4:	c4071ce3          	bnez	a4,242c <core_list_mergesort+0x5c>
    27d8:	de1ff06f          	j	25b8 <core_list_mergesort+0x1e8>
    27dc:	00092703          	lw	a4,0(s2)
    27e0:	fff48493          	addi	s1,s1,-1
    27e4:	00098c63          	beqz	s3,27fc <core_list_mergesort+0x42c>
    27e8:	0129a023          	sw	s2,0(s3)
    27ec:	1e905e63          	blez	s1,29e8 <core_list_mergesort+0x618>
    27f0:	00090993          	mv	s3,s2
    27f4:	00070913          	mv	s2,a4
    27f8:	d81ff06f          	j	2578 <core_list_mergesort+0x1a8>
    27fc:	1e905c63          	blez	s1,29f4 <core_list_mergesort+0x624>
    2800:	00090a93          	mv	s5,s2
    2804:	fedff06f          	j	27f0 <core_list_mergesort+0x420>
    2808:	00090a93          	mv	s5,s2
    280c:	00090413          	mv	s0,s2
    2810:	000e0493          	mv	s1,t3
    2814:	00058913          	mv	s2,a1
    2818:	00100f13          	li	t5,1
    281c:	0dee8a63          	beq	t4,t5,28f0 <core_list_mergesort+0x520>
    2820:	00200f93          	li	t6,2
    2824:	0bfe8863          	beq	t4,t6,28d4 <core_list_mergesort+0x504>
    2828:	00300693          	li	a3,3
    282c:	08de8663          	beq	t4,a3,28b8 <core_list_mergesort+0x4e8>
    2830:	00400613          	li	a2,4
    2834:	06ce8463          	beq	t4,a2,289c <core_list_mergesort+0x4cc>
    2838:	00500293          	li	t0,5
    283c:	045e8263          	beq	t4,t0,2880 <core_list_mergesort+0x4b0>
    2840:	00600313          	li	t1,6
    2844:	026e8063          	beq	t4,t1,2864 <core_list_mergesort+0x494>
    2848:	0005a583          	lw	a1,0(a1)
    284c:	fffe0793          	addi	a5,t3,-1
    2850:	da0a90e3          	bnez	s5,25f0 <core_list_mergesort+0x220>
    2854:	00090a93          	mv	s5,s2
    2858:	00090413          	mv	s0,s2
    285c:	00078493          	mv	s1,a5
    2860:	00058913          	mv	s2,a1
    2864:	00092583          	lw	a1,0(s2)
    2868:	fff48793          	addi	a5,s1,-1
    286c:	d80412e3          	bnez	s0,25f0 <core_list_mergesort+0x220>
    2870:	00090a93          	mv	s5,s2
    2874:	00090413          	mv	s0,s2
    2878:	00078493          	mv	s1,a5
    287c:	00058913          	mv	s2,a1
    2880:	00092583          	lw	a1,0(s2)
    2884:	fff48793          	addi	a5,s1,-1
    2888:	d60414e3          	bnez	s0,25f0 <core_list_mergesort+0x220>
    288c:	00090a93          	mv	s5,s2
    2890:	00090413          	mv	s0,s2
    2894:	00078493          	mv	s1,a5
    2898:	00058913          	mv	s2,a1
    289c:	00092583          	lw	a1,0(s2)
    28a0:	fff48793          	addi	a5,s1,-1
    28a4:	d40416e3          	bnez	s0,25f0 <core_list_mergesort+0x220>
    28a8:	00090a93          	mv	s5,s2
    28ac:	00090413          	mv	s0,s2
    28b0:	00078493          	mv	s1,a5
    28b4:	00058913          	mv	s2,a1
    28b8:	00092583          	lw	a1,0(s2)
    28bc:	fff48793          	addi	a5,s1,-1
    28c0:	d20418e3          	bnez	s0,25f0 <core_list_mergesort+0x220>
    28c4:	00090a93          	mv	s5,s2
    28c8:	00090413          	mv	s0,s2
    28cc:	00078493          	mv	s1,a5
    28d0:	00058913          	mv	s2,a1
    28d4:	00092583          	lw	a1,0(s2)
    28d8:	fff48793          	addi	a5,s1,-1
    28dc:	d0041ae3          	bnez	s0,25f0 <core_list_mergesort+0x220>
    28e0:	00090a93          	mv	s5,s2
    28e4:	00090413          	mv	s0,s2
    28e8:	00078493          	mv	s1,a5
    28ec:	00058913          	mv	s2,a1
    28f0:	00092583          	lw	a1,0(s2)
    28f4:	fff48793          	addi	a5,s1,-1
    28f8:	ce041ce3          	bnez	s0,25f0 <core_list_mergesort+0x220>
    28fc:	00090a93          	mv	s5,s2
    2900:	00090413          	mv	s0,s2
    2904:	ca0788e3          	beqz	a5,25b4 <core_list_mergesort+0x1e4>
    2908:	00078393          	mv	t2,a5
    290c:	00078493          	mv	s1,a5
    2910:	00058913          	mv	s2,a1
    2914:	0005a583          	lw	a1,0(a1)
    2918:	fff78793          	addi	a5,a5,-1
    291c:	cc0a9ae3          	bnez	s5,25f0 <core_list_mergesort+0x220>
    2920:	00090a93          	mv	s5,s2
    2924:	00090413          	mv	s0,s2
    2928:	00078493          	mv	s1,a5
    292c:	00058913          	mv	s2,a1
    2930:	0005a583          	lw	a1,0(a1)
    2934:	fff78793          	addi	a5,a5,-1
    2938:	ca0a9ce3          	bnez	s5,25f0 <core_list_mergesort+0x220>
    293c:	00090a93          	mv	s5,s2
    2940:	00090413          	mv	s0,s2
    2944:	ffe38493          	addi	s1,t2,-2
    2948:	00058913          	mv	s2,a1
    294c:	0005a583          	lw	a1,0(a1)
    2950:	ffd38793          	addi	a5,t2,-3
    2954:	c80a9ee3          	bnez	s5,25f0 <core_list_mergesort+0x220>
    2958:	00090a93          	mv	s5,s2
    295c:	00090413          	mv	s0,s2
    2960:	00078493          	mv	s1,a5
    2964:	00058913          	mv	s2,a1
    2968:	0005a583          	lw	a1,0(a1)
    296c:	ffc38793          	addi	a5,t2,-4
    2970:	c80a90e3          	bnez	s5,25f0 <core_list_mergesort+0x220>
    2974:	00090a93          	mv	s5,s2
    2978:	00090413          	mv	s0,s2
    297c:	00078493          	mv	s1,a5
    2980:	00058913          	mv	s2,a1
    2984:	0005a583          	lw	a1,0(a1)
    2988:	ffb38793          	addi	a5,t2,-5
    298c:	c60a92e3          	bnez	s5,25f0 <core_list_mergesort+0x220>
    2990:	00090a93          	mv	s5,s2
    2994:	00090413          	mv	s0,s2
    2998:	00078493          	mv	s1,a5
    299c:	00058913          	mv	s2,a1
    29a0:	0005a583          	lw	a1,0(a1)
    29a4:	ffa38793          	addi	a5,t2,-6
    29a8:	c40a94e3          	bnez	s5,25f0 <core_list_mergesort+0x220>
    29ac:	00090a93          	mv	s5,s2
    29b0:	00090413          	mv	s0,s2
    29b4:	00078493          	mv	s1,a5
    29b8:	00058913          	mv	s2,a1
    29bc:	0005a583          	lw	a1,0(a1)
    29c0:	ff938793          	addi	a5,t2,-7
    29c4:	c20a96e3          	bnez	s5,25f0 <core_list_mergesort+0x220>
    29c8:	00090a93          	mv	s5,s2
    29cc:	00090413          	mv	s0,s2
    29d0:	00078493          	mv	s1,a5
    29d4:	00058913          	mv	s2,a1
    29d8:	f19ff06f          	j	28f0 <core_list_mergesort+0x520>
    29dc:	00040993          	mv	s3,s0
    29e0:	00070413          	mv	s0,a4
    29e4:	b91ff06f          	j	2574 <core_list_mergesort+0x1a4>
    29e8:	00090993          	mv	s3,s2
    29ec:	00070913          	mv	s2,a4
    29f0:	b79ff06f          	j	2568 <core_list_mergesort+0x198>
    29f4:	00090993          	mv	s3,s2
    29f8:	00090a93          	mv	s5,s2
    29fc:	00070913          	mv	s2,a4
    2a00:	b69ff06f          	j	2568 <core_list_mergesort+0x198>
    2a04:	00070a93          	mv	s5,a4
    2a08:	d31ff06f          	j	2738 <core_list_mergesort+0x368>
    2a0c:	00050a93          	mv	s5,a0
    2a10:	d3dff06f          	j	274c <core_list_mergesort+0x37c>
    2a14:	00040a93          	mv	s5,s0
    2a18:	d49ff06f          	j	2760 <core_list_mergesort+0x390>
    2a1c:	00070a93          	mv	s5,a4
    2a20:	d55ff06f          	j	2774 <core_list_mergesort+0x3a4>
    2a24:	000d8a93          	mv	s5,s11
    2a28:	d61ff06f          	j	2788 <core_list_mergesort+0x3b8>
    2a2c:	00080a93          	mv	s5,a6
    2a30:	d6dff06f          	j	279c <core_list_mergesort+0x3cc>
    2a34:	00088a93          	mv	s5,a7
    2a38:	d7dff06f          	j	27b4 <core_list_mergesort+0x3e4>
    2a3c:	00040a93          	mv	s5,s0
    2a40:	bedff06f          	j	262c <core_list_mergesort+0x25c>
    2a44:	00040a93          	mv	s5,s0
    2a48:	cbdff06f          	j	2704 <core_list_mergesort+0x334>
    2a4c:	00040a93          	mv	s5,s0
    2a50:	c99ff06f          	j	26e8 <core_list_mergesort+0x318>
    2a54:	00040a93          	mv	s5,s0
    2a58:	c75ff06f          	j	26cc <core_list_mergesort+0x2fc>
    2a5c:	00040a93          	mv	s5,s0
    2a60:	c51ff06f          	j	26b0 <core_list_mergesort+0x2e0>
    2a64:	00040a93          	mv	s5,s0
    2a68:	c2dff06f          	j	2694 <core_list_mergesort+0x2c4>
    2a6c:	000a8513          	mv	a0,s5
    2a70:	03c12083          	lw	ra,60(sp)
    2a74:	03812403          	lw	s0,56(sp)
    2a78:	03412483          	lw	s1,52(sp)
    2a7c:	03012903          	lw	s2,48(sp)
    2a80:	02c12983          	lw	s3,44(sp)
    2a84:	02812a03          	lw	s4,40(sp)
    2a88:	02412a83          	lw	s5,36(sp)
    2a8c:	02012b03          	lw	s6,32(sp)
    2a90:	01c12b83          	lw	s7,28(sp)
    2a94:	01812c03          	lw	s8,24(sp)
    2a98:	01412c83          	lw	s9,20(sp)
    2a9c:	01012d03          	lw	s10,16(sp)
    2aa0:	00c12d83          	lw	s11,12(sp)
    2aa4:	04010113          	addi	sp,sp,64
    2aa8:	00008067          	ret
    2aac:	00090a93          	mv	s5,s2
    2ab0:	bc9ff06f          	j	2678 <core_list_mergesort+0x2a8>
    2ab4:	00048a63          	beqz	s1,2ac8 <core_list_mergesort+0x6f8>
    2ab8:	00090a93          	mv	s5,s2
    2abc:	00090413          	mv	s0,s2
    2ac0:	00050913          	mv	s2,a0
    2ac4:	a81ff06f          	j	2544 <core_list_mergesort+0x174>
    2ac8:	00090993          	mv	s3,s2
    2acc:	00090a93          	mv	s5,s2
    2ad0:	00050913          	mv	s2,a0
    2ad4:	a95ff06f          	j	2568 <core_list_mergesort+0x198>

00002ad8 <iterate>:
    2ad8:	ff010113          	addi	sp,sp,-16
    2adc:	00112623          	sw	ra,12(sp)
    2ae0:	01212023          	sw	s2,0(sp)
    2ae4:	01c52903          	lw	s2,28(a0)
    2ae8:	02052c23          	sw	zero,56(a0)
    2aec:	02052e23          	sw	zero,60(a0)
    2af0:	34090a63          	beqz	s2,2e44 <iterate+0x36c>
    2af4:	00812423          	sw	s0,8(sp)
    2af8:	00912223          	sw	s1,4(sp)
    2afc:	00050413          	mv	s0,a0
    2b00:	00100593          	li	a1,1
    2b04:	8a5fd0ef          	jal	3a8 <core_bench_list>
    2b08:	03845783          	lhu	a5,56(s0)
    2b0c:	50f5050b          	.insn	4, 0x50f5050b
    2b10:	02a41c23          	sh	a0,56(s0)
    2b14:	fff00593          	li	a1,-1
    2b18:	00040513          	mv	a0,s0
    2b1c:	88dfd0ef          	jal	3a8 <core_bench_list>
    2b20:	03845283          	lhu	t0,56(s0)
    2b24:	5055030b          	.insn	4, 0x5055030b
    2b28:	01031393          	slli	t2,t1,0x10
    2b2c:	3c03348b          	th.extu	s1,t1,15,0
    2b30:	0074e5b3          	or	a1,s1,t2
    2b34:	02b42c23          	sw	a1,56(s0)
    2b38:	00100493          	li	s1,1
    2b3c:	36990863          	beq	s2,s1,2eac <iterate+0x3d4>
    2b40:	40990633          	sub	a2,s2,s1
    2b44:	00767693          	andi	a3,a2,7
    2b48:	16068663          	beqz	a3,2cb4 <iterate+0x1dc>
    2b4c:	12968863          	beq	a3,s1,2c7c <iterate+0x1a4>
    2b50:	00200713          	li	a4,2
    2b54:	0ee68a63          	beq	a3,a4,2c48 <iterate+0x170>
    2b58:	00300813          	li	a6,3
    2b5c:	0b068c63          	beq	a3,a6,2c14 <iterate+0x13c>
    2b60:	00400893          	li	a7,4
    2b64:	07168e63          	beq	a3,a7,2be0 <iterate+0x108>
    2b68:	00500e13          	li	t3,5
    2b6c:	05c68063          	beq	a3,t3,2bac <iterate+0xd4>
    2b70:	00600e93          	li	t4,6
    2b74:	31d69063          	bne	a3,t4,2e74 <iterate+0x39c>
    2b78:	00100593          	li	a1,1
    2b7c:	00040513          	mv	a0,s0
    2b80:	829fd0ef          	jal	3a8 <core_bench_list>
    2b84:	03845283          	lhu	t0,56(s0)
    2b88:	5055030b          	.insn	4, 0x5055030b
    2b8c:	02641c23          	sh	t1,56(s0)
    2b90:	fff00593          	li	a1,-1
    2b94:	00040513          	mv	a0,s0
    2b98:	811fd0ef          	jal	3a8 <core_bench_list>
    2b9c:	03845383          	lhu	t2,56(s0)
    2ba0:	5075058b          	.insn	4, 0x5075058b
    2ba4:	02b41c23          	sh	a1,56(s0)
    2ba8:	00148493          	addi	s1,s1,1
    2bac:	00100593          	li	a1,1
    2bb0:	00040513          	mv	a0,s0
    2bb4:	ff4fd0ef          	jal	3a8 <core_bench_list>
    2bb8:	03845603          	lhu	a2,56(s0)
    2bbc:	50c5068b          	.insn	4, 0x50c5068b
    2bc0:	02d41c23          	sh	a3,56(s0)
    2bc4:	fff00593          	li	a1,-1
    2bc8:	00040513          	mv	a0,s0
    2bcc:	fdcfd0ef          	jal	3a8 <core_bench_list>
    2bd0:	03845703          	lhu	a4,56(s0)
    2bd4:	50e5080b          	.insn	4, 0x50e5080b
    2bd8:	03041c23          	sh	a6,56(s0)
    2bdc:	00148493          	addi	s1,s1,1
    2be0:	00100593          	li	a1,1
    2be4:	00040513          	mv	a0,s0
    2be8:	fc0fd0ef          	jal	3a8 <core_bench_list>
    2bec:	03845883          	lhu	a7,56(s0)
    2bf0:	51150e0b          	.insn	4, 0x51150e0b
    2bf4:	03c41c23          	sh	t3,56(s0)
    2bf8:	fff00593          	li	a1,-1
    2bfc:	00040513          	mv	a0,s0
    2c00:	fa8fd0ef          	jal	3a8 <core_bench_list>
    2c04:	03845e83          	lhu	t4,56(s0)
    2c08:	51d50f0b          	.insn	4, 0x51d50f0b
    2c0c:	03e41c23          	sh	t5,56(s0)
    2c10:	00148493          	addi	s1,s1,1
    2c14:	00100593          	li	a1,1
    2c18:	00040513          	mv	a0,s0
    2c1c:	f8cfd0ef          	jal	3a8 <core_bench_list>
    2c20:	03845f83          	lhu	t6,56(s0)
    2c24:	51f5078b          	.insn	4, 0x51f5078b
    2c28:	02f41c23          	sh	a5,56(s0)
    2c2c:	fff00593          	li	a1,-1
    2c30:	00040513          	mv	a0,s0
    2c34:	f74fd0ef          	jal	3a8 <core_bench_list>
    2c38:	03845283          	lhu	t0,56(s0)
    2c3c:	5055050b          	.insn	4, 0x5055050b
    2c40:	02a41c23          	sh	a0,56(s0)
    2c44:	00148493          	addi	s1,s1,1
    2c48:	00100593          	li	a1,1
    2c4c:	00040513          	mv	a0,s0
    2c50:	f58fd0ef          	jal	3a8 <core_bench_list>
    2c54:	03845303          	lhu	t1,56(s0)
    2c58:	5065038b          	.insn	4, 0x5065038b
    2c5c:	02741c23          	sh	t2,56(s0)
    2c60:	fff00593          	li	a1,-1
    2c64:	00040513          	mv	a0,s0
    2c68:	f40fd0ef          	jal	3a8 <core_bench_list>
    2c6c:	03845583          	lhu	a1,56(s0)
    2c70:	50b5060b          	.insn	4, 0x50b5060b
    2c74:	02c41c23          	sh	a2,56(s0)
    2c78:	00148493          	addi	s1,s1,1
    2c7c:	00100593          	li	a1,1
    2c80:	00040513          	mv	a0,s0
    2c84:	f24fd0ef          	jal	3a8 <core_bench_list>
    2c88:	03845683          	lhu	a3,56(s0)
    2c8c:	50d5070b          	.insn	4, 0x50d5070b
    2c90:	02e41c23          	sh	a4,56(s0)
    2c94:	fff00593          	li	a1,-1
    2c98:	00040513          	mv	a0,s0
    2c9c:	f0cfd0ef          	jal	3a8 <core_bench_list>
    2ca0:	03845803          	lhu	a6,56(s0)
    2ca4:	5105088b          	.insn	4, 0x5105088b
    2ca8:	03141c23          	sh	a7,56(s0)
    2cac:	00148493          	addi	s1,s1,1
    2cb0:	1a990463          	beq	s2,s1,2e58 <iterate+0x380>
    2cb4:	00100593          	li	a1,1
    2cb8:	00040513          	mv	a0,s0
    2cbc:	eecfd0ef          	jal	3a8 <core_bench_list>
    2cc0:	03845e03          	lhu	t3,56(s0)
    2cc4:	51c50e8b          	.insn	4, 0x51c50e8b
    2cc8:	03d41c23          	sh	t4,56(s0)
    2ccc:	fff00593          	li	a1,-1
    2cd0:	00040513          	mv	a0,s0
    2cd4:	ed4fd0ef          	jal	3a8 <core_bench_list>
    2cd8:	03845f03          	lhu	t5,56(s0)
    2cdc:	51e50f8b          	.insn	4, 0x51e50f8b
    2ce0:	03f41c23          	sh	t6,56(s0)
    2ce4:	00100593          	li	a1,1
    2ce8:	00040513          	mv	a0,s0
    2cec:	ebcfd0ef          	jal	3a8 <core_bench_list>
    2cf0:	03845783          	lhu	a5,56(s0)
    2cf4:	50f5028b          	.insn	4, 0x50f5028b
    2cf8:	02541c23          	sh	t0,56(s0)
    2cfc:	fff00593          	li	a1,-1
    2d00:	00040513          	mv	a0,s0
    2d04:	ea4fd0ef          	jal	3a8 <core_bench_list>
    2d08:	03845303          	lhu	t1,56(s0)
    2d0c:	5065050b          	.insn	4, 0x5065050b
    2d10:	02a41c23          	sh	a0,56(s0)
    2d14:	00100593          	li	a1,1
    2d18:	00040513          	mv	a0,s0
    2d1c:	e8cfd0ef          	jal	3a8 <core_bench_list>
    2d20:	03845383          	lhu	t2,56(s0)
    2d24:	5075058b          	.insn	4, 0x5075058b
    2d28:	02b41c23          	sh	a1,56(s0)
    2d2c:	fff00593          	li	a1,-1
    2d30:	00040513          	mv	a0,s0
    2d34:	e74fd0ef          	jal	3a8 <core_bench_list>
    2d38:	03845603          	lhu	a2,56(s0)
    2d3c:	50c5068b          	.insn	4, 0x50c5068b
    2d40:	02d41c23          	sh	a3,56(s0)
    2d44:	00100593          	li	a1,1
    2d48:	00040513          	mv	a0,s0
    2d4c:	e5cfd0ef          	jal	3a8 <core_bench_list>
    2d50:	03845703          	lhu	a4,56(s0)
    2d54:	50e5080b          	.insn	4, 0x50e5080b
    2d58:	03041c23          	sh	a6,56(s0)
    2d5c:	fff00593          	li	a1,-1
    2d60:	00040513          	mv	a0,s0
    2d64:	e44fd0ef          	jal	3a8 <core_bench_list>
    2d68:	03845883          	lhu	a7,56(s0)
    2d6c:	51150e0b          	.insn	4, 0x51150e0b
    2d70:	03c41c23          	sh	t3,56(s0)
    2d74:	00100593          	li	a1,1
    2d78:	00040513          	mv	a0,s0
    2d7c:	e2cfd0ef          	jal	3a8 <core_bench_list>
    2d80:	03845e83          	lhu	t4,56(s0)
    2d84:	51d50f0b          	.insn	4, 0x51d50f0b
    2d88:	03e41c23          	sh	t5,56(s0)
    2d8c:	fff00593          	li	a1,-1
    2d90:	00040513          	mv	a0,s0
    2d94:	e14fd0ef          	jal	3a8 <core_bench_list>
    2d98:	03845f83          	lhu	t6,56(s0)
    2d9c:	51f5078b          	.insn	4, 0x51f5078b
    2da0:	02f41c23          	sh	a5,56(s0)
    2da4:	00100593          	li	a1,1
    2da8:	00040513          	mv	a0,s0
    2dac:	dfcfd0ef          	jal	3a8 <core_bench_list>
    2db0:	03845283          	lhu	t0,56(s0)
    2db4:	5055030b          	.insn	4, 0x5055030b
    2db8:	02641c23          	sh	t1,56(s0)
    2dbc:	fff00593          	li	a1,-1
    2dc0:	00040513          	mv	a0,s0
    2dc4:	de4fd0ef          	jal	3a8 <core_bench_list>
    2dc8:	03845383          	lhu	t2,56(s0)
    2dcc:	5075050b          	.insn	4, 0x5075050b
    2dd0:	02a41c23          	sh	a0,56(s0)
    2dd4:	00100593          	li	a1,1
    2dd8:	00040513          	mv	a0,s0
    2ddc:	dccfd0ef          	jal	3a8 <core_bench_list>
    2de0:	03845583          	lhu	a1,56(s0)
    2de4:	50b5060b          	.insn	4, 0x50b5060b
    2de8:	02c41c23          	sh	a2,56(s0)
    2dec:	fff00593          	li	a1,-1
    2df0:	00040513          	mv	a0,s0
    2df4:	db4fd0ef          	jal	3a8 <core_bench_list>
    2df8:	03845683          	lhu	a3,56(s0)
    2dfc:	50d5070b          	.insn	4, 0x50d5070b
    2e00:	02e41c23          	sh	a4,56(s0)
    2e04:	00100593          	li	a1,1
    2e08:	00040513          	mv	a0,s0
    2e0c:	d9cfd0ef          	jal	3a8 <core_bench_list>
    2e10:	03845803          	lhu	a6,56(s0)
    2e14:	5105088b          	.insn	4, 0x5105088b
    2e18:	03141c23          	sh	a7,56(s0)
    2e1c:	fff00593          	li	a1,-1
    2e20:	00040513          	mv	a0,s0
    2e24:	d84fd0ef          	jal	3a8 <core_bench_list>
    2e28:	03845e03          	lhu	t3,56(s0)
    2e2c:	51c50e8b          	.insn	4, 0x51c50e8b
    2e30:	03d41c23          	sh	t4,56(s0)
    2e34:	00848493          	addi	s1,s1,8
    2e38:	e6991ee3          	bne	s2,s1,2cb4 <iterate+0x1dc>
    2e3c:	00812403          	lw	s0,8(sp)
    2e40:	00412483          	lw	s1,4(sp)
    2e44:	00000513          	li	a0,0
    2e48:	00c12083          	lw	ra,12(sp)
    2e4c:	00012903          	lw	s2,0(sp)
    2e50:	01010113          	addi	sp,sp,16
    2e54:	00008067          	ret
    2e58:	00812403          	lw	s0,8(sp)
    2e5c:	00412483          	lw	s1,4(sp)
    2e60:	00000513          	li	a0,0
    2e64:	00c12083          	lw	ra,12(sp)
    2e68:	00012903          	lw	s2,0(sp)
    2e6c:	01010113          	addi	sp,sp,16
    2e70:	00008067          	ret
    2e74:	00048593          	mv	a1,s1
    2e78:	00040513          	mv	a0,s0
    2e7c:	d2cfd0ef          	jal	3a8 <core_bench_list>
    2e80:	03845f03          	lhu	t5,56(s0)
    2e84:	51e50f8b          	.insn	4, 0x51e50f8b
    2e88:	03f41c23          	sh	t6,56(s0)
    2e8c:	fff00593          	li	a1,-1
    2e90:	00040513          	mv	a0,s0
    2e94:	d14fd0ef          	jal	3a8 <core_bench_list>
    2e98:	03845783          	lhu	a5,56(s0)
    2e9c:	50f5050b          	.insn	4, 0x50f5050b
    2ea0:	02a41c23          	sh	a0,56(s0)
    2ea4:	00200493          	li	s1,2
    2ea8:	cd1ff06f          	j	2b78 <iterate+0xa0>
    2eac:	00812403          	lw	s0,8(sp)
    2eb0:	00412483          	lw	s1,4(sp)
    2eb4:	f91ff06f          	j	2e44 <iterate+0x36c>

00002eb8 <main>:
    2eb8:	f6010113          	addi	sp,sp,-160
    2ebc:	08112e23          	sw	ra,156(sp)
    2ec0:	08812c23          	sw	s0,152(sp)
    2ec4:	08912a23          	sw	s1,148(sp)
    2ec8:	09212823          	sw	s2,144(sp)
    2ecc:	09312623          	sw	s3,140(sp)
    2ed0:	09412423          	sw	s4,136(sp)
    2ed4:	09612023          	sw	s6,128(sp)
    2ed8:	07712e23          	sw	s7,124(sp)
    2edc:	07812c23          	sw	s8,120(sp)
    2ee0:	07912a23          	sw	s9,116(sp)
    2ee4:	07a12823          	sw	s10,112(sp)
    2ee8:	07b12623          	sw	s11,108(sp)
    2eec:	00012a23          	sw	zero,20(sp)
    2ef0:	01810613          	addi	a2,sp,24
    2ef4:	01410593          	addi	a1,sp,20
    2ef8:	05e10513          	addi	a0,sp,94
    2efc:	7f1040ef          	jal	7eec <portable_init>
    2f00:	00100513          	li	a0,1
    2f04:	441040ef          	jal	7b44 <get_seed_32>
    2f08:	00a11e23          	sh	a0,28(sp)
    2f0c:	00200513          	li	a0,2
    2f10:	435040ef          	jal	7b44 <get_seed_32>
    2f14:	00a11f23          	sh	a0,30(sp)
    2f18:	00300513          	li	a0,3
    2f1c:	429040ef          	jal	7b44 <get_seed_32>
    2f20:	02a11023          	sh	a0,32(sp)
    2f24:	00400513          	li	a0,4
    2f28:	41d040ef          	jal	7b44 <get_seed_32>
    2f2c:	02a12c23          	sw	a0,56(sp)
    2f30:	00500513          	li	a0,5
    2f34:	411040ef          	jal	7b44 <get_seed_32>
    2f38:	00051463          	bnez	a0,2f40 <main+0x88>
    2f3c:	00700513          	li	a0,7
    2f40:	02a12e23          	sw	a0,60(sp)
    2f44:	01c12783          	lw	a5,28(sp)
    2f48:	74078e63          	beqz	a5,36a4 <main+0x7ec>
    2f4c:	00100713          	li	a4,1
    2f50:	00e79463          	bne	a5,a4,2f58 <main+0xa0>
    2f54:	0480106f          	j	3f9c <main+0x10e4>
    2f58:	00010637          	lui	a2,0x10
    2f5c:	01460b13          	addi	s6,a2,20 # 10014 <static_memblk>
    2f60:	03612223          	sw	s6,36(sp)
    2f64:	04011e23          	sh	zero,92(sp)
    2f68:	00157a13          	andi	s4,a0,1
    2f6c:	000a0d93          	mv	s11,s4
    2f70:	00257693          	andi	a3,a0,2
    2f74:	50069063          	bnez	a3,3474 <main+0x5bc>
    2f78:	00457c13          	andi	s8,a0,4
    2f7c:	560c0063          	beqz	s8,34dc <main+0x624>
    2f80:	001a0513          	addi	a0,s4,1
    2f84:	3c05358b          	th.extu	a1,a0,15,0
    2f88:	7d000513          	li	a0,2000
    2f8c:	3ed080ef          	jal	bb78 <__hidden___udivsi3>
    2f90:	02a12a23          	sw	a0,52(sp)
    2f94:	000a0463          	beqz	s4,2f9c <main+0xe4>
    2f98:	6bd0006f          	j	3e54 <main+0xf9c>
    2f9c:	02ad8e33          	mul	t3,s11,a0
    2fa0:	00010eb7          	lui	t4,0x10
    2fa4:	014e8f13          	addi	t5,t4,20 # 10014 <static_memblk>
    2fa8:	01cf0fb3          	add	t6,t5,t3
    2fac:	03f12823          	sw	t6,48(sp)
    2fb0:	03c12783          	lw	a5,60(sp)
    2fb4:	0017f713          	andi	a4,a5,1
    2fb8:	00070e63          	beqz	a4,2fd4 <main+0x11c>
    2fbc:	01c11603          	lh	a2,28(sp)
    2fc0:	02812583          	lw	a1,40(sp)
    2fc4:	03412503          	lw	a0,52(sp)
    2fc8:	991fe0ef          	jal	1958 <core_list_init>
    2fcc:	04a12023          	sw	a0,64(sp)
    2fd0:	03c12783          	lw	a5,60(sp)
    2fd4:	0027f293          	andi	t0,a5,2
    2fd8:	50029e63          	bnez	t0,34f4 <main+0x63c>
    2fdc:	0047f313          	andi	t1,a5,4
    2fe0:	00030a63          	beqz	t1,2ff4 <main+0x13c>
    2fe4:	03012603          	lw	a2,48(sp)
    2fe8:	01c11583          	lh	a1,28(sp)
    2fec:	03412503          	lw	a0,52(sp)
    2ff0:	504040ef          	jal	74f4 <core_init_state>
    2ff4:	03812b03          	lw	s6,56(sp)
    2ff8:	3c0b1863          	bnez	s6,33c8 <main+0x510>
    2ffc:	00100a13          	li	s4,1
    3000:	03412c23          	sw	s4,56(sp)
    3004:	03812683          	lw	a3,56(sp)
    3008:	20d6c533          	sh2add	a0,a3,a3
    300c:	00151993          	slli	s3,a0,0x1
    3010:	03312c23          	sw	s3,56(sp)
    3014:	575040ef          	jal	7d88 <start_time>
    3018:	03812b83          	lw	s7,56(sp)
    301c:	04012a23          	sw	zero,84(sp)
    3020:	04012c23          	sw	zero,88(sp)
    3024:	360b8c63          	beqz	s7,339c <main+0x4e4>
    3028:	000a0593          	mv	a1,s4
    302c:	01c10513          	addi	a0,sp,28
    3030:	b78fd0ef          	jal	3a8 <core_bench_list>
    3034:	05415803          	lhu	a6,84(sp)
    3038:	51050c0b          	.insn	4, 0x51050c0b
    303c:	05811a23          	sh	s8,84(sp)
    3040:	fff00593          	li	a1,-1
    3044:	01c10513          	addi	a0,sp,28
    3048:	b60fd0ef          	jal	3a8 <core_bench_list>
    304c:	05415903          	lhu	s2,84(sp)
    3050:	5125088b          	.insn	4, 0x5125088b
    3054:	01089c93          	slli	s9,a7,0x10
    3058:	3c08bd0b          	th.extu	s10,a7,15,0
    305c:	019d6db3          	or	s11,s10,s9
    3060:	05b12a23          	sw	s11,84(sp)
    3064:	334b8c63          	beq	s7,s4,339c <main+0x4e4>
    3068:	00100413          	li	s0,1
    306c:	408b8e33          	sub	t3,s7,s0
    3070:	007e7e93          	andi	t4,t3,7
    3074:	1a0e8063          	beqz	t4,3214 <main+0x35c>
    3078:	168e8263          	beq	t4,s0,31dc <main+0x324>
    307c:	00200493          	li	s1,2
    3080:	129e8463          	beq	t4,s1,31a8 <main+0x2f0>
    3084:	00300f13          	li	t5,3
    3088:	0fee8663          	beq	t4,t5,3174 <main+0x2bc>
    308c:	00400f93          	li	t6,4
    3090:	0bfe8863          	beq	t4,t6,3140 <main+0x288>
    3094:	00500713          	li	a4,5
    3098:	06ee8a63          	beq	t4,a4,310c <main+0x254>
    309c:	00600793          	li	a5,6
    30a0:	02fe8c63          	beq	t4,a5,30d8 <main+0x220>
    30a4:	000a0593          	mv	a1,s4
    30a8:	01c10513          	addi	a0,sp,28
    30ac:	afcfd0ef          	jal	3a8 <core_bench_list>
    30b0:	05415283          	lhu	t0,84(sp)
    30b4:	5055030b          	.insn	4, 0x5055030b
    30b8:	04611a23          	sh	t1,84(sp)
    30bc:	fff00593          	li	a1,-1
    30c0:	01c10513          	addi	a0,sp,28
    30c4:	ae4fd0ef          	jal	3a8 <core_bench_list>
    30c8:	05415383          	lhu	t2,84(sp)
    30cc:	5075040b          	.insn	4, 0x5075040b
    30d0:	04811a23          	sh	s0,84(sp)
    30d4:	00048413          	mv	s0,s1
    30d8:	000a0593          	mv	a1,s4
    30dc:	01c10513          	addi	a0,sp,28
    30e0:	ac8fd0ef          	jal	3a8 <core_bench_list>
    30e4:	05415583          	lhu	a1,84(sp)
    30e8:	50b5060b          	.insn	4, 0x50b5060b
    30ec:	04c11a23          	sh	a2,84(sp)
    30f0:	fff00593          	li	a1,-1
    30f4:	01c10513          	addi	a0,sp,28
    30f8:	ab0fd0ef          	jal	3a8 <core_bench_list>
    30fc:	05415b03          	lhu	s6,84(sp)
    3100:	5165068b          	.insn	4, 0x5165068b
    3104:	04d11a23          	sh	a3,84(sp)
    3108:	00140413          	addi	s0,s0,1
    310c:	000a0593          	mv	a1,s4
    3110:	01c10513          	addi	a0,sp,28
    3114:	a94fd0ef          	jal	3a8 <core_bench_list>
    3118:	05415983          	lhu	s3,84(sp)
    311c:	5135050b          	.insn	4, 0x5135050b
    3120:	04a11a23          	sh	a0,84(sp)
    3124:	fff00593          	li	a1,-1
    3128:	01c10513          	addi	a0,sp,28
    312c:	a7cfd0ef          	jal	3a8 <core_bench_list>
    3130:	05415803          	lhu	a6,84(sp)
    3134:	51050c0b          	.insn	4, 0x51050c0b
    3138:	05811a23          	sh	s8,84(sp)
    313c:	00140413          	addi	s0,s0,1
    3140:	000a0593          	mv	a1,s4
    3144:	01c10513          	addi	a0,sp,28
    3148:	a60fd0ef          	jal	3a8 <core_bench_list>
    314c:	05415903          	lhu	s2,84(sp)
    3150:	5125088b          	.insn	4, 0x5125088b
    3154:	05111a23          	sh	a7,84(sp)
    3158:	fff00593          	li	a1,-1
    315c:	01c10513          	addi	a0,sp,28
    3160:	a48fd0ef          	jal	3a8 <core_bench_list>
    3164:	05415c83          	lhu	s9,84(sp)
    3168:	51950d0b          	.insn	4, 0x51950d0b
    316c:	05a11a23          	sh	s10,84(sp)
    3170:	00140413          	addi	s0,s0,1
    3174:	000a0593          	mv	a1,s4
    3178:	01c10513          	addi	a0,sp,28
    317c:	a2cfd0ef          	jal	3a8 <core_bench_list>
    3180:	05415d83          	lhu	s11,84(sp)
    3184:	51b50e0b          	.insn	4, 0x51b50e0b
    3188:	05c11a23          	sh	t3,84(sp)
    318c:	fff00593          	li	a1,-1
    3190:	01c10513          	addi	a0,sp,28
    3194:	a14fd0ef          	jal	3a8 <core_bench_list>
    3198:	05415e83          	lhu	t4,84(sp)
    319c:	51d5048b          	.insn	4, 0x51d5048b
    31a0:	04911a23          	sh	s1,84(sp)
    31a4:	00140413          	addi	s0,s0,1
    31a8:	000a0593          	mv	a1,s4
    31ac:	01c10513          	addi	a0,sp,28
    31b0:	9f8fd0ef          	jal	3a8 <core_bench_list>
    31b4:	05415f03          	lhu	t5,84(sp)
    31b8:	51e50f8b          	.insn	4, 0x51e50f8b
    31bc:	05f11a23          	sh	t6,84(sp)
    31c0:	fff00593          	li	a1,-1
    31c4:	01c10513          	addi	a0,sp,28
    31c8:	9e0fd0ef          	jal	3a8 <core_bench_list>
    31cc:	05415703          	lhu	a4,84(sp)
    31d0:	50e5078b          	.insn	4, 0x50e5078b
    31d4:	04f11a23          	sh	a5,84(sp)
    31d8:	00140413          	addi	s0,s0,1
    31dc:	000a0593          	mv	a1,s4
    31e0:	01c10513          	addi	a0,sp,28
    31e4:	9c4fd0ef          	jal	3a8 <core_bench_list>
    31e8:	05415283          	lhu	t0,84(sp)
    31ec:	5055030b          	.insn	4, 0x5055030b
    31f0:	04611a23          	sh	t1,84(sp)
    31f4:	fff00593          	li	a1,-1
    31f8:	01c10513          	addi	a0,sp,28
    31fc:	9acfd0ef          	jal	3a8 <core_bench_list>
    3200:	05415383          	lhu	t2,84(sp)
    3204:	5075058b          	.insn	4, 0x5075058b
    3208:	04b11a23          	sh	a1,84(sp)
    320c:	00140413          	addi	s0,s0,1
    3210:	188b8663          	beq	s7,s0,339c <main+0x4e4>
    3214:	000a0593          	mv	a1,s4
    3218:	01c10513          	addi	a0,sp,28
    321c:	98cfd0ef          	jal	3a8 <core_bench_list>
    3220:	05415603          	lhu	a2,84(sp)
    3224:	50c50b0b          	.insn	4, 0x50c50b0b
    3228:	05611a23          	sh	s6,84(sp)
    322c:	fff00593          	li	a1,-1
    3230:	01c10513          	addi	a0,sp,28
    3234:	974fd0ef          	jal	3a8 <core_bench_list>
    3238:	05415683          	lhu	a3,84(sp)
    323c:	50d5098b          	.insn	4, 0x50d5098b
    3240:	05311a23          	sh	s3,84(sp)
    3244:	000a0593          	mv	a1,s4
    3248:	01c10513          	addi	a0,sp,28
    324c:	95cfd0ef          	jal	3a8 <core_bench_list>
    3250:	05415803          	lhu	a6,84(sp)
    3254:	5105050b          	.insn	4, 0x5105050b
    3258:	04a11a23          	sh	a0,84(sp)
    325c:	fff00593          	li	a1,-1
    3260:	01c10513          	addi	a0,sp,28
    3264:	944fd0ef          	jal	3a8 <core_bench_list>
    3268:	05415c03          	lhu	s8,84(sp)
    326c:	5185090b          	.insn	4, 0x5185090b
    3270:	05211a23          	sh	s2,84(sp)
    3274:	000a0593          	mv	a1,s4
    3278:	01c10513          	addi	a0,sp,28
    327c:	92cfd0ef          	jal	3a8 <core_bench_list>
    3280:	05415883          	lhu	a7,84(sp)
    3284:	51150c8b          	.insn	4, 0x51150c8b
    3288:	05911a23          	sh	s9,84(sp)
    328c:	fff00593          	li	a1,-1
    3290:	01c10513          	addi	a0,sp,28
    3294:	914fd0ef          	jal	3a8 <core_bench_list>
    3298:	05415d03          	lhu	s10,84(sp)
    329c:	51a50d8b          	.insn	4, 0x51a50d8b
    32a0:	05b11a23          	sh	s11,84(sp)
    32a4:	000a0593          	mv	a1,s4
    32a8:	01c10513          	addi	a0,sp,28
    32ac:	8fcfd0ef          	jal	3a8 <core_bench_list>
    32b0:	05415e03          	lhu	t3,84(sp)
    32b4:	51c50e8b          	.insn	4, 0x51c50e8b
    32b8:	05d11a23          	sh	t4,84(sp)
    32bc:	fff00593          	li	a1,-1
    32c0:	01c10513          	addi	a0,sp,28
    32c4:	8e4fd0ef          	jal	3a8 <core_bench_list>
    32c8:	05415483          	lhu	s1,84(sp)
    32cc:	50950f0b          	.insn	4, 0x50950f0b
    32d0:	05e11a23          	sh	t5,84(sp)
    32d4:	000a0593          	mv	a1,s4
    32d8:	01c10513          	addi	a0,sp,28
    32dc:	8ccfd0ef          	jal	3a8 <core_bench_list>
    32e0:	05415f83          	lhu	t6,84(sp)
    32e4:	51f5070b          	.insn	4, 0x51f5070b
    32e8:	04e11a23          	sh	a4,84(sp)
    32ec:	fff00593          	li	a1,-1
    32f0:	01c10513          	addi	a0,sp,28
    32f4:	8b4fd0ef          	jal	3a8 <core_bench_list>
    32f8:	05415783          	lhu	a5,84(sp)
    32fc:	50f5028b          	.insn	4, 0x50f5028b
    3300:	04511a23          	sh	t0,84(sp)
    3304:	000a0593          	mv	a1,s4
    3308:	01c10513          	addi	a0,sp,28
    330c:	89cfd0ef          	jal	3a8 <core_bench_list>
    3310:	05415303          	lhu	t1,84(sp)
    3314:	5065038b          	.insn	4, 0x5065038b
    3318:	04711a23          	sh	t2,84(sp)
    331c:	fff00593          	li	a1,-1
    3320:	01c10513          	addi	a0,sp,28
    3324:	884fd0ef          	jal	3a8 <core_bench_list>
    3328:	05415583          	lhu	a1,84(sp)
    332c:	50b5060b          	.insn	4, 0x50b5060b
    3330:	04c11a23          	sh	a2,84(sp)
    3334:	000a0593          	mv	a1,s4
    3338:	01c10513          	addi	a0,sp,28
    333c:	86cfd0ef          	jal	3a8 <core_bench_list>
    3340:	05415b03          	lhu	s6,84(sp)
    3344:	5165068b          	.insn	4, 0x5165068b
    3348:	04d11a23          	sh	a3,84(sp)
    334c:	fff00593          	li	a1,-1
    3350:	01c10513          	addi	a0,sp,28
    3354:	854fd0ef          	jal	3a8 <core_bench_list>
    3358:	05415983          	lhu	s3,84(sp)
    335c:	5135080b          	.insn	4, 0x5135080b
    3360:	05011a23          	sh	a6,84(sp)
    3364:	000a0593          	mv	a1,s4
    3368:	01c10513          	addi	a0,sp,28
    336c:	83cfd0ef          	jal	3a8 <core_bench_list>
    3370:	05415c03          	lhu	s8,84(sp)
    3374:	5185050b          	.insn	4, 0x5185050b
    3378:	04a11a23          	sh	a0,84(sp)
    337c:	fff00593          	li	a1,-1
    3380:	01c10513          	addi	a0,sp,28
    3384:	824fd0ef          	jal	3a8 <core_bench_list>
    3388:	05415903          	lhu	s2,84(sp)
    338c:	5125088b          	.insn	4, 0x5125088b
    3390:	05111a23          	sh	a7,84(sp)
    3394:	00840413          	addi	s0,s0,8
    3398:	e68b9ee3          	bne	s7,s0,3214 <main+0x35c>
    339c:	289040ef          	jal	7e24 <stop_time>
    33a0:	321040ef          	jal	7ec0 <get_time>
    33a4:	335040ef          	jal	7ed8 <time_in_secs>
    33a8:	c4050ee3          	beqz	a0,3004 <main+0x14c>
    33ac:	00050593          	mv	a1,a0
    33b0:	00a00513          	li	a0,10
    33b4:	7c4080ef          	jal	bb78 <__hidden___udivsi3>
    33b8:	00150a13          	addi	s4,a0,1
    33bc:	03812b83          	lw	s7,56(sp)
    33c0:	034b8433          	mul	s0,s7,s4
    33c4:	02812c23          	sw	s0,56(sp)
    33c8:	1c1040ef          	jal	7d88 <start_time>
    33cc:	01c10513          	addi	a0,sp,28
    33d0:	f08ff0ef          	jal	2ad8 <iterate>
    33d4:	251040ef          	jal	7e24 <stop_time>
    33d8:	2e9040ef          	jal	7ec0 <get_time>
    33dc:	00050b13          	mv	s6,a0
    33e0:	01c15c83          	lhu	s9,28(sp)
    33e4:	00000d13          	li	s10,0
    33e8:	51ac8d8b          	.insn	4, 0x51ac8d8b
    33ec:	01e15e03          	lhu	t3,30(sp)
    33f0:	3c0dbe8b          	th.extu	t4,s11,15,0
    33f4:	51de048b          	.insn	4, 0x51de048b
    33f8:	02015f03          	lhu	t5,32(sp)
    33fc:	3c04bf8b          	th.extu	t6,s1,15,0
    3400:	51ff070b          	.insn	4, 0x51ff070b
    3404:	03415283          	lhu	t0,52(sp)
    3408:	3c07378b          	th.extu	a5,a4,15,0
    340c:	50f2830b          	.insn	4, 0x50f2830b
    3410:	3c033a0b          	th.extu	s4,t1,15,0
    3414:	000083b7          	lui	t2,0x8
    3418:	b0538593          	addi	a1,t2,-1275 # 7b05 <core_state_transition+0x351>
    341c:	30ba08e3          	beq	s4,a1,3f2c <main+0x1074>
    3420:	1145e263          	bltu	a1,s4,3524 <main+0x66c>
    3424:	00002fb7          	lui	t6,0x2
    3428:	8f2f8713          	addi	a4,t6,-1806 # 18f2 <core_bench_list+0x154a>
    342c:	2cea06e3          	beq	s4,a4,3ef8 <main+0x1040>
    3430:	000053b7          	lui	t2,0x5
    3434:	eaf38593          	addi	a1,t2,-337 # 4eaf <matrix_test+0x1df>
    3438:	20ba12e3          	bne	s4,a1,3e3c <main+0xf84>
    343c:	09512223          	sw	s5,132(sp)
    3440:	0000cab7          	lui	s5,0xc
    3444:	c80a8513          	addi	a0,s5,-896 # bc80 <__modsi3+0x8c>
    3448:	2ed040ef          	jal	7f34 <ee_printf>
    344c:	0000e637          	lui	a2,0xe
    3450:	5a460b93          	addi	s7,a2,1444 # e5a4 <_data_load_start+0x1e30>
    3454:	000b8d93          	mv	s11,s7
    3458:	000056b7          	lui	a3,0x5
    345c:	60868c13          	addi	s8,a3,1544 # 5608 <matrix_test+0x938>
    3460:	000c0d13          	mv	s10,s8
    3464:	000079b7          	lui	s3,0x7
    3468:	a7998c93          	addi	s9,s3,-1415 # 6a79 <core_bench_state+0x2ad>
    346c:	01912023          	sw	s9,0(sp)
    3470:	1000006f          	j	3570 <main+0x6b8>
    3474:	001a0993          	addi	s3,s4,1
    3478:	3c09bb8b          	th.extu	s7,s3,15,0
    347c:	00457c13          	andi	s8,a0,4
    3480:	040c0063          	beqz	s8,34c0 <main+0x608>
    3484:	002a0813          	addi	a6,s4,2
    3488:	3c08358b          	th.extu	a1,a6,15,0
    348c:	7d000513          	li	a0,2000
    3490:	6e8080ef          	jal	bb78 <__hidden___udivsi3>
    3494:	02a12a23          	sw	a0,52(sp)
    3498:	1a0a18e3          	bnez	s4,3e48 <main+0xf90>
    349c:	00400c13          	li	s8,4
    34a0:	02ad8933          	mul	s2,s11,a0
    34a4:	000108b7          	lui	a7,0x10
    34a8:	01488c93          	addi	s9,a7,20 # 10014 <static_memblk>
    34ac:	012c8d33          	add	s10,s9,s2
    34b0:	03a12623          	sw	s10,44(sp)
    34b4:	000b8d93          	mv	s11,s7
    34b8:	ae0c0ce3          	beqz	s8,2fb0 <main+0xf8>
    34bc:	ae1ff06f          	j	2f9c <main+0xe4>
    34c0:	000b8593          	mv	a1,s7
    34c4:	7d000513          	li	a0,2000
    34c8:	6b0080ef          	jal	bb78 <__hidden___udivsi3>
    34cc:	02a12a23          	sw	a0,52(sp)
    34d0:	fc0a08e3          	beqz	s4,34a0 <main+0x5e8>
    34d4:	03612423          	sw	s6,40(sp)
    34d8:	fc9ff06f          	j	34a0 <main+0x5e8>
    34dc:	7d000513          	li	a0,2000
    34e0:	02a12a23          	sw	a0,52(sp)
    34e4:	ac0a06e3          	beqz	s4,2fb0 <main+0xf8>
    34e8:	03612423          	sw	s6,40(sp)
    34ec:	ac0c02e3          	beqz	s8,2fb0 <main+0xf8>
    34f0:	aadff06f          	j	2f9c <main+0xe4>
    34f4:	01e11383          	lh	t2,30(sp)
    34f8:	01039413          	slli	s0,t2,0x10
    34fc:	01c11483          	lh	s1,28(sp)
    3500:	04410693          	addi	a3,sp,68
    3504:	00946633          	or	a2,s0,s1
    3508:	02c12583          	lw	a1,44(sp)
    350c:	03412503          	lw	a0,52(sp)
    3510:	49c020ef          	jal	59ac <core_init_matrix>
    3514:	03c12583          	lw	a1,60(sp)
    3518:	0045f613          	andi	a2,a1,4
    351c:	ac0614e3          	bnez	a2,2fe4 <main+0x12c>
    3520:	ad5ff06f          	j	2ff4 <main+0x13c>
    3524:	00009837          	lui	a6,0x9
    3528:	a0280c13          	addi	s8,a6,-1534 # 8a02 <ee_printf+0xace>
    352c:	238a0ce3          	beq	s4,s8,3f64 <main+0x10ac>
    3530:	0000fbb7          	lui	s7,0xf
    3534:	9f5b8d13          	addi	s10,s7,-1547 # e9f5 <_data_load_start+0x2281>
    3538:	19aa1063          	bne	s4,s10,36b8 <main+0x800>
    353c:	09512223          	sw	s5,132(sp)
    3540:	0000cdb7          	lui	s11,0xc
    3544:	cb4d8513          	addi	a0,s11,-844 # bcb4 <__modsi3+0xc0>
    3548:	1ed040ef          	jal	7f34 <ee_printf>
    354c:	00009e37          	lui	t3,0x9
    3550:	e3ae0b93          	addi	s7,t3,-454 # 8e3a <ee_printf+0xf06>
    3554:	000b8d93          	mv	s11,s7
    3558:	00002eb7          	lui	t4,0x2
    355c:	fd7e8c13          	addi	s8,t4,-41 # 1fd7 <core_list_init+0x67f>
    3560:	000c0d13          	mv	s10,s8
    3564:	0000e4b7          	lui	s1,0xe
    3568:	71448c93          	addi	s9,s1,1812 # e714 <_data_load_start+0x1fa0>
    356c:	01912023          	sw	s9,0(sp)
    3570:	00010ab7          	lui	s5,0x10
    3574:	000aa803          	lw	a6,0(s5) # 10000 <default_num_contexts>
    3578:	240804e3          	beqz	a6,3fc0 <main+0x1108>
    357c:	00000993          	li	s3,0
    3580:	00000413          	li	s0,0
    3584:	0000c537          	lui	a0,0xc
    3588:	d1050893          	addi	a7,a0,-752 # bd10 <__modsi3+0x11c>
    358c:	01112223          	sw	a7,4(sp)
    3590:	0000ce37          	lui	t3,0xc
    3594:	d40e0e93          	addi	t4,t3,-704 # bd40 <__modsi3+0x14c>
    3598:	01d12423          	sw	t4,8(sp)
    359c:	0000c4b7          	lui	s1,0xc
    35a0:	d7448f13          	addi	t5,s1,-652 # bd74 <__modsi3+0x180>
    35a4:	01e12623          	sw	t5,12(sp)
    35a8:	02c0006f          	j	35d4 <main+0x71c>
    35ac:	00491f13          	slli	t5,s2,0x4
    35b0:	012f0933          	add	s2,t5,s2
    35b4:	20294733          	sh2add	a4,s2,sp
    35b8:	05c75603          	lhu	a2,92(a4)
    35bc:	01360933          	add	s2,a2,s3
    35c0:	00090993          	mv	s3,s2
    35c4:	00140413          	addi	s0,s0,1
    35c8:	3c04340b          	th.extu	s0,s0,15,0
    35cc:	000aa683          	lw	a3,0(s5)
    35d0:	0cd47663          	bgeu	s0,a3,369c <main+0x7e4>
    35d4:	00040913          	mv	s2,s0
    35d8:	00441f93          	slli	t6,s0,0x4
    35dc:	008f8733          	add	a4,t6,s0
    35e0:	06010293          	addi	t0,sp,96
    35e4:	205744b3          	sh2add	s1,a4,t0
    35e8:	fe049e23          	sh	zero,-4(s1)
    35ec:	fdc4ae03          	lw	t3,-36(s1)
    35f0:	001e7313          	andi	t1,t3,1
    35f4:	02030663          	beqz	t1,3620 <main+0x768>
    35f8:	ff64d603          	lhu	a2,-10(s1)
    35fc:	03960263          	beq	a2,s9,3620 <main+0x768>
    3600:	00012683          	lw	a3,0(sp)
    3604:	00040593          	mv	a1,s0
    3608:	00412503          	lw	a0,4(sp)
    360c:	129040ef          	jal	7f34 <ee_printf>
    3610:	ffc4d783          	lhu	a5,-4(s1)
    3614:	00178393          	addi	t2,a5,1
    3618:	fe749e23          	sh	t2,-4(s1)
    361c:	fdc4ae03          	lw	t3,-36(s1)
    3620:	002e7593          	andi	a1,t3,2
    3624:	02058e63          	beqz	a1,3660 <main+0x7a8>
    3628:	00491613          	slli	a2,s2,0x4
    362c:	012606b3          	add	a3,a2,s2
    3630:	06010813          	addi	a6,sp,96
    3634:	2106c4b3          	sh2add	s1,a3,a6
    3638:	ff84d603          	lhu	a2,-8(s1)
    363c:	03a60263          	beq	a2,s10,3660 <main+0x7a8>
    3640:	000c0693          	mv	a3,s8
    3644:	00090593          	mv	a1,s2
    3648:	00812503          	lw	a0,8(sp)
    364c:	0e9040ef          	jal	7f34 <ee_printf>
    3650:	ffc4d503          	lhu	a0,-4(s1)
    3654:	00150893          	addi	a7,a0,1
    3658:	ff149e23          	sh	a7,-4(s1)
    365c:	fdc4ae03          	lw	t3,-36(s1)
    3660:	004e7e93          	andi	t4,t3,4
    3664:	f40e84e3          	beqz	t4,35ac <main+0x6f4>
    3668:	00491293          	slli	t0,s2,0x4
    366c:	01228333          	add	t1,t0,s2
    3670:	06010793          	addi	a5,sp,96
    3674:	20f344b3          	sh2add	s1,t1,a5
    3678:	ffa4d603          	lhu	a2,-6(s1)
    367c:	7fb61663          	bne	a2,s11,3e68 <main+0xfb0>
    3680:	ffc4d603          	lhu	a2,-4(s1)
    3684:	01360933          	add	s2,a2,s3
    3688:	00090993          	mv	s3,s2
    368c:	00140413          	addi	s0,s0,1
    3690:	3c04340b          	th.extu	s0,s0,15,0
    3694:	000aa683          	lw	a3,0(s5)
    3698:	f2d46ee3          	bltu	s0,a3,35d4 <main+0x71c>
    369c:	08412a83          	lw	s5,132(sp)
    36a0:	0200006f          	j	36c0 <main+0x808>
    36a4:	02011483          	lh	s1,32(sp)
    36a8:	8a0498e3          	bnez	s1,2f58 <main+0xa0>
    36ac:	06600593          	li	a1,102
    36b0:	02b11023          	sh	a1,32(sp)
    36b4:	8a5ff06f          	j	2f58 <main+0xa0>
    36b8:	00010f37          	lui	t5,0x10
    36bc:	ffff0913          	addi	s2,t5,-1 # ffff <_data_load_start+0x388b>
    36c0:	628040ef          	jal	7ce8 <check_data_types>
    36c4:	01250933          	add	s2,a0,s2
    36c8:	03412583          	lw	a1,52(sp)
    36cc:	0000cdb7          	lui	s11,0xc
    36d0:	da4d8513          	addi	a0,s11,-604 # bda4 <__modsi3+0x1b0>
    36d4:	061040ef          	jal	7f34 <ee_printf>
    36d8:	000b0593          	mv	a1,s6
    36dc:	0000cc37          	lui	s8,0xc
    36e0:	dbcc0513          	addi	a0,s8,-580 # bdbc <__modsi3+0x1c8>
    36e4:	051040ef          	jal	7f34 <ee_printf>
    36e8:	000b0513          	mv	a0,s6
    36ec:	7ec040ef          	jal	7ed8 <time_in_secs>
    36f0:	00050593          	mv	a1,a0
    36f4:	0000cd37          	lui	s10,0xc
    36f8:	dd4d0513          	addi	a0,s10,-556 # bdd4 <__modsi3+0x1e0>
    36fc:	039040ef          	jal	7f34 <ee_printf>
    3700:	000b0513          	mv	a0,s6
    3704:	7d4040ef          	jal	7ed8 <time_in_secs>
    3708:	7a051463          	bnez	a0,3eb0 <main+0xff8>
    370c:	000b0513          	mv	a0,s6
    3710:	7c8040ef          	jal	7ed8 <time_in_secs>
    3714:	00900b13          	li	s6,9
    3718:	78ab7263          	bgeu	s6,a0,3e9c <main+0xfe4>
    371c:	3c092b8b          	th.ext	s7,s2,15,0
    3720:	00010db7          	lui	s11,0x10
    3724:	000dae83          	lw	t4,0(s11) # 10000 <default_num_contexts>
    3728:	03812f03          	lw	t5,56(sp)
    372c:	03df05b3          	mul	a1,t5,t4
    3730:	0000cfb7          	lui	t6,0xc
    3734:	e44f8513          	addi	a0,t6,-444 # be44 <__modsi3+0x250>
    3738:	7fc040ef          	jal	7f34 <ee_printf>
    373c:	0000c737          	lui	a4,0xc
    3740:	e5c70593          	addi	a1,a4,-420 # be5c <__modsi3+0x268>
    3744:	0000c2b7          	lui	t0,0xc
    3748:	e6828513          	addi	a0,t0,-408 # be68 <__modsi3+0x274>
    374c:	7e8040ef          	jal	7f34 <ee_printf>
    3750:	0000c337          	lui	t1,0xc
    3754:	e8030593          	addi	a1,t1,-384 # be80 <__modsi3+0x28c>
    3758:	0000c7b7          	lui	a5,0xc
    375c:	06c78513          	addi	a0,a5,108 # c06c <__modsi3+0x478>
    3760:	7d4040ef          	jal	7f34 <ee_printf>
    3764:	0000c3b7          	lui	t2,0xc
    3768:	08438593          	addi	a1,t2,132 # c084 <__modsi3+0x490>
    376c:	0000c637          	lui	a2,0xc
    3770:	09060513          	addi	a0,a2,144 # c090 <__modsi3+0x49c>
    3774:	7c0040ef          	jal	7f34 <ee_printf>
    3778:	000a0593          	mv	a1,s4
    377c:	0000ca37          	lui	s4,0xc
    3780:	0a8a0513          	addi	a0,s4,168 # c0a8 <__modsi3+0x4b4>
    3784:	7b0040ef          	jal	7f34 <ee_printf>
    3788:	03c12583          	lw	a1,60(sp)
    378c:	0015f993          	andi	s3,a1,1
    3790:	18098a63          	beqz	s3,3924 <main+0xa6c>
    3794:	000da403          	lw	s0,0(s11)
    3798:	18040663          	beqz	s0,3924 <main+0xa6c>
    379c:	00000913          	li	s2,0
    37a0:	0000c6b7          	lui	a3,0xc
    37a4:	0c468c13          	addi	s8,a3,196 # c0c4 <__modsi3+0x4d0>
    37a8:	00491d13          	slli	s10,s2,0x4
    37ac:	012d0cb3          	add	s9,s10,s2
    37b0:	202cc533          	sh2add	a0,s9,sp
    37b4:	05655603          	lhu	a2,86(a0)
    37b8:	00090593          	mv	a1,s2
    37bc:	000c0513          	mv	a0,s8
    37c0:	774040ef          	jal	7f34 <ee_printf>
    37c4:	00190493          	addi	s1,s2,1
    37c8:	3c04bb0b          	th.extu	s6,s1,15,0
    37cc:	000da883          	lw	a7,0(s11)
    37d0:	151b7a63          	bgeu	s6,a7,3924 <main+0xa6c>
    37d4:	004b1e13          	slli	t3,s6,0x4
    37d8:	016e0933          	add	s2,t3,s6
    37dc:	06010e93          	addi	t4,sp,96
    37e0:	21d94f33          	sh2add	t5,s2,t4
    37e4:	ff6f5603          	lhu	a2,-10(t5)
    37e8:	000b0593          	mv	a1,s6
    37ec:	000c0513          	mv	a0,s8
    37f0:	744040ef          	jal	7f34 <ee_printf>
    37f4:	001b0f93          	addi	t6,s6,1
    37f8:	3c0fba0b          	th.extu	s4,t6,15,0
    37fc:	000da703          	lw	a4,0(s11)
    3800:	12ea7263          	bgeu	s4,a4,3924 <main+0xa6c>
    3804:	004a1293          	slli	t0,s4,0x4
    3808:	01428333          	add	t1,t0,s4
    380c:	06010793          	addi	a5,sp,96
    3810:	20f343b3          	sh2add	t2,t1,a5
    3814:	ff63d603          	lhu	a2,-10(t2)
    3818:	000a0593          	mv	a1,s4
    381c:	000c0513          	mv	a0,s8
    3820:	714040ef          	jal	7f34 <ee_printf>
    3824:	001a0613          	addi	a2,s4,1
    3828:	3c06398b          	th.extu	s3,a2,15,0
    382c:	000da583          	lw	a1,0(s11)
    3830:	0eb9fa63          	bgeu	s3,a1,3924 <main+0xa6c>
    3834:	00499413          	slli	s0,s3,0x4
    3838:	013406b3          	add	a3,s0,s3
    383c:	06010d13          	addi	s10,sp,96
    3840:	21a6ccb3          	sh2add	s9,a3,s10
    3844:	ff6cd603          	lhu	a2,-10(s9)
    3848:	00098593          	mv	a1,s3
    384c:	000c0513          	mv	a0,s8
    3850:	6e4040ef          	jal	7f34 <ee_printf>
    3854:	00198813          	addi	a6,s3,1
    3858:	3c08348b          	th.extu	s1,a6,15,0
    385c:	000da503          	lw	a0,0(s11)
    3860:	0ca4f263          	bgeu	s1,a0,3924 <main+0xa6c>
    3864:	00449b13          	slli	s6,s1,0x4
    3868:	009b08b3          	add	a7,s6,s1
    386c:	06010e13          	addi	t3,sp,96
    3870:	21c8c933          	sh2add	s2,a7,t3
    3874:	ff695603          	lhu	a2,-10(s2)
    3878:	00048593          	mv	a1,s1
    387c:	000c0513          	mv	a0,s8
    3880:	6b4040ef          	jal	7f34 <ee_printf>
    3884:	00148e93          	addi	t4,s1,1
    3888:	3c0eba0b          	th.extu	s4,t4,15,0
    388c:	000daf03          	lw	t5,0(s11)
    3890:	09ea7a63          	bgeu	s4,t5,3924 <main+0xa6c>
    3894:	004a1f93          	slli	t6,s4,0x4
    3898:	014f82b3          	add	t0,t6,s4
    389c:	06010713          	addi	a4,sp,96
    38a0:	20e2c333          	sh2add	t1,t0,a4
    38a4:	ff635603          	lhu	a2,-10(t1)
    38a8:	000a0593          	mv	a1,s4
    38ac:	000c0513          	mv	a0,s8
    38b0:	684040ef          	jal	7f34 <ee_printf>
    38b4:	001a0793          	addi	a5,s4,1
    38b8:	3c07b98b          	th.extu	s3,a5,15,0
    38bc:	000da383          	lw	t2,0(s11)
    38c0:	0679f263          	bgeu	s3,t2,3924 <main+0xa6c>
    38c4:	00499613          	slli	a2,s3,0x4
    38c8:	013605b3          	add	a1,a2,s3
    38cc:	06010413          	addi	s0,sp,96
    38d0:	2085c6b3          	sh2add	a3,a1,s0
    38d4:	ff66d603          	lhu	a2,-10(a3)
    38d8:	00098593          	mv	a1,s3
    38dc:	000c0513          	mv	a0,s8
    38e0:	654040ef          	jal	7f34 <ee_printf>
    38e4:	00198d13          	addi	s10,s3,1
    38e8:	3c0d3c8b          	th.extu	s9,s10,15,0
    38ec:	000da803          	lw	a6,0(s11)
    38f0:	030cfa63          	bgeu	s9,a6,3924 <main+0xa6c>
    38f4:	004c9493          	slli	s1,s9,0x4
    38f8:	01948533          	add	a0,s1,s9
    38fc:	06010b13          	addi	s6,sp,96
    3900:	216548b3          	sh2add	a7,a0,s6
    3904:	ff68d603          	lhu	a2,-10(a7)
    3908:	000c8593          	mv	a1,s9
    390c:	000c0513          	mv	a0,s8
    3910:	624040ef          	jal	7f34 <ee_printf>
    3914:	001c8e13          	addi	t3,s9,1
    3918:	3c0e390b          	th.extu	s2,t3,15,0
    391c:	000dae83          	lw	t4,0(s11)
    3920:	e9d964e3          	bltu	s2,t4,37a8 <main+0x8f0>
    3924:	03c12d83          	lw	s11,60(sp)
    3928:	002dfc13          	andi	s8,s11,2
    392c:	180c0c63          	beqz	s8,3ac4 <main+0xc0c>
    3930:	00010a37          	lui	s4,0x10
    3934:	000a2f03          	lw	t5,0(s4) # 10000 <default_num_contexts>
    3938:	680f0a63          	beqz	t5,3fcc <main+0x1114>
    393c:	00000d13          	li	s10,0
    3940:	0000c2b7          	lui	t0,0xc
    3944:	0e028993          	addi	s3,t0,224 # c0e0 <__modsi3+0x4ec>
    3948:	004d1713          	slli	a4,s10,0x4
    394c:	01a70333          	add	t1,a4,s10
    3950:	202343b3          	sh2add	t2,t1,sp
    3954:	0583d603          	lhu	a2,88(t2)
    3958:	000d0593          	mv	a1,s10
    395c:	00098513          	mv	a0,s3
    3960:	5d4040ef          	jal	7f34 <ee_printf>
    3964:	001d0613          	addi	a2,s10,1
    3968:	3c06340b          	th.extu	s0,a2,15,0
    396c:	000a2583          	lw	a1,0(s4)
    3970:	14b47a63          	bgeu	s0,a1,3ac4 <main+0xc0c>
    3974:	00441693          	slli	a3,s0,0x4
    3978:	00868d33          	add	s10,a3,s0
    397c:	06010c93          	addi	s9,sp,96
    3980:	219d4833          	sh2add	a6,s10,s9
    3984:	ff885603          	lhu	a2,-8(a6)
    3988:	00040593          	mv	a1,s0
    398c:	00098513          	mv	a0,s3
    3990:	5a4040ef          	jal	7f34 <ee_printf>
    3994:	00140493          	addi	s1,s0,1
    3998:	3c04bb0b          	th.extu	s6,s1,15,0
    399c:	000a2503          	lw	a0,0(s4)
    39a0:	12ab7263          	bgeu	s6,a0,3ac4 <main+0xc0c>
    39a4:	004b1893          	slli	a7,s6,0x4
    39a8:	01688e33          	add	t3,a7,s6
    39ac:	06010913          	addi	s2,sp,96
    39b0:	212e4eb3          	sh2add	t4,t3,s2
    39b4:	ff8ed603          	lhu	a2,-8(t4)
    39b8:	000b0593          	mv	a1,s6
    39bc:	00098513          	mv	a0,s3
    39c0:	574040ef          	jal	7f34 <ee_printf>
    39c4:	001b0d93          	addi	s11,s6,1
    39c8:	3c0dbc0b          	th.extu	s8,s11,15,0
    39cc:	000a2f03          	lw	t5,0(s4)
    39d0:	0fec7a63          	bgeu	s8,t5,3ac4 <main+0xc0c>
    39d4:	004c1f93          	slli	t6,s8,0x4
    39d8:	018f82b3          	add	t0,t6,s8
    39dc:	06010713          	addi	a4,sp,96
    39e0:	20e2c333          	sh2add	t1,t0,a4
    39e4:	ff835603          	lhu	a2,-8(t1)
    39e8:	000c0593          	mv	a1,s8
    39ec:	00098513          	mv	a0,s3
    39f0:	544040ef          	jal	7f34 <ee_printf>
    39f4:	001c0793          	addi	a5,s8,1
    39f8:	3c07b40b          	th.extu	s0,a5,15,0
    39fc:	000a2383          	lw	t2,0(s4)
    3a00:	0c747263          	bgeu	s0,t2,3ac4 <main+0xc0c>
    3a04:	00441613          	slli	a2,s0,0x4
    3a08:	008605b3          	add	a1,a2,s0
    3a0c:	06010693          	addi	a3,sp,96
    3a10:	20d5cd33          	sh2add	s10,a1,a3
    3a14:	ff8d5603          	lhu	a2,-8(s10)
    3a18:	00040593          	mv	a1,s0
    3a1c:	00098513          	mv	a0,s3
    3a20:	514040ef          	jal	7f34 <ee_printf>
    3a24:	00140c93          	addi	s9,s0,1
    3a28:	3c0cb48b          	th.extu	s1,s9,15,0
    3a2c:	000a2803          	lw	a6,0(s4)
    3a30:	0904fa63          	bgeu	s1,a6,3ac4 <main+0xc0c>
    3a34:	00449b13          	slli	s6,s1,0x4
    3a38:	009b0533          	add	a0,s6,s1
    3a3c:	06010893          	addi	a7,sp,96
    3a40:	21154e33          	sh2add	t3,a0,a7
    3a44:	ff8e5603          	lhu	a2,-8(t3)
    3a48:	00048593          	mv	a1,s1
    3a4c:	00098513          	mv	a0,s3
    3a50:	4e4040ef          	jal	7f34 <ee_printf>
    3a54:	00148913          	addi	s2,s1,1
    3a58:	3c093d8b          	th.extu	s11,s2,15,0
    3a5c:	000a2e83          	lw	t4,0(s4)
    3a60:	07ddf263          	bgeu	s11,t4,3ac4 <main+0xc0c>
    3a64:	004d9c13          	slli	s8,s11,0x4
    3a68:	01bc0f33          	add	t5,s8,s11
    3a6c:	06010f93          	addi	t6,sp,96
    3a70:	21ff42b3          	sh2add	t0,t5,t6
    3a74:	ff82d603          	lhu	a2,-8(t0)
    3a78:	000d8593          	mv	a1,s11
    3a7c:	00098513          	mv	a0,s3
    3a80:	4b4040ef          	jal	7f34 <ee_printf>
    3a84:	001d8713          	addi	a4,s11,1
    3a88:	3c07340b          	th.extu	s0,a4,15,0
    3a8c:	000a2303          	lw	t1,0(s4)
    3a90:	02647a63          	bgeu	s0,t1,3ac4 <main+0xc0c>
    3a94:	00441793          	slli	a5,s0,0x4
    3a98:	008783b3          	add	t2,a5,s0
    3a9c:	06010613          	addi	a2,sp,96
    3aa0:	20c3c5b3          	sh2add	a1,t2,a2
    3aa4:	ff85d603          	lhu	a2,-8(a1)
    3aa8:	00040593          	mv	a1,s0
    3aac:	00098513          	mv	a0,s3
    3ab0:	484040ef          	jal	7f34 <ee_printf>
    3ab4:	00140693          	addi	a3,s0,1
    3ab8:	3c06bd0b          	th.extu	s10,a3,15,0
    3abc:	000a2c83          	lw	s9,0(s4)
    3ac0:	e99d64e3          	bltu	s10,s9,3948 <main+0xa90>
    3ac4:	03c12a03          	lw	s4,60(sp)
    3ac8:	004a7993          	andi	s3,s4,4
    3acc:	18098c63          	beqz	s3,3c64 <main+0xdac>
    3ad0:	00010b37          	lui	s6,0x10
    3ad4:	000b2483          	lw	s1,0(s6) # 10000 <default_num_contexts>
    3ad8:	30048663          	beqz	s1,3de4 <main+0xf2c>
    3adc:	00000413          	li	s0,0
    3ae0:	0000c837          	lui	a6,0xc
    3ae4:	0fc80913          	addi	s2,a6,252 # c0fc <__modsi3+0x508>
    3ae8:	00441513          	slli	a0,s0,0x4
    3aec:	008508b3          	add	a7,a0,s0
    3af0:	2028cdb3          	sh2add	s11,a7,sp
    3af4:	05add603          	lhu	a2,90(s11)
    3af8:	00040593          	mv	a1,s0
    3afc:	00090513          	mv	a0,s2
    3b00:	434040ef          	jal	7f34 <ee_printf>
    3b04:	00140e93          	addi	t4,s0,1
    3b08:	3c0ebc0b          	th.extu	s8,t4,15,0
    3b0c:	000b2f03          	lw	t5,0(s6)
    3b10:	15ec7a63          	bgeu	s8,t5,3c64 <main+0xdac>
    3b14:	004c1f93          	slli	t6,s8,0x4
    3b18:	018f82b3          	add	t0,t6,s8
    3b1c:	06010713          	addi	a4,sp,96
    3b20:	20e2c433          	sh2add	s0,t0,a4
    3b24:	ffa45603          	lhu	a2,-6(s0)
    3b28:	000c0593          	mv	a1,s8
    3b2c:	00090513          	mv	a0,s2
    3b30:	404040ef          	jal	7f34 <ee_printf>
    3b34:	001c0313          	addi	t1,s8,1
    3b38:	3c033d0b          	th.extu	s10,t1,15,0
    3b3c:	000b2783          	lw	a5,0(s6)
    3b40:	12fd7263          	bgeu	s10,a5,3c64 <main+0xdac>
    3b44:	004d1393          	slli	t2,s10,0x4
    3b48:	01a38633          	add	a2,t2,s10
    3b4c:	06010593          	addi	a1,sp,96
    3b50:	20b646b3          	sh2add	a3,a2,a1
    3b54:	ffa6d603          	lhu	a2,-6(a3)
    3b58:	000d0593          	mv	a1,s10
    3b5c:	00090513          	mv	a0,s2
    3b60:	3d4040ef          	jal	7f34 <ee_printf>
    3b64:	001d0c93          	addi	s9,s10,1
    3b68:	3c0cba0b          	th.extu	s4,s9,15,0
    3b6c:	000b2983          	lw	s3,0(s6)
    3b70:	0f3a7a63          	bgeu	s4,s3,3c64 <main+0xdac>
    3b74:	004a1493          	slli	s1,s4,0x4
    3b78:	01448833          	add	a6,s1,s4
    3b7c:	06010513          	addi	a0,sp,96
    3b80:	20a848b3          	sh2add	a7,a6,a0
    3b84:	ffa8d603          	lhu	a2,-6(a7)
    3b88:	000a0593          	mv	a1,s4
    3b8c:	00090513          	mv	a0,s2
    3b90:	3a4040ef          	jal	7f34 <ee_printf>
    3b94:	001a0e13          	addi	t3,s4,1
    3b98:	3c0e3d8b          	th.extu	s11,t3,15,0
    3b9c:	000b2e83          	lw	t4,0(s6)
    3ba0:	0dddf263          	bgeu	s11,t4,3c64 <main+0xdac>
    3ba4:	004d9c13          	slli	s8,s11,0x4
    3ba8:	01bc0f33          	add	t5,s8,s11
    3bac:	06010f93          	addi	t6,sp,96
    3bb0:	21ff42b3          	sh2add	t0,t5,t6
    3bb4:	ffa2d603          	lhu	a2,-6(t0)
    3bb8:	000d8593          	mv	a1,s11
    3bbc:	00090513          	mv	a0,s2
    3bc0:	374040ef          	jal	7f34 <ee_printf>
    3bc4:	001d8713          	addi	a4,s11,1
    3bc8:	3c07340b          	th.extu	s0,a4,15,0
    3bcc:	000b2303          	lw	t1,0(s6)
    3bd0:	08647a63          	bgeu	s0,t1,3c64 <main+0xdac>
    3bd4:	00441d13          	slli	s10,s0,0x4
    3bd8:	008d07b3          	add	a5,s10,s0
    3bdc:	06010393          	addi	t2,sp,96
    3be0:	2077c633          	sh2add	a2,a5,t2
    3be4:	ffa65603          	lhu	a2,-6(a2)
    3be8:	00040593          	mv	a1,s0
    3bec:	00090513          	mv	a0,s2
    3bf0:	344040ef          	jal	7f34 <ee_printf>
    3bf4:	00140593          	addi	a1,s0,1
    3bf8:	3c05bc8b          	th.extu	s9,a1,15,0
    3bfc:	000b2683          	lw	a3,0(s6)
    3c00:	06dcf263          	bgeu	s9,a3,3c64 <main+0xdac>
    3c04:	004c9a13          	slli	s4,s9,0x4
    3c08:	019a09b3          	add	s3,s4,s9
    3c0c:	06010493          	addi	s1,sp,96
    3c10:	2099c833          	sh2add	a6,s3,s1
    3c14:	ffa85603          	lhu	a2,-6(a6)
    3c18:	000c8593          	mv	a1,s9
    3c1c:	00090513          	mv	a0,s2
    3c20:	314040ef          	jal	7f34 <ee_printf>
    3c24:	001c8513          	addi	a0,s9,1
    3c28:	3c053d8b          	th.extu	s11,a0,15,0
    3c2c:	000b2883          	lw	a7,0(s6)
    3c30:	031dfa63          	bgeu	s11,a7,3c64 <main+0xdac>
    3c34:	004d9e13          	slli	t3,s11,0x4
    3c38:	01be0eb3          	add	t4,t3,s11
    3c3c:	06010c13          	addi	s8,sp,96
    3c40:	218ecf33          	sh2add	t5,t4,s8
    3c44:	ffaf5603          	lhu	a2,-6(t5)
    3c48:	000d8593          	mv	a1,s11
    3c4c:	00090513          	mv	a0,s2
    3c50:	2e4040ef          	jal	7f34 <ee_printf>
    3c54:	001d8f93          	addi	t6,s11,1
    3c58:	3c0fb40b          	th.extu	s0,t6,15,0
    3c5c:	000b2283          	lw	t0,0(s6)
    3c60:	e85464e3          	bltu	s0,t0,3ae8 <main+0xc30>
    3c64:	00010b37          	lui	s6,0x10
    3c68:	000b2903          	lw	s2,0(s6) # 10000 <default_num_contexts>
    3c6c:	16090c63          	beqz	s2,3de4 <main+0xf2c>
    3c70:	00000993          	li	s3,0
    3c74:	0000c737          	lui	a4,0xc
    3c78:	11870d13          	addi	s10,a4,280 # c118 <__modsi3+0x524>
    3c7c:	00499313          	slli	t1,s3,0x4
    3c80:	013307b3          	add	a5,t1,s3
    3c84:	2027c633          	sh2add	a2,a5,sp
    3c88:	05465603          	lhu	a2,84(a2)
    3c8c:	00098593          	mv	a1,s3
    3c90:	000d0513          	mv	a0,s10
    3c94:	2a0040ef          	jal	7f34 <ee_printf>
    3c98:	00198593          	addi	a1,s3,1
    3c9c:	3c05bc8b          	th.extu	s9,a1,15,0
    3ca0:	000b2683          	lw	a3,0(s6)
    3ca4:	14dcf063          	bgeu	s9,a3,3de4 <main+0xf2c>
    3ca8:	004c9a13          	slli	s4,s9,0x4
    3cac:	019a09b3          	add	s3,s4,s9
    3cb0:	2029c833          	sh2add	a6,s3,sp
    3cb4:	05485603          	lhu	a2,84(a6)
    3cb8:	000c8593          	mv	a1,s9
    3cbc:	000d0513          	mv	a0,s10
    3cc0:	274040ef          	jal	7f34 <ee_printf>
    3cc4:	001c8513          	addi	a0,s9,1
    3cc8:	3c053d8b          	th.extu	s11,a0,15,0
    3ccc:	000b2883          	lw	a7,0(s6)
    3cd0:	111dfa63          	bgeu	s11,a7,3de4 <main+0xf2c>
    3cd4:	004d9e13          	slli	t3,s11,0x4
    3cd8:	01be0eb3          	add	t4,t3,s11
    3cdc:	202ecf33          	sh2add	t5,t4,sp
    3ce0:	054f5603          	lhu	a2,84(t5)
    3ce4:	000d8593          	mv	a1,s11
    3ce8:	000d0513          	mv	a0,s10
    3cec:	248040ef          	jal	7f34 <ee_printf>
    3cf0:	001d8f93          	addi	t6,s11,1
    3cf4:	3c0fb40b          	th.extu	s0,t6,15,0
    3cf8:	000b2283          	lw	t0,0(s6)
    3cfc:	0e547463          	bgeu	s0,t0,3de4 <main+0xf2c>
    3d00:	00441913          	slli	s2,s0,0x4
    3d04:	00890333          	add	t1,s2,s0
    3d08:	202347b3          	sh2add	a5,t1,sp
    3d0c:	0547d603          	lhu	a2,84(a5)
    3d10:	00040593          	mv	a1,s0
    3d14:	000d0513          	mv	a0,s10
    3d18:	21c040ef          	jal	7f34 <ee_printf>
    3d1c:	00140393          	addi	t2,s0,1
    3d20:	3c03bc8b          	th.extu	s9,t2,15,0
    3d24:	000b2603          	lw	a2,0(s6)
    3d28:	0accfe63          	bgeu	s9,a2,3de4 <main+0xf2c>
    3d2c:	004c9593          	slli	a1,s9,0x4
    3d30:	019586b3          	add	a3,a1,s9
    3d34:	06010a13          	addi	s4,sp,96
    3d38:	2146c9b3          	sh2add	s3,a3,s4
    3d3c:	ff49d603          	lhu	a2,-12(s3)
    3d40:	000c8593          	mv	a1,s9
    3d44:	000d0513          	mv	a0,s10
    3d48:	1ec040ef          	jal	7f34 <ee_printf>
    3d4c:	001c8493          	addi	s1,s9,1
    3d50:	3c04bd8b          	th.extu	s11,s1,15,0
    3d54:	000b2803          	lw	a6,0(s6)
    3d58:	090df663          	bgeu	s11,a6,3de4 <main+0xf2c>
    3d5c:	004d9513          	slli	a0,s11,0x4
    3d60:	01b508b3          	add	a7,a0,s11
    3d64:	2028ceb3          	sh2add	t4,a7,sp
    3d68:	054ed603          	lhu	a2,84(t4)
    3d6c:	000d8593          	mv	a1,s11
    3d70:	000d0513          	mv	a0,s10
    3d74:	1c0040ef          	jal	7f34 <ee_printf>
    3d78:	001d8c13          	addi	s8,s11,1
    3d7c:	3c0c340b          	th.extu	s0,s8,15,0
    3d80:	000b2f03          	lw	t5,0(s6)
    3d84:	07e47063          	bgeu	s0,t5,3de4 <main+0xf2c>
    3d88:	00441f93          	slli	t6,s0,0x4
    3d8c:	008f82b3          	add	t0,t6,s0
    3d90:	2022c333          	sh2add	t1,t0,sp
    3d94:	05435603          	lhu	a2,84(t1)
    3d98:	00040593          	mv	a1,s0
    3d9c:	000d0513          	mv	a0,s10
    3da0:	194040ef          	jal	7f34 <ee_printf>
    3da4:	00140713          	addi	a4,s0,1
    3da8:	3c073c8b          	th.extu	s9,a4,15,0
    3dac:	000b2783          	lw	a5,0(s6)
    3db0:	02fcfa63          	bgeu	s9,a5,3de4 <main+0xf2c>
    3db4:	004c9393          	slli	t2,s9,0x4
    3db8:	01938633          	add	a2,t2,s9
    3dbc:	06010593          	addi	a1,sp,96
    3dc0:	20b646b3          	sh2add	a3,a2,a1
    3dc4:	ff46d603          	lhu	a2,-12(a3)
    3dc8:	000c8593          	mv	a1,s9
    3dcc:	000d0513          	mv	a0,s10
    3dd0:	164040ef          	jal	7f34 <ee_printf>
    3dd4:	001c8a13          	addi	s4,s9,1
    3dd8:	3c0a398b          	th.extu	s3,s4,15,0
    3ddc:	000b2483          	lw	s1,0(s6)
    3de0:	e899eee3          	bltu	s3,s1,3c7c <main+0xdc4>
    3de4:	0a0b8463          	beqz	s7,3e8c <main+0xfd4>
    3de8:	11705063          	blez	s7,3ee8 <main+0x1030>
    3dec:	0000cb37          	lui	s6,0xc
    3df0:	1e4b0513          	addi	a0,s6,484 # c1e4 <__modsi3+0x5f0>
    3df4:	140040ef          	jal	7f34 <ee_printf>
    3df8:	05e10513          	addi	a0,sp,94
    3dfc:	10c040ef          	jal	7f08 <portable_fini>
    3e00:	00000513          	li	a0,0
    3e04:	09c12083          	lw	ra,156(sp)
    3e08:	09812403          	lw	s0,152(sp)
    3e0c:	09412483          	lw	s1,148(sp)
    3e10:	09012903          	lw	s2,144(sp)
    3e14:	08c12983          	lw	s3,140(sp)
    3e18:	08812a03          	lw	s4,136(sp)
    3e1c:	08012b03          	lw	s6,128(sp)
    3e20:	07c12b83          	lw	s7,124(sp)
    3e24:	07812c03          	lw	s8,120(sp)
    3e28:	07412c83          	lw	s9,116(sp)
    3e2c:	07012d03          	lw	s10,112(sp)
    3e30:	06c12d83          	lw	s11,108(sp)
    3e34:	0a010113          	addi	sp,sp,160
    3e38:	00008067          	ret
    3e3c:	00010bb7          	lui	s7,0x10
    3e40:	fffb8913          	addi	s2,s7,-1 # ffff <_data_load_start+0x388b>
    3e44:	87dff06f          	j	36c0 <main+0x808>
    3e48:	03612423          	sw	s6,40(sp)
    3e4c:	00400c13          	li	s8,4
    3e50:	e50ff06f          	j	34a0 <main+0x5e8>
    3e54:	03612423          	sw	s6,40(sp)
    3e58:	00400c13          	li	s8,4
    3e5c:	000c1463          	bnez	s8,3e64 <main+0xfac>
    3e60:	950ff06f          	j	2fb0 <main+0xf8>
    3e64:	938ff06f          	j	2f9c <main+0xe4>
    3e68:	000b8693          	mv	a3,s7
    3e6c:	00090593          	mv	a1,s2
    3e70:	00c12503          	lw	a0,12(sp)
    3e74:	0c0040ef          	jal	7f34 <ee_printf>
    3e78:	ffc4d383          	lhu	t2,-4(s1)
    3e7c:	00138593          	addi	a1,t2,1
    3e80:	3c05b60b          	th.extu	a2,a1,15,0
    3e84:	fec49e23          	sh	a2,-4(s1)
    3e88:	f34ff06f          	j	35bc <main+0x704>
    3e8c:	0000cd37          	lui	s10,0xc
    3e90:	134d0513          	addi	a0,s10,308 # c134 <__modsi3+0x540>
    3e94:	0a0040ef          	jal	7f34 <ee_printf>
    3e98:	f61ff06f          	j	3df8 <main+0xf40>
    3e9c:	0000ce37          	lui	t3,0xc
    3ea0:	e04e0513          	addi	a0,t3,-508 # be04 <__modsi3+0x210>
    3ea4:	090040ef          	jal	7f34 <ee_printf>
    3ea8:	00190913          	addi	s2,s2,1
    3eac:	871ff06f          	j	371c <main+0x864>
    3eb0:	00010cb7          	lui	s9,0x10
    3eb4:	000ca803          	lw	a6,0(s9) # 10000 <default_num_contexts>
    3eb8:	03812503          	lw	a0,56(sp)
    3ebc:	030504b3          	mul	s1,a0,a6
    3ec0:	000b0513          	mv	a0,s6
    3ec4:	014040ef          	jal	7ed8 <time_in_secs>
    3ec8:	00050593          	mv	a1,a0
    3ecc:	00048513          	mv	a0,s1
    3ed0:	4a9070ef          	jal	bb78 <__hidden___udivsi3>
    3ed4:	00050593          	mv	a1,a0
    3ed8:	0000c8b7          	lui	a7,0xc
    3edc:	dec88513          	addi	a0,a7,-532 # bdec <__modsi3+0x1f8>
    3ee0:	054040ef          	jal	7f34 <ee_printf>
    3ee4:	829ff06f          	j	370c <main+0x854>
    3ee8:	0000cbb7          	lui	s7,0xc
    3eec:	180b8513          	addi	a0,s7,384 # c180 <__modsi3+0x58c>
    3ef0:	044040ef          	jal	7f34 <ee_printf>
    3ef4:	f05ff06f          	j	3df8 <main+0xf40>
    3ef8:	09512223          	sw	s5,132(sp)
    3efc:	0000c2b7          	lui	t0,0xc
    3f00:	ce428513          	addi	a0,t0,-796 # bce4 <__modsi3+0xf0>
    3f04:	030040ef          	jal	7f34 <ee_printf>
    3f08:	000097b7          	lui	a5,0x9
    3f0c:	d8478b93          	addi	s7,a5,-636 # 8d84 <ee_printf+0xe50>
    3f10:	000b8d93          	mv	s11,s7
    3f14:	74700c13          	li	s8,1863
    3f18:	000c0d13          	mv	s10,s8
    3f1c:	0000e337          	lui	t1,0xe
    3f20:	3c130c93          	addi	s9,t1,961 # e3c1 <_data_load_start+0x1c4d>
    3f24:	01912023          	sw	s9,0(sp)
    3f28:	e48ff06f          	j	3570 <main+0x6b8>
    3f2c:	09512223          	sw	s5,132(sp)
    3f30:	0000cab7          	lui	s5,0xc
    3f34:	c54a8513          	addi	a0,s5,-940 # bc54 <__modsi3+0x60>
    3f38:	7fd030ef          	jal	7f34 <ee_printf>
    3f3c:	00004637          	lui	a2,0x4
    3f40:	9bf60b93          	addi	s7,a2,-1601 # 39bf <main+0xb07>
    3f44:	000b8d93          	mv	s11,s7
    3f48:	000016b7          	lui	a3,0x1
    3f4c:	19968c13          	addi	s8,a3,409 # 1199 <core_bench_list+0xdf1>
    3f50:	000c0d13          	mv	s10,s8
    3f54:	000039b7          	lui	s3,0x3
    3f58:	34098c93          	addi	s9,s3,832 # 3340 <main+0x488>
    3f5c:	01912023          	sw	s9,0(sp)
    3f60:	e10ff06f          	j	3570 <main+0x6b8>
    3f64:	09512223          	sw	s5,132(sp)
    3f68:	0000c537          	lui	a0,0xc
    3f6c:	c2450513          	addi	a0,a0,-988 # bc24 <__modsi3+0x30>
    3f70:	7c5030ef          	jal	7f34 <ee_printf>
    3f74:	00006937          	lui	s2,0x6
    3f78:	e4790b93          	addi	s7,s2,-441 # 5e47 <core_init_matrix+0x49b>
    3f7c:	000b8d93          	mv	s11,s7
    3f80:	0000c8b7          	lui	a7,0xc
    3f84:	e5288c13          	addi	s8,a7,-430 # be52 <__modsi3+0x25e>
    3f88:	000c0d13          	mv	s10,s8
    3f8c:	0000d437          	lui	s0,0xd
    3f90:	4b040c93          	addi	s9,s0,1200 # d4b0 <_data_load_start+0xd3c>
    3f94:	01912023          	sw	s9,0(sp)
    3f98:	dd8ff06f          	j	3570 <main+0x6b8>
    3f9c:	02011283          	lh	t0,32(sp)
    3fa0:	00028463          	beqz	t0,3fa8 <main+0x10f0>
    3fa4:	fb5fe06f          	j	2f58 <main+0xa0>
    3fa8:	34153337          	lui	t1,0x34153
    3fac:	41530393          	addi	t2,t1,1045 # 34153415 <_stack_top+0x3413f415>
    3fb0:	00712e23          	sw	t2,28(sp)
    3fb4:	06600413          	li	s0,102
    3fb8:	02811023          	sh	s0,32(sp)
    3fbc:	f9dfe06f          	j	2f58 <main+0xa0>
    3fc0:	00000913          	li	s2,0
    3fc4:	08412a83          	lw	s5,132(sp)
    3fc8:	ef8ff06f          	j	36c0 <main+0x808>
    3fcc:	004dff93          	andi	t6,s11,4
    3fd0:	c80f8ae3          	beqz	t6,3c64 <main+0xdac>
    3fd4:	e11ff06f          	j	3de4 <main+0xf2c>

00003fd8 <core_bench_matrix>:
    3fd8:	fc010113          	addi	sp,sp,-64
    3fdc:	02112e23          	sw	ra,60(sp)
    3fe0:	01b12623          	sw	s11,12(sp)
    3fe4:	00060d93          	mv	s11,a2
    3fe8:	00052603          	lw	a2,0(a0)
    3fec:	48060ee3          	beqz	a2,4c88 <core_bench_matrix+0xcb0>
    3ff0:	02812c23          	sw	s0,56(sp)
    3ff4:	02912a23          	sw	s1,52(sp)
    3ff8:	03212823          	sw	s2,48(sp)
    3ffc:	03312623          	sw	s3,44(sp)
    4000:	03412423          	sw	s4,40(sp)
    4004:	03512223          	sw	s5,36(sp)
    4008:	03612023          	sw	s6,32(sp)
    400c:	01712e23          	sw	s7,28(sp)
    4010:	01812c23          	sw	s8,24(sp)
    4014:	01912a23          	sw	s9,20(sp)
    4018:	01a12823          	sw	s10,16(sp)
    401c:	00058993          	mv	s3,a1
    4020:	00c52c03          	lw	s8,12(a0)
    4024:	00852a83          	lw	s5,8(a0)
    4028:	fffff937          	lui	s2,0xfffff
    402c:	0125e933          	or	s2,a1,s2
    4030:	00161493          	slli	s1,a2,0x1
    4034:	00452a03          	lw	s4,4(a0)
    4038:	214626b3          	sh1add	a3,a2,s4
    403c:	00000c93          	li	s9,0
    4040:	409687b3          	sub	a5,a3,s1
    4044:	ffe48713          	addi	a4,s1,-2
    4048:	00175293          	srli	t0,a4,0x1
    404c:	00128313          	addi	t1,t0,1
    4050:	00737393          	andi	t2,t1,7
    4054:	0a038463          	beqz	t2,40fc <core_bench_matrix+0x124>
    4058:	00100593          	li	a1,1
    405c:	08b38663          	beq	t2,a1,40e8 <core_bench_matrix+0x110>
    4060:	00200413          	li	s0,2
    4064:	06838a63          	beq	t2,s0,40d8 <core_bench_matrix+0x100>
    4068:	00300513          	li	a0,3
    406c:	04a38e63          	beq	t2,a0,40c8 <core_bench_matrix+0xf0>
    4070:	00400813          	li	a6,4
    4074:	05038263          	beq	t2,a6,40b8 <core_bench_matrix+0xe0>
    4078:	00500893          	li	a7,5
    407c:	03138663          	beq	t2,a7,40a8 <core_bench_matrix+0xd0>
    4080:	00600b13          	li	s6,6
    4084:	01638a63          	beq	t2,s6,4098 <core_bench_matrix+0xc0>
    4088:	0007db83          	lhu	s7,0(a5)
    408c:	01798d33          	add	s10,s3,s7
    4090:	01a79023          	sh	s10,0(a5)
    4094:	00278793          	addi	a5,a5,2
    4098:	0007de03          	lhu	t3,0(a5)
    409c:	01c98eb3          	add	t4,s3,t3
    40a0:	01d79023          	sh	t4,0(a5)
    40a4:	00278793          	addi	a5,a5,2
    40a8:	0007df03          	lhu	t5,0(a5)
    40ac:	01e98fb3          	add	t6,s3,t5
    40b0:	01f79023          	sh	t6,0(a5)
    40b4:	00278793          	addi	a5,a5,2
    40b8:	0007d703          	lhu	a4,0(a5)
    40bc:	00e982b3          	add	t0,s3,a4
    40c0:	00579023          	sh	t0,0(a5)
    40c4:	00278793          	addi	a5,a5,2
    40c8:	0007d303          	lhu	t1,0(a5)
    40cc:	006983b3          	add	t2,s3,t1
    40d0:	00779023          	sh	t2,0(a5)
    40d4:	00278793          	addi	a5,a5,2
    40d8:	0007d583          	lhu	a1,0(a5)
    40dc:	00b98433          	add	s0,s3,a1
    40e0:	00879023          	sh	s0,0(a5)
    40e4:	00278793          	addi	a5,a5,2
    40e8:	0007d503          	lhu	a0,0(a5)
    40ec:	00a98833          	add	a6,s3,a0
    40f0:	01079023          	sh	a6,0(a5)
    40f4:	00278793          	addi	a5,a5,2
    40f8:	06f68663          	beq	a3,a5,4164 <core_bench_matrix+0x18c>
    40fc:	0007d883          	lhu	a7,0(a5)
    4100:	01198b33          	add	s6,s3,a7
    4104:	01679023          	sh	s6,0(a5)
    4108:	0027db83          	lhu	s7,2(a5)
    410c:	01798d33          	add	s10,s3,s7
    4110:	01a79123          	sh	s10,2(a5)
    4114:	0047de03          	lhu	t3,4(a5)
    4118:	01c98eb3          	add	t4,s3,t3
    411c:	01d79223          	sh	t4,4(a5)
    4120:	0067df03          	lhu	t5,6(a5)
    4124:	01e98fb3          	add	t6,s3,t5
    4128:	01f79323          	sh	t6,6(a5)
    412c:	0087d703          	lhu	a4,8(a5)
    4130:	00e982b3          	add	t0,s3,a4
    4134:	00579423          	sh	t0,8(a5)
    4138:	00a7d303          	lhu	t1,10(a5)
    413c:	006983b3          	add	t2,s3,t1
    4140:	00779523          	sh	t2,10(a5)
    4144:	00c7d583          	lhu	a1,12(a5)
    4148:	00b98433          	add	s0,s3,a1
    414c:	00879623          	sh	s0,12(a5)
    4150:	00e7d503          	lhu	a0,14(a5)
    4154:	00a98833          	add	a6,s3,a0
    4158:	01079723          	sh	a6,14(a5)
    415c:	01078793          	addi	a5,a5,16
    4160:	f8f69ee3          	bne	a3,a5,40fc <core_bench_matrix+0x124>
    4164:	001c8413          	addi	s0,s9,1
    4168:	009686b3          	add	a3,a3,s1
    416c:	00860663          	beq	a2,s0,4178 <core_bench_matrix+0x1a0>
    4170:	00040c93          	mv	s9,s0
    4174:	ecdff06f          	j	4040 <core_bench_matrix+0x68>
    4178:	00241b93          	slli	s7,s0,0x2
    417c:	000c0b13          	mv	s6,s8
    4180:	000c0613          	mv	a2,s8
    4184:	000a0693          	mv	a3,s4
    4188:	00000593          	li	a1,0
    418c:	00000793          	li	a5,0
    4190:	00747893          	andi	a7,s0,7
    4194:	0a088463          	beqz	a7,423c <core_bench_matrix+0x264>
    4198:	00100d13          	li	s10,1
    419c:	09a88663          	beq	a7,s10,4228 <core_bench_matrix+0x250>
    41a0:	00200e13          	li	t3,2
    41a4:	07c88a63          	beq	a7,t3,4218 <core_bench_matrix+0x240>
    41a8:	00300e93          	li	t4,3
    41ac:	05d88e63          	beq	a7,t4,4208 <core_bench_matrix+0x230>
    41b0:	00400f13          	li	t5,4
    41b4:	05e88263          	beq	a7,t5,41f8 <core_bench_matrix+0x220>
    41b8:	00500f93          	li	t6,5
    41bc:	03f88663          	beq	a7,t6,41e8 <core_bench_matrix+0x210>
    41c0:	00600713          	li	a4,6
    41c4:	00e88a63          	beq	a7,a4,41d8 <core_bench_matrix+0x200>
    41c8:	22f6c28b          	th.lrh	t0,a3,a5,1
    41cc:	03328333          	mul	t1,t0,s3
    41d0:	44f6530b          	th.srw	t1,a2,a5,2
    41d4:	000d0793          	mv	a5,s10
    41d8:	22f6c38b          	th.lrh	t2,a3,a5,1
    41dc:	03338533          	mul	a0,t2,s3
    41e0:	44f6550b          	th.srw	a0,a2,a5,2
    41e4:	00178793          	addi	a5,a5,1
    41e8:	22f6c80b          	th.lrh	a6,a3,a5,1
    41ec:	033808b3          	mul	a7,a6,s3
    41f0:	44f6588b          	th.srw	a7,a2,a5,2
    41f4:	00178793          	addi	a5,a5,1
    41f8:	22f6cd0b          	th.lrh	s10,a3,a5,1
    41fc:	033d0e33          	mul	t3,s10,s3
    4200:	44f65e0b          	th.srw	t3,a2,a5,2
    4204:	00178793          	addi	a5,a5,1
    4208:	22f6ce8b          	th.lrh	t4,a3,a5,1
    420c:	033e8f33          	mul	t5,t4,s3
    4210:	44f65f0b          	th.srw	t5,a2,a5,2
    4214:	00178793          	addi	a5,a5,1
    4218:	22f6cf8b          	th.lrh	t6,a3,a5,1
    421c:	033f8733          	mul	a4,t6,s3
    4220:	44f6570b          	th.srw	a4,a2,a5,2
    4224:	00178793          	addi	a5,a5,1
    4228:	22f6c28b          	th.lrh	t0,a3,a5,1
    422c:	03328333          	mul	t1,t0,s3
    4230:	44f6530b          	th.srw	t1,a2,a5,2
    4234:	00178793          	addi	a5,a5,1
    4238:	08f40463          	beq	s0,a5,42c0 <core_bench_matrix+0x2e8>
    423c:	22f6c38b          	th.lrh	t2,a3,a5,1
    4240:	03338533          	mul	a0,t2,s3
    4244:	44f6550b          	th.srw	a0,a2,a5,2
    4248:	00178813          	addi	a6,a5,1
    424c:	2306c88b          	th.lrh	a7,a3,a6,1
    4250:	03388d33          	mul	s10,a7,s3
    4254:	45065d0b          	th.srw	s10,a2,a6,2
    4258:	00278e13          	addi	t3,a5,2
    425c:	23c6ce8b          	th.lrh	t4,a3,t3,1
    4260:	033e8f33          	mul	t5,t4,s3
    4264:	45c65f0b          	th.srw	t5,a2,t3,2
    4268:	00378f93          	addi	t6,a5,3
    426c:	23f6c70b          	th.lrh	a4,a3,t6,1
    4270:	033702b3          	mul	t0,a4,s3
    4274:	45f6528b          	th.srw	t0,a2,t6,2
    4278:	00478313          	addi	t1,a5,4
    427c:	2266c38b          	th.lrh	t2,a3,t1,1
    4280:	03338533          	mul	a0,t2,s3
    4284:	4466550b          	th.srw	a0,a2,t1,2
    4288:	00578813          	addi	a6,a5,5
    428c:	2306c88b          	th.lrh	a7,a3,a6,1
    4290:	03388d33          	mul	s10,a7,s3
    4294:	45065d0b          	th.srw	s10,a2,a6,2
    4298:	00678e13          	addi	t3,a5,6
    429c:	23c6ce8b          	th.lrh	t4,a3,t3,1
    42a0:	033e8f33          	mul	t5,t4,s3
    42a4:	45c65f0b          	th.srw	t5,a2,t3,2
    42a8:	00778f93          	addi	t6,a5,7
    42ac:	23f6c70b          	th.lrh	a4,a3,t6,1
    42b0:	033702b3          	mul	t0,a4,s3
    42b4:	45f6528b          	th.srw	t0,a2,t6,2
    42b8:	00878793          	addi	a5,a5,8
    42bc:	f8f410e3          	bne	s0,a5,423c <core_bench_matrix+0x264>
    42c0:	009686b3          	add	a3,a3,s1
    42c4:	01760633          	add	a2,a2,s7
    42c8:	00bc8663          	beq	s9,a1,42d4 <core_bench_matrix+0x2fc>
    42cc:	00158593          	addi	a1,a1,1
    42d0:	ebdff06f          	j	418c <core_bench_matrix+0x1b4>
    42d4:	017c05b3          	add	a1,s8,s7
    42d8:	00000313          	li	t1,0
    42dc:	00000e13          	li	t3,0
    42e0:	00000513          	li	a0,0
    42e4:	00000813          	li	a6,0
    42e8:	417587b3          	sub	a5,a1,s7
    42ec:	00030693          	mv	a3,t1
    42f0:	0007a303          	lw	t1,0(a5)
    42f4:	006e0e33          	add	t3,t3,t1
    42f8:	03c94463          	blt	s2,t3,4320 <core_bench_matrix+0x348>
    42fc:	0066a3b3          	slt	t2,a3,t1
    4300:	00750533          	add	a0,a0,t2
    4304:	3c05250b          	th.ext	a0,a0,15,0
    4308:	00478793          	addi	a5,a5,4
    430c:	02f58a63          	beq	a1,a5,4340 <core_bench_matrix+0x368>
    4310:	00030693          	mv	a3,t1
    4314:	0007a303          	lw	t1,0(a5)
    4318:	006e0e33          	add	t3,t3,t1
    431c:	ffc950e3          	bge	s2,t3,42fc <core_bench_matrix+0x324>
    4320:	00a50893          	addi	a7,a0,10
    4324:	3c08a50b          	th.ext	a0,a7,15,0
    4328:	00478793          	addi	a5,a5,4
    432c:	00f58863          	beq	a1,a5,433c <core_bench_matrix+0x364>
    4330:	00000e13          	li	t3,0
    4334:	00030693          	mv	a3,t1
    4338:	fddff06f          	j	4314 <core_bench_matrix+0x33c>
    433c:	00000e13          	li	t3,0
    4340:	00180d13          	addi	s10,a6,1
    4344:	017585b3          	add	a1,a1,s7
    4348:	010c8663          	beq	s9,a6,4354 <core_bench_matrix+0x37c>
    434c:	000d0813          	mv	a6,s10
    4350:	f99ff06f          	j	42e8 <core_bench_matrix+0x310>
    4354:	00000593          	li	a1,0
    4358:	181030ef          	jal	7cd8 <crc16>
    435c:	00050593          	mv	a1,a0
    4360:	000a0613          	mv	a2,s4
    4364:	00000513          	li	a0,0
    4368:	00000693          	li	a3,0
    436c:	00000793          	li	a5,0
    4370:	007d7e93          	andi	t4,s10,7
    4374:	0c0e8063          	beqz	t4,4434 <core_bench_matrix+0x45c>
    4378:	00100813          	li	a6,1
    437c:	0b0e8063          	beq	t4,a6,441c <core_bench_matrix+0x444>
    4380:	00200f13          	li	t5,2
    4384:	09ee8263          	beq	t4,t5,4408 <core_bench_matrix+0x430>
    4388:	00300f93          	li	t6,3
    438c:	07fe8463          	beq	t4,t6,43f4 <core_bench_matrix+0x41c>
    4390:	00400713          	li	a4,4
    4394:	04ee8663          	beq	t4,a4,43e0 <core_bench_matrix+0x408>
    4398:	00500293          	li	t0,5
    439c:	025e8863          	beq	t4,t0,43cc <core_bench_matrix+0x3f4>
    43a0:	00600313          	li	t1,6
    43a4:	006e8a63          	beq	t4,t1,43b8 <core_bench_matrix+0x3e0>
    43a8:	22d6438b          	th.lrh	t2,a2,a3,1
    43ac:	22dac68b          	th.lrh	a3,s5,a3,1
    43b0:	02d386b3          	mul	a3,t2,a3
    43b4:	00080793          	mv	a5,a6
    43b8:	22f6488b          	th.lrh	a7,a2,a5,1
    43bc:	22face0b          	th.lrh	t3,s5,a5,1
    43c0:	03c88eb3          	mul	t4,a7,t3
    43c4:	01d686b3          	add	a3,a3,t4
    43c8:	00178793          	addi	a5,a5,1
    43cc:	22f64f0b          	th.lrh	t5,a2,a5,1
    43d0:	22fac80b          	th.lrh	a6,s5,a5,1
    43d4:	030f0fb3          	mul	t6,t5,a6
    43d8:	01f686b3          	add	a3,a3,t6
    43dc:	00178793          	addi	a5,a5,1
    43e0:	22f6470b          	th.lrh	a4,a2,a5,1
    43e4:	22fac28b          	th.lrh	t0,s5,a5,1
    43e8:	02570333          	mul	t1,a4,t0
    43ec:	006686b3          	add	a3,a3,t1
    43f0:	00178793          	addi	a5,a5,1
    43f4:	22f6438b          	th.lrh	t2,a2,a5,1
    43f8:	22fac88b          	th.lrh	a7,s5,a5,1
    43fc:	03138e33          	mul	t3,t2,a7
    4400:	01c686b3          	add	a3,a3,t3
    4404:	00178793          	addi	a5,a5,1
    4408:	22f64e8b          	th.lrh	t4,a2,a5,1
    440c:	22facf0b          	th.lrh	t5,s5,a5,1
    4410:	03ee8833          	mul	a6,t4,t5
    4414:	010686b3          	add	a3,a3,a6
    4418:	00178793          	addi	a5,a5,1
    441c:	22f64f8b          	th.lrh	t6,a2,a5,1
    4420:	22fac70b          	th.lrh	a4,s5,a5,1
    4424:	02ef82b3          	mul	t0,t6,a4
    4428:	005686b3          	add	a3,a3,t0
    442c:	00178793          	addi	a5,a5,1
    4430:	0afd0463          	beq	s10,a5,44d8 <core_bench_matrix+0x500>
    4434:	22f6430b          	th.lrh	t1,a2,a5,1
    4438:	22fac38b          	th.lrh	t2,s5,a5,1
    443c:	027308b3          	mul	a7,t1,t2
    4440:	01168e33          	add	t3,a3,a7
    4444:	00178e93          	addi	t4,a5,1
    4448:	23d64f0b          	th.lrh	t5,a2,t4,1
    444c:	23dac80b          	th.lrh	a6,s5,t4,1
    4450:	030f0fb3          	mul	t6,t5,a6
    4454:	01fe0733          	add	a4,t3,t6
    4458:	00278293          	addi	t0,a5,2
    445c:	2256468b          	th.lrh	a3,a2,t0,1
    4460:	225ac30b          	th.lrh	t1,s5,t0,1
    4464:	026683b3          	mul	t2,a3,t1
    4468:	007708b3          	add	a7,a4,t2
    446c:	00378e13          	addi	t3,a5,3
    4470:	23c64e8b          	th.lrh	t4,a2,t3,1
    4474:	23cacf0b          	th.lrh	t5,s5,t3,1
    4478:	03ee8833          	mul	a6,t4,t5
    447c:	01088fb3          	add	t6,a7,a6
    4480:	00478713          	addi	a4,a5,4
    4484:	22e6428b          	th.lrh	t0,a2,a4,1
    4488:	22eac68b          	th.lrh	a3,s5,a4,1
    448c:	02d28333          	mul	t1,t0,a3
    4490:	006f83b3          	add	t2,t6,t1
    4494:	00578893          	addi	a7,a5,5
    4498:	23164e0b          	th.lrh	t3,a2,a7,1
    449c:	231ace8b          	th.lrh	t4,s5,a7,1
    44a0:	03de0f33          	mul	t5,t3,t4
    44a4:	01e38fb3          	add	t6,t2,t5
    44a8:	00678813          	addi	a6,a5,6
    44ac:	2306470b          	th.lrh	a4,a2,a6,1
    44b0:	230ac28b          	th.lrh	t0,s5,a6,1
    44b4:	025706b3          	mul	a3,a4,t0
    44b8:	00df8333          	add	t1,t6,a3
    44bc:	00778393          	addi	t2,a5,7
    44c0:	2276488b          	th.lrh	a7,a2,t2,1
    44c4:	227ace0b          	th.lrh	t3,s5,t2,1
    44c8:	03c88eb3          	mul	t4,a7,t3
    44cc:	01d306b3          	add	a3,t1,t4
    44d0:	00878793          	addi	a5,a5,8
    44d4:	f6fd10e3          	bne	s10,a5,4434 <core_bench_matrix+0x45c>
    44d8:	44ac568b          	th.srw	a3,s8,a0,2
    44dc:	00960633          	add	a2,a2,s1
    44e0:	00ac8663          	beq	s9,a0,44ec <core_bench_matrix+0x514>
    44e4:	00150513          	addi	a0,a0,1
    44e8:	e81ff06f          	j	4368 <core_bench_matrix+0x390>
    44ec:	000c0513          	mv	a0,s8
    44f0:	00000c93          	li	s9,0
    44f4:	00000293          	li	t0,0
    44f8:	00000713          	li	a4,0
    44fc:	00000693          	li	a3,0
    4500:	000c8613          	mv	a2,s9
    4504:	00000793          	li	a5,0
    4508:	44f54c8b          	th.lrw	s9,a0,a5,2
    450c:	019282b3          	add	t0,t0,s9
    4510:	02594463          	blt	s2,t0,4538 <core_bench_matrix+0x560>
    4514:	01962d33          	slt	s10,a2,s9
    4518:	01a70f33          	add	t5,a4,s10
    451c:	3c0f270b          	th.ext	a4,t5,15,0
    4520:	00178793          	addi	a5,a5,1
    4524:	0287fa63          	bgeu	a5,s0,4558 <core_bench_matrix+0x580>
    4528:	000c8613          	mv	a2,s9
    452c:	44f54c8b          	th.lrw	s9,a0,a5,2
    4530:	019282b3          	add	t0,t0,s9
    4534:	fe5950e3          	bge	s2,t0,4514 <core_bench_matrix+0x53c>
    4538:	00a70f93          	addi	t6,a4,10
    453c:	3c0fa70b          	th.ext	a4,t6,15,0
    4540:	00178793          	addi	a5,a5,1
    4544:	0087f863          	bgeu	a5,s0,4554 <core_bench_matrix+0x57c>
    4548:	00000293          	li	t0,0
    454c:	000c8613          	mv	a2,s9
    4550:	fddff06f          	j	452c <core_bench_matrix+0x554>
    4554:	00000293          	li	t0,0
    4558:	00168693          	addi	a3,a3,1
    455c:	01750533          	add	a0,a0,s7
    4560:	fa86e0e3          	bltu	a3,s0,4500 <core_bench_matrix+0x528>
    4564:	00070513          	mv	a0,a4
    4568:	770030ef          	jal	7cd8 <crc16>
    456c:	00050593          	mv	a1,a0
    4570:	000a0813          	mv	a6,s4
    4574:	000c0513          	mv	a0,s8
    4578:	00000e13          	li	t3,0
    457c:	000a8393          	mv	t2,s5
    4580:	00000313          	li	t1,0
    4584:	fff40893          	addi	a7,s0,-1
    4588:	0078f613          	andi	a2,a7,7
    458c:	00081e83          	lh	t4,0(a6)
    4590:	00039c83          	lh	s9,0(t2)
    4594:	039e86b3          	mul	a3,t4,s9
    4598:	00100793          	li	a5,1
    459c:	00938733          	add	a4,t2,s1
    45a0:	1887fa63          	bgeu	a5,s0,4734 <core_bench_matrix+0x75c>
    45a4:	0c060e63          	beqz	a2,4680 <core_bench_matrix+0x6a8>
    45a8:	0af60e63          	beq	a2,a5,4664 <core_bench_matrix+0x68c>
    45ac:	00200d13          	li	s10,2
    45b0:	09a60e63          	beq	a2,s10,464c <core_bench_matrix+0x674>
    45b4:	00300f13          	li	t5,3
    45b8:	07e60e63          	beq	a2,t5,4634 <core_bench_matrix+0x65c>
    45bc:	00400f93          	li	t6,4
    45c0:	05f60e63          	beq	a2,t6,461c <core_bench_matrix+0x644>
    45c4:	00500293          	li	t0,5
    45c8:	02560e63          	beq	a2,t0,4604 <core_bench_matrix+0x62c>
    45cc:	00600893          	li	a7,6
    45d0:	01160e63          	beq	a2,a7,45ec <core_bench_matrix+0x614>
    45d4:	22f8478b          	th.lrh	a5,a6,a5,1
    45d8:	2093c60b          	th.lrh	a2,t2,s1,0
    45dc:	02c78eb3          	mul	t4,a5,a2
    45e0:	01d686b3          	add	a3,a3,t4
    45e4:	000d0793          	mv	a5,s10
    45e8:	00970733          	add	a4,a4,s1
    45ec:	22f84c8b          	th.lrh	s9,a6,a5,1
    45f0:	00071d03          	lh	s10,0(a4)
    45f4:	03ac8f33          	mul	t5,s9,s10
    45f8:	01e686b3          	add	a3,a3,t5
    45fc:	00178793          	addi	a5,a5,1
    4600:	00970733          	add	a4,a4,s1
    4604:	22f84f8b          	th.lrh	t6,a6,a5,1
    4608:	00071283          	lh	t0,0(a4)
    460c:	025f88b3          	mul	a7,t6,t0
    4610:	011686b3          	add	a3,a3,a7
    4614:	00178793          	addi	a5,a5,1
    4618:	00970733          	add	a4,a4,s1
    461c:	22f8460b          	th.lrh	a2,a6,a5,1
    4620:	00071e83          	lh	t4,0(a4)
    4624:	03d60cb3          	mul	s9,a2,t4
    4628:	019686b3          	add	a3,a3,s9
    462c:	00178793          	addi	a5,a5,1
    4630:	00970733          	add	a4,a4,s1
    4634:	22f84d0b          	th.lrh	s10,a6,a5,1
    4638:	00071f03          	lh	t5,0(a4)
    463c:	03ed0fb3          	mul	t6,s10,t5
    4640:	01f686b3          	add	a3,a3,t6
    4644:	00178793          	addi	a5,a5,1
    4648:	00970733          	add	a4,a4,s1
    464c:	22f8428b          	th.lrh	t0,a6,a5,1
    4650:	00071883          	lh	a7,0(a4)
    4654:	03128633          	mul	a2,t0,a7
    4658:	00c686b3          	add	a3,a3,a2
    465c:	00178793          	addi	a5,a5,1
    4660:	00970733          	add	a4,a4,s1
    4664:	22f84c8b          	th.lrh	s9,a6,a5,1
    4668:	00071e83          	lh	t4,0(a4)
    466c:	03dc8d33          	mul	s10,s9,t4
    4670:	01a686b3          	add	a3,a3,s10
    4674:	00178793          	addi	a5,a5,1
    4678:	00970733          	add	a4,a4,s1
    467c:	0a87fc63          	bgeu	a5,s0,4734 <core_bench_matrix+0x75c>
    4680:	22f84f0b          	th.lrh	t5,a6,a5,1
    4684:	00071f83          	lh	t6,0(a4)
    4688:	03ff02b3          	mul	t0,t5,t6
    468c:	005688b3          	add	a7,a3,t0
    4690:	00178613          	addi	a2,a5,1
    4694:	22c84c8b          	th.lrh	s9,a6,a2,1
    4698:	20974e8b          	th.lrh	t4,a4,s1,0
    469c:	03dc8d33          	mul	s10,s9,t4
    46a0:	01a88f33          	add	t5,a7,s10
    46a4:	00278693          	addi	a3,a5,2
    46a8:	20e4afb3          	sh1add	t6,s1,a4
    46ac:	22d8428b          	th.lrh	t0,a6,a3,1
    46b0:	2297470b          	th.lrh	a4,a4,s1,1
    46b4:	02e288b3          	mul	a7,t0,a4
    46b8:	011f0633          	add	a2,t5,a7
    46bc:	00378c93          	addi	s9,a5,3
    46c0:	23984e8b          	th.lrh	t4,a6,s9,1
    46c4:	209fcd0b          	th.lrh	s10,t6,s1,0
    46c8:	03ae8f33          	mul	t5,t4,s10
    46cc:	01e602b3          	add	t0,a2,t5
    46d0:	00478693          	addi	a3,a5,4
    46d4:	21f4a8b3          	sh1add	a7,s1,t6
    46d8:	22d8470b          	th.lrh	a4,a6,a3,1
    46dc:	229fcf8b          	th.lrh	t6,t6,s1,1
    46e0:	03f70633          	mul	a2,a4,t6
    46e4:	00c28cb3          	add	s9,t0,a2
    46e8:	00578e93          	addi	t4,a5,5
    46ec:	23d84d0b          	th.lrh	s10,a6,t4,1
    46f0:	2098cf0b          	th.lrh	t5,a7,s1,0
    46f4:	03ed02b3          	mul	t0,s10,t5
    46f8:	005c8fb3          	add	t6,s9,t0
    46fc:	00678693          	addi	a3,a5,6
    4700:	2114a733          	sh1add	a4,s1,a7
    4704:	22d8460b          	th.lrh	a2,a6,a3,1
    4708:	2298c88b          	th.lrh	a7,a7,s1,1
    470c:	03160cb3          	mul	s9,a2,a7
    4710:	019f8d33          	add	s10,t6,s9
    4714:	00778e93          	addi	t4,a5,7
    4718:	23d84f0b          	th.lrh	t5,a6,t4,1
    471c:	2097428b          	th.lrh	t0,a4,s1,0
    4720:	025f0fb3          	mul	t6,t5,t0
    4724:	01fd06b3          	add	a3,s10,t6
    4728:	00878793          	addi	a5,a5,8
    472c:	20e4a733          	sh1add	a4,s1,a4
    4730:	f487e8e3          	bltu	a5,s0,4680 <core_bench_matrix+0x6a8>
    4734:	4465568b          	th.srw	a3,a0,t1,2
    4738:	00130313          	addi	t1,t1,1
    473c:	00238393          	addi	t2,t2,2
    4740:	e48362e3          	bltu	t1,s0,4584 <core_bench_matrix+0x5ac>
    4744:	001e0e13          	addi	t3,t3,1
    4748:	01750533          	add	a0,a0,s7
    474c:	00980833          	add	a6,a6,s1
    4750:	e28e66e3          	bltu	t3,s0,457c <core_bench_matrix+0x5a4>
    4754:	000c0d13          	mv	s10,s8
    4758:	00000393          	li	t2,0
    475c:	00000c93          	li	s9,0
    4760:	00000613          	li	a2,0
    4764:	00000893          	li	a7,0
    4768:	00038513          	mv	a0,t2
    476c:	00000793          	li	a5,0
    4770:	44fd438b          	th.lrw	t2,s10,a5,2
    4774:	007c8cb3          	add	s9,s9,t2
    4778:	03994463          	blt	s2,s9,47a0 <core_bench_matrix+0x7c8>
    477c:	00752333          	slt	t1,a0,t2
    4780:	00660733          	add	a4,a2,t1
    4784:	3c07260b          	th.ext	a2,a4,15,0
    4788:	00178793          	addi	a5,a5,1
    478c:	0287fa63          	bgeu	a5,s0,47c0 <core_bench_matrix+0x7e8>
    4790:	00038513          	mv	a0,t2
    4794:	44fd438b          	th.lrw	t2,s10,a5,2
    4798:	007c8cb3          	add	s9,s9,t2
    479c:	ff9950e3          	bge	s2,s9,477c <core_bench_matrix+0x7a4>
    47a0:	00a60693          	addi	a3,a2,10
    47a4:	3c06a60b          	th.ext	a2,a3,15,0
    47a8:	00178793          	addi	a5,a5,1
    47ac:	0087f863          	bgeu	a5,s0,47bc <core_bench_matrix+0x7e4>
    47b0:	00000c93          	li	s9,0
    47b4:	00038513          	mv	a0,t2
    47b8:	fddff06f          	j	4794 <core_bench_matrix+0x7bc>
    47bc:	00000c93          	li	s9,0
    47c0:	00188893          	addi	a7,a7,1
    47c4:	017d0d33          	add	s10,s10,s7
    47c8:	fa88e0e3          	bltu	a7,s0,4768 <core_bench_matrix+0x790>
    47cc:	00060513          	mv	a0,a2
    47d0:	508030ef          	jal	7cd8 <crc16>
    47d4:	00050593          	mv	a1,a0
    47d8:	000a0813          	mv	a6,s4
    47dc:	00000513          	li	a0,0
    47e0:	000a8f13          	mv	t5,s5
    47e4:	00000293          	li	t0,0
    47e8:	fff40e93          	addi	t4,s0,-1
    47ec:	007eff93          	andi	t6,t4,7
    47f0:	00081e03          	lh	t3,0(a6)
    47f4:	000f1383          	lh	t2,0(t5)
    47f8:	027e0333          	mul	t1,t3,t2
    47fc:	1423370b          	th.extu	a4,t1,5,2
    4800:	2c53368b          	th.extu	a3,t1,11,5
    4804:	02d706b3          	mul	a3,a4,a3
    4808:	00100793          	li	a5,1
    480c:	009f0733          	add	a4,t5,s1
    4810:	2487f463          	bgeu	a5,s0,4a58 <core_bench_matrix+0xa80>
    4814:	120f8863          	beqz	t6,4944 <core_bench_matrix+0x96c>
    4818:	10ff8263          	beq	t6,a5,491c <core_bench_matrix+0x944>
    481c:	00200c93          	li	s9,2
    4820:	0d9f8c63          	beq	t6,s9,48f8 <core_bench_matrix+0x920>
    4824:	00300613          	li	a2,3
    4828:	0acf8663          	beq	t6,a2,48d4 <core_bench_matrix+0x8fc>
    482c:	00400893          	li	a7,4
    4830:	091f8063          	beq	t6,a7,48b0 <core_bench_matrix+0x8d8>
    4834:	00500d13          	li	s10,5
    4838:	05af8a63          	beq	t6,s10,488c <core_bench_matrix+0x8b4>
    483c:	00600e93          	li	t4,6
    4840:	03df8463          	beq	t6,t4,4868 <core_bench_matrix+0x890>
    4844:	22f8478b          	th.lrh	a5,a6,a5,1
    4848:	209f4f8b          	th.lrh	t6,t5,s1,0
    484c:	03f78e33          	mul	t3,a5,t6
    4850:	142e338b          	th.extu	t2,t3,5,2
    4854:	2c5e330b          	th.extu	t1,t3,11,5
    4858:	02638633          	mul	a2,t2,t1
    485c:	00c686b3          	add	a3,a3,a2
    4860:	000c8793          	mv	a5,s9
    4864:	00970733          	add	a4,a4,s1
    4868:	22f84c8b          	th.lrh	s9,a6,a5,1
    486c:	00071883          	lh	a7,0(a4)
    4870:	031c8d33          	mul	s10,s9,a7
    4874:	142d3e8b          	th.extu	t4,s10,5,2
    4878:	2c5d3f8b          	th.extu	t6,s10,11,5
    487c:	03fe8e33          	mul	t3,t4,t6
    4880:	01c686b3          	add	a3,a3,t3
    4884:	00178793          	addi	a5,a5,1
    4888:	00970733          	add	a4,a4,s1
    488c:	22f8438b          	th.lrh	t2,a6,a5,1
    4890:	00071303          	lh	t1,0(a4)
    4894:	02638633          	mul	a2,t2,t1
    4898:	14263c8b          	th.extu	s9,a2,5,2
    489c:	2c56388b          	th.extu	a7,a2,11,5
    48a0:	031c8d33          	mul	s10,s9,a7
    48a4:	01a686b3          	add	a3,a3,s10
    48a8:	00178793          	addi	a5,a5,1
    48ac:	00970733          	add	a4,a4,s1
    48b0:	22f84e8b          	th.lrh	t4,a6,a5,1
    48b4:	00071f83          	lh	t6,0(a4)
    48b8:	03fe83b3          	mul	t2,t4,t6
    48bc:	1423be0b          	th.extu	t3,t2,5,2
    48c0:	2c53b30b          	th.extu	t1,t2,11,5
    48c4:	026e0633          	mul	a2,t3,t1
    48c8:	00c686b3          	add	a3,a3,a2
    48cc:	00178793          	addi	a5,a5,1
    48d0:	00970733          	add	a4,a4,s1
    48d4:	22f84c8b          	th.lrh	s9,a6,a5,1
    48d8:	00071883          	lh	a7,0(a4)
    48dc:	031c8d33          	mul	s10,s9,a7
    48e0:	142d3e8b          	th.extu	t4,s10,5,2
    48e4:	2c5d3f8b          	th.extu	t6,s10,11,5
    48e8:	03fe83b3          	mul	t2,t4,t6
    48ec:	007686b3          	add	a3,a3,t2
    48f0:	00178793          	addi	a5,a5,1
    48f4:	00970733          	add	a4,a4,s1
    48f8:	22f8430b          	th.lrh	t1,a6,a5,1
    48fc:	00071e03          	lh	t3,0(a4)
    4900:	03c30633          	mul	a2,t1,t3
    4904:	14263c8b          	th.extu	s9,a2,5,2
    4908:	2c56388b          	th.extu	a7,a2,11,5
    490c:	031c8d33          	mul	s10,s9,a7
    4910:	01a686b3          	add	a3,a3,s10
    4914:	00178793          	addi	a5,a5,1
    4918:	00970733          	add	a4,a4,s1
    491c:	22f84e8b          	th.lrh	t4,a6,a5,1
    4920:	00071f83          	lh	t6,0(a4)
    4924:	03fe83b3          	mul	t2,t4,t6
    4928:	1423b30b          	th.extu	t1,t2,5,2
    492c:	2c53be0b          	th.extu	t3,t2,11,5
    4930:	03c30633          	mul	a2,t1,t3
    4934:	00c686b3          	add	a3,a3,a2
    4938:	00178793          	addi	a5,a5,1
    493c:	00970733          	add	a4,a4,s1
    4940:	1087fc63          	bgeu	a5,s0,4a58 <core_bench_matrix+0xa80>
    4944:	22f84c8b          	th.lrh	s9,a6,a5,1
    4948:	00071883          	lh	a7,0(a4)
    494c:	031c8d33          	mul	s10,s9,a7
    4950:	142d3e8b          	th.extu	t4,s10,5,2
    4954:	2c5d3f8b          	th.extu	t6,s10,11,5
    4958:	03fe83b3          	mul	t2,t4,t6
    495c:	00768333          	add	t1,a3,t2
    4960:	00178e13          	addi	t3,a5,1
    4964:	23c8460b          	th.lrh	a2,a6,t3,1
    4968:	2097468b          	th.lrh	a3,a4,s1,0
    496c:	02d60cb3          	mul	s9,a2,a3
    4970:	142cb88b          	th.extu	a7,s9,5,2
    4974:	2c5cbd0b          	th.extu	s10,s9,11,5
    4978:	03a88eb3          	mul	t4,a7,s10
    497c:	01d30fb3          	add	t6,t1,t4
    4980:	00278393          	addi	t2,a5,2
    4984:	20e4a333          	sh1add	t1,s1,a4
    4988:	22784e0b          	th.lrh	t3,a6,t2,1
    498c:	2297470b          	th.lrh	a4,a4,s1,1
    4990:	02ee0633          	mul	a2,t3,a4
    4994:	1426368b          	th.extu	a3,a2,5,2
    4998:	2c563c8b          	th.extu	s9,a2,11,5
    499c:	039688b3          	mul	a7,a3,s9
    49a0:	011f8d33          	add	s10,t6,a7
    49a4:	00378e93          	addi	t4,a5,3
    49a8:	23d84f8b          	th.lrh	t6,a6,t4,1
    49ac:	2093438b          	th.lrh	t2,t1,s1,0
    49b0:	027f8733          	mul	a4,t6,t2
    49b4:	14273e0b          	th.extu	t3,a4,5,2
    49b8:	2c57360b          	th.extu	a2,a4,11,5
    49bc:	02ce06b3          	mul	a3,t3,a2
    49c0:	00dd0cb3          	add	s9,s10,a3
    49c4:	00478893          	addi	a7,a5,4
    49c8:	2064ad33          	sh1add	s10,s1,t1
    49cc:	23184e8b          	th.lrh	t4,a6,a7,1
    49d0:	2293430b          	th.lrh	t1,t1,s1,1
    49d4:	026e8fb3          	mul	t6,t4,t1
    49d8:	142fb38b          	th.extu	t2,t6,5,2
    49dc:	2c5fb70b          	th.extu	a4,t6,11,5
    49e0:	02e38e33          	mul	t3,t2,a4
    49e4:	01cc8633          	add	a2,s9,t3
    49e8:	00578693          	addi	a3,a5,5
    49ec:	22d84c8b          	th.lrh	s9,a6,a3,1
    49f0:	209d488b          	th.lrh	a7,s10,s1,0
    49f4:	031c8eb3          	mul	t4,s9,a7
    49f8:	142eb30b          	th.extu	t1,t4,5,2
    49fc:	2c5ebf8b          	th.extu	t6,t4,11,5
    4a00:	03f303b3          	mul	t2,t1,t6
    4a04:	00760633          	add	a2,a2,t2
    4a08:	00678e13          	addi	t3,a5,6
    4a0c:	21a4a733          	sh1add	a4,s1,s10
    4a10:	23c8468b          	th.lrh	a3,a6,t3,1
    4a14:	229d4d0b          	th.lrh	s10,s10,s1,1
    4a18:	03a68cb3          	mul	s9,a3,s10
    4a1c:	142cb88b          	th.extu	a7,s9,5,2
    4a20:	2c5cbe8b          	th.extu	t4,s9,11,5
    4a24:	03d88333          	mul	t1,a7,t4
    4a28:	00660fb3          	add	t6,a2,t1
    4a2c:	00778393          	addi	t2,a5,7
    4a30:	2278460b          	th.lrh	a2,a6,t2,1
    4a34:	20974e0b          	th.lrh	t3,a4,s1,0
    4a38:	03c606b3          	mul	a3,a2,t3
    4a3c:	1426bd0b          	th.extu	s10,a3,5,2
    4a40:	2c56bc8b          	th.extu	s9,a3,11,5
    4a44:	039d08b3          	mul	a7,s10,s9
    4a48:	011f86b3          	add	a3,t6,a7
    4a4c:	00878793          	addi	a5,a5,8
    4a50:	20e4a733          	sh1add	a4,s1,a4
    4a54:	ee87e8e3          	bltu	a5,s0,4944 <core_bench_matrix+0x96c>
    4a58:	445c568b          	th.srw	a3,s8,t0,2
    4a5c:	00128293          	addi	t0,t0,1
    4a60:	002f0f13          	addi	t5,t5,2
    4a64:	d882e2e3          	bltu	t0,s0,47e8 <core_bench_matrix+0x810>
    4a68:	00150513          	addi	a0,a0,1
    4a6c:	017c0c33          	add	s8,s8,s7
    4a70:	00980833          	add	a6,a6,s1
    4a74:	d68566e3          	bltu	a0,s0,47e0 <core_bench_matrix+0x808>
    4a78:	00000f13          	li	t5,0
    4a7c:	00000e93          	li	t4,0
    4a80:	00000513          	li	a0,0
    4a84:	00000313          	li	t1,0
    4a88:	000f0693          	mv	a3,t5
    4a8c:	00000793          	li	a5,0
    4a90:	44fb4f0b          	th.lrw	t5,s6,a5,2
    4a94:	01ee8eb3          	add	t4,t4,t5
    4a98:	03d94463          	blt	s2,t4,4ac0 <core_bench_matrix+0xae8>
    4a9c:	01e6a2b3          	slt	t0,a3,t5
    4aa0:	00550ab3          	add	s5,a0,t0
    4aa4:	3c0aa50b          	th.ext	a0,s5,15,0
    4aa8:	00178793          	addi	a5,a5,1
    4aac:	0287fa63          	bgeu	a5,s0,4ae0 <core_bench_matrix+0xb08>
    4ab0:	000f0693          	mv	a3,t5
    4ab4:	44fb4f0b          	th.lrw	t5,s6,a5,2
    4ab8:	01ee8eb3          	add	t4,t4,t5
    4abc:	ffd950e3          	bge	s2,t4,4a9c <core_bench_matrix+0xac4>
    4ac0:	00a50713          	addi	a4,a0,10
    4ac4:	3c07250b          	th.ext	a0,a4,15,0
    4ac8:	00178793          	addi	a5,a5,1
    4acc:	0087f863          	bgeu	a5,s0,4adc <core_bench_matrix+0xb04>
    4ad0:	00000e93          	li	t4,0
    4ad4:	000f0693          	mv	a3,t5
    4ad8:	fddff06f          	j	4ab4 <core_bench_matrix+0xadc>
    4adc:	00000e93          	li	t4,0
    4ae0:	00130313          	addi	t1,t1,1
    4ae4:	017b0b33          	add	s6,s6,s7
    4ae8:	fa8360e3          	bltu	t1,s0,4a88 <core_bench_matrix+0xab0>
    4aec:	1ec030ef          	jal	7cd8 <crc16>
    4af0:	00000693          	li	a3,0
    4af4:	fff40593          	addi	a1,s0,-1
    4af8:	0075f913          	andi	s2,a1,7
    4afc:	000a5b83          	lhu	s7,0(s4)
    4b00:	413b8fb3          	sub	t6,s7,s3
    4b04:	01fa1023          	sh	t6,0(s4)
    4b08:	00100793          	li	a5,1
    4b0c:	1287f663          	bgeu	a5,s0,4c38 <core_bench_matrix+0xc60>
    4b10:	0a090263          	beqz	s2,4bb4 <core_bench_matrix+0xbdc>
    4b14:	08f90663          	beq	s2,a5,4ba0 <core_bench_matrix+0xbc8>
    4b18:	00200393          	li	t2,2
    4b1c:	06790a63          	beq	s2,t2,4b90 <core_bench_matrix+0xbb8>
    4b20:	00300613          	li	a2,3
    4b24:	04c90e63          	beq	s2,a2,4b80 <core_bench_matrix+0xba8>
    4b28:	00400e13          	li	t3,4
    4b2c:	05c90263          	beq	s2,t3,4b70 <core_bench_matrix+0xb98>
    4b30:	00500d13          	li	s10,5
    4b34:	03a90663          	beq	s2,s10,4b60 <core_bench_matrix+0xb88>
    4b38:	00600c93          	li	s9,6
    4b3c:	01990a63          	beq	s2,s9,4b50 <core_bench_matrix+0xb78>
    4b40:	a2fa488b          	th.lrhu	a7,s4,a5,1
    4b44:	41388c33          	sub	s8,a7,s3
    4b48:	22fa5c0b          	th.srh	s8,s4,a5,1
    4b4c:	00038793          	mv	a5,t2
    4b50:	a2fa480b          	th.lrhu	a6,s4,a5,1
    4b54:	41380f33          	sub	t5,a6,s3
    4b58:	22fa5f0b          	th.srh	t5,s4,a5,1
    4b5c:	00178793          	addi	a5,a5,1
    4b60:	a2fa428b          	th.lrhu	t0,s4,a5,1
    4b64:	41328ab3          	sub	s5,t0,s3
    4b68:	22fa5a8b          	th.srh	s5,s4,a5,1
    4b6c:	00178793          	addi	a5,a5,1
    4b70:	a2fa470b          	th.lrhu	a4,s4,a5,1
    4b74:	41370eb3          	sub	t4,a4,s3
    4b78:	22fa5e8b          	th.srh	t4,s4,a5,1
    4b7c:	00178793          	addi	a5,a5,1
    4b80:	a2fa430b          	th.lrhu	t1,s4,a5,1
    4b84:	41330b33          	sub	s6,t1,s3
    4b88:	22fa5b0b          	th.srh	s6,s4,a5,1
    4b8c:	00178793          	addi	a5,a5,1
    4b90:	a2fa458b          	th.lrhu	a1,s4,a5,1
    4b94:	41358933          	sub	s2,a1,s3
    4b98:	22fa590b          	th.srh	s2,s4,a5,1
    4b9c:	00178793          	addi	a5,a5,1
    4ba0:	a2fa4b8b          	th.lrhu	s7,s4,a5,1
    4ba4:	413b8fb3          	sub	t6,s7,s3
    4ba8:	22fa5f8b          	th.srh	t6,s4,a5,1
    4bac:	00178793          	addi	a5,a5,1
    4bb0:	0887f463          	bgeu	a5,s0,4c38 <core_bench_matrix+0xc60>
    4bb4:	a2fa438b          	th.lrhu	t2,s4,a5,1
    4bb8:	41338633          	sub	a2,t2,s3
    4bbc:	22fa560b          	th.srh	a2,s4,a5,1
    4bc0:	00178e13          	addi	t3,a5,1
    4bc4:	a3ca4d0b          	th.lrhu	s10,s4,t3,1
    4bc8:	413d0cb3          	sub	s9,s10,s3
    4bcc:	23ca5c8b          	th.srh	s9,s4,t3,1
    4bd0:	00278893          	addi	a7,a5,2
    4bd4:	a31a4c0b          	th.lrhu	s8,s4,a7,1
    4bd8:	413c0833          	sub	a6,s8,s3
    4bdc:	231a580b          	th.srh	a6,s4,a7,1
    4be0:	00378f13          	addi	t5,a5,3
    4be4:	a3ea428b          	th.lrhu	t0,s4,t5,1
    4be8:	41328ab3          	sub	s5,t0,s3
    4bec:	23ea5a8b          	th.srh	s5,s4,t5,1
    4bf0:	00478e93          	addi	t4,a5,4
    4bf4:	a3da470b          	th.lrhu	a4,s4,t4,1
    4bf8:	41370333          	sub	t1,a4,s3
    4bfc:	23da530b          	th.srh	t1,s4,t4,1
    4c00:	00578b13          	addi	s6,a5,5
    4c04:	a36a458b          	th.lrhu	a1,s4,s6,1
    4c08:	41358933          	sub	s2,a1,s3
    4c0c:	236a590b          	th.srh	s2,s4,s6,1
    4c10:	00678b93          	addi	s7,a5,6
    4c14:	a37a4f8b          	th.lrhu	t6,s4,s7,1
    4c18:	413f83b3          	sub	t2,t6,s3
    4c1c:	237a538b          	th.srh	t2,s4,s7,1
    4c20:	00778613          	addi	a2,a5,7
    4c24:	a2ca4e0b          	th.lrhu	t3,s4,a2,1
    4c28:	413e0d33          	sub	s10,t3,s3
    4c2c:	22ca5d0b          	th.srh	s10,s4,a2,1
    4c30:	00878793          	addi	a5,a5,8
    4c34:	f887e0e3          	bltu	a5,s0,4bb4 <core_bench_matrix+0xbdc>
    4c38:	00168693          	addi	a3,a3,1
    4c3c:	009a0a33          	add	s4,s4,s1
    4c40:	ea86eae3          	bltu	a3,s0,4af4 <core_bench_matrix+0xb1c>
    4c44:	03812403          	lw	s0,56(sp)
    4c48:	03412483          	lw	s1,52(sp)
    4c4c:	03012903          	lw	s2,48(sp)
    4c50:	02c12983          	lw	s3,44(sp)
    4c54:	02812a03          	lw	s4,40(sp)
    4c58:	02412a83          	lw	s5,36(sp)
    4c5c:	02012b03          	lw	s6,32(sp)
    4c60:	01c12b83          	lw	s7,28(sp)
    4c64:	01812c03          	lw	s8,24(sp)
    4c68:	01412c83          	lw	s9,20(sp)
    4c6c:	01012d03          	lw	s10,16(sp)
    4c70:	000d8593          	mv	a1,s11
    4c74:	3c05250b          	th.ext	a0,a0,15,0
    4c78:	03c12083          	lw	ra,60(sp)
    4c7c:	00c12d83          	lw	s11,12(sp)
    4c80:	04010113          	addi	sp,sp,64
    4c84:	0540306f          	j	7cd8 <crc16>
    4c88:	00000593          	li	a1,0
    4c8c:	00000513          	li	a0,0
    4c90:	048030ef          	jal	7cd8 <crc16>
    4c94:	00050593          	mv	a1,a0
    4c98:	00000513          	li	a0,0
    4c9c:	03c030ef          	jal	7cd8 <crc16>
    4ca0:	00050593          	mv	a1,a0
    4ca4:	00000513          	li	a0,0
    4ca8:	030030ef          	jal	7cd8 <crc16>
    4cac:	00050593          	mv	a1,a0
    4cb0:	00000513          	li	a0,0
    4cb4:	024030ef          	jal	7cd8 <crc16>
    4cb8:	000d8593          	mv	a1,s11
    4cbc:	3c05250b          	th.ext	a0,a0,15,0
    4cc0:	03c12083          	lw	ra,60(sp)
    4cc4:	00c12d83          	lw	s11,12(sp)
    4cc8:	04010113          	addi	sp,sp,64
    4ccc:	00c0306f          	j	7cd8 <crc16>

00004cd0 <matrix_test>:
    4cd0:	fc010113          	addi	sp,sp,-64
    4cd4:	02112e23          	sw	ra,60(sp)
    4cd8:	48050ce3          	beqz	a0,5970 <matrix_test+0xca0>
    4cdc:	02812c23          	sw	s0,56(sp)
    4ce0:	02912a23          	sw	s1,52(sp)
    4ce4:	03212823          	sw	s2,48(sp)
    4ce8:	03312623          	sw	s3,44(sp)
    4cec:	03412423          	sw	s4,40(sp)
    4cf0:	03512223          	sw	s5,36(sp)
    4cf4:	03612023          	sw	s6,32(sp)
    4cf8:	01712e23          	sw	s7,28(sp)
    4cfc:	01812c23          	sw	s8,24(sp)
    4d00:	01912a23          	sw	s9,20(sp)
    4d04:	01a12823          	sw	s10,16(sp)
    4d08:	01b12623          	sw	s11,12(sp)
    4d0c:	00058c93          	mv	s9,a1
    4d10:	00060c13          	mv	s8,a2
    4d14:	00068a93          	mv	s5,a3
    4d18:	00070993          	mv	s3,a4
    4d1c:	fffff937          	lui	s2,0xfffff
    4d20:	01276933          	or	s2,a4,s2
    4d24:	00151413          	slli	s0,a0,0x1
    4d28:	00060a13          	mv	s4,a2
    4d2c:	20c526b3          	sh1add	a3,a0,a2
    4d30:	00000d13          	li	s10,0
    4d34:	408687b3          	sub	a5,a3,s0
    4d38:	ffe40713          	addi	a4,s0,-2
    4d3c:	00175293          	srli	t0,a4,0x1
    4d40:	00128313          	addi	t1,t0,1
    4d44:	00737393          	andi	t2,t1,7
    4d48:	0a038463          	beqz	t2,4df0 <matrix_test+0x120>
    4d4c:	00100613          	li	a2,1
    4d50:	08c38663          	beq	t2,a2,4ddc <matrix_test+0x10c>
    4d54:	00200493          	li	s1,2
    4d58:	06938a63          	beq	t2,s1,4dcc <matrix_test+0xfc>
    4d5c:	00300593          	li	a1,3
    4d60:	04b38e63          	beq	t2,a1,4dbc <matrix_test+0xec>
    4d64:	00400813          	li	a6,4
    4d68:	05038263          	beq	t2,a6,4dac <matrix_test+0xdc>
    4d6c:	00500893          	li	a7,5
    4d70:	03138663          	beq	t2,a7,4d9c <matrix_test+0xcc>
    4d74:	00600b13          	li	s6,6
    4d78:	01638a63          	beq	t2,s6,4d8c <matrix_test+0xbc>
    4d7c:	0007db83          	lhu	s7,0(a5)
    4d80:	01798db3          	add	s11,s3,s7
    4d84:	01b79023          	sh	s11,0(a5)
    4d88:	00278793          	addi	a5,a5,2
    4d8c:	0007de03          	lhu	t3,0(a5)
    4d90:	01c98eb3          	add	t4,s3,t3
    4d94:	01d79023          	sh	t4,0(a5)
    4d98:	00278793          	addi	a5,a5,2
    4d9c:	0007df03          	lhu	t5,0(a5)
    4da0:	01e98fb3          	add	t6,s3,t5
    4da4:	01f79023          	sh	t6,0(a5)
    4da8:	00278793          	addi	a5,a5,2
    4dac:	0007d703          	lhu	a4,0(a5)
    4db0:	00e982b3          	add	t0,s3,a4
    4db4:	00579023          	sh	t0,0(a5)
    4db8:	00278793          	addi	a5,a5,2
    4dbc:	0007d303          	lhu	t1,0(a5)
    4dc0:	006983b3          	add	t2,s3,t1
    4dc4:	00779023          	sh	t2,0(a5)
    4dc8:	00278793          	addi	a5,a5,2
    4dcc:	0007d603          	lhu	a2,0(a5)
    4dd0:	00c984b3          	add	s1,s3,a2
    4dd4:	00979023          	sh	s1,0(a5)
    4dd8:	00278793          	addi	a5,a5,2
    4ddc:	0007d583          	lhu	a1,0(a5)
    4de0:	00b98833          	add	a6,s3,a1
    4de4:	01079023          	sh	a6,0(a5)
    4de8:	00278793          	addi	a5,a5,2
    4dec:	06f68663          	beq	a3,a5,4e58 <matrix_test+0x188>
    4df0:	0007d883          	lhu	a7,0(a5)
    4df4:	01198b33          	add	s6,s3,a7
    4df8:	01679023          	sh	s6,0(a5)
    4dfc:	0027db83          	lhu	s7,2(a5)
    4e00:	01798db3          	add	s11,s3,s7
    4e04:	01b79123          	sh	s11,2(a5)
    4e08:	0047de03          	lhu	t3,4(a5)
    4e0c:	01c98eb3          	add	t4,s3,t3
    4e10:	01d79223          	sh	t4,4(a5)
    4e14:	0067df03          	lhu	t5,6(a5)
    4e18:	01e98fb3          	add	t6,s3,t5
    4e1c:	01f79323          	sh	t6,6(a5)
    4e20:	0087d703          	lhu	a4,8(a5)
    4e24:	00e982b3          	add	t0,s3,a4
    4e28:	00579423          	sh	t0,8(a5)
    4e2c:	00a7d303          	lhu	t1,10(a5)
    4e30:	006983b3          	add	t2,s3,t1
    4e34:	00779523          	sh	t2,10(a5)
    4e38:	00c7d603          	lhu	a2,12(a5)
    4e3c:	00c984b3          	add	s1,s3,a2
    4e40:	00979623          	sh	s1,12(a5)
    4e44:	00e7d583          	lhu	a1,14(a5)
    4e48:	00b98833          	add	a6,s3,a1
    4e4c:	01079723          	sh	a6,14(a5)
    4e50:	01078793          	addi	a5,a5,16
    4e54:	f8f69ee3          	bne	a3,a5,4df0 <matrix_test+0x120>
    4e58:	001d0493          	addi	s1,s10,1
    4e5c:	008686b3          	add	a3,a3,s0
    4e60:	00950663          	beq	a0,s1,4e6c <matrix_test+0x19c>
    4e64:	00048d13          	mv	s10,s1
    4e68:	ecdff06f          	j	4d34 <matrix_test+0x64>
    4e6c:	00249b93          	slli	s7,s1,0x2
    4e70:	000c8b13          	mv	s6,s9
    4e74:	000c8613          	mv	a2,s9
    4e78:	000c0693          	mv	a3,s8
    4e7c:	00000593          	li	a1,0
    4e80:	00000793          	li	a5,0
    4e84:	0074f893          	andi	a7,s1,7
    4e88:	0a088463          	beqz	a7,4f30 <matrix_test+0x260>
    4e8c:	00100513          	li	a0,1
    4e90:	08a88663          	beq	a7,a0,4f1c <matrix_test+0x24c>
    4e94:	00200d93          	li	s11,2
    4e98:	07b88a63          	beq	a7,s11,4f0c <matrix_test+0x23c>
    4e9c:	00300e13          	li	t3,3
    4ea0:	05c88e63          	beq	a7,t3,4efc <matrix_test+0x22c>
    4ea4:	00400e93          	li	t4,4
    4ea8:	05d88263          	beq	a7,t4,4eec <matrix_test+0x21c>
    4eac:	00500f13          	li	t5,5
    4eb0:	03e88663          	beq	a7,t5,4edc <matrix_test+0x20c>
    4eb4:	00600f93          	li	t6,6
    4eb8:	01f88a63          	beq	a7,t6,4ecc <matrix_test+0x1fc>
    4ebc:	22f6c70b          	th.lrh	a4,a3,a5,1
    4ec0:	033702b3          	mul	t0,a4,s3
    4ec4:	44f6528b          	th.srw	t0,a2,a5,2
    4ec8:	00050793          	mv	a5,a0
    4ecc:	22f6c30b          	th.lrh	t1,a3,a5,1
    4ed0:	033303b3          	mul	t2,t1,s3
    4ed4:	44f6538b          	th.srw	t2,a2,a5,2
    4ed8:	00178793          	addi	a5,a5,1
    4edc:	22f6c80b          	th.lrh	a6,a3,a5,1
    4ee0:	033808b3          	mul	a7,a6,s3
    4ee4:	44f6588b          	th.srw	a7,a2,a5,2
    4ee8:	00178793          	addi	a5,a5,1
    4eec:	22f6c50b          	th.lrh	a0,a3,a5,1
    4ef0:	03350db3          	mul	s11,a0,s3
    4ef4:	44f65d8b          	th.srw	s11,a2,a5,2
    4ef8:	00178793          	addi	a5,a5,1
    4efc:	22f6ce0b          	th.lrh	t3,a3,a5,1
    4f00:	033e0eb3          	mul	t4,t3,s3
    4f04:	44f65e8b          	th.srw	t4,a2,a5,2
    4f08:	00178793          	addi	a5,a5,1
    4f0c:	22f6cf0b          	th.lrh	t5,a3,a5,1
    4f10:	033f0fb3          	mul	t6,t5,s3
    4f14:	44f65f8b          	th.srw	t6,a2,a5,2
    4f18:	00178793          	addi	a5,a5,1
    4f1c:	22f6c70b          	th.lrh	a4,a3,a5,1
    4f20:	033702b3          	mul	t0,a4,s3
    4f24:	44f6528b          	th.srw	t0,a2,a5,2
    4f28:	00178793          	addi	a5,a5,1
    4f2c:	08978463          	beq	a5,s1,4fb4 <matrix_test+0x2e4>
    4f30:	22f6c30b          	th.lrh	t1,a3,a5,1
    4f34:	033303b3          	mul	t2,t1,s3
    4f38:	44f6538b          	th.srw	t2,a2,a5,2
    4f3c:	00178813          	addi	a6,a5,1
    4f40:	2306c88b          	th.lrh	a7,a3,a6,1
    4f44:	03388533          	mul	a0,a7,s3
    4f48:	4506550b          	th.srw	a0,a2,a6,2
    4f4c:	00278d93          	addi	s11,a5,2
    4f50:	23b6ce0b          	th.lrh	t3,a3,s11,1
    4f54:	033e0eb3          	mul	t4,t3,s3
    4f58:	45b65e8b          	th.srw	t4,a2,s11,2
    4f5c:	00378f13          	addi	t5,a5,3
    4f60:	23e6cf8b          	th.lrh	t6,a3,t5,1
    4f64:	033f8733          	mul	a4,t6,s3
    4f68:	45e6570b          	th.srw	a4,a2,t5,2
    4f6c:	00478293          	addi	t0,a5,4
    4f70:	2256c30b          	th.lrh	t1,a3,t0,1
    4f74:	033303b3          	mul	t2,t1,s3
    4f78:	4456538b          	th.srw	t2,a2,t0,2
    4f7c:	00578813          	addi	a6,a5,5
    4f80:	2306c88b          	th.lrh	a7,a3,a6,1
    4f84:	03388533          	mul	a0,a7,s3
    4f88:	4506550b          	th.srw	a0,a2,a6,2
    4f8c:	00678d93          	addi	s11,a5,6
    4f90:	23b6ce0b          	th.lrh	t3,a3,s11,1
    4f94:	033e0eb3          	mul	t4,t3,s3
    4f98:	45b65e8b          	th.srw	t4,a2,s11,2
    4f9c:	00778f13          	addi	t5,a5,7
    4fa0:	23e6cf8b          	th.lrh	t6,a3,t5,1
    4fa4:	033f8733          	mul	a4,t6,s3
    4fa8:	45e6570b          	th.srw	a4,a2,t5,2
    4fac:	00878793          	addi	a5,a5,8
    4fb0:	f89790e3          	bne	a5,s1,4f30 <matrix_test+0x260>
    4fb4:	008686b3          	add	a3,a3,s0
    4fb8:	01760633          	add	a2,a2,s7
    4fbc:	01a58663          	beq	a1,s10,4fc8 <matrix_test+0x2f8>
    4fc0:	00158593          	addi	a1,a1,1
    4fc4:	ebdff06f          	j	4e80 <matrix_test+0x1b0>
    4fc8:	017c85b3          	add	a1,s9,s7
    4fcc:	00000293          	li	t0,0
    4fd0:	00000e13          	li	t3,0
    4fd4:	00000513          	li	a0,0
    4fd8:	00000f13          	li	t5,0
    4fdc:	417587b3          	sub	a5,a1,s7
    4fe0:	00028693          	mv	a3,t0
    4fe4:	0007a283          	lw	t0,0(a5)
    4fe8:	005e0e33          	add	t3,t3,t0
    4fec:	03c94463          	blt	s2,t3,5014 <matrix_test+0x344>
    4ff0:	0056a333          	slt	t1,a3,t0
    4ff4:	006503b3          	add	t2,a0,t1
    4ff8:	3c03a50b          	th.ext	a0,t2,15,0
    4ffc:	00478793          	addi	a5,a5,4
    5000:	02f58a63          	beq	a1,a5,5034 <matrix_test+0x364>
    5004:	00028693          	mv	a3,t0
    5008:	0007a283          	lw	t0,0(a5)
    500c:	005e0e33          	add	t3,t3,t0
    5010:	ffc950e3          	bge	s2,t3,4ff0 <matrix_test+0x320>
    5014:	00a50893          	addi	a7,a0,10
    5018:	3c08a50b          	th.ext	a0,a7,15,0
    501c:	00478793          	addi	a5,a5,4
    5020:	00f58863          	beq	a1,a5,5030 <matrix_test+0x360>
    5024:	00000e13          	li	t3,0
    5028:	00028693          	mv	a3,t0
    502c:	fddff06f          	j	5008 <matrix_test+0x338>
    5030:	00000e13          	li	t3,0
    5034:	001f0d93          	addi	s11,t5,1
    5038:	017585b3          	add	a1,a1,s7
    503c:	01ed0663          	beq	s10,t5,5048 <matrix_test+0x378>
    5040:	000d8f13          	mv	t5,s11
    5044:	f99ff06f          	j	4fdc <matrix_test+0x30c>
    5048:	00000593          	li	a1,0
    504c:	48d020ef          	jal	7cd8 <crc16>
    5050:	00050593          	mv	a1,a0
    5054:	000c0613          	mv	a2,s8
    5058:	00000513          	li	a0,0
    505c:	00000693          	li	a3,0
    5060:	00000793          	li	a5,0
    5064:	007dfe93          	andi	t4,s11,7
    5068:	0c0e8063          	beqz	t4,5128 <matrix_test+0x458>
    506c:	00100813          	li	a6,1
    5070:	0b0e8063          	beq	t4,a6,5110 <matrix_test+0x440>
    5074:	00200f13          	li	t5,2
    5078:	09ee8263          	beq	t4,t5,50fc <matrix_test+0x42c>
    507c:	00300f93          	li	t6,3
    5080:	07fe8463          	beq	t4,t6,50e8 <matrix_test+0x418>
    5084:	00400713          	li	a4,4
    5088:	04ee8663          	beq	t4,a4,50d4 <matrix_test+0x404>
    508c:	00500293          	li	t0,5
    5090:	025e8863          	beq	t4,t0,50c0 <matrix_test+0x3f0>
    5094:	00600313          	li	t1,6
    5098:	006e8a63          	beq	t4,t1,50ac <matrix_test+0x3dc>
    509c:	22d6438b          	th.lrh	t2,a2,a3,1
    50a0:	22dac68b          	th.lrh	a3,s5,a3,1
    50a4:	02d386b3          	mul	a3,t2,a3
    50a8:	00080793          	mv	a5,a6
    50ac:	22f6488b          	th.lrh	a7,a2,a5,1
    50b0:	22face0b          	th.lrh	t3,s5,a5,1
    50b4:	03c88eb3          	mul	t4,a7,t3
    50b8:	01d686b3          	add	a3,a3,t4
    50bc:	00178793          	addi	a5,a5,1
    50c0:	22f64f0b          	th.lrh	t5,a2,a5,1
    50c4:	22fac80b          	th.lrh	a6,s5,a5,1
    50c8:	030f0fb3          	mul	t6,t5,a6
    50cc:	01f686b3          	add	a3,a3,t6
    50d0:	00178793          	addi	a5,a5,1
    50d4:	22f6470b          	th.lrh	a4,a2,a5,1
    50d8:	22fac28b          	th.lrh	t0,s5,a5,1
    50dc:	02570333          	mul	t1,a4,t0
    50e0:	006686b3          	add	a3,a3,t1
    50e4:	00178793          	addi	a5,a5,1
    50e8:	22f6438b          	th.lrh	t2,a2,a5,1
    50ec:	22fac88b          	th.lrh	a7,s5,a5,1
    50f0:	03138e33          	mul	t3,t2,a7
    50f4:	01c686b3          	add	a3,a3,t3
    50f8:	00178793          	addi	a5,a5,1
    50fc:	22f64e8b          	th.lrh	t4,a2,a5,1
    5100:	22facf0b          	th.lrh	t5,s5,a5,1
    5104:	03ee8833          	mul	a6,t4,t5
    5108:	010686b3          	add	a3,a3,a6
    510c:	00178793          	addi	a5,a5,1
    5110:	22f64f8b          	th.lrh	t6,a2,a5,1
    5114:	22fac70b          	th.lrh	a4,s5,a5,1
    5118:	02ef82b3          	mul	t0,t6,a4
    511c:	005686b3          	add	a3,a3,t0
    5120:	00178793          	addi	a5,a5,1
    5124:	0afd8463          	beq	s11,a5,51cc <matrix_test+0x4fc>
    5128:	22f6430b          	th.lrh	t1,a2,a5,1
    512c:	22fac38b          	th.lrh	t2,s5,a5,1
    5130:	027308b3          	mul	a7,t1,t2
    5134:	01168e33          	add	t3,a3,a7
    5138:	00178e93          	addi	t4,a5,1
    513c:	23d64f0b          	th.lrh	t5,a2,t4,1
    5140:	23dac80b          	th.lrh	a6,s5,t4,1
    5144:	030f0fb3          	mul	t6,t5,a6
    5148:	01fe0733          	add	a4,t3,t6
    514c:	00278293          	addi	t0,a5,2
    5150:	2256468b          	th.lrh	a3,a2,t0,1
    5154:	225ac30b          	th.lrh	t1,s5,t0,1
    5158:	026683b3          	mul	t2,a3,t1
    515c:	007708b3          	add	a7,a4,t2
    5160:	00378e13          	addi	t3,a5,3
    5164:	23c64e8b          	th.lrh	t4,a2,t3,1
    5168:	23cacf0b          	th.lrh	t5,s5,t3,1
    516c:	03ee8833          	mul	a6,t4,t5
    5170:	01088fb3          	add	t6,a7,a6
    5174:	00478713          	addi	a4,a5,4
    5178:	22e6428b          	th.lrh	t0,a2,a4,1
    517c:	22eac68b          	th.lrh	a3,s5,a4,1
    5180:	02d28333          	mul	t1,t0,a3
    5184:	006f83b3          	add	t2,t6,t1
    5188:	00578893          	addi	a7,a5,5
    518c:	23164e0b          	th.lrh	t3,a2,a7,1
    5190:	231ace8b          	th.lrh	t4,s5,a7,1
    5194:	03de0f33          	mul	t5,t3,t4
    5198:	01e38fb3          	add	t6,t2,t5
    519c:	00678813          	addi	a6,a5,6
    51a0:	2306470b          	th.lrh	a4,a2,a6,1
    51a4:	230ac28b          	th.lrh	t0,s5,a6,1
    51a8:	025706b3          	mul	a3,a4,t0
    51ac:	00df8333          	add	t1,t6,a3
    51b0:	00778393          	addi	t2,a5,7
    51b4:	2276488b          	th.lrh	a7,a2,t2,1
    51b8:	227ace0b          	th.lrh	t3,s5,t2,1
    51bc:	03c88eb3          	mul	t4,a7,t3
    51c0:	01d306b3          	add	a3,t1,t4
    51c4:	00878793          	addi	a5,a5,8
    51c8:	f6fd90e3          	bne	s11,a5,5128 <matrix_test+0x458>
    51cc:	44acd68b          	th.srw	a3,s9,a0,2
    51d0:	00860633          	add	a2,a2,s0
    51d4:	00ad0663          	beq	s10,a0,51e0 <matrix_test+0x510>
    51d8:	00150513          	addi	a0,a0,1
    51dc:	e81ff06f          	j	505c <matrix_test+0x38c>
    51e0:	000c8513          	mv	a0,s9
    51e4:	00000d13          	li	s10,0
    51e8:	00000293          	li	t0,0
    51ec:	00000713          	li	a4,0
    51f0:	00000693          	li	a3,0
    51f4:	000d0613          	mv	a2,s10
    51f8:	00000793          	li	a5,0
    51fc:	44f54d0b          	th.lrw	s10,a0,a5,2
    5200:	01a282b3          	add	t0,t0,s10
    5204:	02594463          	blt	s2,t0,522c <matrix_test+0x55c>
    5208:	01a62db3          	slt	s11,a2,s10
    520c:	01b70f33          	add	t5,a4,s11
    5210:	3c0f270b          	th.ext	a4,t5,15,0
    5214:	00178793          	addi	a5,a5,1
    5218:	0297fa63          	bgeu	a5,s1,524c <matrix_test+0x57c>
    521c:	000d0613          	mv	a2,s10
    5220:	44f54d0b          	th.lrw	s10,a0,a5,2
    5224:	01a282b3          	add	t0,t0,s10
    5228:	fe5950e3          	bge	s2,t0,5208 <matrix_test+0x538>
    522c:	00a70f93          	addi	t6,a4,10
    5230:	3c0fa70b          	th.ext	a4,t6,15,0
    5234:	00178793          	addi	a5,a5,1
    5238:	0097f863          	bgeu	a5,s1,5248 <matrix_test+0x578>
    523c:	00000293          	li	t0,0
    5240:	000d0613          	mv	a2,s10
    5244:	fddff06f          	j	5220 <matrix_test+0x550>
    5248:	00000293          	li	t0,0
    524c:	00168693          	addi	a3,a3,1
    5250:	01750533          	add	a0,a0,s7
    5254:	fa96e0e3          	bltu	a3,s1,51f4 <matrix_test+0x524>
    5258:	00070513          	mv	a0,a4
    525c:	27d020ef          	jal	7cd8 <crc16>
    5260:	00050593          	mv	a1,a0
    5264:	000c0813          	mv	a6,s8
    5268:	000c8e13          	mv	t3,s9
    526c:	00000e93          	li	t4,0
    5270:	000a8393          	mv	t2,s5
    5274:	00000313          	li	t1,0
    5278:	fff48893          	addi	a7,s1,-1
    527c:	0078f613          	andi	a2,a7,7
    5280:	00081d03          	lh	s10,0(a6)
    5284:	00039d83          	lh	s11,0(t2)
    5288:	03bd06b3          	mul	a3,s10,s11
    528c:	00100793          	li	a5,1
    5290:	00838733          	add	a4,t2,s0
    5294:	1897fa63          	bgeu	a5,s1,5428 <matrix_test+0x758>
    5298:	0c060e63          	beqz	a2,5374 <matrix_test+0x6a4>
    529c:	0af60e63          	beq	a2,a5,5358 <matrix_test+0x688>
    52a0:	00200f13          	li	t5,2
    52a4:	09e60e63          	beq	a2,t5,5340 <matrix_test+0x670>
    52a8:	00300f93          	li	t6,3
    52ac:	07f60e63          	beq	a2,t6,5328 <matrix_test+0x658>
    52b0:	00400293          	li	t0,4
    52b4:	04560e63          	beq	a2,t0,5310 <matrix_test+0x640>
    52b8:	00500513          	li	a0,5
    52bc:	02a60e63          	beq	a2,a0,52f8 <matrix_test+0x628>
    52c0:	00600893          	li	a7,6
    52c4:	01160e63          	beq	a2,a7,52e0 <matrix_test+0x610>
    52c8:	22f8478b          	th.lrh	a5,a6,a5,1
    52cc:	2083c60b          	th.lrh	a2,t2,s0,0
    52d0:	02c78d33          	mul	s10,a5,a2
    52d4:	01a686b3          	add	a3,a3,s10
    52d8:	000f0793          	mv	a5,t5
    52dc:	00870733          	add	a4,a4,s0
    52e0:	22f84d8b          	th.lrh	s11,a6,a5,1
    52e4:	00071f03          	lh	t5,0(a4)
    52e8:	03ed8fb3          	mul	t6,s11,t5
    52ec:	01f686b3          	add	a3,a3,t6
    52f0:	00178793          	addi	a5,a5,1
    52f4:	00870733          	add	a4,a4,s0
    52f8:	22f8428b          	th.lrh	t0,a6,a5,1
    52fc:	00071503          	lh	a0,0(a4)
    5300:	02a288b3          	mul	a7,t0,a0
    5304:	011686b3          	add	a3,a3,a7
    5308:	00178793          	addi	a5,a5,1
    530c:	00870733          	add	a4,a4,s0
    5310:	22f8460b          	th.lrh	a2,a6,a5,1
    5314:	00071d03          	lh	s10,0(a4)
    5318:	03a60db3          	mul	s11,a2,s10
    531c:	01b686b3          	add	a3,a3,s11
    5320:	00178793          	addi	a5,a5,1
    5324:	00870733          	add	a4,a4,s0
    5328:	22f84f0b          	th.lrh	t5,a6,a5,1
    532c:	00071f83          	lh	t6,0(a4)
    5330:	03ff02b3          	mul	t0,t5,t6
    5334:	005686b3          	add	a3,a3,t0
    5338:	00178793          	addi	a5,a5,1
    533c:	00870733          	add	a4,a4,s0
    5340:	22f8488b          	th.lrh	a7,a6,a5,1
    5344:	00071503          	lh	a0,0(a4)
    5348:	02a88633          	mul	a2,a7,a0
    534c:	00c686b3          	add	a3,a3,a2
    5350:	00178793          	addi	a5,a5,1
    5354:	00870733          	add	a4,a4,s0
    5358:	22f84d0b          	th.lrh	s10,a6,a5,1
    535c:	00071d83          	lh	s11,0(a4)
    5360:	03bd0f33          	mul	t5,s10,s11
    5364:	01e686b3          	add	a3,a3,t5
    5368:	00178793          	addi	a5,a5,1
    536c:	00870733          	add	a4,a4,s0
    5370:	0a97fc63          	bgeu	a5,s1,5428 <matrix_test+0x758>
    5374:	22f84f8b          	th.lrh	t6,a6,a5,1
    5378:	00071283          	lh	t0,0(a4)
