
D:\BaiduSyncdisk\02_icdc_workspace\.worktrees\coremark7-dmips5-20260508\YH_rv_cpu\build\sw\state_cache_cm100.elf:     file format elf32-littleriscv


Disassembly of section .text:

00000000 <_start>:
       0:	00014117          	auipc	sp,0x14
       4:	00010113          	mv	sp,sp
       8:	0000c517          	auipc	a0,0xc
       c:	76c50513          	addi	a0,a0,1900 # c774 <_data_load_start>
      10:	00010597          	auipc	a1,0x10
      14:	ff058593          	addi	a1,a1,-16 # 10000 <default_num_contexts>
      18:	00010617          	auipc	a2,0x10
      1c:	ff460613          	addi	a2,a2,-12 # 1000c <core_cached_prev_head>
      20:	00c5fc63          	bgeu	a1,a2,38 <_start+0x38>
      24:	00054283          	lbu	t0,0(a0)
      28:	00558023          	sb	t0,0(a1)
      2c:	00150513          	addi	a0,a0,1
      30:	00158593          	addi	a1,a1,1
      34:	fedff06f          	j	20 <_start+0x20>
      38:	00010517          	auipc	a0,0x10
      3c:	fd450513          	addi	a0,a0,-44 # 1000c <core_cached_prev_head>
      40:	00011597          	auipc	a1,0x11
      44:	80458593          	addi	a1,a1,-2044 # 10844 <_bss_end>
      48:	00b57863          	bgeu	a0,a1,58 <_start+0x58>
      4c:	00050023          	sb	zero,0(a0)
      50:	00150513          	addi	a0,a0,1
      54:	ff5ff06f          	j	48 <_start+0x48>
      58:	661020ef          	jal	2eb8 <main>
      5c:	0000006f          	j	5c <_start+0x5c>

00000060 <calc_func>:
      60:	fe010113          	addi	sp,sp,-32 # 13fe0 <_bss_end+0x379c>
      64:	00112e23          	sw	ra,28(sp)
      68:	00812c23          	sw	s0,24(sp)
      6c:	00051403          	lh	s0,0(a0)
      70:	48745793          	bexti	a5,s0,0x7
      74:	00078c63          	beqz	a5,8c <calc_func+0x2c>
      78:	07f47513          	andi	a0,s0,127
      7c:	01c12083          	lw	ra,28(sp)
      80:	01812403          	lw	s0,24(sp)
      84:	02010113          	addi	sp,sp,32
      88:	00008067          	ret
      8c:	00912a23          	sw	s1,20(sp)
      90:	01212823          	sw	s2,16(sp)
      94:	01312623          	sw	s3,12(sp)
      98:	00058493          	mv	s1,a1
      9c:	00050913          	mv	s2,a0
      a0:	00747693          	andi	a3,s0,7
      a4:	1834370b          	th.extu	a4,s0,6,3
      a8:	00471293          	slli	t0,a4,0x4
      ac:	00570633          	add	a2,a4,t0
      b0:	00060713          	mv	a4,a2
      b4:	0385d783          	lhu	a5,56(a1)
      b8:	06068a63          	beqz	a3,12c <calc_func+0xcc>
      bc:	00100513          	li	a0,1
      c0:	06a69063          	bne	a3,a0,120 <calc_func+0xc0>
      c4:	00078613          	mv	a2,a5
      c8:	00070593          	mv	a1,a4
      cc:	02848513          	addi	a0,s1,40
      d0:	709030ef          	jal	3fd8 <core_bench_matrix>
      d4:	00050993          	mv	s3,a0
      d8:	03c4d583          	lhu	a1,60(s1)
      dc:	00059463          	bnez	a1,e4 <calc_func+0x84>
      e0:	02a49e23          	sh	a0,60(s1)
      e4:	0384d583          	lhu	a1,56(s1)
      e8:	3d9070ef          	jal	7cc0 <crcu16>
      ec:	02a49c23          	sh	a0,56(s1)
      f0:	07f9f513          	andi	a0,s3,127
      f4:	f0047813          	andi	a6,s0,-256
      f8:	010568b3          	or	a7,a0,a6
      fc:	0808ee13          	ori	t3,a7,128
     100:	01c91023          	sh	t3,0(s2)
     104:	01412483          	lw	s1,20(sp)
     108:	01012903          	lw	s2,16(sp)
     10c:	00c12983          	lw	s3,12(sp)
     110:	01c12083          	lw	ra,28(sp)
     114:	01812403          	lw	s0,24(sp)
     118:	02010113          	addi	sp,sp,32
     11c:	00008067          	ret
     120:	3c04350b          	th.extu	a0,s0,15,0
     124:	00040993          	mv	s3,s0
     128:	fbdff06f          	j	e4 <calc_func+0x84>
     12c:	02100313          	li	t1,33
     130:	00c36463          	bltu	t1,a2,138 <calc_func+0xd8>
     134:	02200713          	li	a4,34
     138:	00249683          	lh	a3,2(s1)
     13c:	00049603          	lh	a2,0(s1)
     140:	0144a583          	lw	a1,20(s1)
     144:	0184a503          	lw	a0,24(s1)
     148:	684060ef          	jal	67cc <core_bench_state>
     14c:	00050993          	mv	s3,a0
     150:	03e4d383          	lhu	t2,62(s1)
     154:	f80398e3          	bnez	t2,e4 <calc_func+0x84>
     158:	02a49f23          	sh	a0,62(s1)
     15c:	f89ff06f          	j	e4 <calc_func+0x84>

00000160 <cmp_complex>:
     160:	fe010113          	addi	sp,sp,-32
     164:	00112e23          	sw	ra,28(sp)
     168:	00812c23          	sw	s0,24(sp)
     16c:	00912a23          	sw	s1,20(sp)
     170:	01212823          	sw	s2,16(sp)
     174:	01312623          	sw	s3,12(sp)
     178:	00058993          	mv	s3,a1
     17c:	00060493          	mv	s1,a2
     180:	00051403          	lh	s0,0(a0)
     184:	48745793          	bexti	a5,s0,0x7
     188:	02078c63          	beqz	a5,1c0 <cmp_complex+0x60>
     18c:	07f47913          	andi	s2,s0,127
     190:	00099403          	lh	s0,0(s3)
     194:	48745e93          	bexti	t4,s0,0x7
     198:	0a0e8263          	beqz	t4,23c <cmp_complex+0xdc>
     19c:	07f47493          	andi	s1,s0,127
     1a0:	40990533          	sub	a0,s2,s1
     1a4:	01c12083          	lw	ra,28(sp)
     1a8:	01812403          	lw	s0,24(sp)
     1ac:	01412483          	lw	s1,20(sp)
     1b0:	01012903          	lw	s2,16(sp)
     1b4:	00c12983          	lw	s3,12(sp)
     1b8:	02010113          	addi	sp,sp,32
     1bc:	00008067          	ret
     1c0:	01412423          	sw	s4,8(sp)
     1c4:	00050a13          	mv	s4,a0
     1c8:	00747693          	andi	a3,s0,7
     1cc:	1834370b          	th.extu	a4,s0,6,3
     1d0:	00471293          	slli	t0,a4,0x4
     1d4:	00570633          	add	a2,a4,t0
     1d8:	00060713          	mv	a4,a2
     1dc:	0384d783          	lhu	a5,56(s1)
     1e0:	12068a63          	beqz	a3,314 <cmp_complex+0x1b4>
     1e4:	00100513          	li	a0,1
     1e8:	0ea69063          	bne	a3,a0,2c8 <cmp_complex+0x168>
     1ec:	00078613          	mv	a2,a5
     1f0:	00070593          	mv	a1,a4
     1f4:	02848513          	addi	a0,s1,40
     1f8:	5e1030ef          	jal	3fd8 <core_bench_matrix>
     1fc:	00050913          	mv	s2,a0
     200:	03c4d583          	lhu	a1,60(s1)
     204:	00059463          	bnez	a1,20c <cmp_complex+0xac>
     208:	02a49e23          	sh	a0,60(s1)
     20c:	0384d583          	lhu	a1,56(s1)
     210:	2b1070ef          	jal	7cc0 <crcu16>
     214:	02a49c23          	sh	a0,56(s1)
     218:	07f97913          	andi	s2,s2,127
     21c:	f0047813          	andi	a6,s0,-256
     220:	010968b3          	or	a7,s2,a6
     224:	0808ee13          	ori	t3,a7,128
     228:	01ca1023          	sh	t3,0(s4)
     22c:	00812a03          	lw	s4,8(sp)
     230:	00099403          	lh	s0,0(s3)
     234:	48745e93          	bexti	t4,s0,0x7
     238:	f60e92e3          	bnez	t4,19c <cmp_complex+0x3c>
     23c:	01412423          	sw	s4,8(sp)
     240:	00747f13          	andi	t5,s0,7
     244:	18343f8b          	th.extu	t6,s0,6,3
     248:	004f9793          	slli	a5,t6,0x4
     24c:	00ff8a33          	add	s4,t6,a5
     250:	000a0713          	mv	a4,s4
     254:	0384d783          	lhu	a5,56(s1)
     258:	080f0463          	beqz	t5,2e0 <cmp_complex+0x180>
     25c:	00100293          	li	t0,1
     260:	065f1a63          	bne	t5,t0,2d4 <cmp_complex+0x174>
     264:	00078613          	mv	a2,a5
     268:	000a0593          	mv	a1,s4
     26c:	02848513          	addi	a0,s1,40
     270:	569030ef          	jal	3fd8 <core_bench_matrix>
     274:	00050a13          	mv	s4,a0
     278:	03c4d603          	lhu	a2,60(s1)
     27c:	00061463          	bnez	a2,284 <cmp_complex+0x124>
     280:	02a49e23          	sh	a0,60(s1)
     284:	0384d583          	lhu	a1,56(s1)
     288:	239070ef          	jal	7cc0 <crcu16>
     28c:	02a49c23          	sh	a0,56(s1)
     290:	07fa7493          	andi	s1,s4,127
     294:	f0047313          	andi	t1,s0,-256
     298:	0064e3b3          	or	t2,s1,t1
     29c:	0803e513          	ori	a0,t2,128
     2a0:	00a99023          	sh	a0,0(s3)
     2a4:	00812a03          	lw	s4,8(sp)
     2a8:	40990533          	sub	a0,s2,s1
     2ac:	01c12083          	lw	ra,28(sp)
     2b0:	01812403          	lw	s0,24(sp)
     2b4:	01412483          	lw	s1,20(sp)
     2b8:	01012903          	lw	s2,16(sp)
     2bc:	00c12983          	lw	s3,12(sp)
     2c0:	02010113          	addi	sp,sp,32
     2c4:	00008067          	ret
     2c8:	3c04350b          	th.extu	a0,s0,15,0
     2cc:	00040913          	mv	s2,s0
     2d0:	f3dff06f          	j	20c <cmp_complex+0xac>
     2d4:	3c04350b          	th.extu	a0,s0,15,0
     2d8:	00040a13          	mv	s4,s0
     2dc:	fa9ff06f          	j	284 <cmp_complex+0x124>
     2e0:	02100693          	li	a3,33
     2e4:	0146e463          	bltu	a3,s4,2ec <cmp_complex+0x18c>
     2e8:	02200713          	li	a4,34
     2ec:	00249683          	lh	a3,2(s1)
     2f0:	00049603          	lh	a2,0(s1)
     2f4:	0144a583          	lw	a1,20(s1)
     2f8:	0184a503          	lw	a0,24(s1)
     2fc:	4d0060ef          	jal	67cc <core_bench_state>
     300:	00050a13          	mv	s4,a0
     304:	03e4d703          	lhu	a4,62(s1)
     308:	f6071ee3          	bnez	a4,284 <cmp_complex+0x124>
     30c:	02a49f23          	sh	a0,62(s1)
     310:	f75ff06f          	j	284 <cmp_complex+0x124>
     314:	02100313          	li	t1,33
     318:	00c36463          	bltu	t1,a2,320 <cmp_complex+0x1c0>
     31c:	02200713          	li	a4,34
     320:	00249683          	lh	a3,2(s1)
     324:	00049603          	lh	a2,0(s1)
     328:	0144a583          	lw	a1,20(s1)
     32c:	0184a503          	lw	a0,24(s1)
     330:	49c060ef          	jal	67cc <core_bench_state>
     334:	00050913          	mv	s2,a0
     338:	03e4d383          	lhu	t2,62(s1)
     33c:	ec0398e3          	bnez	t2,20c <cmp_complex+0xac>
     340:	02a49f23          	sh	a0,62(s1)
     344:	ec9ff06f          	j	20c <cmp_complex+0xac>

00000348 <cmp_idx>:
     348:	00060a63          	beqz	a2,35c <cmp_idx+0x14>
     34c:	00251503          	lh	a0,2(a0)
     350:	00259583          	lh	a1,2(a1)
     354:	40b50533          	sub	a0,a0,a1
     358:	00008067          	ret
     35c:	00051783          	lh	a5,0(a0)
     360:	f007f713          	andi	a4,a5,-256
     364:	3c87b28b          	th.extu	t0,a5,15,8
     368:	00576333          	or	t1,a4,t0
     36c:	00651023          	sh	t1,0(a0)
     370:	00059383          	lh	t2,0(a1)
     374:	f003f613          	andi	a2,t2,-256
     378:	3c83b68b          	th.extu	a3,t2,15,8
     37c:	00d66833          	or	a6,a2,a3
     380:	01059023          	sh	a6,0(a1)
     384:	00251503          	lh	a0,2(a0)
     388:	00259583          	lh	a1,2(a1)
     38c:	40b50533          	sub	a0,a0,a1
     390:	00008067          	ret

00000394 <copy_info>:
     394:	00059783          	lh	a5,0(a1)
     398:	00f51023          	sh	a5,0(a0)
     39c:	00259283          	lh	t0,2(a1)
     3a0:	00551123          	sh	t0,2(a0)
     3a4:	00008067          	ret

000003a8 <core_bench_list>:
     3a8:	fa010113          	addi	sp,sp,-96
     3ac:	04112e23          	sw	ra,92(sp)
     3b0:	04812c23          	sw	s0,88(sp)
     3b4:	02452403          	lw	s0,36(a0)
     3b8:	00451883          	lh	a7,4(a0)
     3bc:	000107b7          	lui	a5,0x10
     3c0:	00c78293          	addi	t0,a5,12 # 1000c <core_cached_prev_head>
     3c4:	0002a703          	lw	a4,0(t0)
     3c8:	26870463          	beq	a4,s0,630 <core_bench_list+0x288>
     3cc:	00041463          	bnez	s0,3d4 <core_bench_list+0x2c>
     3d0:	3740106f          	j	1744 <core_bench_list+0x139c>
     3d4:	00040793          	mv	a5,s0
     3d8:	00000293          	li	t0,0
     3dc:	0057a223          	sw	t0,4(a5)
     3e0:	00078293          	mv	t0,a5
     3e4:	0007a683          	lw	a3,0(a5)
     3e8:	06068a63          	beqz	a3,45c <core_bench_list+0xb4>
     3ec:	00f6a223          	sw	a5,4(a3)
     3f0:	00068293          	mv	t0,a3
     3f4:	0006a603          	lw	a2,0(a3)
     3f8:	06060263          	beqz	a2,45c <core_bench_list+0xb4>
     3fc:	00d62223          	sw	a3,4(a2)
     400:	00060293          	mv	t0,a2
     404:	00062803          	lw	a6,0(a2)
     408:	04080a63          	beqz	a6,45c <core_bench_list+0xb4>
     40c:	00c82223          	sw	a2,4(a6)
     410:	00080293          	mv	t0,a6
     414:	00082e03          	lw	t3,0(a6)
     418:	040e0263          	beqz	t3,45c <core_bench_list+0xb4>
     41c:	010e2223          	sw	a6,4(t3)
     420:	000e0293          	mv	t0,t3
     424:	000e2e83          	lw	t4,0(t3)
     428:	020e8a63          	beqz	t4,45c <core_bench_list+0xb4>
     42c:	01cea223          	sw	t3,4(t4)
     430:	000e8293          	mv	t0,t4
     434:	000eaf03          	lw	t5,0(t4)
     438:	020f0263          	beqz	t5,45c <core_bench_list+0xb4>
     43c:	01df2223          	sw	t4,4(t5)
     440:	000f0293          	mv	t0,t5
     444:	000f2f83          	lw	t6,0(t5)
     448:	000f8a63          	beqz	t6,45c <core_bench_list+0xb4>
     44c:	01efa223          	sw	t5,4(t6)
     450:	000f8293          	mv	t0,t6
     454:	000fa783          	lw	a5,0(t6)
     458:	f80792e3          	bnez	a5,3dc <core_bench_list+0x34>
     45c:	00010737          	lui	a4,0x10
     460:	00c70313          	addi	t1,a4,12 # 1000c <core_cached_prev_head>
     464:	00832023          	sw	s0,0(t1)
     468:	00532223          	sw	t0,4(t1)
     46c:	0c05ca63          	bltz	a1,540 <core_bench_list+0x198>
     470:	fff88813          	addi	a6,a7,-1
     474:	0ff87613          	zext.b	a2,a6
     478:	00c12a23          	sw	a2,20(sp)
     47c:	01104463          	bgtz	a7,484 <core_bench_list+0xdc>
     480:	3140106f          	j	1794 <core_bench_list+0x13ec>
     484:	00b888b3          	add	a7,a7,a1
     488:	3c08ae0b          	th.ext	t3,a7,15,0
     48c:	01c12c23          	sw	t3,24(sp)
     490:	00041463          	bnez	s0,498 <core_bench_list+0xf0>
     494:	2980106f          	j	172c <core_bench_list+0x1384>
     498:	00058693          	mv	a3,a1
     49c:	00000793          	li	a5,0
     4a0:	00000e13          	li	t3,0
     4a4:	00000e93          	li	t4,0
     4a8:	00000613          	li	a2,0
     4ac:	06079463          	bnez	a5,514 <core_bench_list+0x16c>
     4b0:	00040793          	mv	a5,s0
     4b4:	00c0006f          	j	4c0 <core_bench_list+0x118>
     4b8:	0007a783          	lw	a5,0(a5)
     4bc:	6a078063          	beqz	a5,b5c <core_bench_list+0x7b4>
     4c0:	00a79f03          	lh	t5,10(a5)
     4c4:	fedf1ae3          	bne	t5,a3,4b8 <core_bench_list+0x110>
     4c8:	00028713          	mv	a4,t0
     4cc:	00040293          	mv	t0,s0
     4d0:	00070413          	mv	s0,a4
     4d4:	00000893          	li	a7,0
     4d8:	001e8e93          	addi	t4,t4,1
     4dc:	00879f83          	lh	t6,8(a5)
     4e0:	001ff313          	andi	t1,t6,1
     4e4:	00030663          	beqz	t1,4f0 <core_bench_list+0x148>
     4e8:	489fd393          	bexti	t2,t6,0x9
     4ec:	00760633          	add	a2,a2,t2
     4f0:	7a089663          	bnez	a7,c9c <core_bench_list+0x8f4>
     4f4:	0047a303          	lw	t1,4(a5)
     4f8:	74031863          	bnez	t1,c48 <core_bench_list+0x8a0>
     4fc:	00168393          	addi	t2,a3,1
     500:	3c03a68b          	th.ext	a3,t2,15,0
     504:	01812803          	lw	a6,24(sp)
     508:	00d81463          	bne	a6,a3,510 <core_bench_list+0x168>
     50c:	1e00106f          	j	16ec <core_bench_list+0x1344>
     510:	2e0406e3          	beqz	s0,ffc <core_bench_list+0xc54>
     514:	00040793          	mv	a5,s0
     518:	00100893          	li	a7,1
     51c:	00c0006f          	j	528 <core_bench_list+0x180>
     520:	0047a783          	lw	a5,4(a5)
     524:	62078a63          	beqz	a5,b58 <core_bench_list+0x7b0>
     528:	00a79303          	lh	t1,10(a5)
     52c:	fed31ae3          	bne	t1,a3,520 <core_bench_list+0x178>
     530:	00028393          	mv	t2,t0
     534:	00040293          	mv	t0,s0
     538:	00038413          	mv	s0,t2
     53c:	f9dff06f          	j	4d8 <core_bench_list+0x130>
     540:	11105463          	blez	a7,648 <core_bench_list+0x2a0>
     544:	00041463          	bnez	s0,54c <core_bench_list+0x1a4>
     548:	2300106f          	j	1778 <core_bench_list+0x13d0>
     54c:	00000793          	li	a5,0
     550:	00000813          	li	a6,0
     554:	00000e13          	li	t3,0
     558:	00000e93          	li	t4,0
     55c:	00012a23          	sw	zero,20(sp)
     560:	00000613          	li	a2,0
     564:	08079e63          	bnez	a5,600 <core_bench_list+0x258>
     568:	00040793          	mv	a5,s0
     56c:	00c0006f          	j	578 <core_bench_list+0x1d0>
     570:	0007a783          	lw	a5,0(a5)
     574:	78078e63          	beqz	a5,d10 <core_bench_list+0x968>
     578:	0087c383          	lbu	t2,8(a5)
     57c:	01412683          	lw	a3,20(sp)
     580:	fed398e3          	bne	t2,a3,570 <core_bench_list+0x1c8>
     584:	00028f13          	mv	t5,t0
     588:	00040293          	mv	t0,s0
     58c:	000f0413          	mv	s0,t5
     590:	00000713          	li	a4,0
     594:	001e8e93          	addi	t4,t4,1
     598:	00879303          	lh	t1,8(a5)
     59c:	00137f93          	andi	t6,t1,1
     5a0:	000f8663          	beqz	t6,5ac <core_bench_list+0x204>
     5a4:	48935693          	bexti	a3,t1,0x9
     5a8:	00d60633          	add	a2,a2,a3
     5ac:	000716e3          	bnez	a4,db8 <core_bench_list+0xa10>
     5b0:	0047a683          	lw	a3,4(a5)
     5b4:	7a068063          	beqz	a3,d54 <core_bench_list+0x9ac>
     5b8:	0046af03          	lw	t5,4(a3)
     5bc:	01e7a223          	sw	t5,4(a5)
     5c0:	000f1463          	bnez	t5,5c8 <core_bench_list+0x220>
     5c4:	1600106f          	j	1724 <core_bench_list+0x137c>
     5c8:	00ff2023          	sw	a5,0(t5)
     5cc:	00442783          	lw	a5,4(s0)
     5d0:	00f6a223          	sw	a5,4(a3)
     5d4:	0086a023          	sw	s0,0(a3)
     5d8:	00079463          	bnez	a5,5e0 <core_bench_list+0x238>
     5dc:	1280106f          	j	1704 <core_bench_list+0x135c>
     5e0:	00d7a023          	sw	a3,0(a5)
     5e4:	00d42223          	sw	a3,4(s0)
     5e8:	00180713          	addi	a4,a6,1
     5ec:	3c07280b          	th.ext	a6,a4,15,0
     5f0:	01089463          	bne	a7,a6,5f8 <core_bench_list+0x250>
     5f4:	1280106f          	j	171c <core_bench_list+0x1374>
     5f8:	0ff77f93          	zext.b	t6,a4
     5fc:	01f12a23          	sw	t6,20(sp)
     600:	00040793          	mv	a5,s0
     604:	00100713          	li	a4,1
     608:	00c0006f          	j	614 <core_bench_list+0x26c>
     60c:	0047a783          	lw	a5,4(a5)
     610:	6e078e63          	beqz	a5,d0c <core_bench_list+0x964>
     614:	0087c383          	lbu	t2,8(a5)
     618:	01412683          	lw	a3,20(sp)
     61c:	fed398e3          	bne	t2,a3,60c <core_bench_list+0x264>
     620:	00028313          	mv	t1,t0
     624:	00040293          	mv	t0,s0
     628:	00030413          	mv	s0,t1
     62c:	f69ff06f          	j	594 <core_bench_list+0x1ec>
     630:	0042a283          	lw	t0,4(t0)
     634:	d8028ce3          	beqz	t0,3cc <core_bench_list+0x24>
     638:	e205dce3          	bgez	a1,470 <core_bench_list+0xc8>
     63c:	f11044e3          	bgtz	a7,544 <core_bench_list+0x19c>
     640:	00041463          	bnez	s0,648 <core_bench_list+0x2a0>
     644:	1640106f          	j	17a8 <core_bench_list+0x1400>
     648:	00b12c23          	sw	a1,24(sp)
     64c:	00012623          	sw	zero,12(sp)
     650:	00012a23          	sw	zero,20(sp)
     654:	00040e13          	mv	t3,s0
     658:	00000293          	li	t0,0
     65c:	005e2223          	sw	t0,4(t3)
     660:	000e0293          	mv	t0,t3
     664:	000e2e03          	lw	t3,0(t3)
     668:	060e0a63          	beqz	t3,6dc <core_bench_list+0x334>
     66c:	005e2223          	sw	t0,4(t3)
     670:	000e0293          	mv	t0,t3
     674:	000e2e03          	lw	t3,0(t3)
     678:	060e0263          	beqz	t3,6dc <core_bench_list+0x334>
     67c:	005e2223          	sw	t0,4(t3)
     680:	000e0293          	mv	t0,t3
     684:	000e2e03          	lw	t3,0(t3)
     688:	040e0a63          	beqz	t3,6dc <core_bench_list+0x334>
     68c:	005e2223          	sw	t0,4(t3)
     690:	000e0293          	mv	t0,t3
     694:	000e2e03          	lw	t3,0(t3)
     698:	040e0263          	beqz	t3,6dc <core_bench_list+0x334>
     69c:	005e2223          	sw	t0,4(t3)
     6a0:	000e0293          	mv	t0,t3
     6a4:	000e2e03          	lw	t3,0(t3)
     6a8:	020e0a63          	beqz	t3,6dc <core_bench_list+0x334>
     6ac:	005e2223          	sw	t0,4(t3)
     6b0:	000e0293          	mv	t0,t3
     6b4:	000e2e03          	lw	t3,0(t3)
     6b8:	020e0263          	beqz	t3,6dc <core_bench_list+0x334>
     6bc:	005e2223          	sw	t0,4(t3)
     6c0:	000e0293          	mv	t0,t3
     6c4:	000e2e03          	lw	t3,0(t3)
     6c8:	000e0a63          	beqz	t3,6dc <core_bench_list+0x334>
     6cc:	005e2223          	sw	t0,4(t3)
     6d0:	000e0293          	mv	t0,t3
     6d4:	000e2e03          	lw	t3,0(t3)
     6d8:	f80e12e3          	bnez	t3,65c <core_bench_list+0x2b4>
     6dc:	00010eb7          	lui	t4,0x10
     6e0:	00ce8613          	addi	a2,t4,12 # 1000c <core_cached_prev_head>
     6e4:	00862023          	sw	s0,0(a2)
     6e8:	00562223          	sw	t0,4(a2)
     6ec:	18b042e3          	bgtz	a1,1070 <core_bench_list+0xcc8>
     6f0:	00042383          	lw	t2,0(s0)
     6f4:	0003a683          	lw	a3,0(t2)
     6f8:	0083a803          	lw	a6,8(t2)
     6fc:	0086af03          	lw	t5,8(a3)
     700:	01e3a423          	sw	t5,8(t2)
     704:	0106a423          	sw	a6,8(a3)
     708:	0003a783          	lw	a5,0(t2)
     70c:	0007af83          	lw	t6,0(a5)
     710:	01f3a023          	sw	t6,0(t2)
     714:	0006a023          	sw	zero,0(a3)
     718:	01812883          	lw	a7,24(sp)
     71c:	7a08c4e3          	bltz	a7,16c4 <core_bench_list+0x131c>
     720:	00040393          	mv	t2,s0
     724:	00c0006f          	j	730 <core_bench_list+0x388>
     728:	0003a383          	lw	t2,0(t2)
     72c:	780386e3          	beqz	t2,16b8 <core_bench_list+0x1310>
     730:	00a39283          	lh	t0,10(t2)
     734:	01812e03          	lw	t3,24(sp)
     738:	ffc298e3          	bne	t0,t3,728 <core_bench_list+0x380>
     73c:	00845e83          	lhu	t4,8(s0)
     740:	00c12603          	lw	a2,12(sp)
     744:	50ce858b          	.insn	4, 0x50ce858b
     748:	3c05b50b          	th.extu	a0,a1,15,0
     74c:	00a12623          	sw	a0,12(sp)
     750:	0003a383          	lw	t2,0(t2)
     754:	08038863          	beqz	t2,7e4 <core_bench_list+0x43c>
     758:	50ae880b          	.insn	4, 0x50ae880b
     75c:	3c083f0b          	th.extu	t5,a6,15,0
     760:	01e12623          	sw	t5,12(sp)
     764:	0003a783          	lw	a5,0(t2)
     768:	06078e63          	beqz	a5,7e4 <core_bench_list+0x43c>
     76c:	51ee8f8b          	.insn	4, 0x51ee8f8b
     770:	3c0fb88b          	th.extu	a7,t6,15,0
     774:	01112623          	sw	a7,12(sp)
     778:	0007a703          	lw	a4,0(a5)
     77c:	06070463          	beqz	a4,7e4 <core_bench_list+0x43c>
     780:	511e830b          	.insn	4, 0x511e830b
     784:	3c03328b          	th.extu	t0,t1,15,0
     788:	00512623          	sw	t0,12(sp)
     78c:	00072e03          	lw	t3,0(a4)
     790:	040e0a63          	beqz	t3,7e4 <core_bench_list+0x43c>
     794:	505e860b          	.insn	4, 0x505e860b
     798:	3c06358b          	th.extu	a1,a2,15,0
     79c:	00b12623          	sw	a1,12(sp)
     7a0:	000e2503          	lw	a0,0(t3)
     7a4:	04050063          	beqz	a0,7e4 <core_bench_list+0x43c>
     7a8:	50be838b          	.insn	4, 0x50be838b
     7ac:	3c03b80b          	th.extu	a6,t2,15,0
     7b0:	01012623          	sw	a6,12(sp)
     7b4:	00052f03          	lw	t5,0(a0)
     7b8:	020f0663          	beqz	t5,7e4 <core_bench_list+0x43c>
     7bc:	510e878b          	.insn	4, 0x510e878b
     7c0:	3c07bf8b          	th.extu	t6,a5,15,0
     7c4:	01f12623          	sw	t6,12(sp)
     7c8:	000f2883          	lw	a7,0(t5)
     7cc:	00088c63          	beqz	a7,7e4 <core_bench_list+0x43c>
     7d0:	51fe870b          	.insn	4, 0x51fe870b
     7d4:	3c07330b          	th.extu	t1,a4,15,0
     7d8:	00612623          	sw	t1,12(sp)
     7dc:	0008a383          	lw	t2,0(a7)
     7e0:	f60390e3          	bnez	t2,740 <core_bench_list+0x398>
     7e4:	00042383          	lw	t2,0(s0)
     7e8:	0086ae83          	lw	t4,8(a3)
     7ec:	0083a283          	lw	t0,8(t2)
     7f0:	0056a423          	sw	t0,8(a3)
     7f4:	01d3a423          	sw	t4,8(t2)
     7f8:	0003ae03          	lw	t3,0(t2)
     7fc:	01c6a023          	sw	t3,0(a3)
     800:	00d3a023          	sw	a3,0(t2)
     804:	00100893          	li	a7,1
     808:	00088e13          	mv	t3,a7
     80c:	00041463          	bnez	s0,814 <core_bench_list+0x46c>
     810:	1140106f          	j	1924 <core_bench_list+0x157c>
     814:	00000813          	li	a6,0
     818:	00000713          	li	a4,0
     81c:	00000313          	li	t1,0
     820:	00130313          	addi	t1,t1,1
     824:	00040613          	mv	a2,s0
     828:	00000793          	li	a5,0
     82c:	0078f693          	andi	a3,a7,7
     830:	08068463          	beqz	a3,8b8 <core_bench_list+0x510>
     834:	0f17d663          	bge	a5,a7,920 <core_bench_list+0x578>
     838:	00100793          	li	a5,1
     83c:	00042603          	lw	a2,0(s0)
     840:	0e060063          	beqz	a2,920 <core_bench_list+0x578>
     844:	06f68a63          	beq	a3,a5,8b8 <core_bench_list+0x510>
     848:	00200593          	li	a1,2
     84c:	06b68063          	beq	a3,a1,8ac <core_bench_list+0x504>
     850:	00300513          	li	a0,3
     854:	04a68663          	beq	a3,a0,8a0 <core_bench_list+0x4f8>
     858:	00400f13          	li	t5,4
     85c:	03e68c63          	beq	a3,t5,894 <core_bench_list+0x4ec>
     860:	00500f93          	li	t6,5
     864:	03f68263          	beq	a3,t6,888 <core_bench_list+0x4e0>
     868:	00600393          	li	t2,6
     86c:	00768863          	beq	a3,t2,87c <core_bench_list+0x4d4>
     870:	00058793          	mv	a5,a1
     874:	00062603          	lw	a2,0(a2)
     878:	0a060463          	beqz	a2,920 <core_bench_list+0x578>
     87c:	00178793          	addi	a5,a5,1
     880:	00062603          	lw	a2,0(a2)
     884:	08060e63          	beqz	a2,920 <core_bench_list+0x578>
     888:	00178793          	addi	a5,a5,1
     88c:	00062603          	lw	a2,0(a2)
     890:	08060863          	beqz	a2,920 <core_bench_list+0x578>
     894:	00178793          	addi	a5,a5,1
     898:	00062603          	lw	a2,0(a2)
     89c:	08060263          	beqz	a2,920 <core_bench_list+0x578>
     8a0:	00178793          	addi	a5,a5,1
     8a4:	00062603          	lw	a2,0(a2)
     8a8:	06060c63          	beqz	a2,920 <core_bench_list+0x578>
     8ac:	00178793          	addi	a5,a5,1
     8b0:	00062603          	lw	a2,0(a2)
     8b4:	06060663          	beqz	a2,920 <core_bench_list+0x578>
     8b8:	0717d463          	bge	a5,a7,920 <core_bench_list+0x578>
     8bc:	00178793          	addi	a5,a5,1
     8c0:	00078e93          	mv	t4,a5
     8c4:	00062603          	lw	a2,0(a2)
     8c8:	04060c63          	beqz	a2,920 <core_bench_list+0x578>
     8cc:	00178793          	addi	a5,a5,1
     8d0:	00062603          	lw	a2,0(a2)
     8d4:	04060663          	beqz	a2,920 <core_bench_list+0x578>
     8d8:	002e8793          	addi	a5,t4,2
     8dc:	00062603          	lw	a2,0(a2)
     8e0:	04060063          	beqz	a2,920 <core_bench_list+0x578>
     8e4:	003e8793          	addi	a5,t4,3
     8e8:	00062603          	lw	a2,0(a2)
     8ec:	02060a63          	beqz	a2,920 <core_bench_list+0x578>
     8f0:	004e8793          	addi	a5,t4,4
     8f4:	00062603          	lw	a2,0(a2)
     8f8:	02060463          	beqz	a2,920 <core_bench_list+0x578>
     8fc:	005e8793          	addi	a5,t4,5
     900:	00062603          	lw	a2,0(a2)
     904:	00060e63          	beqz	a2,920 <core_bench_list+0x578>
     908:	006e8793          	addi	a5,t4,6
     90c:	00062603          	lw	a2,0(a2)
     910:	00060863          	beqz	a2,920 <core_bench_list+0x578>
     914:	007e8793          	addi	a5,t4,7
     918:	00062603          	lw	a2,0(a2)
     91c:	f8061ee3          	bnez	a2,8b8 <core_bench_list+0x510>
     920:	00088513          	mv	a0,a7
     924:	00070693          	mv	a3,a4
     928:	00040713          	mv	a4,s0
     92c:	00060413          	mv	s0,a2
     930:	04f05e63          	blez	a5,98c <core_bench_list+0x5e4>
     934:	4a050663          	beqz	a0,de0 <core_bench_list+0xa38>
     938:	52040c63          	beqz	s0,e70 <core_bench_list+0xac8>
     93c:	00871f03          	lh	t5,8(a4)
     940:	f00f7593          	andi	a1,t5,-256
     944:	3c8f3f8b          	th.extu	t6,t5,15,8
     948:	01f5e3b3          	or	t2,a1,t6
     94c:	00771423          	sh	t2,8(a4)
     950:	00841e83          	lh	t4,8(s0)
     954:	f00ef293          	andi	t0,t4,-256
     958:	3c8eb60b          	th.extu	a2,t4,15,8
     95c:	00c2ef33          	or	t5,t0,a2
     960:	01e41423          	sh	t5,8(s0)
     964:	00a71583          	lh	a1,10(a4)
     968:	00a41f83          	lh	t6,10(s0)
     96c:	4abfd463          	bge	t6,a1,e14 <core_bench_list+0xa6c>
     970:	00042383          	lw	t2,0(s0)
     974:	fff50513          	addi	a0,a0,-1
     978:	4a068e63          	beqz	a3,e34 <core_bench_list+0xa8c>
     97c:	0086a023          	sw	s0,0(a3)
     980:	00040693          	mv	a3,s0
     984:	00038413          	mv	s0,t2
     988:	faf046e3          	bgtz	a5,934 <core_bench_list+0x58c>
     98c:	4ca05c63          	blez	a0,e64 <core_bench_list+0xabc>
     990:	1a040a63          	beqz	s0,b44 <core_bench_list+0x79c>
     994:	fa0794e3          	bnez	a5,93c <core_bench_list+0x594>
     998:	fff50293          	addi	t0,a0,-1
     99c:	0072f793          	andi	a5,t0,7
     9a0:	0e078c63          	beqz	a5,a98 <core_bench_list+0x6f0>
     9a4:	00042703          	lw	a4,0(s0)
     9a8:	00028513          	mv	a0,t0
     9ac:	56068663          	beqz	a3,f18 <core_bench_list+0xb70>
     9b0:	0086a023          	sw	s0,0(a3)
     9b4:	00040693          	mv	a3,s0
     9b8:	18070663          	beqz	a4,b44 <core_bench_list+0x79c>
     9bc:	00070413          	mv	s0,a4
     9c0:	00100613          	li	a2,1
     9c4:	0cc78a63          	beq	a5,a2,a98 <core_bench_list+0x6f0>
     9c8:	00200f13          	li	t5,2
     9cc:	0be78863          	beq	a5,t5,a7c <core_bench_list+0x6d4>
     9d0:	00300593          	li	a1,3
     9d4:	08b78663          	beq	a5,a1,a60 <core_bench_list+0x6b8>
     9d8:	00400f93          	li	t6,4
     9dc:	07f78463          	beq	a5,t6,a44 <core_bench_list+0x69c>
     9e0:	00500393          	li	t2,5
     9e4:	04778263          	beq	a5,t2,a28 <core_bench_list+0x680>
     9e8:	00600e93          	li	t4,6
     9ec:	03d78063          	beq	a5,t4,a0c <core_bench_list+0x664>
     9f0:	00072283          	lw	t0,0(a4)
     9f4:	fff50513          	addi	a0,a0,-1
     9f8:	5e068063          	beqz	a3,fd8 <core_bench_list+0xc30>
     9fc:	00e6a023          	sw	a4,0(a3)
     a00:	00040693          	mv	a3,s0
     a04:	14028063          	beqz	t0,b44 <core_bench_list+0x79c>
     a08:	00028413          	mv	s0,t0
     a0c:	00042783          	lw	a5,0(s0)
     a10:	fff50513          	addi	a0,a0,-1
     a14:	52068663          	beqz	a3,f40 <core_bench_list+0xb98>
     a18:	0086a023          	sw	s0,0(a3)
     a1c:	00040693          	mv	a3,s0
     a20:	12078263          	beqz	a5,b44 <core_bench_list+0x79c>
     a24:	00078413          	mv	s0,a5
     a28:	00042703          	lw	a4,0(s0)
     a2c:	fff50513          	addi	a0,a0,-1
     a30:	50068463          	beqz	a3,f38 <core_bench_list+0xb90>
     a34:	0086a023          	sw	s0,0(a3)
     a38:	00040693          	mv	a3,s0
     a3c:	10070463          	beqz	a4,b44 <core_bench_list+0x79c>
     a40:	00070413          	mv	s0,a4
     a44:	00042603          	lw	a2,0(s0)
     a48:	fff50513          	addi	a0,a0,-1
     a4c:	4e068263          	beqz	a3,f30 <core_bench_list+0xb88>
     a50:	0086a023          	sw	s0,0(a3)
     a54:	00040693          	mv	a3,s0
     a58:	0e060663          	beqz	a2,b44 <core_bench_list+0x79c>
     a5c:	00060413          	mv	s0,a2
     a60:	00042f03          	lw	t5,0(s0)
     a64:	fff50513          	addi	a0,a0,-1
     a68:	4c068063          	beqz	a3,f28 <core_bench_list+0xb80>
     a6c:	0086a023          	sw	s0,0(a3)
     a70:	00040693          	mv	a3,s0
     a74:	0c0f0863          	beqz	t5,b44 <core_bench_list+0x79c>
     a78:	000f0413          	mv	s0,t5
     a7c:	00042583          	lw	a1,0(s0)
     a80:	fff50513          	addi	a0,a0,-1
     a84:	48068e63          	beqz	a3,f20 <core_bench_list+0xb78>
     a88:	0086a023          	sw	s0,0(a3)
     a8c:	00040693          	mv	a3,s0
     a90:	0a058a63          	beqz	a1,b44 <core_bench_list+0x79c>
     a94:	00058413          	mv	s0,a1
     a98:	00042f83          	lw	t6,0(s0)
     a9c:	fff50513          	addi	a0,a0,-1
     aa0:	42068463          	beqz	a3,ec8 <core_bench_list+0xb20>
     aa4:	0086a023          	sw	s0,0(a3)
     aa8:	42050463          	beqz	a0,ed0 <core_bench_list+0xb28>
     aac:	00040693          	mv	a3,s0
     ab0:	080f8a63          	beqz	t6,b44 <core_bench_list+0x79c>
     ab4:	000fa383          	lw	t2,0(t6)
     ab8:	42040463          	beqz	s0,ee0 <core_bench_list+0xb38>
     abc:	01f42023          	sw	t6,0(s0)
     ac0:	000f8693          	mv	a3,t6
     ac4:	08038063          	beqz	t2,b44 <core_bench_list+0x79c>
     ac8:	0003a403          	lw	s0,0(t2)
     acc:	400f8e63          	beqz	t6,ee8 <core_bench_list+0xb40>
     ad0:	007fa023          	sw	t2,0(t6)
     ad4:	00038693          	mv	a3,t2
     ad8:	06040663          	beqz	s0,b44 <core_bench_list+0x79c>
     adc:	00042e83          	lw	t4,0(s0)
     ae0:	40038863          	beqz	t2,ef0 <core_bench_list+0xb48>
     ae4:	0083a023          	sw	s0,0(t2)
     ae8:	00040693          	mv	a3,s0
     aec:	040e8c63          	beqz	t4,b44 <core_bench_list+0x79c>
     af0:	000ea283          	lw	t0,0(t4)
     af4:	40040263          	beqz	s0,ef8 <core_bench_list+0xb50>
     af8:	01d42023          	sw	t4,0(s0)
     afc:	000e8693          	mv	a3,t4
     b00:	04028263          	beqz	t0,b44 <core_bench_list+0x79c>
     b04:	0002a603          	lw	a2,0(t0)
     b08:	3e0e8c63          	beqz	t4,f00 <core_bench_list+0xb58>
     b0c:	005ea023          	sw	t0,0(t4)
     b10:	00028693          	mv	a3,t0
     b14:	02060863          	beqz	a2,b44 <core_bench_list+0x79c>
     b18:	00062783          	lw	a5,0(a2)
     b1c:	3e028663          	beqz	t0,f08 <core_bench_list+0xb60>
     b20:	00c2a023          	sw	a2,0(t0)
     b24:	00060693          	mv	a3,a2
     b28:	00078e63          	beqz	a5,b44 <core_bench_list+0x79c>
     b2c:	0007a403          	lw	s0,0(a5)
     b30:	ff950513          	addi	a0,a0,-7
     b34:	3c060e63          	beqz	a2,f10 <core_bench_list+0xb68>
     b38:	00f62023          	sw	a5,0(a2)
     b3c:	00078693          	mv	a3,a5
     b40:	f4041ce3          	bnez	s0,a98 <core_bench_list+0x6f0>
     b44:	0006a023          	sw	zero,0(a3)
     b48:	41c30063          	beq	t1,t3,f48 <core_bench_list+0xba0>
     b4c:	00189893          	slli	a7,a7,0x1
     b50:	00080413          	mv	s0,a6
     b54:	cb9ff06f          	j	80c <core_bench_list+0x464>
     b58:	00100793          	li	a5,1
     b5c:	001e0e13          	addi	t3,t3,1
     b60:	4a079063          	bnez	a5,1000 <core_bench_list+0xc58>
     b64:	0042a803          	lw	a6,4(t0)
     b68:	00028713          	mv	a4,t0
     b6c:	00040293          	mv	t0,s0
     b70:	00070413          	mv	s0,a4
     b74:	00100793          	li	a5,1
     b78:	00980f83          	lb	t6,9(a6)
     b7c:	001ff893          	andi	a7,t6,1
     b80:	01160633          	add	a2,a2,a7
     b84:	00168693          	addi	a3,a3,1
     b88:	3c06a68b          	th.ext	a3,a3,15,0
     b8c:	01812303          	lw	t1,24(sp)
     b90:	90669ee3          	bne	a3,t1,4ac <core_bench_list+0x104>
     b94:	20cec2b3          	sh2add	t0,t4,a2
     b98:	41c28e33          	sub	t3,t0,t3
     b9c:	3c0e3e8b          	th.extu	t4,t3,15,0
     ba0:	01d12623          	sw	t4,12(sp)
     ba4:	aa0788e3          	beqz	a5,654 <core_bench_list+0x2ac>
     ba8:	00000313          	li	t1,0
     bac:	00042603          	lw	a2,0(s0)
     bb0:	00642023          	sw	t1,0(s0)
     bb4:	00040393          	mv	t2,s0
     bb8:	a8060ee3          	beqz	a2,654 <core_bench_list+0x2ac>
     bbc:	00060413          	mv	s0,a2
     bc0:	00062803          	lw	a6,0(a2)
     bc4:	00762023          	sw	t2,0(a2)
     bc8:	a80806e3          	beqz	a6,654 <core_bench_list+0x2ac>
     bcc:	00080413          	mv	s0,a6
     bd0:	00082783          	lw	a5,0(a6)
     bd4:	00c82023          	sw	a2,0(a6)
     bd8:	a6078ee3          	beqz	a5,654 <core_bench_list+0x2ac>
     bdc:	00078413          	mv	s0,a5
     be0:	0007af03          	lw	t5,0(a5)
     be4:	0107a023          	sw	a6,0(a5)
     be8:	a60f06e3          	beqz	t5,654 <core_bench_list+0x2ac>
     bec:	000f0413          	mv	s0,t5
     bf0:	000f2703          	lw	a4,0(t5)
     bf4:	00ff2023          	sw	a5,0(t5)
     bf8:	a4070ee3          	beqz	a4,654 <core_bench_list+0x2ac>
     bfc:	00070413          	mv	s0,a4
     c00:	00072f83          	lw	t6,0(a4)
     c04:	01e72023          	sw	t5,0(a4)
     c08:	a40f86e3          	beqz	t6,654 <core_bench_list+0x2ac>
     c0c:	000f8413          	mv	s0,t6
     c10:	000fa883          	lw	a7,0(t6)
     c14:	00efa023          	sw	a4,0(t6)
     c18:	a2088ee3          	beqz	a7,654 <core_bench_list+0x2ac>
     c1c:	00088413          	mv	s0,a7
     c20:	0008a683          	lw	a3,0(a7)
     c24:	01f8a023          	sw	t6,0(a7)
     c28:	00088313          	mv	t1,a7
     c2c:	a20684e3          	beqz	a3,654 <core_bench_list+0x2ac>
     c30:	00068413          	mv	s0,a3
     c34:	00042603          	lw	a2,0(s0)
     c38:	00642023          	sw	t1,0(s0)
     c3c:	00040393          	mv	t2,s0
     c40:	f6061ee3          	bnez	a2,bbc <core_bench_list+0x814>
     c44:	a11ff06f          	j	654 <core_bench_list+0x2ac>
     c48:	00432f03          	lw	t5,4(t1)
     c4c:	01e7a223          	sw	t5,4(a5)
     c50:	3c0f0863          	beqz	t5,1020 <core_bench_list+0xc78>
     c54:	00ff2023          	sw	a5,0(t5)
     c58:	00442703          	lw	a4,4(s0)
     c5c:	00e32223          	sw	a4,4(t1)
     c60:	00832023          	sw	s0,0(t1)
     c64:	3a070a63          	beqz	a4,1018 <core_bench_list+0xc70>
     c68:	00672023          	sw	t1,0(a4)
     c6c:	00642223          	sw	t1,4(s0)
     c70:	00168693          	addi	a3,a3,1
     c74:	3c06a68b          	th.ext	a3,a3,15,0
     c78:	01812f83          	lw	t6,24(sp)
     c7c:	88df9ce3          	bne	t6,a3,514 <core_bench_list+0x16c>
     c80:	01412383          	lw	t2,20(sp)
     c84:	20cec2b3          	sh2add	t0,t4,a2
     c88:	41c28eb3          	sub	t4,t0,t3
     c8c:	3c0eb60b          	th.extu	a2,t4,15,0
     c90:	00c12623          	sw	a2,12(sp)
     c94:	00712a23          	sw	t2,20(sp)
     c98:	f11ff06f          	j	ba8 <core_bench_list+0x800>
     c9c:	0007a803          	lw	a6,0(a5)
     ca0:	34080063          	beqz	a6,fe0 <core_bench_list+0xc38>
     ca4:	00082f03          	lw	t5,0(a6)
     ca8:	01e7a023          	sw	t5,0(a5)
     cac:	2c0f02e3          	beqz	t5,1770 <core_bench_list+0x13c8>
     cb0:	00ff2223          	sw	a5,4(t5)
     cb4:	00042703          	lw	a4,0(s0)
     cb8:	00e82023          	sw	a4,0(a6)
     cbc:	00882223          	sw	s0,4(a6)
     cc0:	2a0704e3          	beqz	a4,1768 <core_bench_list+0x13c0>
     cc4:	01072223          	sw	a6,4(a4)
     cc8:	01042023          	sw	a6,0(s0)
     ccc:	00168693          	addi	a3,a3,1
     cd0:	3c06a68b          	th.ext	a3,a3,15,0
     cd4:	01812f83          	lw	t6,24(sp)
     cd8:	fcdf9c63          	bne	t6,a3,4b0 <core_bench_list+0x108>
     cdc:	20cec2b3          	sh2add	t0,t4,a2
     ce0:	41c28eb3          	sub	t4,t0,t3
     ce4:	3c0eb60b          	th.extu	a2,t4,15,0
     ce8:	00c12623          	sw	a2,12(sp)
     cec:	960414e3          	bnez	s0,654 <core_bench_list+0x2ac>
     cf0:	00010437          	lui	s0,0x10
     cf4:	00c40513          	addi	a0,s0,12 # 1000c <core_cached_prev_head>
     cf8:	00052023          	sw	zero,0(a0)
     cfc:	00052223          	sw	zero,4(a0)
     d00:	3eb048e3          	bgtz	a1,18f0 <core_bench_list+0x1548>
     d04:	00000413          	li	s0,0
     d08:	9e9ff06f          	j	6f0 <core_bench_list+0x348>
     d0c:	00100793          	li	a5,1
     d10:	001e0e13          	addi	t3,t3,1
     d14:	04079e63          	bnez	a5,d70 <core_bench_list+0x9c8>
     d18:	0042a383          	lw	t2,4(t0)
     d1c:	00028713          	mv	a4,t0
     d20:	00040293          	mv	t0,s0
     d24:	00070413          	mv	s0,a4
     d28:	00100793          	li	a5,1
     d2c:	00938f83          	lb	t6,9(t2)
     d30:	001ff693          	andi	a3,t6,1
     d34:	00d60633          	add	a2,a2,a3
     d38:	00180313          	addi	t1,a6,1
     d3c:	3c03280b          	th.ext	a6,t1,15,0
     d40:	05088e63          	beq	a7,a6,d9c <core_bench_list+0x9f4>
     d44:	0ff37393          	zext.b	t2,t1
     d48:	00712a23          	sw	t2,20(sp)
     d4c:	80078ee3          	beqz	a5,568 <core_bench_list+0x1c0>
     d50:	8b1ff06f          	j	600 <core_bench_list+0x258>
     d54:	00180313          	addi	t1,a6,1
     d58:	3c03280b          	th.ext	a6,t1,15,0
     d5c:	190884e3          	beq	a7,a6,16e4 <core_bench_list+0x133c>
     d60:	0ff37393          	zext.b	t2,t1
     d64:	00712a23          	sw	t2,20(sp)
     d68:	88041ce3          	bnez	s0,600 <core_bench_list+0x258>
     d6c:	001e0e13          	addi	t3,t3,1
     d70:	0002a383          	lw	t2,0(t0)
     d74:	00028f13          	mv	t5,t0
     d78:	00040293          	mv	t0,s0
     d7c:	000f0413          	mv	s0,t5
     d80:	00000793          	li	a5,0
     d84:	00938f83          	lb	t6,9(t2)
     d88:	001ff693          	andi	a3,t6,1
     d8c:	00d60633          	add	a2,a2,a3
     d90:	00180313          	addi	t1,a6,1
     d94:	3c03280b          	th.ext	a6,t1,15,0
     d98:	fb0896e3          	bne	a7,a6,d44 <core_bench_list+0x99c>
     d9c:	00b12c23          	sw	a1,24(sp)
     da0:	20cec2b3          	sh2add	t0,t4,a2
     da4:	41c28e33          	sub	t3,t0,t3
     da8:	3c0e3e8b          	th.extu	t4,t3,15,0
     dac:	01d12623          	sw	t4,12(sp)
     db0:	8a0782e3          	beqz	a5,654 <core_bench_list+0x2ac>
     db4:	df5ff06f          	j	ba8 <core_bench_list+0x800>
     db8:	0007a303          	lw	t1,0(a5)
     dbc:	26031663          	bnez	t1,1028 <core_bench_list+0xc80>
     dc0:	00180793          	addi	a5,a6,1
     dc4:	3c07a80b          	th.ext	a6,a5,15,0
     dc8:	211802e3          	beq	a6,a7,17cc <core_bench_list+0x1424>
     dcc:	0ff7f393          	zext.b	t2,a5
     dd0:	00712a23          	sw	t2,20(sp)
     dd4:	f8041a63          	bnez	s0,568 <core_bench_list+0x1c0>
     dd8:	001e0e13          	addi	t3,t3,1
     ddc:	f3dff06f          	j	d18 <core_bench_list+0x970>
     de0:	00072f03          	lw	t5,0(a4)
     de4:	fff78793          	addi	a5,a5,-1
     de8:	02068063          	beqz	a3,e08 <core_bench_list+0xa60>
     dec:	00e6a023          	sw	a4,0(a3)
     df0:	04078863          	beqz	a5,e40 <core_bench_list+0xa98>
     df4:	00070693          	mv	a3,a4
     df8:	000f0713          	mv	a4,t5
     dfc:	00072f03          	lw	t5,0(a4)
     e00:	fff78793          	addi	a5,a5,-1
     e04:	fe0694e3          	bnez	a3,dec <core_bench_list+0xa44>
     e08:	02078a63          	beqz	a5,e3c <core_bench_list+0xa94>
     e0c:	00070813          	mv	a6,a4
     e10:	fe5ff06f          	j	df4 <core_bench_list+0xa4c>
     e14:	00072e83          	lw	t4,0(a4)
     e18:	fff78793          	addi	a5,a5,-1
     e1c:	02068863          	beqz	a3,e4c <core_bench_list+0xaa4>
     e20:	00e6a023          	sw	a4,0(a3)
     e24:	02f05a63          	blez	a5,e58 <core_bench_list+0xab0>
     e28:	00070693          	mv	a3,a4
     e2c:	000e8713          	mv	a4,t4
     e30:	b0dff06f          	j	93c <core_bench_list+0x594>
     e34:	00040813          	mv	a6,s0
     e38:	b49ff06f          	j	980 <core_bench_list+0x5d8>
     e3c:	00070813          	mv	a6,a4
     e40:	9e0410e3          	bnez	s0,820 <core_bench_list+0x478>
     e44:	00070693          	mv	a3,a4
     e48:	cfdff06f          	j	b44 <core_bench_list+0x79c>
     e4c:	06f05663          	blez	a5,eb8 <core_bench_list+0xb10>
     e50:	00070813          	mv	a6,a4
     e54:	fd5ff06f          	j	e28 <core_bench_list+0xa80>
     e58:	00070693          	mv	a3,a4
     e5c:	000e8713          	mv	a4,t4
     e60:	b2a048e3          	bgtz	a0,990 <core_bench_list+0x5e8>
     e64:	00068713          	mv	a4,a3
     e68:	9a041ce3          	bnez	s0,820 <core_bench_list+0x478>
     e6c:	fd9ff06f          	j	e44 <core_bench_list+0xa9c>
     e70:	00068293          	mv	t0,a3
     e74:	00070693          	mv	a3,a4
     e78:	0006a703          	lw	a4,0(a3)
     e7c:	fff78793          	addi	a5,a5,-1
     e80:	02028063          	beqz	t0,ea0 <core_bench_list+0xaf8>
     e84:	00d2a023          	sw	a3,0(t0)
     e88:	b00782e3          	beqz	a5,98c <core_bench_list+0x5e4>
     e8c:	00068293          	mv	t0,a3
     e90:	00070693          	mv	a3,a4
     e94:	0006a703          	lw	a4,0(a3)
     e98:	fff78793          	addi	a5,a5,-1
     e9c:	fe0294e3          	bnez	t0,e84 <core_bench_list+0xadc>
     ea0:	00078663          	beqz	a5,eac <core_bench_list+0xb04>
     ea4:	00068813          	mv	a6,a3
     ea8:	fe5ff06f          	j	e8c <core_bench_list+0xae4>
     eac:	00068813          	mv	a6,a3
     eb0:	00000413          	li	s0,0
     eb4:	ad9ff06f          	j	98c <core_bench_list+0x5e4>
     eb8:	00070813          	mv	a6,a4
     ebc:	00070693          	mv	a3,a4
     ec0:	000e8713          	mv	a4,t4
     ec4:	ac9ff06f          	j	98c <core_bench_list+0x5e4>
     ec8:	00040813          	mv	a6,s0
     ecc:	be0510e3          	bnez	a0,aac <core_bench_list+0x704>
     ed0:	00040713          	mv	a4,s0
     ed4:	000f8413          	mv	s0,t6
     ed8:	940414e3          	bnez	s0,820 <core_bench_list+0x478>
     edc:	f69ff06f          	j	e44 <core_bench_list+0xa9c>
     ee0:	000f8813          	mv	a6,t6
     ee4:	bddff06f          	j	ac0 <core_bench_list+0x718>
     ee8:	00038813          	mv	a6,t2
     eec:	be9ff06f          	j	ad4 <core_bench_list+0x72c>
     ef0:	00040813          	mv	a6,s0
     ef4:	bf5ff06f          	j	ae8 <core_bench_list+0x740>
     ef8:	000e8813          	mv	a6,t4
     efc:	c01ff06f          	j	afc <core_bench_list+0x754>
     f00:	00028813          	mv	a6,t0
     f04:	c0dff06f          	j	b10 <core_bench_list+0x768>
     f08:	00060813          	mv	a6,a2
     f0c:	c19ff06f          	j	b24 <core_bench_list+0x77c>
     f10:	00078813          	mv	a6,a5
     f14:	c29ff06f          	j	b3c <core_bench_list+0x794>
     f18:	00040813          	mv	a6,s0
     f1c:	a99ff06f          	j	9b4 <core_bench_list+0x60c>
     f20:	00040813          	mv	a6,s0
     f24:	b69ff06f          	j	a8c <core_bench_list+0x6e4>
     f28:	00040813          	mv	a6,s0
     f2c:	b45ff06f          	j	a70 <core_bench_list+0x6c8>
     f30:	00040813          	mv	a6,s0
     f34:	b21ff06f          	j	a54 <core_bench_list+0x6ac>
     f38:	00040813          	mv	a6,s0
     f3c:	afdff06f          	j	a38 <core_bench_list+0x690>
     f40:	00040813          	mv	a6,s0
     f44:	ad9ff06f          	j	a1c <core_bench_list+0x674>
     f48:	080808e3          	beqz	a6,17d8 <core_bench_list+0x1430>
     f4c:	00080293          	mv	t0,a6
     f50:	00000e93          	li	t4,0
     f54:	01d2a223          	sw	t4,4(t0)
     f58:	00028e93          	mv	t4,t0
     f5c:	0002a303          	lw	t1,0(t0)
     f60:	06030ee3          	beqz	t1,17dc <core_bench_list+0x1434>
     f64:	00532223          	sw	t0,4(t1)
     f68:	00030e93          	mv	t4,t1
     f6c:	00032e03          	lw	t3,0(t1)
     f70:	060e06e3          	beqz	t3,17dc <core_bench_list+0x1434>
     f74:	006e2223          	sw	t1,4(t3)
     f78:	000e0e93          	mv	t4,t3
     f7c:	000e2583          	lw	a1,0(t3)
     f80:	04058ee3          	beqz	a1,17dc <core_bench_list+0x1434>
     f84:	01c5a223          	sw	t3,4(a1)
     f88:	00058e93          	mv	t4,a1
     f8c:	0005af83          	lw	t6,0(a1)
     f90:	040f86e3          	beqz	t6,17dc <core_bench_list+0x1434>
     f94:	00bfa223          	sw	a1,4(t6)
     f98:	000f8e93          	mv	t4,t6
     f9c:	000fa703          	lw	a4,0(t6)
     fa0:	02070ee3          	beqz	a4,17dc <core_bench_list+0x1434>
     fa4:	01f72223          	sw	t6,4(a4)
     fa8:	00070e93          	mv	t4,a4
     fac:	00072383          	lw	t2,0(a4)
     fb0:	020386e3          	beqz	t2,17dc <core_bench_list+0x1434>
     fb4:	00e3a223          	sw	a4,4(t2)
     fb8:	00038e93          	mv	t4,t2
     fbc:	0003a403          	lw	s0,0(t2)
     fc0:	00040ee3          	beqz	s0,17dc <core_bench_list+0x1434>
     fc4:	00742223          	sw	t2,4(s0)
     fc8:	00040e93          	mv	t4,s0
     fcc:	00042283          	lw	t0,0(s0)
     fd0:	f80292e3          	bnez	t0,f54 <core_bench_list+0xbac>
     fd4:	0090006f          	j	17dc <core_bench_list+0x1434>
     fd8:	00070813          	mv	a6,a4
     fdc:	a25ff06f          	j	a00 <core_bench_list+0x658>
     fe0:	00168793          	addi	a5,a3,1
     fe4:	3c07a68b          	th.ext	a3,a5,15,0
     fe8:	01812883          	lw	a7,24(sp)
     fec:	ced888e3          	beq	a7,a3,cdc <core_bench_list+0x934>
     ff0:	cc041063          	bnez	s0,4b0 <core_bench_list+0x108>
     ff4:	001e0e13          	addi	t3,t3,1
     ff8:	b6dff06f          	j	b64 <core_bench_list+0x7bc>
     ffc:	001e0e13          	addi	t3,t3,1
    1000:	0002a803          	lw	a6,0(t0)
    1004:	00028f13          	mv	t5,t0
    1008:	00040293          	mv	t0,s0
    100c:	000f0413          	mv	s0,t5
    1010:	00000793          	li	a5,0
    1014:	b65ff06f          	j	b78 <core_bench_list+0x7d0>
    1018:	00030293          	mv	t0,t1
    101c:	c51ff06f          	j	c6c <core_bench_list+0x8c4>
    1020:	00078293          	mv	t0,a5
    1024:	c35ff06f          	j	c58 <core_bench_list+0x8b0>
    1028:	00032f03          	lw	t5,0(t1)
    102c:	01e7a023          	sw	t5,0(a5)
    1030:	000f0663          	beqz	t5,103c <core_bench_list+0xc94>
    1034:	00ff2223          	sw	a5,4(t5)
    1038:	00028793          	mv	a5,t0
    103c:	00042283          	lw	t0,0(s0)
    1040:	00532023          	sw	t0,0(t1)
    1044:	00832223          	sw	s0,4(t1)
    1048:	70028c63          	beqz	t0,1760 <core_bench_list+0x13b8>
    104c:	0062a223          	sw	t1,4(t0)
    1050:	00642023          	sw	t1,0(s0)
    1054:	00180713          	addi	a4,a6,1
    1058:	3c07280b          	th.ext	a6,a4,15,0
    105c:	77180863          	beq	a6,a7,17cc <core_bench_list+0x1424>
    1060:	0ff77f93          	zext.b	t6,a4
    1064:	01f12a23          	sw	t6,20(sp)
    1068:	00078293          	mv	t0,a5
    106c:	cfcff06f          	j	568 <core_bench_list+0x1c0>
    1070:	04912a23          	sw	s1,84(sp)
    1074:	05212823          	sw	s2,80(sp)
    1078:	05312623          	sw	s3,76(sp)
    107c:	05412423          	sw	s4,72(sp)
    1080:	05512223          	sw	s5,68(sp)
    1084:	05612023          	sw	s6,64(sp)
    1088:	03712e23          	sw	s7,60(sp)
    108c:	03812c23          	sw	s8,56(sp)
    1090:	03912a23          	sw	s9,52(sp)
    1094:	03a12823          	sw	s10,48(sp)
    1098:	03b12623          	sw	s11,44(sp)
    109c:	00050a93          	mv	s5,a0
    10a0:	00100d93          	li	s11,1
    10a4:	01c12e23          	sw	t3,28(sp)
    10a8:	000d8d13          	mv	s10,s11
    10ac:	060408e3          	beqz	s0,191c <core_bench_list+0x1574>
    10b0:	01c12983          	lw	s3,28(sp)
    10b4:	00098c93          	mv	s9,s3
    10b8:	00012423          	sw	zero,8(sp)
    10bc:	028a8493          	addi	s1,s5,40
    10c0:	00912823          	sw	s1,16(sp)
    10c4:	00812583          	lw	a1,8(sp)
    10c8:	00158913          	addi	s2,a1,1
    10cc:	01212423          	sw	s2,8(sp)
    10d0:	00040793          	mv	a5,s0
    10d4:	00000493          	li	s1,0
    10d8:	007dfa13          	andi	s4,s11,7
    10dc:	080a0463          	beqz	s4,1164 <core_bench_list+0xdbc>
    10e0:	0fb4d663          	bge	s1,s11,11cc <core_bench_list+0xe24>
    10e4:	00100493          	li	s1,1
    10e8:	00042783          	lw	a5,0(s0)
    10ec:	0e078063          	beqz	a5,11cc <core_bench_list+0xe24>
    10f0:	069a0a63          	beq	s4,s1,1164 <core_bench_list+0xdbc>
    10f4:	00200b13          	li	s6,2
    10f8:	076a0063          	beq	s4,s6,1158 <core_bench_list+0xdb0>
    10fc:	00300b93          	li	s7,3
    1100:	057a0663          	beq	s4,s7,114c <core_bench_list+0xda4>
    1104:	00400c13          	li	s8,4
    1108:	038a0c63          	beq	s4,s8,1140 <core_bench_list+0xd98>
    110c:	00500513          	li	a0,5
    1110:	02aa0263          	beq	s4,a0,1134 <core_bench_list+0xd8c>
    1114:	00600393          	li	t2,6
    1118:	007a0863          	beq	s4,t2,1128 <core_bench_list+0xd80>
    111c:	000b0493          	mv	s1,s6
    1120:	0007a783          	lw	a5,0(a5)
    1124:	0a078463          	beqz	a5,11cc <core_bench_list+0xe24>
    1128:	00148493          	addi	s1,s1,1
    112c:	0007a783          	lw	a5,0(a5)
    1130:	08078e63          	beqz	a5,11cc <core_bench_list+0xe24>
    1134:	00148493          	addi	s1,s1,1
    1138:	0007a783          	lw	a5,0(a5)
    113c:	08078863          	beqz	a5,11cc <core_bench_list+0xe24>
    1140:	00148493          	addi	s1,s1,1
    1144:	0007a783          	lw	a5,0(a5)
    1148:	08078263          	beqz	a5,11cc <core_bench_list+0xe24>
    114c:	00148493          	addi	s1,s1,1
    1150:	0007a783          	lw	a5,0(a5)
    1154:	06078c63          	beqz	a5,11cc <core_bench_list+0xe24>
    1158:	00148493          	addi	s1,s1,1
    115c:	0007a783          	lw	a5,0(a5)
    1160:	06078663          	beqz	a5,11cc <core_bench_list+0xe24>
    1164:	07b4d463          	bge	s1,s11,11cc <core_bench_list+0xe24>
    1168:	00148493          	addi	s1,s1,1
    116c:	00048813          	mv	a6,s1
    1170:	0007a783          	lw	a5,0(a5)
    1174:	04078c63          	beqz	a5,11cc <core_bench_list+0xe24>
    1178:	00148493          	addi	s1,s1,1
    117c:	0007a783          	lw	a5,0(a5)
    1180:	04078663          	beqz	a5,11cc <core_bench_list+0xe24>
    1184:	00280493          	addi	s1,a6,2
    1188:	0007a783          	lw	a5,0(a5)
    118c:	04078063          	beqz	a5,11cc <core_bench_list+0xe24>
    1190:	00380493          	addi	s1,a6,3
    1194:	0007a783          	lw	a5,0(a5)
    1198:	02078a63          	beqz	a5,11cc <core_bench_list+0xe24>
    119c:	00480493          	addi	s1,a6,4
    11a0:	0007a783          	lw	a5,0(a5)
    11a4:	02078463          	beqz	a5,11cc <core_bench_list+0xe24>
    11a8:	00580493          	addi	s1,a6,5
    11ac:	0007a783          	lw	a5,0(a5)
    11b0:	00078e63          	beqz	a5,11cc <core_bench_list+0xe24>
    11b4:	00680493          	addi	s1,a6,6
    11b8:	0007a783          	lw	a5,0(a5)
    11bc:	00078863          	beqz	a5,11cc <core_bench_list+0xe24>
    11c0:	00780493          	addi	s1,a6,7
    11c4:	0007a783          	lw	a5,0(a5)
    11c8:	f8079ee3          	bnez	a5,1164 <core_bench_list+0xdbc>
    11cc:	000d8c13          	mv	s8,s11
    11d0:	00098913          	mv	s2,s3
    11d4:	00040993          	mv	s3,s0
    11d8:	00078413          	mv	s0,a5
    11dc:	04905663          	blez	s1,1228 <core_bench_list+0xe80>
    11e0:	200c0c63          	beqz	s8,13f8 <core_bench_list+0x1050>
    11e4:	3e040a63          	beqz	s0,15d8 <core_bench_list+0x1230>
    11e8:	00899a03          	lh	s4,8(s3)
    11ec:	080a7713          	andi	a4,s4,128
    11f0:	2a070863          	beqz	a4,14a0 <core_bench_list+0x10f8>
    11f4:	07fa7b93          	andi	s7,s4,127
    11f8:	00841a03          	lh	s4,8(s0)
    11fc:	080a7393          	andi	t2,s4,128
    1200:	22038663          	beqz	t2,142c <core_bench_list+0x1084>
    1204:	07fa7313          	andi	t1,s4,127
    1208:	27735863          	bge	t1,s7,1478 <core_bench_list+0x10d0>
    120c:	00042b83          	lw	s7,0(s0)
    1210:	fffc0c13          	addi	s8,s8,-1
    1214:	2c090c63          	beqz	s2,14ec <core_bench_list+0x1144>
    1218:	00892023          	sw	s0,0(s2)
    121c:	00040913          	mv	s2,s0
    1220:	000b8413          	mv	s0,s7
    1224:	fa904ee3          	bgtz	s1,11e0 <core_bench_list+0xe38>
    1228:	3b805263          	blez	s8,15cc <core_bench_list+0x1224>
    122c:	1a040a63          	beqz	s0,13e0 <core_bench_list+0x1038>
    1230:	fa049ce3          	bnez	s1,11e8 <core_bench_list+0xe40>
    1234:	fffc0993          	addi	s3,s8,-1
    1238:	0079f493          	andi	s1,s3,7
    123c:	0e048c63          	beqz	s1,1334 <core_bench_list+0xf8c>
    1240:	00042583          	lw	a1,0(s0)
    1244:	00098c13          	mv	s8,s3
    1248:	42090463          	beqz	s2,1670 <core_bench_list+0x12c8>
    124c:	00892023          	sw	s0,0(s2)
    1250:	00040913          	mv	s2,s0
    1254:	18058663          	beqz	a1,13e0 <core_bench_list+0x1038>
    1258:	00058413          	mv	s0,a1
    125c:	00100513          	li	a0,1
    1260:	0ca48a63          	beq	s1,a0,1334 <core_bench_list+0xf8c>
    1264:	00200a13          	li	s4,2
    1268:	0b448863          	beq	s1,s4,1318 <core_bench_list+0xf70>
    126c:	00300393          	li	t2,3
    1270:	08748663          	beq	s1,t2,12fc <core_bench_list+0xf54>
    1274:	00400813          	li	a6,4
    1278:	07048463          	beq	s1,a6,12e0 <core_bench_list+0xf38>
    127c:	00500f13          	li	t5,5
    1280:	05e48263          	beq	s1,t5,12c4 <core_bench_list+0xf1c>
    1284:	00600793          	li	a5,6
    1288:	02f48063          	beq	s1,a5,12a8 <core_bench_list+0xf00>
    128c:	0005af83          	lw	t6,0(a1)
    1290:	fffc0c13          	addi	s8,s8,-1
    1294:	40090e63          	beqz	s2,16b0 <core_bench_list+0x1308>
    1298:	00b92023          	sw	a1,0(s2)
    129c:	00040913          	mv	s2,s0
    12a0:	140f8063          	beqz	t6,13e0 <core_bench_list+0x1038>
    12a4:	000f8413          	mv	s0,t6
    12a8:	00042883          	lw	a7,0(s0)
    12ac:	fffc0c13          	addi	s8,s8,-1
    12b0:	3e090c63          	beqz	s2,16a8 <core_bench_list+0x1300>
    12b4:	00892023          	sw	s0,0(s2)
    12b8:	00040913          	mv	s2,s0
    12bc:	12088263          	beqz	a7,13e0 <core_bench_list+0x1038>
    12c0:	00088413          	mv	s0,a7
    12c4:	00042703          	lw	a4,0(s0)
    12c8:	fffc0c13          	addi	s8,s8,-1
    12cc:	3c090263          	beqz	s2,1690 <core_bench_list+0x12e8>
    12d0:	00892023          	sw	s0,0(s2)
    12d4:	00040913          	mv	s2,s0
    12d8:	10070463          	beqz	a4,13e0 <core_bench_list+0x1038>
    12dc:	00070413          	mv	s0,a4
    12e0:	00042b03          	lw	s6,0(s0)
    12e4:	fffc0c13          	addi	s8,s8,-1
    12e8:	3a090063          	beqz	s2,1688 <core_bench_list+0x12e0>
    12ec:	00892023          	sw	s0,0(s2)
    12f0:	00040913          	mv	s2,s0
    12f4:	0e0b0663          	beqz	s6,13e0 <core_bench_list+0x1038>
    12f8:	000b0413          	mv	s0,s6
    12fc:	00042683          	lw	a3,0(s0)
    1300:	fffc0c13          	addi	s8,s8,-1
    1304:	36090e63          	beqz	s2,1680 <core_bench_list+0x12d8>
    1308:	00892023          	sw	s0,0(s2)
    130c:	00040913          	mv	s2,s0
    1310:	0c068863          	beqz	a3,13e0 <core_bench_list+0x1038>
    1314:	00068413          	mv	s0,a3
    1318:	00042303          	lw	t1,0(s0)
    131c:	fffc0c13          	addi	s8,s8,-1
    1320:	34090c63          	beqz	s2,1678 <core_bench_list+0x12d0>
    1324:	00892023          	sw	s0,0(s2)
    1328:	00040913          	mv	s2,s0
    132c:	0a030a63          	beqz	t1,13e0 <core_bench_list+0x1038>
    1330:	00030413          	mv	s0,t1
    1334:	00042283          	lw	t0,0(s0)
    1338:	fffc0c13          	addi	s8,s8,-1
    133c:	2e090a63          	beqz	s2,1630 <core_bench_list+0x1288>
    1340:	00892023          	sw	s0,0(s2)
    1344:	340c0a63          	beqz	s8,1698 <core_bench_list+0x12f0>
    1348:	00040913          	mv	s2,s0
    134c:	08028a63          	beqz	t0,13e0 <core_bench_list+0x1038>
    1350:	0002ae03          	lw	t3,0(t0)
    1354:	2e040263          	beqz	s0,1638 <core_bench_list+0x1290>
    1358:	00542023          	sw	t0,0(s0)
    135c:	00028913          	mv	s2,t0
    1360:	080e0063          	beqz	t3,13e0 <core_bench_list+0x1038>
    1364:	000e2403          	lw	s0,0(t3)
    1368:	2c028c63          	beqz	t0,1640 <core_bench_list+0x1298>
    136c:	01c2a023          	sw	t3,0(t0)
    1370:	000e0913          	mv	s2,t3
    1374:	06040663          	beqz	s0,13e0 <core_bench_list+0x1038>
    1378:	00042e83          	lw	t4,0(s0)
    137c:	2c0e0663          	beqz	t3,1648 <core_bench_list+0x12a0>
    1380:	008e2023          	sw	s0,0(t3)
    1384:	00040913          	mv	s2,s0
    1388:	040e8c63          	beqz	t4,13e0 <core_bench_list+0x1038>
    138c:	000eab83          	lw	s7,0(t4)
    1390:	2c040063          	beqz	s0,1650 <core_bench_list+0x12a8>
    1394:	01d42023          	sw	t4,0(s0)
    1398:	000e8913          	mv	s2,t4
    139c:	040b8263          	beqz	s7,13e0 <core_bench_list+0x1038>
    13a0:	000ba603          	lw	a2,0(s7)
    13a4:	2a0e8a63          	beqz	t4,1658 <core_bench_list+0x12b0>
    13a8:	017ea023          	sw	s7,0(t4)
    13ac:	000b8913          	mv	s2,s7
    13b0:	02060863          	beqz	a2,13e0 <core_bench_list+0x1038>
    13b4:	00062483          	lw	s1,0(a2)
    13b8:	2a0b8863          	beqz	s7,1668 <core_bench_list+0x12c0>
    13bc:	00cba023          	sw	a2,0(s7)
    13c0:	00060913          	mv	s2,a2
    13c4:	00048e63          	beqz	s1,13e0 <core_bench_list+0x1038>
    13c8:	0004a403          	lw	s0,0(s1)
    13cc:	ff9c0c13          	addi	s8,s8,-7
    13d0:	28060863          	beqz	a2,1660 <core_bench_list+0x12b8>
    13d4:	00962023          	sw	s1,0(a2)
    13d8:	00048913          	mv	s2,s1
    13dc:	f4041ce3          	bnez	s0,1334 <core_bench_list+0xf8c>
    13e0:	00092023          	sw	zero,0(s2)
    13e4:	00812503          	lw	a0,8(sp)
    13e8:	4da50463          	beq	a0,s10,18b0 <core_bench_list+0x1508>
    13ec:	001d9d93          	slli	s11,s11,0x1
    13f0:	000c8413          	mv	s0,s9
    13f4:	cb9ff06f          	j	10ac <core_bench_list+0xd04>
    13f8:	0009a583          	lw	a1,0(s3)
    13fc:	fff48493          	addi	s1,s1,-1
    1400:	02090063          	beqz	s2,1420 <core_bench_list+0x1078>
    1404:	01392023          	sw	s3,0(s2)
    1408:	1a048063          	beqz	s1,15a8 <core_bench_list+0x1200>
    140c:	00098913          	mv	s2,s3
    1410:	00058993          	mv	s3,a1
    1414:	0009a583          	lw	a1,0(s3)
    1418:	fff48493          	addi	s1,s1,-1
    141c:	fe0914e3          	bnez	s2,1404 <core_bench_list+0x105c>
    1420:	18048263          	beqz	s1,15a4 <core_bench_list+0x11fc>
    1424:	00098c93          	mv	s9,s3
    1428:	fe5ff06f          	j	140c <core_bench_list+0x1064>
    142c:	007a7813          	andi	a6,s4,7
    1430:	183a3f0b          	th.extu	t5,s4,6,3
    1434:	004f1793          	slli	a5,t5,0x4
    1438:	00ff0fb3          	add	t6,t5,a5
    143c:	000f8713          	mv	a4,t6
    1440:	038ad783          	lhu	a5,56(s5)
    1444:	0c080a63          	beqz	a6,1518 <core_bench_list+0x1170>
    1448:	0ba80663          	beq	a6,s10,14f4 <core_bench_list+0x114c>
    144c:	3c0a350b          	th.extu	a0,s4,15,0
    1450:	000a0b13          	mv	s6,s4
    1454:	038ad583          	lhu	a1,56(s5)
    1458:	069060ef          	jal	7cc0 <crcu16>
    145c:	02aa9c23          	sh	a0,56(s5)
    1460:	07fb7313          	andi	t1,s6,127
    1464:	f00a7293          	andi	t0,s4,-256
    1468:	00536e33          	or	t3,t1,t0
    146c:	080e6e93          	ori	t4,t3,128
    1470:	01d41423          	sh	t4,8(s0)
    1474:	d9734ce3          	blt	t1,s7,120c <core_bench_list+0xe64>
    1478:	0009a603          	lw	a2,0(s3)
    147c:	fff48493          	addi	s1,s1,-1
    1480:	12090a63          	beqz	s2,15b4 <core_bench_list+0x120c>
    1484:	01392023          	sw	s3,0(s2)
    1488:	12905c63          	blez	s1,15c0 <core_bench_list+0x1218>
    148c:	00098913          	mv	s2,s3
    1490:	00060993          	mv	s3,a2
    1494:	00899a03          	lh	s4,8(s3)
    1498:	080a7713          	andi	a4,s4,128
    149c:	d4071ce3          	bnez	a4,11f4 <core_bench_list+0xe4c>
    14a0:	007a7f93          	andi	t6,s4,7
    14a4:	183a388b          	th.extu	a7,s4,6,3
    14a8:	00489693          	slli	a3,a7,0x4
    14ac:	00d88333          	add	t1,a7,a3
    14b0:	00030713          	mv	a4,t1
    14b4:	038ad783          	lhu	a5,56(s5)
    14b8:	0a0f8c63          	beqz	t6,1570 <core_bench_list+0x11c8>
    14bc:	09af8863          	beq	t6,s10,154c <core_bench_list+0x11a4>
    14c0:	3c0a350b          	th.extu	a0,s4,15,0
    14c4:	000a0b13          	mv	s6,s4
    14c8:	038ad583          	lhu	a1,56(s5)
    14cc:	7f4060ef          	jal	7cc0 <crcu16>
    14d0:	02aa9c23          	sh	a0,56(s5)
    14d4:	07fb7b93          	andi	s7,s6,127
    14d8:	f00a7613          	andi	a2,s4,-256
    14dc:	00cbe5b3          	or	a1,s7,a2
    14e0:	0805e513          	ori	a0,a1,128
    14e4:	00a99423          	sh	a0,8(s3)
    14e8:	d11ff06f          	j	11f8 <core_bench_list+0xe50>
    14ec:	00040c93          	mv	s9,s0
    14f0:	d2dff06f          	j	121c <core_bench_list+0xe74>
    14f4:	00078613          	mv	a2,a5
    14f8:	000f8593          	mv	a1,t6
    14fc:	01012503          	lw	a0,16(sp)
    1500:	2d9020ef          	jal	3fd8 <core_bench_matrix>
    1504:	00050b13          	mv	s6,a0
    1508:	03cad683          	lhu	a3,60(s5)
    150c:	f40694e3          	bnez	a3,1454 <core_bench_list+0x10ac>
    1510:	02aa9e23          	sh	a0,60(s5)
    1514:	f41ff06f          	j	1454 <core_bench_list+0x10ac>
    1518:	02100893          	li	a7,33
    151c:	01f8e463          	bltu	a7,t6,1524 <core_bench_list+0x117c>
    1520:	02200713          	li	a4,34
    1524:	002a9683          	lh	a3,2(s5)
    1528:	000a9603          	lh	a2,0(s5)
    152c:	014aa583          	lw	a1,20(s5)
    1530:	018aa503          	lw	a0,24(s5)
    1534:	298050ef          	jal	67cc <core_bench_state>
    1538:	00050b13          	mv	s6,a0
    153c:	03ead703          	lhu	a4,62(s5)
    1540:	f0071ae3          	bnez	a4,1454 <core_bench_list+0x10ac>
    1544:	02aa9f23          	sh	a0,62(s5)
    1548:	f0dff06f          	j	1454 <core_bench_list+0x10ac>
    154c:	00078613          	mv	a2,a5
    1550:	00030593          	mv	a1,t1
    1554:	01012503          	lw	a0,16(sp)
    1558:	281020ef          	jal	3fd8 <core_bench_matrix>
    155c:	00050b13          	mv	s6,a0
    1560:	03cade83          	lhu	t4,60(s5)
    1564:	f60e92e3          	bnez	t4,14c8 <core_bench_list+0x1120>
    1568:	02aa9e23          	sh	a0,60(s5)
    156c:	f5dff06f          	j	14c8 <core_bench_list+0x1120>
    1570:	02100293          	li	t0,33
    1574:	0062e463          	bltu	t0,t1,157c <core_bench_list+0x11d4>
    1578:	02200713          	li	a4,34
    157c:	002a9683          	lh	a3,2(s5)
    1580:	000a9603          	lh	a2,0(s5)
    1584:	014aa583          	lw	a1,20(s5)
    1588:	018aa503          	lw	a0,24(s5)
    158c:	240050ef          	jal	67cc <core_bench_state>
    1590:	00050b13          	mv	s6,a0
    1594:	03eade03          	lhu	t3,62(s5)
    1598:	f20e18e3          	bnez	t3,14c8 <core_bench_list+0x1120>
    159c:	02aa9f23          	sh	a0,62(s5)
    15a0:	f29ff06f          	j	14c8 <core_bench_list+0x1120>
    15a4:	00098c93          	mv	s9,s3
    15a8:	b0041ee3          	bnez	s0,10c4 <core_bench_list+0xd1c>
    15ac:	00098913          	mv	s2,s3
    15b0:	e31ff06f          	j	13e0 <core_bench_list+0x1038>
    15b4:	06905663          	blez	s1,1620 <core_bench_list+0x1278>
    15b8:	00098c93          	mv	s9,s3
    15bc:	ed1ff06f          	j	148c <core_bench_list+0x10e4>
    15c0:	00098913          	mv	s2,s3
    15c4:	00060993          	mv	s3,a2
    15c8:	c78042e3          	bgtz	s8,122c <core_bench_list+0xe84>
    15cc:	00090993          	mv	s3,s2
    15d0:	ae041ae3          	bnez	s0,10c4 <core_bench_list+0xd1c>
    15d4:	fd9ff06f          	j	15ac <core_bench_list+0x1204>
    15d8:	00090f13          	mv	t5,s2
    15dc:	00098913          	mv	s2,s3
    15e0:	00092983          	lw	s3,0(s2)
    15e4:	fff48493          	addi	s1,s1,-1
    15e8:	020f0063          	beqz	t5,1608 <core_bench_list+0x1260>
    15ec:	012f2023          	sw	s2,0(t5)
    15f0:	c2048ce3          	beqz	s1,1228 <core_bench_list+0xe80>
    15f4:	00090f13          	mv	t5,s2
    15f8:	00098913          	mv	s2,s3
    15fc:	00092983          	lw	s3,0(s2)
    1600:	fff48493          	addi	s1,s1,-1
    1604:	fe0f14e3          	bnez	t5,15ec <core_bench_list+0x1244>
    1608:	00048663          	beqz	s1,1614 <core_bench_list+0x126c>
    160c:	00090c93          	mv	s9,s2
    1610:	fe5ff06f          	j	15f4 <core_bench_list+0x124c>
    1614:	00090c93          	mv	s9,s2
    1618:	00000413          	li	s0,0
    161c:	c0dff06f          	j	1228 <core_bench_list+0xe80>
    1620:	00098c93          	mv	s9,s3
    1624:	00098913          	mv	s2,s3
    1628:	00060993          	mv	s3,a2
    162c:	bfdff06f          	j	1228 <core_bench_list+0xe80>
    1630:	00040c93          	mv	s9,s0
    1634:	d11ff06f          	j	1344 <core_bench_list+0xf9c>
    1638:	00028c93          	mv	s9,t0
    163c:	d21ff06f          	j	135c <core_bench_list+0xfb4>
    1640:	000e0c93          	mv	s9,t3
    1644:	d2dff06f          	j	1370 <core_bench_list+0xfc8>
    1648:	00040c93          	mv	s9,s0
    164c:	d39ff06f          	j	1384 <core_bench_list+0xfdc>
    1650:	000e8c93          	mv	s9,t4
    1654:	d45ff06f          	j	1398 <core_bench_list+0xff0>
    1658:	000b8c93          	mv	s9,s7
    165c:	d51ff06f          	j	13ac <core_bench_list+0x1004>
    1660:	00048c93          	mv	s9,s1
    1664:	d75ff06f          	j	13d8 <core_bench_list+0x1030>
    1668:	00060c93          	mv	s9,a2
    166c:	d55ff06f          	j	13c0 <core_bench_list+0x1018>
    1670:	00040c93          	mv	s9,s0
    1674:	bddff06f          	j	1250 <core_bench_list+0xea8>
    1678:	00040c93          	mv	s9,s0
    167c:	cadff06f          	j	1328 <core_bench_list+0xf80>
    1680:	00040c93          	mv	s9,s0
    1684:	c89ff06f          	j	130c <core_bench_list+0xf64>
    1688:	00040c93          	mv	s9,s0
    168c:	c65ff06f          	j	12f0 <core_bench_list+0xf48>
    1690:	00040c93          	mv	s9,s0
    1694:	c41ff06f          	j	12d4 <core_bench_list+0xf2c>
    1698:	00040993          	mv	s3,s0
    169c:	00028413          	mv	s0,t0
    16a0:	a20412e3          	bnez	s0,10c4 <core_bench_list+0xd1c>
    16a4:	f09ff06f          	j	15ac <core_bench_list+0x1204>
    16a8:	00040c93          	mv	s9,s0
    16ac:	c0dff06f          	j	12b8 <core_bench_list+0xf10>
    16b0:	00058c93          	mv	s9,a1
    16b4:	be9ff06f          	j	129c <core_bench_list+0xef4>
    16b8:	00042383          	lw	t2,0(s0)
    16bc:	88039063          	bnez	t2,73c <core_bench_list+0x394>
    16c0:	928ff06f          	j	7e8 <core_bench_list+0x440>
    16c4:	00040393          	mv	t2,s0
    16c8:	00c0006f          	j	16d4 <core_bench_list+0x132c>
    16cc:	0003a383          	lw	t2,0(t2)
    16d0:	fe0384e3          	beqz	t2,16b8 <core_bench_list+0x1310>
    16d4:	0083c703          	lbu	a4,8(t2)
    16d8:	01412303          	lw	t1,20(sp)
    16dc:	fe6718e3          	bne	a4,t1,16cc <core_bench_list+0x1324>
    16e0:	85cff06f          	j	73c <core_bench_list+0x394>
    16e4:	00b12c23          	sw	a1,24(sp)
    16e8:	00712a23          	sw	t2,20(sp)
    16ec:	20cec7b3          	sh2add	a5,t4,a2
    16f0:	41c78e33          	sub	t3,a5,t3
    16f4:	3c0e388b          	th.extu	a7,t3,15,0
    16f8:	01112623          	sw	a7,12(sp)
    16fc:	ca041663          	bnez	s0,ba8 <core_bench_list+0x800>
    1700:	df0ff06f          	j	cf0 <core_bench_list+0x948>
    1704:	00068293          	mv	t0,a3
    1708:	00d42223          	sw	a3,4(s0)
    170c:	00180713          	addi	a4,a6,1
    1710:	3c07280b          	th.ext	a6,a4,15,0
    1714:	01088463          	beq	a7,a6,171c <core_bench_list+0x1374>
    1718:	ee1fe06f          	j	5f8 <core_bench_list+0x250>
    171c:	00b12c23          	sw	a1,24(sp)
    1720:	d64ff06f          	j	c84 <core_bench_list+0x8dc>
    1724:	00078293          	mv	t0,a5
    1728:	ea5fe06f          	j	5cc <core_bench_list+0x224>
    172c:	00058693          	mv	a3,a1
    1730:	00000793          	li	a5,0
    1734:	00000e13          	li	t3,0
    1738:	00000e93          	li	t4,0
    173c:	00000613          	li	a2,0
    1740:	c1cff06f          	j	b5c <core_bench_list+0x7b4>
    1744:	00010337          	lui	t1,0x10
    1748:	00c30393          	addi	t2,t1,12 # 1000c <core_cached_prev_head>
    174c:	0003a023          	sw	zero,0(t2)
    1750:	0003a223          	sw	zero,4(t2)
    1754:	1805c863          	bltz	a1,18e4 <core_bench_list+0x153c>
    1758:	00000293          	li	t0,0
    175c:	d15fe06f          	j	470 <core_bench_list+0xc8>
    1760:	00030793          	mv	a5,t1
    1764:	8edff06f          	j	1050 <core_bench_list+0xca8>
    1768:	00080293          	mv	t0,a6
    176c:	d5cff06f          	j	cc8 <core_bench_list+0x920>
    1770:	00078293          	mv	t0,a5
    1774:	d40ff06f          	j	cb4 <core_bench_list+0x90c>
    1778:	00000793          	li	a5,0
    177c:	00000813          	li	a6,0
    1780:	00000e13          	li	t3,0
    1784:	00000e93          	li	t4,0
    1788:	00012a23          	sw	zero,20(sp)
    178c:	00000613          	li	a2,0
    1790:	d80ff06f          	j	d10 <core_bench_list+0x968>
    1794:	00b12c23          	sw	a1,24(sp)
    1798:	00012623          	sw	zero,12(sp)
    179c:	00040463          	beqz	s0,17a4 <core_bench_list+0x13fc>
    17a0:	eb5fe06f          	j	654 <core_bench_list+0x2ac>
    17a4:	d4cff06f          	j	cf0 <core_bench_list+0x948>
    17a8:	00010437          	lui	s0,0x10
    17ac:	00c40513          	addi	a0,s0,12 # 1000c <core_cached_prev_head>
    17b0:	00052023          	sw	zero,0(a0)
    17b4:	00052223          	sw	zero,4(a0)
    17b8:	00b12c23          	sw	a1,24(sp)
    17bc:	00012623          	sw	zero,12(sp)
    17c0:	00012a23          	sw	zero,20(sp)
    17c4:	00000413          	li	s0,0
    17c8:	f29fe06f          	j	6f0 <core_bench_list+0x348>
    17cc:	00b12c23          	sw	a1,24(sp)
    17d0:	00712a23          	sw	t2,20(sp)
    17d4:	d08ff06f          	j	cdc <core_bench_list+0x934>
    17d8:	00000e93          	li	t4,0
    17dc:	00010637          	lui	a2,0x10
    17e0:	00c60793          	addi	a5,a2,12 # 1000c <core_cached_prev_head>
    17e4:	0107a023          	sw	a6,0(a5)
    17e8:	01d7a223          	sw	t4,4(a5)
    17ec:	00082703          	lw	a4,0(a6)
    17f0:	0a070663          	beqz	a4,189c <core_bench_list+0x14f4>
    17f4:	00885803          	lhu	a6,8(a6)
    17f8:	00c12503          	lw	a0,12(sp)
    17fc:	50a8068b          	.insn	4, 0x50a8068b
    1800:	3c06bf0b          	th.extu	t5,a3,15,0
    1804:	01e12623          	sw	t5,12(sp)
    1808:	00072883          	lw	a7,0(a4)
    180c:	08088863          	beqz	a7,189c <core_bench_list+0x14f4>
    1810:	51e8030b          	.insn	4, 0x51e8030b
    1814:	3c033e0b          	th.extu	t3,t1,15,0
    1818:	01c12623          	sw	t3,12(sp)
    181c:	0008a583          	lw	a1,0(a7)
    1820:	06058e63          	beqz	a1,189c <core_bench_list+0x14f4>
    1824:	51c80f8b          	.insn	4, 0x51c80f8b
    1828:	3c0fb38b          	th.extu	t2,t6,15,0
    182c:	00712623          	sw	t2,12(sp)
    1830:	0005a703          	lw	a4,0(a1)
    1834:	06070463          	beqz	a4,189c <core_bench_list+0x14f4>
    1838:	5078040b          	.insn	4, 0x5078040b
    183c:	3c043e8b          	th.extu	t4,s0,15,0
    1840:	01d12623          	sw	t4,12(sp)
    1844:	00072283          	lw	t0,0(a4)
    1848:	04028a63          	beqz	t0,189c <core_bench_list+0x14f4>
    184c:	51d8060b          	.insn	4, 0x51d8060b
    1850:	3c06378b          	th.extu	a5,a2,15,0
    1854:	00f12623          	sw	a5,12(sp)
    1858:	0002a503          	lw	a0,0(t0)
    185c:	04050063          	beqz	a0,189c <core_bench_list+0x14f4>
    1860:	50f8068b          	.insn	4, 0x50f8068b
    1864:	3c06bf0b          	th.extu	t5,a3,15,0
    1868:	01e12623          	sw	t5,12(sp)
    186c:	00052883          	lw	a7,0(a0)
    1870:	02088663          	beqz	a7,189c <core_bench_list+0x14f4>
    1874:	51e8030b          	.insn	4, 0x51e8030b
    1878:	3c033e0b          	th.extu	t3,t1,15,0
    187c:	01c12623          	sw	t3,12(sp)
    1880:	0008a583          	lw	a1,0(a7)
    1884:	00058c63          	beqz	a1,189c <core_bench_list+0x14f4>
    1888:	51c80f8b          	.insn	4, 0x51c80f8b
    188c:	3c0fb38b          	th.extu	t2,t6,15,0
    1890:	00712623          	sw	t2,12(sp)
    1894:	0005a703          	lw	a4,0(a1)
    1898:	f60710e3          	bnez	a4,17f8 <core_bench_list+0x1450>
    189c:	00c12503          	lw	a0,12(sp)
    18a0:	05c12083          	lw	ra,92(sp)
    18a4:	05812403          	lw	s0,88(sp)
    18a8:	06010113          	addi	sp,sp,96
    18ac:	00008067          	ret
    18b0:	000c8413          	mv	s0,s9
    18b4:	05412483          	lw	s1,84(sp)
    18b8:	05012903          	lw	s2,80(sp)
    18bc:	04c12983          	lw	s3,76(sp)
    18c0:	04812a03          	lw	s4,72(sp)
    18c4:	04412a83          	lw	s5,68(sp)
    18c8:	04012b03          	lw	s6,64(sp)
    18cc:	03c12b83          	lw	s7,60(sp)
    18d0:	03812c03          	lw	s8,56(sp)
    18d4:	03412c83          	lw	s9,52(sp)
    18d8:	03012d03          	lw	s10,48(sp)
    18dc:	02c12d83          	lw	s11,44(sp)
    18e0:	e11fe06f          	j	6f0 <core_bench_list+0x348>
    18e4:	ed1052e3          	blez	a7,17a8 <core_bench_list+0x1400>
    18e8:	00000293          	li	t0,0
    18ec:	c59fe06f          	j	544 <core_bench_list+0x19c>
    18f0:	04912a23          	sw	s1,84(sp)
    18f4:	05212823          	sw	s2,80(sp)
    18f8:	05312623          	sw	s3,76(sp)
    18fc:	05412423          	sw	s4,72(sp)
    1900:	05512223          	sw	s5,68(sp)
    1904:	05612023          	sw	s6,64(sp)
    1908:	03712e23          	sw	s7,60(sp)
    190c:	03812c23          	sw	s8,56(sp)
    1910:	03912a23          	sw	s9,52(sp)
    1914:	03a12823          	sw	s10,48(sp)
    1918:	03b12623          	sw	s11,44(sp)
    191c:	00002023          	sw	zero,0(zero) # 0 <_start>
    1920:	00100073          	ebreak
    1924:	04912a23          	sw	s1,84(sp)
    1928:	05212823          	sw	s2,80(sp)
    192c:	05312623          	sw	s3,76(sp)
    1930:	05412423          	sw	s4,72(sp)
    1934:	05512223          	sw	s5,68(sp)
    1938:	05612023          	sw	s6,64(sp)
    193c:	03712e23          	sw	s7,60(sp)
    1940:	03812c23          	sw	s8,56(sp)
    1944:	03912a23          	sw	s9,52(sp)
    1948:	03a12823          	sw	s10,48(sp)
    194c:	03b12623          	sw	s11,44(sp)
    1950:	00042023          	sw	zero,0(s0)
    1954:	00100073          	ebreak

00001958 <core_list_init>:
    1958:	00058713          	mv	a4,a1
    195c:	ccccd7b7          	lui	a5,0xccccd
    1960:	ccd78293          	addi	t0,a5,-819 # cccccccd <_stack_top+0xcccb8ccd>
    1964:	025535b3          	mulhu	a1,a0,t0
    1968:	0045d313          	srli	t1,a1,0x4
    196c:	ffe30393          	addi	t2,t1,-2
    1970:	2073a833          	sh1add	a6,t2,t2
    1974:	20e84fb3          	sh2add	t6,a6,a4
    1978:	21f3cf33          	sh2add	t5,t2,t6
    197c:	00072023          	sw	zero,0(a4)
    1980:	00072223          	sw	zero,4(a4)
    1984:	00008537          	lui	a0,0x8
    1988:	08050693          	addi	a3,a0,128 # 8080 <ee_printf+0x14c>
    198c:	00d72423          	sw	a3,8(a4)
    1990:	00c70513          	addi	a0,a4,12
    1994:	01870693          	addi	a3,a4,24
    1998:	09f6f0e3          	bgeu	a3,t6,2218 <core_list_init+0x8c0>
    199c:	008f8313          	addi	t1,t6,8
    19a0:	07e374e3          	bgeu	t1,t5,2208 <core_list_init+0x8b0>
    19a4:	00072623          	sw	zero,12(a4)
    19a8:	00e72823          	sw	a4,16(a4)
    19ac:	00a72023          	sw	a0,0(a4)
    19b0:	800008b7          	lui	a7,0x80000
    19b4:	fff88e13          	addi	t3,a7,-1 # 7fffffff <_stack_top+0x7ffebfff>
    19b8:	01c72a23          	sw	t3,20(a4)
    19bc:	06038c63          	beqz	t2,1a34 <core_list_init+0xdc>
    19c0:	00000513          	li	a0,0
    19c4:	ffff8eb7          	lui	t4,0xffff8
    19c8:	fffec293          	not	t0,t4
    19cc:	00c68893          	addi	a7,a3,12
    19d0:	07f8f063          	bgeu	a7,t6,1a30 <core_list_init+0xd8>
    19d4:	00430e13          	addi	t3,t1,4
    19d8:	77ee7663          	bgeu	t3,t5,2144 <core_list_init+0x7ec>
    19dc:	00c547b3          	xor	a5,a0,a2
    19e0:	00379593          	slli	a1,a5,0x3
    19e4:	0785f813          	andi	a6,a1,120
    19e8:	00757313          	andi	t1,a0,7
    19ec:	00686eb3          	or	t4,a6,t1
    19f0:	008e9793          	slli	a5,t4,0x8
    19f4:	00fe85b3          	add	a1,t4,a5
    19f8:	00072803          	lw	a6,0(a4)
    19fc:	0106a023          	sw	a6,0(a3)
    1a00:	00e6a223          	sw	a4,4(a3)
    1a04:	00080463          	beqz	a6,1a0c <core_list_init+0xb4>
    1a08:	00d82223          	sw	a3,4(a6)
    1a0c:	00d72023          	sw	a3,0(a4)
    1a10:	00b69423          	sh	a1,8(a3)
    1a14:	00569523          	sh	t0,10(a3)
    1a18:	00150513          	addi	a0,a0,1
    1a1c:	00a38a63          	beq	t2,a0,1a30 <core_list_init+0xd8>
    1a20:	000e0313          	mv	t1,t3
    1a24:	00088693          	mv	a3,a7
    1a28:	00c68893          	addi	a7,a3,12
    1a2c:	fbf8e4e3          	bltu	a7,t6,19d4 <core_list_init+0x7c>
    1a30:	00072503          	lw	a0,0(a4)
    1a34:	00052803          	lw	a6,0(a0)
    1a38:	06080863          	beqz	a6,1aa8 <core_list_init+0x150>
    1a3c:	ccccdfb7          	lui	t6,0xccccd
    1a40:	ccdf8f13          	addi	t5,t6,-819 # cccccccd <_stack_top+0xcccb8ccd>
    1a44:	03e3b3b3          	mulhu	t2,t2,t5
    1a48:	0023d293          	srli	t0,t2,0x2
    1a4c:	20000893          	li	a7,512
    1a50:	00100793          	li	a5,1
    1a54:	00004eb7          	lui	t4,0x4
    1a58:	fffe8313          	addi	t1,t4,-1 # 3fff <core_bench_matrix+0x27>
    1a5c:	0257f263          	bgeu	a5,t0,1a80 <core_list_init+0x128>
    1a60:	00f51523          	sh	a5,10(a0)
    1a64:	00082f03          	lw	t5,0(a6)
    1a68:	040f0063          	beqz	t5,1aa8 <core_list_init+0x150>
    1a6c:	00178793          	addi	a5,a5,1
    1a70:	10088893          	addi	a7,a7,256
    1a74:	00080513          	mv	a0,a6
    1a78:	000f0813          	mv	a6,t5
    1a7c:	fe57e2e3          	bltu	a5,t0,1a60 <core_list_init+0x108>
    1a80:	7008f593          	andi	a1,a7,1792
    1a84:	00c7ce33          	xor	t3,a5,a2
    1a88:	01c5e6b3          	or	a3,a1,t3
    1a8c:	0066ffb3          	and	t6,a3,t1
    1a90:	01f51523          	sh	t6,10(a0)
    1a94:	00082f03          	lw	t5,0(a6)
    1a98:	000f0863          	beqz	t5,1aa8 <core_list_init+0x150>
    1a9c:	00178793          	addi	a5,a5,1
    1aa0:	10088893          	addi	a7,a7,256
    1aa4:	fd1ff06f          	j	1a74 <core_list_init+0x11c>
    1aa8:	00100e13          	li	t3,1
    1aac:	00000513          	li	a0,0
    1ab0:	00000793          	li	a5,0
    1ab4:	00000e93          	li	t4,0
    1ab8:	000e0f13          	mv	t5,t3
    1abc:	001e8e93          	addi	t4,t4,1
    1ac0:	00070613          	mv	a2,a4
    1ac4:	00000693          	li	a3,0
    1ac8:	007e7393          	andi	t2,t3,7
    1acc:	08038463          	beqz	t2,1b54 <core_list_init+0x1fc>
    1ad0:	0fc6d663          	bge	a3,t3,1bbc <core_list_init+0x264>
    1ad4:	00100693          	li	a3,1
    1ad8:	00072603          	lw	a2,0(a4)
    1adc:	0e060063          	beqz	a2,1bbc <core_list_init+0x264>
    1ae0:	06d38a63          	beq	t2,a3,1b54 <core_list_init+0x1fc>
    1ae4:	00200813          	li	a6,2
    1ae8:	07038063          	beq	t2,a6,1b48 <core_list_init+0x1f0>
    1aec:	00300293          	li	t0,3
    1af0:	04538663          	beq	t2,t0,1b3c <core_list_init+0x1e4>
    1af4:	00400313          	li	t1,4
    1af8:	02638c63          	beq	t2,t1,1b30 <core_list_init+0x1d8>
    1afc:	00500593          	li	a1,5
    1b00:	02b38263          	beq	t2,a1,1b24 <core_list_init+0x1cc>
    1b04:	00600f93          	li	t6,6
    1b08:	01f38863          	beq	t2,t6,1b18 <core_list_init+0x1c0>
    1b0c:	00080693          	mv	a3,a6
    1b10:	00062603          	lw	a2,0(a2)
    1b14:	0a060463          	beqz	a2,1bbc <core_list_init+0x264>
    1b18:	00168693          	addi	a3,a3,1
    1b1c:	00062603          	lw	a2,0(a2)
    1b20:	08060e63          	beqz	a2,1bbc <core_list_init+0x264>
    1b24:	00168693          	addi	a3,a3,1
    1b28:	00062603          	lw	a2,0(a2)
    1b2c:	08060863          	beqz	a2,1bbc <core_list_init+0x264>
    1b30:	00168693          	addi	a3,a3,1
    1b34:	00062603          	lw	a2,0(a2)
    1b38:	08060263          	beqz	a2,1bbc <core_list_init+0x264>
    1b3c:	00168693          	addi	a3,a3,1
    1b40:	00062603          	lw	a2,0(a2)
    1b44:	06060c63          	beqz	a2,1bbc <core_list_init+0x264>
    1b48:	00168693          	addi	a3,a3,1
    1b4c:	00062603          	lw	a2,0(a2)
    1b50:	06060663          	beqz	a2,1bbc <core_list_init+0x264>
    1b54:	07c6d463          	bge	a3,t3,1bbc <core_list_init+0x264>
    1b58:	00168693          	addi	a3,a3,1
    1b5c:	00068893          	mv	a7,a3
    1b60:	00062603          	lw	a2,0(a2)
    1b64:	04060c63          	beqz	a2,1bbc <core_list_init+0x264>
    1b68:	00168693          	addi	a3,a3,1
    1b6c:	00062603          	lw	a2,0(a2)
    1b70:	04060663          	beqz	a2,1bbc <core_list_init+0x264>
    1b74:	00288693          	addi	a3,a7,2
    1b78:	00062603          	lw	a2,0(a2)
    1b7c:	04060063          	beqz	a2,1bbc <core_list_init+0x264>
    1b80:	00388693          	addi	a3,a7,3
    1b84:	00062603          	lw	a2,0(a2)
    1b88:	02060a63          	beqz	a2,1bbc <core_list_init+0x264>
    1b8c:	00488693          	addi	a3,a7,4
    1b90:	00062603          	lw	a2,0(a2)
    1b94:	02060463          	beqz	a2,1bbc <core_list_init+0x264>
    1b98:	00588693          	addi	a3,a7,5
    1b9c:	00062603          	lw	a2,0(a2)
    1ba0:	00060e63          	beqz	a2,1bbc <core_list_init+0x264>
    1ba4:	00688693          	addi	a3,a7,6
    1ba8:	00062603          	lw	a2,0(a2)
    1bac:	00060863          	beqz	a2,1bbc <core_list_init+0x264>
    1bb0:	00788693          	addi	a3,a7,7
    1bb4:	00062603          	lw	a2,0(a2)
    1bb8:	f8061ee3          	bnez	a2,1b54 <core_list_init+0x1fc>
    1bbc:	000e0f93          	mv	t6,t3
    1bc0:	20d05e63          	blez	a3,1ddc <core_list_init+0x484>
    1bc4:	260f9a63          	bnez	t6,1e38 <core_list_init+0x4e0>
    1bc8:	fff68313          	addi	t1,a3,-1
    1bcc:	00737393          	andi	t2,t1,7
    1bd0:	0e038c63          	beqz	t2,1cc8 <core_list_init+0x370>
    1bd4:	00072583          	lw	a1,0(a4)
    1bd8:	00030893          	mv	a7,t1
    1bdc:	1e078063          	beqz	a5,1dbc <core_list_init+0x464>
    1be0:	00e7a023          	sw	a4,0(a5)
    1be4:	00070793          	mv	a5,a4
    1be8:	00058713          	mv	a4,a1
    1bec:	00030693          	mv	a3,t1
    1bf0:	00100893          	li	a7,1
    1bf4:	0d138a63          	beq	t2,a7,1cc8 <core_list_init+0x370>
    1bf8:	00200293          	li	t0,2
    1bfc:	0a538863          	beq	t2,t0,1cac <core_list_init+0x354>
    1c00:	00300813          	li	a6,3
    1c04:	09038663          	beq	t2,a6,1c90 <core_list_init+0x338>
    1c08:	00400313          	li	t1,4
    1c0c:	06638463          	beq	t2,t1,1c74 <core_list_init+0x31c>
    1c10:	00500893          	li	a7,5
    1c14:	05138263          	beq	t2,a7,1c58 <core_list_init+0x300>
    1c18:	00600293          	li	t0,6
    1c1c:	02538063          	beq	t2,t0,1c3c <core_list_init+0x2e4>
    1c20:	0005a583          	lw	a1,0(a1)
    1c24:	fff68893          	addi	a7,a3,-1
    1c28:	18078a63          	beqz	a5,1dbc <core_list_init+0x464>
    1c2c:	00e7a023          	sw	a4,0(a5)
    1c30:	00070793          	mv	a5,a4
    1c34:	00058713          	mv	a4,a1
    1c38:	00088693          	mv	a3,a7
    1c3c:	00072583          	lw	a1,0(a4)
    1c40:	fff68893          	addi	a7,a3,-1
    1c44:	16078c63          	beqz	a5,1dbc <core_list_init+0x464>
    1c48:	00e7a023          	sw	a4,0(a5)
    1c4c:	00070793          	mv	a5,a4
    1c50:	00058713          	mv	a4,a1
    1c54:	00088693          	mv	a3,a7
    1c58:	00072583          	lw	a1,0(a4)
    1c5c:	fff68893          	addi	a7,a3,-1
    1c60:	14078e63          	beqz	a5,1dbc <core_list_init+0x464>
    1c64:	00e7a023          	sw	a4,0(a5)
    1c68:	00070793          	mv	a5,a4
    1c6c:	00058713          	mv	a4,a1
    1c70:	00088693          	mv	a3,a7
    1c74:	00072583          	lw	a1,0(a4)
    1c78:	fff68893          	addi	a7,a3,-1
    1c7c:	14078063          	beqz	a5,1dbc <core_list_init+0x464>
    1c80:	00e7a023          	sw	a4,0(a5)
    1c84:	00070793          	mv	a5,a4
    1c88:	00058713          	mv	a4,a1
    1c8c:	00088693          	mv	a3,a7
    1c90:	00072583          	lw	a1,0(a4)
    1c94:	fff68893          	addi	a7,a3,-1
    1c98:	12078263          	beqz	a5,1dbc <core_list_init+0x464>
    1c9c:	00e7a023          	sw	a4,0(a5)
    1ca0:	00070793          	mv	a5,a4
    1ca4:	00058713          	mv	a4,a1
    1ca8:	00088693          	mv	a3,a7
    1cac:	00072583          	lw	a1,0(a4)
    1cb0:	fff68893          	addi	a7,a3,-1
    1cb4:	10078463          	beqz	a5,1dbc <core_list_init+0x464>
    1cb8:	00e7a023          	sw	a4,0(a5)
    1cbc:	00070793          	mv	a5,a4
    1cc0:	00058713          	mv	a4,a1
    1cc4:	00088693          	mv	a3,a7
    1cc8:	00072583          	lw	a1,0(a4)
    1ccc:	fff68893          	addi	a7,a3,-1
    1cd0:	0e078663          	beqz	a5,1dbc <core_list_init+0x464>
    1cd4:	00e7a023          	sw	a4,0(a5)
    1cd8:	00070393          	mv	t2,a4
    1cdc:	18088863          	beqz	a7,1e6c <core_list_init+0x514>
    1ce0:	00058713          	mv	a4,a1
    1ce4:	00088793          	mv	a5,a7
    1ce8:	00088693          	mv	a3,a7
    1cec:	0005a583          	lw	a1,0(a1)
    1cf0:	fff88893          	addi	a7,a7,-1
    1cf4:	0c038463          	beqz	t2,1dbc <core_list_init+0x464>
    1cf8:	00e3a023          	sw	a4,0(t2)
    1cfc:	00070813          	mv	a6,a4
    1d00:	00058713          	mv	a4,a1
    1d04:	00088693          	mv	a3,a7
    1d08:	0005a583          	lw	a1,0(a1)
    1d0c:	fff88893          	addi	a7,a7,-1
    1d10:	0a080663          	beqz	a6,1dbc <core_list_init+0x464>
    1d14:	00e82023          	sw	a4,0(a6)
    1d18:	00070313          	mv	t1,a4
    1d1c:	00058713          	mv	a4,a1
    1d20:	ffe78693          	addi	a3,a5,-2
    1d24:	0005a583          	lw	a1,0(a1)
    1d28:	ffd78893          	addi	a7,a5,-3
    1d2c:	08030863          	beqz	t1,1dbc <core_list_init+0x464>
    1d30:	00e32023          	sw	a4,0(t1)
    1d34:	00070293          	mv	t0,a4
    1d38:	00058713          	mv	a4,a1
    1d3c:	00088693          	mv	a3,a7
    1d40:	0005a583          	lw	a1,0(a1)
    1d44:	ffc78893          	addi	a7,a5,-4
    1d48:	06028a63          	beqz	t0,1dbc <core_list_init+0x464>
    1d4c:	00e2a023          	sw	a4,0(t0)
    1d50:	00070393          	mv	t2,a4
    1d54:	00058713          	mv	a4,a1
    1d58:	00088693          	mv	a3,a7
    1d5c:	0005a583          	lw	a1,0(a1)
    1d60:	ffb78893          	addi	a7,a5,-5
    1d64:	04038c63          	beqz	t2,1dbc <core_list_init+0x464>
    1d68:	00e3a023          	sw	a4,0(t2)
    1d6c:	00070813          	mv	a6,a4
    1d70:	00058713          	mv	a4,a1
    1d74:	00088693          	mv	a3,a7
    1d78:	0005a583          	lw	a1,0(a1)
    1d7c:	ffa78893          	addi	a7,a5,-6
    1d80:	02080e63          	beqz	a6,1dbc <core_list_init+0x464>
    1d84:	00e82023          	sw	a4,0(a6)
    1d88:	00070313          	mv	t1,a4
    1d8c:	00058713          	mv	a4,a1
    1d90:	00088693          	mv	a3,a7
    1d94:	0005a583          	lw	a1,0(a1)
    1d98:	ff978893          	addi	a7,a5,-7
    1d9c:	02030063          	beqz	t1,1dbc <core_list_init+0x464>
    1da0:	00e32023          	sw	a4,0(t1)
    1da4:	00070793          	mv	a5,a4
    1da8:	00058713          	mv	a4,a1
    1dac:	00088693          	mv	a3,a7
    1db0:	00072583          	lw	a1,0(a4)
    1db4:	fff68893          	addi	a7,a3,-1
    1db8:	f0079ee3          	bnez	a5,1cd4 <core_list_init+0x37c>
    1dbc:	0a088663          	beqz	a7,1e68 <core_list_init+0x510>
    1dc0:	ffe68693          	addi	a3,a3,-2
    1dc4:	00070513          	mv	a0,a4
    1dc8:	00070813          	mv	a6,a4
    1dcc:	0005a703          	lw	a4,0(a1)
    1dd0:	00058793          	mv	a5,a1
    1dd4:	00f82023          	sw	a5,0(a6)
    1dd8:	ded046e3          	bgtz	a3,1bc4 <core_list_init+0x26c>
    1ddc:	00078813          	mv	a6,a5
    1de0:	00060793          	mv	a5,a2
    1de4:	0df05e63          	blez	t6,1ec0 <core_list_init+0x568>
    1de8:	28078863          	beqz	a5,2078 <core_list_init+0x720>
    1dec:	0e068063          	beqz	a3,1ecc <core_list_init+0x574>
    1df0:	00871283          	lh	t0,8(a4)
    1df4:	f002f313          	andi	t1,t0,-256
    1df8:	3c82b58b          	th.extu	a1,t0,15,8
    1dfc:	00b368b3          	or	a7,t1,a1
    1e00:	01171423          	sh	a7,8(a4)
    1e04:	00879603          	lh	a2,8(a5)
    1e08:	f0067393          	andi	t2,a2,-256
    1e0c:	3c86328b          	th.extu	t0,a2,15,8
    1e10:	0053e333          	or	t1,t2,t0
    1e14:	00679423          	sh	t1,8(a5)
    1e18:	00a71583          	lh	a1,10(a4)
    1e1c:	00a79883          	lh	a7,10(a5)
    1e20:	04b8de63          	bge	a7,a1,1e7c <core_list_init+0x524>
    1e24:	0007a603          	lw	a2,0(a5)
    1e28:	ffff8f93          	addi	t6,t6,-1
    1e2c:	fa0814e3          	bnez	a6,1dd4 <core_list_init+0x47c>
    1e30:	00078513          	mv	a0,a5
    1e34:	d8dff06f          	j	1bc0 <core_list_init+0x268>
    1e38:	02061263          	bnez	a2,1e5c <core_list_init+0x504>
    1e3c:	00072383          	lw	t2,0(a4)
    1e40:	fff68693          	addi	a3,a3,-1
    1e44:	06078263          	beqz	a5,1ea8 <core_list_init+0x550>
    1e48:	00e7a023          	sw	a4,0(a5)
    1e4c:	28068063          	beqz	a3,20cc <core_list_init+0x774>
    1e50:	00070793          	mv	a5,a4
    1e54:	00038713          	mv	a4,t2
    1e58:	fe0602e3          	beqz	a2,1e3c <core_list_init+0x4e4>
    1e5c:	00078813          	mv	a6,a5
    1e60:	00060793          	mv	a5,a2
    1e64:	f8dff06f          	j	1df0 <core_list_init+0x498>
    1e68:	00070513          	mv	a0,a4
    1e6c:	3c060263          	beqz	a2,2230 <core_list_init+0x8d8>
    1e70:	00070793          	mv	a5,a4
    1e74:	00060713          	mv	a4,a2
    1e78:	c45ff06f          	j	1abc <core_list_init+0x164>
    1e7c:	00072603          	lw	a2,0(a4)
    1e80:	fff68693          	addi	a3,a3,-1
    1e84:	00080c63          	beqz	a6,1e9c <core_list_init+0x544>
    1e88:	00e82023          	sw	a4,0(a6)
    1e8c:	02d05463          	blez	a3,1eb4 <core_list_init+0x55c>
    1e90:	00070813          	mv	a6,a4
    1e94:	00060713          	mv	a4,a2
    1e98:	f59ff06f          	j	1df0 <core_list_init+0x498>
    1e9c:	20d05063          	blez	a3,209c <core_list_init+0x744>
    1ea0:	00070513          	mv	a0,a4
    1ea4:	fedff06f          	j	1e90 <core_list_init+0x538>
    1ea8:	26068263          	beqz	a3,210c <core_list_init+0x7b4>
    1eac:	00070513          	mv	a0,a4
    1eb0:	fa1ff06f          	j	1e50 <core_list_init+0x4f8>
    1eb4:	00070813          	mv	a6,a4
    1eb8:	00060713          	mv	a4,a2
    1ebc:	f3f046e3          	bgtz	t6,1de8 <core_list_init+0x490>
    1ec0:	00080713          	mv	a4,a6
    1ec4:	00078613          	mv	a2,a5
    1ec8:	fa5ff06f          	j	1e6c <core_list_init+0x514>
    1ecc:	ffff8393          	addi	t2,t6,-1
    1ed0:	0073f713          	andi	a4,t2,7
    1ed4:	0e070c63          	beqz	a4,1fcc <core_list_init+0x674>
    1ed8:	0007a683          	lw	a3,0(a5)
    1edc:	00038f93          	mv	t6,t2
    1ee0:	22080263          	beqz	a6,2104 <core_list_init+0x7ac>
    1ee4:	00f82023          	sw	a5,0(a6)
    1ee8:	00078813          	mv	a6,a5
    1eec:	18068663          	beqz	a3,2078 <core_list_init+0x720>
    1ef0:	00068793          	mv	a5,a3
    1ef4:	00100293          	li	t0,1
    1ef8:	0c570a63          	beq	a4,t0,1fcc <core_list_init+0x674>
    1efc:	00200313          	li	t1,2
    1f00:	0a670863          	beq	a4,t1,1fb0 <core_list_init+0x658>
    1f04:	00300593          	li	a1,3
    1f08:	08b70663          	beq	a4,a1,1f94 <core_list_init+0x63c>
    1f0c:	00400893          	li	a7,4
    1f10:	07170463          	beq	a4,a7,1f78 <core_list_init+0x620>
    1f14:	00500613          	li	a2,5
    1f18:	04c70263          	beq	a4,a2,1f5c <core_list_init+0x604>
    1f1c:	00600393          	li	t2,6
    1f20:	02770063          	beq	a4,t2,1f40 <core_list_init+0x5e8>
    1f24:	0006a703          	lw	a4,0(a3)
    1f28:	ffff8f93          	addi	t6,t6,-1
    1f2c:	2c080a63          	beqz	a6,2200 <core_list_init+0x8a8>
    1f30:	00d82023          	sw	a3,0(a6)
    1f34:	00078813          	mv	a6,a5
    1f38:	14070063          	beqz	a4,2078 <core_list_init+0x720>
    1f3c:	00070793          	mv	a5,a4
    1f40:	0007a683          	lw	a3,0(a5)
    1f44:	ffff8f93          	addi	t6,t6,-1
    1f48:	1e080a63          	beqz	a6,213c <core_list_init+0x7e4>
    1f4c:	00f82023          	sw	a5,0(a6)
    1f50:	00078813          	mv	a6,a5
    1f54:	12068263          	beqz	a3,2078 <core_list_init+0x720>
    1f58:	00068793          	mv	a5,a3
    1f5c:	0007a283          	lw	t0,0(a5)
    1f60:	ffff8f93          	addi	t6,t6,-1
    1f64:	1c080863          	beqz	a6,2134 <core_list_init+0x7dc>
    1f68:	00f82023          	sw	a5,0(a6)
    1f6c:	00078813          	mv	a6,a5
    1f70:	10028463          	beqz	t0,2078 <core_list_init+0x720>
    1f74:	00028793          	mv	a5,t0
    1f78:	0007a303          	lw	t1,0(a5)
    1f7c:	ffff8f93          	addi	t6,t6,-1
    1f80:	1a080663          	beqz	a6,212c <core_list_init+0x7d4>
    1f84:	00f82023          	sw	a5,0(a6)
    1f88:	00078813          	mv	a6,a5
    1f8c:	0e030663          	beqz	t1,2078 <core_list_init+0x720>
    1f90:	00030793          	mv	a5,t1
    1f94:	0007a583          	lw	a1,0(a5)
    1f98:	ffff8f93          	addi	t6,t6,-1
    1f9c:	18080463          	beqz	a6,2124 <core_list_init+0x7cc>
    1fa0:	00f82023          	sw	a5,0(a6)
    1fa4:	00078813          	mv	a6,a5
    1fa8:	0c058863          	beqz	a1,2078 <core_list_init+0x720>
    1fac:	00058793          	mv	a5,a1
    1fb0:	0007a883          	lw	a7,0(a5)
    1fb4:	ffff8f93          	addi	t6,t6,-1
    1fb8:	16080263          	beqz	a6,211c <core_list_init+0x7c4>
    1fbc:	00f82023          	sw	a5,0(a6)
    1fc0:	00078813          	mv	a6,a5
    1fc4:	0a088a63          	beqz	a7,2078 <core_list_init+0x720>
    1fc8:	00088793          	mv	a5,a7
    1fcc:	0007a603          	lw	a2,0(a5)
    1fd0:	ffff8f93          	addi	t6,t6,-1
    1fd4:	0c080c63          	beqz	a6,20ac <core_list_init+0x754>
    1fd8:	00f82023          	sw	a5,0(a6)
    1fdc:	0c0f8c63          	beqz	t6,20b4 <core_list_init+0x75c>
    1fe0:	00078813          	mv	a6,a5
    1fe4:	08060a63          	beqz	a2,2078 <core_list_init+0x720>
    1fe8:	00062383          	lw	t2,0(a2)
    1fec:	0c078863          	beqz	a5,20bc <core_list_init+0x764>
    1ff0:	00c7a023          	sw	a2,0(a5)
    1ff4:	00060813          	mv	a6,a2
    1ff8:	08038063          	beqz	t2,2078 <core_list_init+0x720>
    1ffc:	0003a783          	lw	a5,0(t2)
    2000:	0c060263          	beqz	a2,20c4 <core_list_init+0x76c>
    2004:	00762023          	sw	t2,0(a2)
    2008:	00038813          	mv	a6,t2
    200c:	06078663          	beqz	a5,2078 <core_list_init+0x720>
    2010:	0007a683          	lw	a3,0(a5)
    2014:	0c038463          	beqz	t2,20dc <core_list_init+0x784>
    2018:	00f3a023          	sw	a5,0(t2)
    201c:	00078813          	mv	a6,a5
    2020:	04068c63          	beqz	a3,2078 <core_list_init+0x720>
    2024:	0006a703          	lw	a4,0(a3)
    2028:	0a078e63          	beqz	a5,20e4 <core_list_init+0x78c>
    202c:	00d7a023          	sw	a3,0(a5)
    2030:	00068813          	mv	a6,a3
    2034:	04070263          	beqz	a4,2078 <core_list_init+0x720>
    2038:	00072603          	lw	a2,0(a4)
    203c:	0a068863          	beqz	a3,20ec <core_list_init+0x794>
    2040:	00e6a023          	sw	a4,0(a3)
    2044:	00070813          	mv	a6,a4
    2048:	02060863          	beqz	a2,2078 <core_list_init+0x720>
    204c:	00062283          	lw	t0,0(a2)
    2050:	0a070263          	beqz	a4,20f4 <core_list_init+0x79c>
    2054:	00c72023          	sw	a2,0(a4)
    2058:	00060813          	mv	a6,a2
    205c:	00028e63          	beqz	t0,2078 <core_list_init+0x720>
    2060:	0002a783          	lw	a5,0(t0)
    2064:	ff9f8f93          	addi	t6,t6,-7
    2068:	08060a63          	beqz	a2,20fc <core_list_init+0x7a4>
    206c:	00562023          	sw	t0,0(a2)
    2070:	00028813          	mv	a6,t0
    2074:	f4079ce3          	bnez	a5,1fcc <core_list_init+0x674>
    2078:	00082023          	sw	zero,0(a6)
    207c:	0fee8263          	beq	t4,t5,2160 <core_list_init+0x808>
    2080:	0c050c63          	beqz	a0,2158 <core_list_init+0x800>
    2084:	001e1e13          	slli	t3,t3,0x1
    2088:	00050613          	mv	a2,a0
    208c:	00000513          	li	a0,0
    2090:	00000713          	li	a4,0
    2094:	00000e93          	li	t4,0
    2098:	dd9ff06f          	j	1e70 <core_list_init+0x518>
    209c:	00070513          	mv	a0,a4
    20a0:	00070813          	mv	a6,a4
    20a4:	00060713          	mv	a4,a2
    20a8:	d3dff06f          	j	1de4 <core_list_init+0x48c>
    20ac:	00078513          	mv	a0,a5
    20b0:	f20f98e3          	bnez	t6,1fe0 <core_list_init+0x688>
    20b4:	00078713          	mv	a4,a5
    20b8:	db5ff06f          	j	1e6c <core_list_init+0x514>
    20bc:	00060513          	mv	a0,a2
    20c0:	f35ff06f          	j	1ff4 <core_list_init+0x69c>
    20c4:	00038513          	mv	a0,t2
    20c8:	f41ff06f          	j	2008 <core_list_init+0x6b0>
    20cc:	00070813          	mv	a6,a4
    20d0:	00038713          	mv	a4,t2
    20d4:	00000793          	li	a5,0
    20d8:	d0dff06f          	j	1de4 <core_list_init+0x48c>
    20dc:	00078513          	mv	a0,a5
    20e0:	f3dff06f          	j	201c <core_list_init+0x6c4>
    20e4:	00068513          	mv	a0,a3
    20e8:	f49ff06f          	j	2030 <core_list_init+0x6d8>
    20ec:	00070513          	mv	a0,a4
    20f0:	f55ff06f          	j	2044 <core_list_init+0x6ec>
    20f4:	00060513          	mv	a0,a2
    20f8:	f61ff06f          	j	2058 <core_list_init+0x700>
    20fc:	00028513          	mv	a0,t0
    2100:	f71ff06f          	j	2070 <core_list_init+0x718>
    2104:	00078513          	mv	a0,a5
    2108:	de1ff06f          	j	1ee8 <core_list_init+0x590>
    210c:	00070513          	mv	a0,a4
    2110:	00070813          	mv	a6,a4
    2114:	00038713          	mv	a4,t2
    2118:	ccdff06f          	j	1de4 <core_list_init+0x48c>
    211c:	00078513          	mv	a0,a5
    2120:	ea1ff06f          	j	1fc0 <core_list_init+0x668>
    2124:	00078513          	mv	a0,a5
    2128:	e7dff06f          	j	1fa4 <core_list_init+0x64c>
    212c:	00078513          	mv	a0,a5
    2130:	e59ff06f          	j	1f88 <core_list_init+0x630>
    2134:	00078513          	mv	a0,a5
    2138:	e35ff06f          	j	1f6c <core_list_init+0x614>
    213c:	00078513          	mv	a0,a5
    2140:	e11ff06f          	j	1f50 <core_list_init+0x5f8>
    2144:	00150513          	addi	a0,a0,1
    2148:	8ea384e3          	beq	t2,a0,1a30 <core_list_init+0xd8>
    214c:	00030e13          	mv	t3,t1
    2150:	00068893          	mv	a7,a3
    2154:	8cdff06f          	j	1a20 <core_list_init+0xc8>
    2158:	00052023          	sw	zero,0(a0)
    215c:	00100073          	ebreak
    2160:	0c050463          	beqz	a0,2228 <core_list_init+0x8d0>
    2164:	00050813          	mv	a6,a0
    2168:	00000793          	li	a5,0
    216c:	00f82223          	sw	a5,4(a6)
    2170:	00080793          	mv	a5,a6
    2174:	00082f03          	lw	t5,0(a6)
    2178:	060f0a63          	beqz	t5,21ec <core_list_init+0x894>
    217c:	010f2223          	sw	a6,4(t5)
    2180:	000f0793          	mv	a5,t5
    2184:	000f2683          	lw	a3,0(t5)
    2188:	06068263          	beqz	a3,21ec <core_list_init+0x894>
    218c:	01e6a223          	sw	t5,4(a3)
    2190:	00068793          	mv	a5,a3
    2194:	0006a703          	lw	a4,0(a3)
    2198:	04070a63          	beqz	a4,21ec <core_list_init+0x894>
    219c:	00d72223          	sw	a3,4(a4)
    21a0:	00070793          	mv	a5,a4
    21a4:	00072603          	lw	a2,0(a4)
    21a8:	04060263          	beqz	a2,21ec <core_list_init+0x894>
    21ac:	00e62223          	sw	a4,4(a2)
    21b0:	00060793          	mv	a5,a2
    21b4:	00062f83          	lw	t6,0(a2)
    21b8:	020f8a63          	beqz	t6,21ec <core_list_init+0x894>
    21bc:	00cfa223          	sw	a2,4(t6)
    21c0:	000f8793          	mv	a5,t6
    21c4:	000fa283          	lw	t0,0(t6)
    21c8:	02028263          	beqz	t0,21ec <core_list_init+0x894>
    21cc:	01f2a223          	sw	t6,4(t0)
    21d0:	00028793          	mv	a5,t0
    21d4:	0002a383          	lw	t2,0(t0)
    21d8:	00038a63          	beqz	t2,21ec <core_list_init+0x894>
    21dc:	0053a223          	sw	t0,4(t2)
    21e0:	00038793          	mv	a5,t2
    21e4:	0003a803          	lw	a6,0(t2)
    21e8:	f80812e3          	bnez	a6,216c <core_list_init+0x814>
    21ec:	00010337          	lui	t1,0x10
    21f0:	00c30593          	addi	a1,t1,12 # 1000c <core_cached_prev_head>
    21f4:	00a5a023          	sw	a0,0(a1)
    21f8:	00f5a223          	sw	a5,4(a1)
    21fc:	00008067          	ret
    2200:	00068513          	mv	a0,a3
    2204:	d31ff06f          	j	1f34 <core_list_init+0x5dc>
    2208:	004f8313          	addi	t1,t6,4
    220c:	00050693          	mv	a3,a0
    2210:	00000513          	li	a0,0
    2214:	fa8ff06f          	j	19bc <core_list_init+0x64>
    2218:	004f8313          	addi	t1,t6,4
    221c:	00050693          	mv	a3,a0
    2220:	00000513          	li	a0,0
    2224:	f98ff06f          	j	19bc <core_list_init+0x64>
    2228:	00000793          	li	a5,0
    222c:	fc1ff06f          	j	21ec <core_list_init+0x894>
    2230:	00070813          	mv	a6,a4
    2234:	e45ff06f          	j	2078 <core_list_init+0x720>

00002238 <core_list_insert_new>:
    2238:	00050813          	mv	a6,a0
    223c:	00062503          	lw	a0,0(a2)
    2240:	00c50893          	addi	a7,a0,12
    2244:	04e8f263          	bgeu	a7,a4,2288 <core_list_insert_new+0x50>
    2248:	0006a703          	lw	a4,0(a3)
    224c:	00470293          	addi	t0,a4,4
    2250:	04f2f063          	bgeu	t0,a5,2290 <core_list_insert_new+0x58>
    2254:	01162023          	sw	a7,0(a2)
    2258:	00082783          	lw	a5,0(a6)
    225c:	00f52023          	sw	a5,0(a0)
    2260:	01052223          	sw	a6,4(a0)
    2264:	00078463          	beqz	a5,226c <core_list_insert_new+0x34>
    2268:	00a7a223          	sw	a0,4(a5)
    226c:	00a82023          	sw	a0,0(a6)
    2270:	0056a023          	sw	t0,0(a3)
    2274:	00059303          	lh	t1,0(a1)
    2278:	00651423          	sh	t1,8(a0)
    227c:	00259383          	lh	t2,2(a1)
    2280:	00751523          	sh	t2,10(a0)
    2284:	00008067          	ret
    2288:	00000513          	li	a0,0
    228c:	00008067          	ret
    2290:	00000513          	li	a0,0
    2294:	00008067          	ret

00002298 <core_list_remove>:
    2298:	00050793          	mv	a5,a0
    229c:	00052503          	lw	a0,0(a0)
    22a0:	0087a703          	lw	a4,8(a5)
    22a4:	00852683          	lw	a3,8(a0)
    22a8:	00d7a423          	sw	a3,8(a5)
    22ac:	00e52423          	sw	a4,8(a0)
    22b0:	0007a283          	lw	t0,0(a5)
    22b4:	0002a303          	lw	t1,0(t0)
    22b8:	0067a023          	sw	t1,0(a5)
    22bc:	00052023          	sw	zero,0(a0)
    22c0:	00008067          	ret

000022c4 <core_list_undo_remove>:
    22c4:	00852783          	lw	a5,8(a0)
    22c8:	0085a703          	lw	a4,8(a1)
    22cc:	00e52423          	sw	a4,8(a0)
    22d0:	00f5a423          	sw	a5,8(a1)
    22d4:	0005a283          	lw	t0,0(a1)
    22d8:	00552023          	sw	t0,0(a0)
    22dc:	00a5a023          	sw	a0,0(a1)
    22e0:	00008067          	ret

000022e4 <core_list_find>:
    22e4:	00259303          	lh	t1,2(a1)
    22e8:	02034063          	bltz	t1,2308 <core_list_find+0x24>
    22ec:	00051863          	bnez	a0,22fc <core_list_find+0x18>
    22f0:	00008067          	ret
    22f4:	00052503          	lw	a0,0(a0)
    22f8:	02050663          	beqz	a0,2324 <core_list_find+0x40>
    22fc:	00a51283          	lh	t0,10(a0)
    2300:	fe629ae3          	bne	t0,t1,22f4 <core_list_find+0x10>
    2304:	00008067          	ret
    2308:	00050e63          	beqz	a0,2324 <core_list_find+0x40>
    230c:	00059703          	lh	a4,0(a1)
    2310:	00c0006f          	j	231c <core_list_find+0x38>
    2314:	00052503          	lw	a0,0(a0)
    2318:	00050663          	beqz	a0,2324 <core_list_find+0x40>
    231c:	00854783          	lbu	a5,8(a0)
    2320:	fee79ae3          	bne	a5,a4,2314 <core_list_find+0x30>
    2324:	00008067          	ret

00002328 <core_list_reverse>:
    2328:	0a050063          	beqz	a0,23c8 <core_list_reverse+0xa0>
    232c:	00000893          	li	a7,0
    2330:	00052783          	lw	a5,0(a0)
    2334:	01152023          	sw	a7,0(a0)
    2338:	00050693          	mv	a3,a0
    233c:	08078663          	beqz	a5,23c8 <core_list_reverse+0xa0>
    2340:	00078513          	mv	a0,a5
    2344:	0007a703          	lw	a4,0(a5)
    2348:	00d7a023          	sw	a3,0(a5)
    234c:	08070063          	beqz	a4,23cc <core_list_reverse+0xa4>
    2350:	00070513          	mv	a0,a4
    2354:	00072283          	lw	t0,0(a4)
    2358:	00f72023          	sw	a5,0(a4)
    235c:	06028663          	beqz	t0,23c8 <core_list_reverse+0xa0>
    2360:	00028513          	mv	a0,t0
    2364:	0002a303          	lw	t1,0(t0)
    2368:	00e2a023          	sw	a4,0(t0)
    236c:	04030e63          	beqz	t1,23c8 <core_list_reverse+0xa0>
    2370:	00030513          	mv	a0,t1
    2374:	00032383          	lw	t2,0(t1)
    2378:	00532023          	sw	t0,0(t1)
    237c:	04038663          	beqz	t2,23c8 <core_list_reverse+0xa0>
    2380:	00038513          	mv	a0,t2
    2384:	0003a583          	lw	a1,0(t2)
    2388:	0063a023          	sw	t1,0(t2)
    238c:	02058e63          	beqz	a1,23c8 <core_list_reverse+0xa0>
    2390:	00058513          	mv	a0,a1
    2394:	0005a603          	lw	a2,0(a1)
    2398:	0075a023          	sw	t2,0(a1)
    239c:	02060663          	beqz	a2,23c8 <core_list_reverse+0xa0>
    23a0:	00060513          	mv	a0,a2
    23a4:	00062803          	lw	a6,0(a2)
    23a8:	00b62023          	sw	a1,0(a2)
    23ac:	00060893          	mv	a7,a2
    23b0:	00080c63          	beqz	a6,23c8 <core_list_reverse+0xa0>
    23b4:	00080513          	mv	a0,a6
    23b8:	00052783          	lw	a5,0(a0)
    23bc:	01152023          	sw	a7,0(a0)
    23c0:	00050693          	mv	a3,a0
    23c4:	f6079ee3          	bnez	a5,2340 <core_list_reverse+0x18>
    23c8:	00008067          	ret
    23cc:	00008067          	ret

000023d0 <core_list_mergesort>:
    23d0:	fc010113          	addi	sp,sp,-64
    23d4:	02112e23          	sw	ra,60(sp)
    23d8:	02812c23          	sw	s0,56(sp)
    23dc:	02912a23          	sw	s1,52(sp)
    23e0:	03212823          	sw	s2,48(sp)
    23e4:	03312623          	sw	s3,44(sp)
    23e8:	03412423          	sw	s4,40(sp)
    23ec:	03512223          	sw	s5,36(sp)
    23f0:	03612023          	sw	s6,32(sp)
    23f4:	01712e23          	sw	s7,28(sp)
    23f8:	01812c23          	sw	s8,24(sp)
    23fc:	01912a23          	sw	s9,20(sp)
    2400:	01a12823          	sw	s10,16(sp)
    2404:	01b12623          	sw	s11,12(sp)
    2408:	00050713          	mv	a4,a0
    240c:	00058b93          	mv	s7,a1
    2410:	00060b13          	mv	s6,a2
    2414:	00100c13          	li	s8,1
    2418:	000c0d13          	mv	s10,s8
    241c:	1a070a63          	beqz	a4,25d0 <core_list_mergesort+0x200>
    2420:	00000c93          	li	s9,0
    2424:	00000913          	li	s2,0
    2428:	00000a93          	li	s5,0
    242c:	001c8c93          	addi	s9,s9,1
    2430:	00070793          	mv	a5,a4
    2434:	00000493          	li	s1,0
    2438:	007c7693          	andi	a3,s8,7
    243c:	08068463          	beqz	a3,24c4 <core_list_mergesort+0xf4>
    2440:	0f805663          	blez	s8,252c <core_list_mergesort+0x15c>
    2444:	00100493          	li	s1,1
    2448:	00072783          	lw	a5,0(a4)
    244c:	0e078063          	beqz	a5,252c <core_list_mergesort+0x15c>
    2450:	06968a63          	beq	a3,s1,24c4 <core_list_mergesort+0xf4>
    2454:	00200613          	li	a2,2
    2458:	06c68063          	beq	a3,a2,24b8 <core_list_mergesort+0xe8>
    245c:	00300593          	li	a1,3
    2460:	04b68663          	beq	a3,a1,24ac <core_list_mergesort+0xdc>
    2464:	00400293          	li	t0,4
    2468:	02568c63          	beq	a3,t0,24a0 <core_list_mergesort+0xd0>
    246c:	00500313          	li	t1,5
    2470:	02668263          	beq	a3,t1,2494 <core_list_mergesort+0xc4>
    2474:	00600393          	li	t2,6
    2478:	00768863          	beq	a3,t2,2488 <core_list_mergesort+0xb8>
    247c:	00060493          	mv	s1,a2
    2480:	0007a783          	lw	a5,0(a5)
    2484:	0a078463          	beqz	a5,252c <core_list_mergesort+0x15c>
    2488:	00148493          	addi	s1,s1,1
    248c:	0007a783          	lw	a5,0(a5)
    2490:	08078e63          	beqz	a5,252c <core_list_mergesort+0x15c>
    2494:	00148493          	addi	s1,s1,1
    2498:	0007a783          	lw	a5,0(a5)
    249c:	08078863          	beqz	a5,252c <core_list_mergesort+0x15c>
    24a0:	00148493          	addi	s1,s1,1
    24a4:	0007a783          	lw	a5,0(a5)
    24a8:	08078263          	beqz	a5,252c <core_list_mergesort+0x15c>
    24ac:	00148493          	addi	s1,s1,1
    24b0:	0007a783          	lw	a5,0(a5)
    24b4:	06078c63          	beqz	a5,252c <core_list_mergesort+0x15c>
    24b8:	00148493          	addi	s1,s1,1
    24bc:	0007a783          	lw	a5,0(a5)
    24c0:	06078663          	beqz	a5,252c <core_list_mergesort+0x15c>
    24c4:	0784d463          	bge	s1,s8,252c <core_list_mergesort+0x15c>
    24c8:	00148493          	addi	s1,s1,1
    24cc:	00048413          	mv	s0,s1
    24d0:	0007a783          	lw	a5,0(a5)
    24d4:	04078c63          	beqz	a5,252c <core_list_mergesort+0x15c>
    24d8:	00148493          	addi	s1,s1,1
    24dc:	0007a783          	lw	a5,0(a5)
    24e0:	04078663          	beqz	a5,252c <core_list_mergesort+0x15c>
    24e4:	00240493          	addi	s1,s0,2
    24e8:	0007a783          	lw	a5,0(a5)
    24ec:	04078063          	beqz	a5,252c <core_list_mergesort+0x15c>
    24f0:	00340493          	addi	s1,s0,3
    24f4:	0007a783          	lw	a5,0(a5)
    24f8:	02078a63          	beqz	a5,252c <core_list_mergesort+0x15c>
    24fc:	00440493          	addi	s1,s0,4
    2500:	0007a783          	lw	a5,0(a5)
    2504:	02078463          	beqz	a5,252c <core_list_mergesort+0x15c>
    2508:	00540493          	addi	s1,s0,5
    250c:	0007a783          	lw	a5,0(a5)
    2510:	00078e63          	beqz	a5,252c <core_list_mergesort+0x15c>
    2514:	00640493          	addi	s1,s0,6
    2518:	0007a783          	lw	a5,0(a5)
    251c:	00078863          	beqz	a5,252c <core_list_mergesort+0x15c>
    2520:	00740493          	addi	s1,s0,7
    2524:	0007a783          	lw	a5,0(a5)
    2528:	f8079ee3          	bnez	a5,24c4 <core_list_mergesort+0xf4>
    252c:	000c0a13          	mv	s4,s8
    2530:	00090413          	mv	s0,s2
    2534:	00070913          	mv	s2,a4
    2538:	00078713          	mv	a4,a5
    253c:	06905263          	blez	s1,25a0 <core_list_mergesort+0x1d0>
    2540:	080a0c63          	beqz	s4,25d8 <core_list_mergesort+0x208>
    2544:	48071c63          	bnez	a4,29dc <core_list_mergesort+0x60c>
    2548:	00092503          	lw	a0,0(s2)
    254c:	fff48493          	addi	s1,s1,-1
    2550:	56040263          	beqz	s0,2ab4 <core_list_mergesort+0x6e4>
    2554:	01242023          	sw	s2,0(s0)
    2558:	56049263          	bnez	s1,2abc <core_list_mergesort+0x6ec>
    255c:	00090993          	mv	s3,s2
    2560:	00000413          	li	s0,0
    2564:	00050913          	mv	s2,a0
    2568:	05405263          	blez	s4,25ac <core_list_mergesort+0x1dc>
    256c:	04040863          	beqz	s0,25bc <core_list_mergesort+0x1ec>
    2570:	0a048063          	beqz	s1,2610 <core_list_mergesort+0x240>
    2574:	00840d93          	addi	s11,s0,8
    2578:	000b0613          	mv	a2,s6
    257c:	000d8593          	mv	a1,s11
    2580:	00890513          	addi	a0,s2,8
    2584:	000b80e7          	jalr	s7
    2588:	24a05a63          	blez	a0,27dc <core_list_mergesort+0x40c>
    258c:	00042703          	lw	a4,0(s0)
    2590:	fffa0a13          	addi	s4,s4,-1
    2594:	06099a63          	bnez	s3,2608 <core_list_mergesort+0x238>
    2598:	00040a93          	mv	s5,s0
    259c:	fa9042e3          	bgtz	s1,2540 <core_list_mergesort+0x170>
    25a0:	00040993          	mv	s3,s0
    25a4:	00070413          	mv	s0,a4
    25a8:	fd4042e3          	bgtz	s4,256c <core_list_mergesort+0x19c>
    25ac:	00098913          	mv	s2,s3
    25b0:	00040713          	mv	a4,s0
    25b4:	e6071ce3          	bnez	a4,242c <core_list_mergesort+0x5c>
    25b8:	00090993          	mv	s3,s2
    25bc:	0009a023          	sw	zero,0(s3)
    25c0:	4bac8663          	beq	s9,s10,2a6c <core_list_mergesort+0x69c>
    25c4:	001c1c13          	slli	s8,s8,0x1
    25c8:	000a8713          	mv	a4,s5
    25cc:	e4071ae3          	bnez	a4,2420 <core_list_mergesort+0x50>
    25d0:	00072023          	sw	zero,0(a4)
    25d4:	00100073          	ebreak
    25d8:	fff48e13          	addi	t3,s1,-1
    25dc:	007e7e93          	andi	t4,t3,7
    25e0:	300e8863          	beqz	t4,28f0 <core_list_mergesort+0x520>
    25e4:	00092583          	lw	a1,0(s2)
    25e8:	000e0793          	mv	a5,t3
    25ec:	20040e63          	beqz	s0,2808 <core_list_mergesort+0x438>
    25f0:	01242023          	sw	s2,0(s0)
    25f4:	fc0780e3          	beqz	a5,25b4 <core_list_mergesort+0x1e4>
    25f8:	ffe48493          	addi	s1,s1,-2
    25fc:	00090993          	mv	s3,s2
    2600:	00058413          	mv	s0,a1
    2604:	0005a903          	lw	s2,0(a1)
    2608:	0089a023          	sw	s0,0(s3)
    260c:	f31ff06f          	j	253c <core_list_mergesort+0x16c>
    2610:	fffa0813          	addi	a6,s4,-1
    2614:	00787893          	andi	a7,a6,7
    2618:	0e088c63          	beqz	a7,2710 <core_list_mergesort+0x340>
    261c:	00042903          	lw	s2,0(s0)
    2620:	00080a13          	mv	s4,a6
    2624:	40098c63          	beqz	s3,2a3c <core_list_mergesort+0x66c>
    2628:	0089a023          	sw	s0,0(s3)
    262c:	00040993          	mv	s3,s0
    2630:	f80906e3          	beqz	s2,25bc <core_list_mergesort+0x1ec>
    2634:	00090413          	mv	s0,s2
    2638:	00100e13          	li	t3,1
    263c:	0dc88a63          	beq	a7,t3,2710 <core_list_mergesort+0x340>
    2640:	00200e93          	li	t4,2
    2644:	0bd88863          	beq	a7,t4,26f4 <core_list_mergesort+0x324>
    2648:	00300f13          	li	t5,3
    264c:	09e88663          	beq	a7,t5,26d8 <core_list_mergesort+0x308>
    2650:	00400f93          	li	t6,4
    2654:	07f88463          	beq	a7,t6,26bc <core_list_mergesort+0x2ec>
    2658:	00500693          	li	a3,5
    265c:	04d88263          	beq	a7,a3,26a0 <core_list_mergesort+0x2d0>
    2660:	00600613          	li	a2,6
    2664:	02c88063          	beq	a7,a2,2684 <core_list_mergesort+0x2b4>
    2668:	00092583          	lw	a1,0(s2)
    266c:	fffa0a13          	addi	s4,s4,-1
    2670:	42098e63          	beqz	s3,2aac <core_list_mergesort+0x6dc>
    2674:	0129a023          	sw	s2,0(s3)
    2678:	00040993          	mv	s3,s0
    267c:	f40580e3          	beqz	a1,25bc <core_list_mergesort+0x1ec>
    2680:	00058413          	mv	s0,a1
    2684:	00042283          	lw	t0,0(s0)
    2688:	fffa0a13          	addi	s4,s4,-1
    268c:	3c098c63          	beqz	s3,2a64 <core_list_mergesort+0x694>
    2690:	0089a023          	sw	s0,0(s3)
    2694:	00040993          	mv	s3,s0
    2698:	f20282e3          	beqz	t0,25bc <core_list_mergesort+0x1ec>
    269c:	00028413          	mv	s0,t0
    26a0:	00042303          	lw	t1,0(s0)
    26a4:	fffa0a13          	addi	s4,s4,-1
    26a8:	3a098a63          	beqz	s3,2a5c <core_list_mergesort+0x68c>
    26ac:	0089a023          	sw	s0,0(s3)
    26b0:	00040993          	mv	s3,s0
    26b4:	f00304e3          	beqz	t1,25bc <core_list_mergesort+0x1ec>
    26b8:	00030413          	mv	s0,t1
    26bc:	00042383          	lw	t2,0(s0)
    26c0:	fffa0a13          	addi	s4,s4,-1
    26c4:	38098863          	beqz	s3,2a54 <core_list_mergesort+0x684>
    26c8:	0089a023          	sw	s0,0(s3)
    26cc:	00040993          	mv	s3,s0
    26d0:	ee0386e3          	beqz	t2,25bc <core_list_mergesort+0x1ec>
    26d4:	00038413          	mv	s0,t2
    26d8:	00042483          	lw	s1,0(s0)
    26dc:	fffa0a13          	addi	s4,s4,-1
    26e0:	36098663          	beqz	s3,2a4c <core_list_mergesort+0x67c>
    26e4:	0089a023          	sw	s0,0(s3)
    26e8:	00040993          	mv	s3,s0
    26ec:	ec0488e3          	beqz	s1,25bc <core_list_mergesort+0x1ec>
    26f0:	00048413          	mv	s0,s1
    26f4:	00042783          	lw	a5,0(s0)
    26f8:	fffa0a13          	addi	s4,s4,-1
    26fc:	34098463          	beqz	s3,2a44 <core_list_mergesort+0x674>
    2700:	0089a023          	sw	s0,0(s3)
    2704:	00040993          	mv	s3,s0
    2708:	ea078ae3          	beqz	a5,25bc <core_list_mergesort+0x1ec>
    270c:	00078413          	mv	s0,a5
    2710:	00042703          	lw	a4,0(s0)
    2714:	fffa0a13          	addi	s4,s4,-1
    2718:	0a098863          	beqz	s3,27c8 <core_list_mergesort+0x3f8>
    271c:	0089a023          	sw	s0,0(s3)
    2720:	0a0a0863          	beqz	s4,27d0 <core_list_mergesort+0x400>
    2724:	00040993          	mv	s3,s0
    2728:	e8070ae3          	beqz	a4,25bc <core_list_mergesort+0x1ec>
    272c:	00072503          	lw	a0,0(a4)
    2730:	2c040a63          	beqz	s0,2a04 <core_list_mergesort+0x634>
    2734:	00e42023          	sw	a4,0(s0)
    2738:	00070993          	mv	s3,a4
    273c:	e80500e3          	beqz	a0,25bc <core_list_mergesort+0x1ec>
    2740:	00052403          	lw	s0,0(a0)
    2744:	2c070463          	beqz	a4,2a0c <core_list_mergesort+0x63c>
    2748:	00a72023          	sw	a0,0(a4)
    274c:	00050993          	mv	s3,a0
    2750:	e60406e3          	beqz	s0,25bc <core_list_mergesort+0x1ec>
    2754:	00042703          	lw	a4,0(s0)
    2758:	2a050e63          	beqz	a0,2a14 <core_list_mergesort+0x644>
    275c:	00852023          	sw	s0,0(a0)
    2760:	00040993          	mv	s3,s0
    2764:	e4070ce3          	beqz	a4,25bc <core_list_mergesort+0x1ec>
    2768:	00072d83          	lw	s11,0(a4)
    276c:	2a040863          	beqz	s0,2a1c <core_list_mergesort+0x64c>
    2770:	00e42023          	sw	a4,0(s0)
    2774:	00070993          	mv	s3,a4
    2778:	e40d82e3          	beqz	s11,25bc <core_list_mergesort+0x1ec>
    277c:	000da803          	lw	a6,0(s11)
    2780:	2a070263          	beqz	a4,2a24 <core_list_mergesort+0x654>
    2784:	01b72023          	sw	s11,0(a4)
    2788:	000d8993          	mv	s3,s11
    278c:	e20808e3          	beqz	a6,25bc <core_list_mergesort+0x1ec>
    2790:	00082883          	lw	a7,0(a6)
    2794:	280d8c63          	beqz	s11,2a2c <core_list_mergesort+0x65c>
    2798:	010da023          	sw	a6,0(s11)
    279c:	00080993          	mv	s3,a6
    27a0:	e0088ee3          	beqz	a7,25bc <core_list_mergesort+0x1ec>
    27a4:	0008a403          	lw	s0,0(a7)
    27a8:	ff9a0a13          	addi	s4,s4,-7
    27ac:	28080463          	beqz	a6,2a34 <core_list_mergesort+0x664>
    27b0:	01182023          	sw	a7,0(a6)
    27b4:	00088993          	mv	s3,a7
    27b8:	e00402e3          	beqz	s0,25bc <core_list_mergesort+0x1ec>
    27bc:	00042703          	lw	a4,0(s0)
    27c0:	fffa0a13          	addi	s4,s4,-1
    27c4:	f4099ce3          	bnez	s3,271c <core_list_mergesort+0x34c>
    27c8:	00040a93          	mv	s5,s0
    27cc:	f40a1ce3          	bnez	s4,2724 <core_list_mergesort+0x354>
    27d0:	00040913          	mv	s2,s0
    27d4:	c4071ce3          	bnez	a4,242c <core_list_mergesort+0x5c>
    27d8:	de1ff06f          	j	25b8 <core_list_mergesort+0x1e8>
    27dc:	00092703          	lw	a4,0(s2)
    27e0:	fff48493          	addi	s1,s1,-1
    27e4:	00098c63          	beqz	s3,27fc <core_list_mergesort+0x42c>
    27e8:	0129a023          	sw	s2,0(s3)
    27ec:	1e905e63          	blez	s1,29e8 <core_list_mergesort+0x618>
    27f0:	00090993          	mv	s3,s2
    27f4:	00070913          	mv	s2,a4
    27f8:	d81ff06f          	j	2578 <core_list_mergesort+0x1a8>
    27fc:	1e905c63          	blez	s1,29f4 <core_list_mergesort+0x624>
    2800:	00090a93          	mv	s5,s2
    2804:	fedff06f          	j	27f0 <core_list_mergesort+0x420>
    2808:	00090a93          	mv	s5,s2
    280c:	00090413          	mv	s0,s2
    2810:	000e0493          	mv	s1,t3
    2814:	00058913          	mv	s2,a1
    2818:	00100f13          	li	t5,1
    281c:	0dee8a63          	beq	t4,t5,28f0 <core_list_mergesort+0x520>
    2820:	00200f93          	li	t6,2
    2824:	0bfe8863          	beq	t4,t6,28d4 <core_list_mergesort+0x504>
    2828:	00300693          	li	a3,3
    282c:	08de8663          	beq	t4,a3,28b8 <core_list_mergesort+0x4e8>
    2830:	00400613          	li	a2,4
    2834:	06ce8463          	beq	t4,a2,289c <core_list_mergesort+0x4cc>
    2838:	00500293          	li	t0,5
    283c:	045e8263          	beq	t4,t0,2880 <core_list_mergesort+0x4b0>
    2840:	00600313          	li	t1,6
    2844:	026e8063          	beq	t4,t1,2864 <core_list_mergesort+0x494>
    2848:	0005a583          	lw	a1,0(a1)
    284c:	fffe0793          	addi	a5,t3,-1
    2850:	da0a90e3          	bnez	s5,25f0 <core_list_mergesort+0x220>
    2854:	00090a93          	mv	s5,s2
    2858:	00090413          	mv	s0,s2
    285c:	00078493          	mv	s1,a5
    2860:	00058913          	mv	s2,a1
    2864:	00092583          	lw	a1,0(s2)
    2868:	fff48793          	addi	a5,s1,-1
    286c:	d80412e3          	bnez	s0,25f0 <core_list_mergesort+0x220>
    2870:	00090a93          	mv	s5,s2
    2874:	00090413          	mv	s0,s2
    2878:	00078493          	mv	s1,a5
    287c:	00058913          	mv	s2,a1
    2880:	00092583          	lw	a1,0(s2)
    2884:	fff48793          	addi	a5,s1,-1
    2888:	d60414e3          	bnez	s0,25f0 <core_list_mergesort+0x220>
    288c:	00090a93          	mv	s5,s2
    2890:	00090413          	mv	s0,s2
    2894:	00078493          	mv	s1,a5
    2898:	00058913          	mv	s2,a1
    289c:	00092583          	lw	a1,0(s2)
    28a0:	fff48793          	addi	a5,s1,-1
    28a4:	d40416e3          	bnez	s0,25f0 <core_list_mergesort+0x220>
    28a8:	00090a93          	mv	s5,s2
    28ac:	00090413          	mv	s0,s2
    28b0:	00078493          	mv	s1,a5
    28b4:	00058913          	mv	s2,a1
    28b8:	00092583          	lw	a1,0(s2)
    28bc:	fff48793          	addi	a5,s1,-1
    28c0:	d20418e3          	bnez	s0,25f0 <core_list_mergesort+0x220>
    28c4:	00090a93          	mv	s5,s2
    28c8:	00090413          	mv	s0,s2
    28cc:	00078493          	mv	s1,a5
    28d0:	00058913          	mv	s2,a1
    28d4:	00092583          	lw	a1,0(s2)
    28d8:	fff48793          	addi	a5,s1,-1
    28dc:	d0041ae3          	bnez	s0,25f0 <core_list_mergesort+0x220>
    28e0:	00090a93          	mv	s5,s2
    28e4:	00090413          	mv	s0,s2
    28e8:	00078493          	mv	s1,a5
    28ec:	00058913          	mv	s2,a1
    28f0:	00092583          	lw	a1,0(s2)
    28f4:	fff48793          	addi	a5,s1,-1
    28f8:	ce041ce3          	bnez	s0,25f0 <core_list_mergesort+0x220>
    28fc:	00090a93          	mv	s5,s2
    2900:	00090413          	mv	s0,s2
    2904:	ca0788e3          	beqz	a5,25b4 <core_list_mergesort+0x1e4>
    2908:	00078393          	mv	t2,a5
    290c:	00078493          	mv	s1,a5
    2910:	00058913          	mv	s2,a1
    2914:	0005a583          	lw	a1,0(a1)
    2918:	fff78793          	addi	a5,a5,-1
    291c:	cc0a9ae3          	bnez	s5,25f0 <core_list_mergesort+0x220>
    2920:	00090a93          	mv	s5,s2
    2924:	00090413          	mv	s0,s2
    2928:	00078493          	mv	s1,a5
    292c:	00058913          	mv	s2,a1
    2930:	0005a583          	lw	a1,0(a1)
    2934:	fff78793          	addi	a5,a5,-1
    2938:	ca0a9ce3          	bnez	s5,25f0 <core_list_mergesort+0x220>
    293c:	00090a93          	mv	s5,s2
    2940:	00090413          	mv	s0,s2
    2944:	ffe38493          	addi	s1,t2,-2
    2948:	00058913          	mv	s2,a1
    294c:	0005a583          	lw	a1,0(a1)
    2950:	ffd38793          	addi	a5,t2,-3
    2954:	c80a9ee3          	bnez	s5,25f0 <core_list_mergesort+0x220>
    2958:	00090a93          	mv	s5,s2
    295c:	00090413          	mv	s0,s2
    2960:	00078493          	mv	s1,a5
    2964:	00058913          	mv	s2,a1
    2968:	0005a583          	lw	a1,0(a1)
    296c:	ffc38793          	addi	a5,t2,-4
    2970:	c80a90e3          	bnez	s5,25f0 <core_list_mergesort+0x220>
    2974:	00090a93          	mv	s5,s2
    2978:	00090413          	mv	s0,s2
    297c:	00078493          	mv	s1,a5
    2980:	00058913          	mv	s2,a1
    2984:	0005a583          	lw	a1,0(a1)
    2988:	ffb38793          	addi	a5,t2,-5
    298c:	c60a92e3          	bnez	s5,25f0 <core_list_mergesort+0x220>
    2990:	00090a93          	mv	s5,s2
    2994:	00090413          	mv	s0,s2
    2998:	00078493          	mv	s1,a5
    299c:	00058913          	mv	s2,a1
    29a0:	0005a583          	lw	a1,0(a1)
    29a4:	ffa38793          	addi	a5,t2,-6
    29a8:	c40a94e3          	bnez	s5,25f0 <core_list_mergesort+0x220>
    29ac:	00090a93          	mv	s5,s2
    29b0:	00090413          	mv	s0,s2
    29b4:	00078493          	mv	s1,a5
    29b8:	00058913          	mv	s2,a1
    29bc:	0005a583          	lw	a1,0(a1)
    29c0:	ff938793          	addi	a5,t2,-7
    29c4:	c20a96e3          	bnez	s5,25f0 <core_list_mergesort+0x220>
    29c8:	00090a93          	mv	s5,s2
    29cc:	00090413          	mv	s0,s2
    29d0:	00078493          	mv	s1,a5
    29d4:	00058913          	mv	s2,a1
    29d8:	f19ff06f          	j	28f0 <core_list_mergesort+0x520>
    29dc:	00040993          	mv	s3,s0
    29e0:	00070413          	mv	s0,a4
    29e4:	b91ff06f          	j	2574 <core_list_mergesort+0x1a4>
    29e8:	00090993          	mv	s3,s2
    29ec:	00070913          	mv	s2,a4
    29f0:	b79ff06f          	j	2568 <core_list_mergesort+0x198>
    29f4:	00090993          	mv	s3,s2
    29f8:	00090a93          	mv	s5,s2
    29fc:	00070913          	mv	s2,a4
    2a00:	b69ff06f          	j	2568 <core_list_mergesort+0x198>
    2a04:	00070a93          	mv	s5,a4
    2a08:	d31ff06f          	j	2738 <core_list_mergesort+0x368>
    2a0c:	00050a93          	mv	s5,a0
    2a10:	d3dff06f          	j	274c <core_list_mergesort+0x37c>
    2a14:	00040a93          	mv	s5,s0
    2a18:	d49ff06f          	j	2760 <core_list_mergesort+0x390>
    2a1c:	00070a93          	mv	s5,a4
    2a20:	d55ff06f          	j	2774 <core_list_mergesort+0x3a4>
    2a24:	000d8a93          	mv	s5,s11
    2a28:	d61ff06f          	j	2788 <core_list_mergesort+0x3b8>
    2a2c:	00080a93          	mv	s5,a6
    2a30:	d6dff06f          	j	279c <core_list_mergesort+0x3cc>
    2a34:	00088a93          	mv	s5,a7
    2a38:	d7dff06f          	j	27b4 <core_list_mergesort+0x3e4>
    2a3c:	00040a93          	mv	s5,s0
    2a40:	bedff06f          	j	262c <core_list_mergesort+0x25c>
    2a44:	00040a93          	mv	s5,s0
    2a48:	cbdff06f          	j	2704 <core_list_mergesort+0x334>
    2a4c:	00040a93          	mv	s5,s0
    2a50:	c99ff06f          	j	26e8 <core_list_mergesort+0x318>
    2a54:	00040a93          	mv	s5,s0
    2a58:	c75ff06f          	j	26cc <core_list_mergesort+0x2fc>
    2a5c:	00040a93          	mv	s5,s0
    2a60:	c51ff06f          	j	26b0 <core_list_mergesort+0x2e0>
    2a64:	00040a93          	mv	s5,s0
    2a68:	c2dff06f          	j	2694 <core_list_mergesort+0x2c4>
    2a6c:	000a8513          	mv	a0,s5
    2a70:	03c12083          	lw	ra,60(sp)
    2a74:	03812403          	lw	s0,56(sp)
    2a78:	03412483          	lw	s1,52(sp)
    2a7c:	03012903          	lw	s2,48(sp)
    2a80:	02c12983          	lw	s3,44(sp)
    2a84:	02812a03          	lw	s4,40(sp)
    2a88:	02412a83          	lw	s5,36(sp)
    2a8c:	02012b03          	lw	s6,32(sp)
    2a90:	01c12b83          	lw	s7,28(sp)
    2a94:	01812c03          	lw	s8,24(sp)
    2a98:	01412c83          	lw	s9,20(sp)
    2a9c:	01012d03          	lw	s10,16(sp)
    2aa0:	00c12d83          	lw	s11,12(sp)
    2aa4:	04010113          	addi	sp,sp,64
    2aa8:	00008067          	ret
    2aac:	00090a93          	mv	s5,s2
    2ab0:	bc9ff06f          	j	2678 <core_list_mergesort+0x2a8>
    2ab4:	00048a63          	beqz	s1,2ac8 <core_list_mergesort+0x6f8>
    2ab8:	00090a93          	mv	s5,s2
    2abc:	00090413          	mv	s0,s2
    2ac0:	00050913          	mv	s2,a0
    2ac4:	a81ff06f          	j	2544 <core_list_mergesort+0x174>
    2ac8:	00090993          	mv	s3,s2
    2acc:	00090a93          	mv	s5,s2
    2ad0:	00050913          	mv	s2,a0
    2ad4:	a95ff06f          	j	2568 <core_list_mergesort+0x198>

00002ad8 <iterate>:
    2ad8:	ff010113          	addi	sp,sp,-16
    2adc:	00112623          	sw	ra,12(sp)
    2ae0:	01212023          	sw	s2,0(sp)
    2ae4:	01c52903          	lw	s2,28(a0)
    2ae8:	02052c23          	sw	zero,56(a0)
    2aec:	02052e23          	sw	zero,60(a0)
    2af0:	34090a63          	beqz	s2,2e44 <iterate+0x36c>
    2af4:	00812423          	sw	s0,8(sp)
    2af8:	00912223          	sw	s1,4(sp)
    2afc:	00050413          	mv	s0,a0
    2b00:	00100593          	li	a1,1
    2b04:	8a5fd0ef          	jal	3a8 <core_bench_list>
    2b08:	03845783          	lhu	a5,56(s0)
    2b0c:	50f5050b          	.insn	4, 0x50f5050b
    2b10:	02a41c23          	sh	a0,56(s0)
    2b14:	fff00593          	li	a1,-1
    2b18:	00040513          	mv	a0,s0
    2b1c:	88dfd0ef          	jal	3a8 <core_bench_list>
    2b20:	03845283          	lhu	t0,56(s0)
    2b24:	5055030b          	.insn	4, 0x5055030b
    2b28:	01031393          	slli	t2,t1,0x10
    2b2c:	3c03348b          	th.extu	s1,t1,15,0
    2b30:	0074e5b3          	or	a1,s1,t2
    2b34:	02b42c23          	sw	a1,56(s0)
    2b38:	00100493          	li	s1,1
    2b3c:	36990863          	beq	s2,s1,2eac <iterate+0x3d4>
    2b40:	40990633          	sub	a2,s2,s1
    2b44:	00767693          	andi	a3,a2,7
    2b48:	16068663          	beqz	a3,2cb4 <iterate+0x1dc>
    2b4c:	12968863          	beq	a3,s1,2c7c <iterate+0x1a4>
    2b50:	00200713          	li	a4,2
    2b54:	0ee68a63          	beq	a3,a4,2c48 <iterate+0x170>
    2b58:	00300813          	li	a6,3
    2b5c:	0b068c63          	beq	a3,a6,2c14 <iterate+0x13c>
    2b60:	00400893          	li	a7,4
    2b64:	07168e63          	beq	a3,a7,2be0 <iterate+0x108>
    2b68:	00500e13          	li	t3,5
    2b6c:	05c68063          	beq	a3,t3,2bac <iterate+0xd4>
    2b70:	00600e93          	li	t4,6
    2b74:	31d69063          	bne	a3,t4,2e74 <iterate+0x39c>
    2b78:	00100593          	li	a1,1
    2b7c:	00040513          	mv	a0,s0
    2b80:	829fd0ef          	jal	3a8 <core_bench_list>
    2b84:	03845283          	lhu	t0,56(s0)
    2b88:	5055030b          	.insn	4, 0x5055030b
    2b8c:	02641c23          	sh	t1,56(s0)
    2b90:	fff00593          	li	a1,-1
    2b94:	00040513          	mv	a0,s0
    2b98:	811fd0ef          	jal	3a8 <core_bench_list>
    2b9c:	03845383          	lhu	t2,56(s0)
    2ba0:	5075058b          	.insn	4, 0x5075058b
    2ba4:	02b41c23          	sh	a1,56(s0)
    2ba8:	00148493          	addi	s1,s1,1
    2bac:	00100593          	li	a1,1
    2bb0:	00040513          	mv	a0,s0
    2bb4:	ff4fd0ef          	jal	3a8 <core_bench_list>
    2bb8:	03845603          	lhu	a2,56(s0)
    2bbc:	50c5068b          	.insn	4, 0x50c5068b
    2bc0:	02d41c23          	sh	a3,56(s0)
    2bc4:	fff00593          	li	a1,-1
    2bc8:	00040513          	mv	a0,s0
    2bcc:	fdcfd0ef          	jal	3a8 <core_bench_list>
    2bd0:	03845703          	lhu	a4,56(s0)
    2bd4:	50e5080b          	.insn	4, 0x50e5080b
    2bd8:	03041c23          	sh	a6,56(s0)
    2bdc:	00148493          	addi	s1,s1,1
    2be0:	00100593          	li	a1,1
    2be4:	00040513          	mv	a0,s0
    2be8:	fc0fd0ef          	jal	3a8 <core_bench_list>
    2bec:	03845883          	lhu	a7,56(s0)
    2bf0:	51150e0b          	.insn	4, 0x51150e0b
    2bf4:	03c41c23          	sh	t3,56(s0)
    2bf8:	fff00593          	li	a1,-1
    2bfc:	00040513          	mv	a0,s0
    2c00:	fa8fd0ef          	jal	3a8 <core_bench_list>
    2c04:	03845e83          	lhu	t4,56(s0)
    2c08:	51d50f0b          	.insn	4, 0x51d50f0b
    2c0c:	03e41c23          	sh	t5,56(s0)
    2c10:	00148493          	addi	s1,s1,1
    2c14:	00100593          	li	a1,1
    2c18:	00040513          	mv	a0,s0
    2c1c:	f8cfd0ef          	jal	3a8 <core_bench_list>
    2c20:	03845f83          	lhu	t6,56(s0)
    2c24:	51f5078b          	.insn	4, 0x51f5078b
    2c28:	02f41c23          	sh	a5,56(s0)
    2c2c:	fff00593          	li	a1,-1
    2c30:	00040513          	mv	a0,s0
    2c34:	f74fd0ef          	jal	3a8 <core_bench_list>
    2c38:	03845283          	lhu	t0,56(s0)
    2c3c:	5055050b          	.insn	4, 0x5055050b
    2c40:	02a41c23          	sh	a0,56(s0)
    2c44:	00148493          	addi	s1,s1,1
    2c48:	00100593          	li	a1,1
    2c4c:	00040513          	mv	a0,s0
    2c50:	f58fd0ef          	jal	3a8 <core_bench_list>
    2c54:	03845303          	lhu	t1,56(s0)
    2c58:	5065038b          	.insn	4, 0x5065038b
    2c5c:	02741c23          	sh	t2,56(s0)
    2c60:	fff00593          	li	a1,-1
    2c64:	00040513          	mv	a0,s0
    2c68:	f40fd0ef          	jal	3a8 <core_bench_list>
    2c6c:	03845583          	lhu	a1,56(s0)
    2c70:	50b5060b          	.insn	4, 0x50b5060b
    2c74:	02c41c23          	sh	a2,56(s0)
    2c78:	00148493          	addi	s1,s1,1
    2c7c:	00100593          	li	a1,1
    2c80:	00040513          	mv	a0,s0
    2c84:	f24fd0ef          	jal	3a8 <core_bench_list>
    2c88:	03845683          	lhu	a3,56(s0)
    2c8c:	50d5070b          	.insn	4, 0x50d5070b
    2c90:	02e41c23          	sh	a4,56(s0)
    2c94:	fff00593          	li	a1,-1
    2c98:	00040513          	mv	a0,s0
    2c9c:	f0cfd0ef          	jal	3a8 <core_bench_list>
    2ca0:	03845803          	lhu	a6,56(s0)
    2ca4:	5105088b          	.insn	4, 0x5105088b
    2ca8:	03141c23          	sh	a7,56(s0)
    2cac:	00148493          	addi	s1,s1,1
    2cb0:	1a990463          	beq	s2,s1,2e58 <iterate+0x380>
    2cb4:	00100593          	li	a1,1
    2cb8:	00040513          	mv	a0,s0
    2cbc:	eecfd0ef          	jal	3a8 <core_bench_list>
    2cc0:	03845e03          	lhu	t3,56(s0)
    2cc4:	51c50e8b          	.insn	4, 0x51c50e8b
    2cc8:	03d41c23          	sh	t4,56(s0)
    2ccc:	fff00593          	li	a1,-1
    2cd0:	00040513          	mv	a0,s0
    2cd4:	ed4fd0ef          	jal	3a8 <core_bench_list>
    2cd8:	03845f03          	lhu	t5,56(s0)
    2cdc:	51e50f8b          	.insn	4, 0x51e50f8b
    2ce0:	03f41c23          	sh	t6,56(s0)
    2ce4:	00100593          	li	a1,1
    2ce8:	00040513          	mv	a0,s0
    2cec:	ebcfd0ef          	jal	3a8 <core_bench_list>
    2cf0:	03845783          	lhu	a5,56(s0)
    2cf4:	50f5028b          	.insn	4, 0x50f5028b
    2cf8:	02541c23          	sh	t0,56(s0)
    2cfc:	fff00593          	li	a1,-1
    2d00:	00040513          	mv	a0,s0
    2d04:	ea4fd0ef          	jal	3a8 <core_bench_list>
    2d08:	03845303          	lhu	t1,56(s0)
    2d0c:	5065050b          	.insn	4, 0x5065050b
    2d10:	02a41c23          	sh	a0,56(s0)
    2d14:	00100593          	li	a1,1
    2d18:	00040513          	mv	a0,s0
    2d1c:	e8cfd0ef          	jal	3a8 <core_bench_list>
    2d20:	03845383          	lhu	t2,56(s0)
    2d24:	5075058b          	.insn	4, 0x5075058b
    2d28:	02b41c23          	sh	a1,56(s0)
    2d2c:	fff00593          	li	a1,-1
    2d30:	00040513          	mv	a0,s0
    2d34:	e74fd0ef          	jal	3a8 <core_bench_list>
    2d38:	03845603          	lhu	a2,56(s0)
    2d3c:	50c5068b          	.insn	4, 0x50c5068b
    2d40:	02d41c23          	sh	a3,56(s0)
    2d44:	00100593          	li	a1,1
    2d48:	00040513          	mv	a0,s0
    2d4c:	e5cfd0ef          	jal	3a8 <core_bench_list>
    2d50:	03845703          	lhu	a4,56(s0)
    2d54:	50e5080b          	.insn	4, 0x50e5080b
    2d58:	03041c23          	sh	a6,56(s0)
    2d5c:	fff00593          	li	a1,-1
    2d60:	00040513          	mv	a0,s0
    2d64:	e44fd0ef          	jal	3a8 <core_bench_list>
    2d68:	03845883          	lhu	a7,56(s0)
    2d6c:	51150e0b          	.insn	4, 0x51150e0b
    2d70:	03c41c23          	sh	t3,56(s0)
    2d74:	00100593          	li	a1,1
    2d78:	00040513          	mv	a0,s0
    2d7c:	e2cfd0ef          	jal	3a8 <core_bench_list>
    2d80:	03845e83          	lhu	t4,56(s0)
    2d84:	51d50f0b          	.insn	4, 0x51d50f0b
    2d88:	03e41c23          	sh	t5,56(s0)
    2d8c:	fff00593          	li	a1,-1
    2d90:	00040513          	mv	a0,s0
    2d94:	e14fd0ef          	jal	3a8 <core_bench_list>
    2d98:	03845f83          	lhu	t6,56(s0)
    2d9c:	51f5078b          	.insn	4, 0x51f5078b
    2da0:	02f41c23          	sh	a5,56(s0)
    2da4:	00100593          	li	a1,1
    2da8:	00040513          	mv	a0,s0
    2dac:	dfcfd0ef          	jal	3a8 <core_bench_list>
    2db0:	03845283          	lhu	t0,56(s0)
    2db4:	5055030b          	.insn	4, 0x5055030b
    2db8:	02641c23          	sh	t1,56(s0)
    2dbc:	fff00593          	li	a1,-1
    2dc0:	00040513          	mv	a0,s0
    2dc4:	de4fd0ef          	jal	3a8 <core_bench_list>
    2dc8:	03845383          	lhu	t2,56(s0)
    2dcc:	5075050b          	.insn	4, 0x5075050b
    2dd0:	02a41c23          	sh	a0,56(s0)
    2dd4:	00100593          	li	a1,1
    2dd8:	00040513          	mv	a0,s0
    2ddc:	dccfd0ef          	jal	3a8 <core_bench_list>
    2de0:	03845583          	lhu	a1,56(s0)
    2de4:	50b5060b          	.insn	4, 0x50b5060b
    2de8:	02c41c23          	sh	a2,56(s0)
    2dec:	fff00593          	li	a1,-1
    2df0:	00040513          	mv	a0,s0
    2df4:	db4fd0ef          	jal	3a8 <core_bench_list>
    2df8:	03845683          	lhu	a3,56(s0)
    2dfc:	50d5070b          	.insn	4, 0x50d5070b
    2e00:	02e41c23          	sh	a4,56(s0)
    2e04:	00100593          	li	a1,1
    2e08:	00040513          	mv	a0,s0
    2e0c:	d9cfd0ef          	jal	3a8 <core_bench_list>
    2e10:	03845803          	lhu	a6,56(s0)
    2e14:	5105088b          	.insn	4, 0x5105088b
    2e18:	03141c23          	sh	a7,56(s0)
    2e1c:	fff00593          	li	a1,-1
    2e20:	00040513          	mv	a0,s0
    2e24:	d84fd0ef          	jal	3a8 <core_bench_list>
    2e28:	03845e03          	lhu	t3,56(s0)
    2e2c:	51c50e8b          	.insn	4, 0x51c50e8b
    2e30:	03d41c23          	sh	t4,56(s0)
    2e34:	00848493          	addi	s1,s1,8
    2e38:	e6991ee3          	bne	s2,s1,2cb4 <iterate+0x1dc>
    2e3c:	00812403          	lw	s0,8(sp)
    2e40:	00412483          	lw	s1,4(sp)
    2e44:	00000513          	li	a0,0
    2e48:	00c12083          	lw	ra,12(sp)
    2e4c:	00012903          	lw	s2,0(sp)
    2e50:	01010113          	addi	sp,sp,16
    2e54:	00008067          	ret
    2e58:	00812403          	lw	s0,8(sp)
    2e5c:	00412483          	lw	s1,4(sp)
    2e60:	00000513          	li	a0,0
    2e64:	00c12083          	lw	ra,12(sp)
    2e68:	00012903          	lw	s2,0(sp)
    2e6c:	01010113          	addi	sp,sp,16
    2e70:	00008067          	ret
    2e74:	00048593          	mv	a1,s1
    2e78:	00040513          	mv	a0,s0
    2e7c:	d2cfd0ef          	jal	3a8 <core_bench_list>
    2e80:	03845f03          	lhu	t5,56(s0)
    2e84:	51e50f8b          	.insn	4, 0x51e50f8b
    2e88:	03f41c23          	sh	t6,56(s0)
    2e8c:	fff00593          	li	a1,-1
    2e90:	00040513          	mv	a0,s0
    2e94:	d14fd0ef          	jal	3a8 <core_bench_list>
    2e98:	03845783          	lhu	a5,56(s0)
    2e9c:	50f5050b          	.insn	4, 0x50f5050b
    2ea0:	02a41c23          	sh	a0,56(s0)
    2ea4:	00200493          	li	s1,2
    2ea8:	cd1ff06f          	j	2b78 <iterate+0xa0>
    2eac:	00812403          	lw	s0,8(sp)
    2eb0:	00412483          	lw	s1,4(sp)
    2eb4:	f91ff06f          	j	2e44 <iterate+0x36c>

00002eb8 <main>:
    2eb8:	f6010113          	addi	sp,sp,-160
    2ebc:	08112e23          	sw	ra,156(sp)
    2ec0:	08812c23          	sw	s0,152(sp)
    2ec4:	08912a23          	sw	s1,148(sp)
    2ec8:	09212823          	sw	s2,144(sp)
    2ecc:	09312623          	sw	s3,140(sp)
    2ed0:	09412423          	sw	s4,136(sp)
    2ed4:	09612023          	sw	s6,128(sp)
    2ed8:	07712e23          	sw	s7,124(sp)
    2edc:	07812c23          	sw	s8,120(sp)
    2ee0:	07912a23          	sw	s9,116(sp)
    2ee4:	07a12823          	sw	s10,112(sp)
    2ee8:	07b12623          	sw	s11,108(sp)
    2eec:	00012a23          	sw	zero,20(sp)
    2ef0:	01810613          	addi	a2,sp,24
    2ef4:	01410593          	addi	a1,sp,20
    2ef8:	05e10513          	addi	a0,sp,94
    2efc:	7f1040ef          	jal	7eec <portable_init>
    2f00:	00100513          	li	a0,1
    2f04:	441040ef          	jal	7b44 <get_seed_32>
    2f08:	00a11e23          	sh	a0,28(sp)
    2f0c:	00200513          	li	a0,2
    2f10:	435040ef          	jal	7b44 <get_seed_32>
    2f14:	00a11f23          	sh	a0,30(sp)
    2f18:	00300513          	li	a0,3
    2f1c:	429040ef          	jal	7b44 <get_seed_32>
    2f20:	02a11023          	sh	a0,32(sp)
    2f24:	00400513          	li	a0,4
    2f28:	41d040ef          	jal	7b44 <get_seed_32>
    2f2c:	02a12c23          	sw	a0,56(sp)
    2f30:	00500513          	li	a0,5
    2f34:	411040ef          	jal	7b44 <get_seed_32>
    2f38:	00051463          	bnez	a0,2f40 <main+0x88>
    2f3c:	00700513          	li	a0,7
    2f40:	02a12e23          	sw	a0,60(sp)
    2f44:	01c12783          	lw	a5,28(sp)
    2f48:	74078e63          	beqz	a5,36a4 <main+0x7ec>
    2f4c:	00100713          	li	a4,1
    2f50:	00e79463          	bne	a5,a4,2f58 <main+0xa0>
    2f54:	0480106f          	j	3f9c <main+0x10e4>
    2f58:	00010637          	lui	a2,0x10
    2f5c:	01460b13          	addi	s6,a2,20 # 10014 <static_memblk>
    2f60:	03612223          	sw	s6,36(sp)
    2f64:	04011e23          	sh	zero,92(sp)
    2f68:	00157a13          	andi	s4,a0,1
    2f6c:	000a0d93          	mv	s11,s4
    2f70:	00257693          	andi	a3,a0,2
    2f74:	50069063          	bnez	a3,3474 <main+0x5bc>
    2f78:	00457c13          	andi	s8,a0,4
    2f7c:	560c0063          	beqz	s8,34dc <main+0x624>
    2f80:	001a0513          	addi	a0,s4,1
    2f84:	3c05358b          	th.extu	a1,a0,15,0
    2f88:	7d000513          	li	a0,2000
    2f8c:	3ed080ef          	jal	bb78 <__hidden___udivsi3>
    2f90:	02a12a23          	sw	a0,52(sp)
    2f94:	000a0463          	beqz	s4,2f9c <main+0xe4>
    2f98:	6bd0006f          	j	3e54 <main+0xf9c>
    2f9c:	02ad8e33          	mul	t3,s11,a0
    2fa0:	00010eb7          	lui	t4,0x10
    2fa4:	014e8f13          	addi	t5,t4,20 # 10014 <static_memblk>
    2fa8:	01cf0fb3          	add	t6,t5,t3
    2fac:	03f12823          	sw	t6,48(sp)
    2fb0:	03c12783          	lw	a5,60(sp)
    2fb4:	0017f713          	andi	a4,a5,1
    2fb8:	00070e63          	beqz	a4,2fd4 <main+0x11c>
    2fbc:	01c11603          	lh	a2,28(sp)
    2fc0:	02812583          	lw	a1,40(sp)
    2fc4:	03412503          	lw	a0,52(sp)
    2fc8:	991fe0ef          	jal	1958 <core_list_init>
    2fcc:	04a12023          	sw	a0,64(sp)
    2fd0:	03c12783          	lw	a5,60(sp)
    2fd4:	0027f293          	andi	t0,a5,2
    2fd8:	50029e63          	bnez	t0,34f4 <main+0x63c>
    2fdc:	0047f313          	andi	t1,a5,4
    2fe0:	00030a63          	beqz	t1,2ff4 <main+0x13c>
    2fe4:	03012603          	lw	a2,48(sp)
    2fe8:	01c11583          	lh	a1,28(sp)
    2fec:	03412503          	lw	a0,52(sp)
    2ff0:	504040ef          	jal	74f4 <core_init_state>
    2ff4:	03812b03          	lw	s6,56(sp)
    2ff8:	3c0b1863          	bnez	s6,33c8 <main+0x510>
    2ffc:	00100a13          	li	s4,1
    3000:	03412c23          	sw	s4,56(sp)
    3004:	03812683          	lw	a3,56(sp)
    3008:	20d6c533          	sh2add	a0,a3,a3
    300c:	00151993          	slli	s3,a0,0x1
    3010:	03312c23          	sw	s3,56(sp)
    3014:	575040ef          	jal	7d88 <start_time>
    3018:	03812b83          	lw	s7,56(sp)
    301c:	04012a23          	sw	zero,84(sp)
    3020:	04012c23          	sw	zero,88(sp)
    3024:	360b8c63          	beqz	s7,339c <main+0x4e4>
    3028:	000a0593          	mv	a1,s4
    302c:	01c10513          	addi	a0,sp,28
    3030:	b78fd0ef          	jal	3a8 <core_bench_list>
    3034:	05415803          	lhu	a6,84(sp)
    3038:	51050c0b          	.insn	4, 0x51050c0b
    303c:	05811a23          	sh	s8,84(sp)
    3040:	fff00593          	li	a1,-1
    3044:	01c10513          	addi	a0,sp,28
    3048:	b60fd0ef          	jal	3a8 <core_bench_list>
    304c:	05415903          	lhu	s2,84(sp)
    3050:	5125088b          	.insn	4, 0x5125088b
    3054:	01089c93          	slli	s9,a7,0x10
    3058:	3c08bd0b          	th.extu	s10,a7,15,0
    305c:	019d6db3          	or	s11,s10,s9
    3060:	05b12a23          	sw	s11,84(sp)
    3064:	334b8c63          	beq	s7,s4,339c <main+0x4e4>
    3068:	00100413          	li	s0,1
    306c:	408b8e33          	sub	t3,s7,s0
    3070:	007e7e93          	andi	t4,t3,7
    3074:	1a0e8063          	beqz	t4,3214 <main+0x35c>
    3078:	168e8263          	beq	t4,s0,31dc <main+0x324>
    307c:	00200493          	li	s1,2
    3080:	129e8463          	beq	t4,s1,31a8 <main+0x2f0>
    3084:	00300f13          	li	t5,3
    3088:	0fee8663          	beq	t4,t5,3174 <main+0x2bc>
    308c:	00400f93          	li	t6,4
    3090:	0bfe8863          	beq	t4,t6,3140 <main+0x288>
    3094:	00500713          	li	a4,5
    3098:	06ee8a63          	beq	t4,a4,310c <main+0x254>
    309c:	00600793          	li	a5,6
    30a0:	02fe8c63          	beq	t4,a5,30d8 <main+0x220>
    30a4:	000a0593          	mv	a1,s4
    30a8:	01c10513          	addi	a0,sp,28
    30ac:	afcfd0ef          	jal	3a8 <core_bench_list>
    30b0:	05415283          	lhu	t0,84(sp)
    30b4:	5055030b          	.insn	4, 0x5055030b
    30b8:	04611a23          	sh	t1,84(sp)
    30bc:	fff00593          	li	a1,-1
    30c0:	01c10513          	addi	a0,sp,28
    30c4:	ae4fd0ef          	jal	3a8 <core_bench_list>
    30c8:	05415383          	lhu	t2,84(sp)
    30cc:	5075040b          	.insn	4, 0x5075040b
    30d0:	04811a23          	sh	s0,84(sp)
    30d4:	00048413          	mv	s0,s1
    30d8:	000a0593          	mv	a1,s4
    30dc:	01c10513          	addi	a0,sp,28
    30e0:	ac8fd0ef          	jal	3a8 <core_bench_list>
    30e4:	05415583          	lhu	a1,84(sp)
    30e8:	50b5060b          	.insn	4, 0x50b5060b
    30ec:	04c11a23          	sh	a2,84(sp)
    30f0:	fff00593          	li	a1,-1
    30f4:	01c10513          	addi	a0,sp,28
    30f8:	ab0fd0ef          	jal	3a8 <core_bench_list>
    30fc:	05415b03          	lhu	s6,84(sp)
    3100:	5165068b          	.insn	4, 0x5165068b
    3104:	04d11a23          	sh	a3,84(sp)
    3108:	00140413          	addi	s0,s0,1
    310c:	000a0593          	mv	a1,s4
    3110:	01c10513          	addi	a0,sp,28
    3114:	a94fd0ef          	jal	3a8 <core_bench_list>
    3118:	05415983          	lhu	s3,84(sp)
    311c:	5135050b          	.insn	4, 0x5135050b
    3120:	04a11a23          	sh	a0,84(sp)
    3124:	fff00593          	li	a1,-1
    3128:	01c10513          	addi	a0,sp,28
    312c:	a7cfd0ef          	jal	3a8 <core_bench_list>
    3130:	05415803          	lhu	a6,84(sp)
    3134:	51050c0b          	.insn	4, 0x51050c0b
    3138:	05811a23          	sh	s8,84(sp)
    313c:	00140413          	addi	s0,s0,1
    3140:	000a0593          	mv	a1,s4
    3144:	01c10513          	addi	a0,sp,28
    3148:	a60fd0ef          	jal	3a8 <core_bench_list>
    314c:	05415903          	lhu	s2,84(sp)
    3150:	5125088b          	.insn	4, 0x5125088b
    3154:	05111a23          	sh	a7,84(sp)
    3158:	fff00593          	li	a1,-1
    315c:	01c10513          	addi	a0,sp,28
    3160:	a48fd0ef          	jal	3a8 <core_bench_list>
    3164:	05415c83          	lhu	s9,84(sp)
    3168:	51950d0b          	.insn	4, 0x51950d0b
    316c:	05a11a23          	sh	s10,84(sp)
    3170:	00140413          	addi	s0,s0,1
    3174:	000a0593          	mv	a1,s4
    3178:	01c10513          	addi	a0,sp,28
    317c:	a2cfd0ef          	jal	3a8 <core_bench_list>
    3180:	05415d83          	lhu	s11,84(sp)
    3184:	51b50e0b          	.insn	4, 0x51b50e0b
    3188:	05c11a23          	sh	t3,84(sp)
    318c:	fff00593          	li	a1,-1
    3190:	01c10513          	addi	a0,sp,28
    3194:	a14fd0ef          	jal	3a8 <core_bench_list>
    3198:	05415e83          	lhu	t4,84(sp)
    319c:	51d5048b          	.insn	4, 0x51d5048b
    31a0:	04911a23          	sh	s1,84(sp)
    31a4:	00140413          	addi	s0,s0,1
    31a8:	000a0593          	mv	a1,s4
    31ac:	01c10513          	addi	a0,sp,28
    31b0:	9f8fd0ef          	jal	3a8 <core_bench_list>
    31b4:	05415f03          	lhu	t5,84(sp)
    31b8:	51e50f8b          	.insn	4, 0x51e50f8b
    31bc:	05f11a23          	sh	t6,84(sp)
    31c0:	fff00593          	li	a1,-1
    31c4:	01c10513          	addi	a0,sp,28
    31c8:	9e0fd0ef          	jal	3a8 <core_bench_list>
    31cc:	05415703          	lhu	a4,84(sp)
    31d0:	50e5078b          	.insn	4, 0x50e5078b
    31d4:	04f11a23          	sh	a5,84(sp)
    31d8:	00140413          	addi	s0,s0,1
    31dc:	000a0593          	mv	a1,s4
    31e0:	01c10513          	addi	a0,sp,28
    31e4:	9c4fd0ef          	jal	3a8 <core_bench_list>
    31e8:	05415283          	lhu	t0,84(sp)
    31ec:	5055030b          	.insn	4, 0x5055030b
    31f0:	04611a23          	sh	t1,84(sp)
    31f4:	fff00593          	li	a1,-1
    31f8:	01c10513          	addi	a0,sp,28
    31fc:	9acfd0ef          	jal	3a8 <core_bench_list>
    3200:	05415383          	lhu	t2,84(sp)
    3204:	5075058b          	.insn	4, 0x5075058b
    3208:	04b11a23          	sh	a1,84(sp)
    320c:	00140413          	addi	s0,s0,1
    3210:	188b8663          	beq	s7,s0,339c <main+0x4e4>
    3214:	000a0593          	mv	a1,s4
    3218:	01c10513          	addi	a0,sp,28
    321c:	98cfd0ef          	jal	3a8 <core_bench_list>
    3220:	05415603          	lhu	a2,84(sp)
    3224:	50c50b0b          	.insn	4, 0x50c50b0b
    3228:	05611a23          	sh	s6,84(sp)
    322c:	fff00593          	li	a1,-1
    3230:	01c10513          	addi	a0,sp,28
    3234:	974fd0ef          	jal	3a8 <core_bench_list>
    3238:	05415683          	lhu	a3,84(sp)
    323c:	50d5098b          	.insn	4, 0x50d5098b
    3240:	05311a23          	sh	s3,84(sp)
    3244:	000a0593          	mv	a1,s4
    3248:	01c10513          	addi	a0,sp,28
    324c:	95cfd0ef          	jal	3a8 <core_bench_list>
    3250:	05415803          	lhu	a6,84(sp)
    3254:	5105050b          	.insn	4, 0x5105050b
    3258:	04a11a23          	sh	a0,84(sp)
    325c:	fff00593          	li	a1,-1
    3260:	01c10513          	addi	a0,sp,28
    3264:	944fd0ef          	jal	3a8 <core_bench_list>
    3268:	05415c03          	lhu	s8,84(sp)
    326c:	5185090b          	.insn	4, 0x5185090b
    3270:	05211a23          	sh	s2,84(sp)
    3274:	000a0593          	mv	a1,s4
    3278:	01c10513          	addi	a0,sp,28
    327c:	92cfd0ef          	jal	3a8 <core_bench_list>
    3280:	05415883          	lhu	a7,84(sp)
    3284:	51150c8b          	.insn	4, 0x51150c8b
    3288:	05911a23          	sh	s9,84(sp)
    328c:	fff00593          	li	a1,-1
    3290:	01c10513          	addi	a0,sp,28
    3294:	914fd0ef          	jal	3a8 <core_bench_list>
    3298:	05415d03          	lhu	s10,84(sp)
    329c:	51a50d8b          	.insn	4, 0x51a50d8b
    32a0:	05b11a23          	sh	s11,84(sp)
    32a4:	000a0593          	mv	a1,s4
    32a8:	01c10513          	addi	a0,sp,28
    32ac:	8fcfd0ef          	jal	3a8 <core_bench_list>
    32b0:	05415e03          	lhu	t3,84(sp)
    32b4:	51c50e8b          	.insn	4, 0x51c50e8b
    32b8:	05d11a23          	sh	t4,84(sp)
    32bc:	fff00593          	li	a1,-1
    32c0:	01c10513          	addi	a0,sp,28
    32c4:	8e4fd0ef          	jal	3a8 <core_bench_list>
    32c8:	05415483          	lhu	s1,84(sp)
    32cc:	50950f0b          	.insn	4, 0x50950f0b
    32d0:	05e11a23          	sh	t5,84(sp)
    32d4:	000a0593          	mv	a1,s4
    32d8:	01c10513          	addi	a0,sp,28
    32dc:	8ccfd0ef          	jal	3a8 <core_bench_list>
    32e0:	05415f83          	lhu	t6,84(sp)
    32e4:	51f5070b          	.insn	4, 0x51f5070b
    32e8:	04e11a23          	sh	a4,84(sp)
    32ec:	fff00593          	li	a1,-1
    32f0:	01c10513          	addi	a0,sp,28
    32f4:	8b4fd0ef          	jal	3a8 <core_bench_list>
    32f8:	05415783          	lhu	a5,84(sp)
    32fc:	50f5028b          	.insn	4, 0x50f5028b
    3300:	04511a23          	sh	t0,84(sp)
    3304:	000a0593          	mv	a1,s4
    3308:	01c10513          	addi	a0,sp,28
    330c:	89cfd0ef          	jal	3a8 <core_bench_list>
    3310:	05415303          	lhu	t1,84(sp)
    3314:	5065038b          	.insn	4, 0x5065038b
    3318:	04711a23          	sh	t2,84(sp)
    331c:	fff00593          	li	a1,-1
    3320:	01c10513          	addi	a0,sp,28
    3324:	884fd0ef          	jal	3a8 <core_bench_list>
    3328:	05415583          	lhu	a1,84(sp)
    332c:	50b5060b          	.insn	4, 0x50b5060b
    3330:	04c11a23          	sh	a2,84(sp)
    3334:	000a0593          	mv	a1,s4
    3338:	01c10513          	addi	a0,sp,28
    333c:	86cfd0ef          	jal	3a8 <core_bench_list>
    3340:	05415b03          	lhu	s6,84(sp)
    3344:	5165068b          	.insn	4, 0x5165068b
    3348:	04d11a23          	sh	a3,84(sp)
    334c:	fff00593          	li	a1,-1
    3350:	01c10513          	addi	a0,sp,28
    3354:	854fd0ef          	jal	3a8 <core_bench_list>
    3358:	05415983          	lhu	s3,84(sp)
    335c:	5135080b          	.insn	4, 0x5135080b
    3360:	05011a23          	sh	a6,84(sp)
    3364:	000a0593          	mv	a1,s4
    3368:	01c10513          	addi	a0,sp,28
    336c:	83cfd0ef          	jal	3a8 <core_bench_list>
    3370:	05415c03          	lhu	s8,84(sp)
    3374:	5185050b          	.insn	4, 0x5185050b
    3378:	04a11a23          	sh	a0,84(sp)
    337c:	fff00593          	li	a1,-1
    3380:	01c10513          	addi	a0,sp,28
    3384:	824fd0ef          	jal	3a8 <core_bench_list>
    3388:	05415903          	lhu	s2,84(sp)
    338c:	5125088b          	.insn	4, 0x5125088b
    3390:	05111a23          	sh	a7,84(sp)
    3394:	00840413          	addi	s0,s0,8
    3398:	e68b9ee3          	bne	s7,s0,3214 <main+0x35c>
    339c:	289040ef          	jal	7e24 <stop_time>
    33a0:	321040ef          	jal	7ec0 <get_time>
    33a4:	335040ef          	jal	7ed8 <time_in_secs>
    33a8:	c4050ee3          	beqz	a0,3004 <main+0x14c>
    33ac:	00050593          	mv	a1,a0
    33b0:	00a00513          	li	a0,10
    33b4:	7c4080ef          	jal	bb78 <__hidden___udivsi3>
    33b8:	00150a13          	addi	s4,a0,1
    33bc:	03812b83          	lw	s7,56(sp)
    33c0:	034b8433          	mul	s0,s7,s4
    33c4:	02812c23          	sw	s0,56(sp)
    33c8:	1c1040ef          	jal	7d88 <start_time>
    33cc:	01c10513          	addi	a0,sp,28
    33d0:	f08ff0ef          	jal	2ad8 <iterate>
    33d4:	251040ef          	jal	7e24 <stop_time>
    33d8:	2e9040ef          	jal	7ec0 <get_time>
    33dc:	00050b13          	mv	s6,a0
    33e0:	01c15c83          	lhu	s9,28(sp)
    33e4:	00000d13          	li	s10,0
    33e8:	51ac8d8b          	.insn	4, 0x51ac8d8b
    33ec:	01e15e03          	lhu	t3,30(sp)
    33f0:	3c0dbe8b          	th.extu	t4,s11,15,0
    33f4:	51de048b          	.insn	4, 0x51de048b
    33f8:	02015f03          	lhu	t5,32(sp)
    33fc:	3c04bf8b          	th.extu	t6,s1,15,0
    3400:	51ff070b          	.insn	4, 0x51ff070b
    3404:	03415283          	lhu	t0,52(sp)
    3408:	3c07378b          	th.extu	a5,a4,15,0
    340c:	50f2830b          	.insn	4, 0x50f2830b
    3410:	3c033a0b          	th.extu	s4,t1,15,0
    3414:	000083b7          	lui	t2,0x8
    3418:	b0538593          	addi	a1,t2,-1275 # 7b05 <core_state_transition+0x351>
    341c:	30ba08e3          	beq	s4,a1,3f2c <main+0x1074>
    3420:	1145e263          	bltu	a1,s4,3524 <main+0x66c>
    3424:	00002fb7          	lui	t6,0x2
    3428:	8f2f8713          	addi	a4,t6,-1806 # 18f2 <core_bench_list+0x154a>
    342c:	2cea06e3          	beq	s4,a4,3ef8 <main+0x1040>
    3430:	000053b7          	lui	t2,0x5
    3434:	eaf38593          	addi	a1,t2,-337 # 4eaf <matrix_test+0x1df>
    3438:	20ba12e3          	bne	s4,a1,3e3c <main+0xf84>
    343c:	09512223          	sw	s5,132(sp)
    3440:	0000cab7          	lui	s5,0xc
    3444:	c80a8513          	addi	a0,s5,-896 # bc80 <__modsi3+0x8c>
    3448:	2ed040ef          	jal	7f34 <ee_printf>
    344c:	0000e637          	lui	a2,0xe
    3450:	5a460b93          	addi	s7,a2,1444 # e5a4 <_data_load_start+0x1e30>
    3454:	000b8d93          	mv	s11,s7
    3458:	000056b7          	lui	a3,0x5
    345c:	60868c13          	addi	s8,a3,1544 # 5608 <matrix_test+0x938>
    3460:	000c0d13          	mv	s10,s8
    3464:	000079b7          	lui	s3,0x7
    3468:	a7998c93          	addi	s9,s3,-1415 # 6a79 <core_bench_state+0x2ad>
    346c:	01912023          	sw	s9,0(sp)
    3470:	1000006f          	j	3570 <main+0x6b8>
    3474:	001a0993          	addi	s3,s4,1
    3478:	3c09bb8b          	th.extu	s7,s3,15,0
    347c:	00457c13          	andi	s8,a0,4
    3480:	040c0063          	beqz	s8,34c0 <main+0x608>
    3484:	002a0813          	addi	a6,s4,2
    3488:	3c08358b          	th.extu	a1,a6,15,0
    348c:	7d000513          	li	a0,2000
    3490:	6e8080ef          	jal	bb78 <__hidden___udivsi3>
    3494:	02a12a23          	sw	a0,52(sp)
    3498:	1a0a18e3          	bnez	s4,3e48 <main+0xf90>
    349c:	00400c13          	li	s8,4
    34a0:	02ad8933          	mul	s2,s11,a0
    34a4:	000108b7          	lui	a7,0x10
    34a8:	01488c93          	addi	s9,a7,20 # 10014 <static_memblk>
    34ac:	012c8d33          	add	s10,s9,s2
    34b0:	03a12623          	sw	s10,44(sp)
    34b4:	000b8d93          	mv	s11,s7
    34b8:	ae0c0ce3          	beqz	s8,2fb0 <main+0xf8>
    34bc:	ae1ff06f          	j	2f9c <main+0xe4>
    34c0:	000b8593          	mv	a1,s7
    34c4:	7d000513          	li	a0,2000
    34c8:	6b0080ef          	jal	bb78 <__hidden___udivsi3>
    34cc:	02a12a23          	sw	a0,52(sp)
    34d0:	fc0a08e3          	beqz	s4,34a0 <main+0x5e8>
    34d4:	03612423          	sw	s6,40(sp)
    34d8:	fc9ff06f          	j	34a0 <main+0x5e8>
    34dc:	7d000513          	li	a0,2000
    34e0:	02a12a23          	sw	a0,52(sp)
    34e4:	ac0a06e3          	beqz	s4,2fb0 <main+0xf8>
    34e8:	03612423          	sw	s6,40(sp)
    34ec:	ac0c02e3          	beqz	s8,2fb0 <main+0xf8>
    34f0:	aadff06f          	j	2f9c <main+0xe4>
    34f4:	01e11383          	lh	t2,30(sp)
    34f8:	01039413          	slli	s0,t2,0x10
    34fc:	01c11483          	lh	s1,28(sp)
    3500:	04410693          	addi	a3,sp,68
    3504:	00946633          	or	a2,s0,s1
    3508:	02c12583          	lw	a1,44(sp)
    350c:	03412503          	lw	a0,52(sp)
    3510:	49c020ef          	jal	59ac <core_init_matrix>
    3514:	03c12583          	lw	a1,60(sp)
    3518:	0045f613          	andi	a2,a1,4
    351c:	ac0614e3          	bnez	a2,2fe4 <main+0x12c>
    3520:	ad5ff06f          	j	2ff4 <main+0x13c>
    3524:	00009837          	lui	a6,0x9
    3528:	a0280c13          	addi	s8,a6,-1534 # 8a02 <ee_printf+0xace>
    352c:	238a0ce3          	beq	s4,s8,3f64 <main+0x10ac>
    3530:	0000fbb7          	lui	s7,0xf
    3534:	9f5b8d13          	addi	s10,s7,-1547 # e9f5 <_data_load_start+0x2281>
    3538:	19aa1063          	bne	s4,s10,36b8 <main+0x800>
    353c:	09512223          	sw	s5,132(sp)
    3540:	0000cdb7          	lui	s11,0xc
    3544:	cb4d8513          	addi	a0,s11,-844 # bcb4 <__modsi3+0xc0>
    3548:	1ed040ef          	jal	7f34 <ee_printf>
    354c:	00009e37          	lui	t3,0x9
    3550:	e3ae0b93          	addi	s7,t3,-454 # 8e3a <ee_printf+0xf06>
    3554:	000b8d93          	mv	s11,s7
    3558:	00002eb7          	lui	t4,0x2
    355c:	fd7e8c13          	addi	s8,t4,-41 # 1fd7 <core_list_init+0x67f>
    3560:	000c0d13          	mv	s10,s8
    3564:	0000e4b7          	lui	s1,0xe
    3568:	71448c93          	addi	s9,s1,1812 # e714 <_data_load_start+0x1fa0>
    356c:	01912023          	sw	s9,0(sp)
    3570:	00010ab7          	lui	s5,0x10
    3574:	000aa803          	lw	a6,0(s5) # 10000 <default_num_contexts>
    3578:	240804e3          	beqz	a6,3fc0 <main+0x1108>
    357c:	00000993          	li	s3,0
    3580:	00000413          	li	s0,0
    3584:	0000c537          	lui	a0,0xc
    3588:	d1050893          	addi	a7,a0,-752 # bd10 <__modsi3+0x11c>
    358c:	01112223          	sw	a7,4(sp)
    3590:	0000ce37          	lui	t3,0xc
    3594:	d40e0e93          	addi	t4,t3,-704 # bd40 <__modsi3+0x14c>
    3598:	01d12423          	sw	t4,8(sp)
    359c:	0000c4b7          	lui	s1,0xc
    35a0:	d7448f13          	addi	t5,s1,-652 # bd74 <__modsi3+0x180>
    35a4:	01e12623          	sw	t5,12(sp)
    35a8:	02c0006f          	j	35d4 <main+0x71c>
    35ac:	00491f13          	slli	t5,s2,0x4
    35b0:	012f0933          	add	s2,t5,s2
    35b4:	20294733          	sh2add	a4,s2,sp
    35b8:	05c75603          	lhu	a2,92(a4)
    35bc:	01360933          	add	s2,a2,s3
    35c0:	00090993          	mv	s3,s2
    35c4:	00140413          	addi	s0,s0,1
    35c8:	3c04340b          	th.extu	s0,s0,15,0
    35cc:	000aa683          	lw	a3,0(s5)
    35d0:	0cd47663          	bgeu	s0,a3,369c <main+0x7e4>
    35d4:	00040913          	mv	s2,s0
    35d8:	00441f93          	slli	t6,s0,0x4
    35dc:	008f8733          	add	a4,t6,s0
    35e0:	06010293          	addi	t0,sp,96
    35e4:	205744b3          	sh2add	s1,a4,t0
    35e8:	fe049e23          	sh	zero,-4(s1)
    35ec:	fdc4ae03          	lw	t3,-36(s1)
    35f0:	001e7313          	andi	t1,t3,1
    35f4:	02030663          	beqz	t1,3620 <main+0x768>
    35f8:	ff64d603          	lhu	a2,-10(s1)
    35fc:	03960263          	beq	a2,s9,3620 <main+0x768>
    3600:	00012683          	lw	a3,0(sp)
    3604:	00040593          	mv	a1,s0
    3608:	00412503          	lw	a0,4(sp)
    360c:	129040ef          	jal	7f34 <ee_printf>
    3610:	ffc4d783          	lhu	a5,-4(s1)
    3614:	00178393          	addi	t2,a5,1
    3618:	fe749e23          	sh	t2,-4(s1)
    361c:	fdc4ae03          	lw	t3,-36(s1)
    3620:	002e7593          	andi	a1,t3,2
    3624:	02058e63          	beqz	a1,3660 <main+0x7a8>
    3628:	00491613          	slli	a2,s2,0x4
    362c:	012606b3          	add	a3,a2,s2
    3630:	06010813          	addi	a6,sp,96
    3634:	2106c4b3          	sh2add	s1,a3,a6
    3638:	ff84d603          	lhu	a2,-8(s1)
    363c:	03a60263          	beq	a2,s10,3660 <main+0x7a8>
    3640:	000c0693          	mv	a3,s8
    3644:	00090593          	mv	a1,s2
    3648:	00812503          	lw	a0,8(sp)
    364c:	0e9040ef          	jal	7f34 <ee_printf>
    3650:	ffc4d503          	lhu	a0,-4(s1)
    3654:	00150893          	addi	a7,a0,1
    3658:	ff149e23          	sh	a7,-4(s1)
    365c:	fdc4ae03          	lw	t3,-36(s1)
    3660:	004e7e93          	andi	t4,t3,4
    3664:	f40e84e3          	beqz	t4,35ac <main+0x6f4>
    3668:	00491293          	slli	t0,s2,0x4
    366c:	01228333          	add	t1,t0,s2
    3670:	06010793          	addi	a5,sp,96
    3674:	20f344b3          	sh2add	s1,t1,a5
    3678:	ffa4d603          	lhu	a2,-6(s1)
    367c:	7fb61663          	bne	a2,s11,3e68 <main+0xfb0>
    3680:	ffc4d603          	lhu	a2,-4(s1)
    3684:	01360933          	add	s2,a2,s3
    3688:	00090993          	mv	s3,s2
    368c:	00140413          	addi	s0,s0,1
    3690:	3c04340b          	th.extu	s0,s0,15,0
    3694:	000aa683          	lw	a3,0(s5)
    3698:	f2d46ee3          	bltu	s0,a3,35d4 <main+0x71c>
    369c:	08412a83          	lw	s5,132(sp)
    36a0:	0200006f          	j	36c0 <main+0x808>
    36a4:	02011483          	lh	s1,32(sp)
    36a8:	8a0498e3          	bnez	s1,2f58 <main+0xa0>
    36ac:	06600593          	li	a1,102
    36b0:	02b11023          	sh	a1,32(sp)
    36b4:	8a5ff06f          	j	2f58 <main+0xa0>
    36b8:	00010f37          	lui	t5,0x10
    36bc:	ffff0913          	addi	s2,t5,-1 # ffff <_data_load_start+0x388b>
    36c0:	628040ef          	jal	7ce8 <check_data_types>
    36c4:	01250933          	add	s2,a0,s2
    36c8:	03412583          	lw	a1,52(sp)
    36cc:	0000cdb7          	lui	s11,0xc
    36d0:	da4d8513          	addi	a0,s11,-604 # bda4 <__modsi3+0x1b0>
    36d4:	061040ef          	jal	7f34 <ee_printf>
    36d8:	000b0593          	mv	a1,s6
    36dc:	0000cc37          	lui	s8,0xc
    36e0:	dbcc0513          	addi	a0,s8,-580 # bdbc <__modsi3+0x1c8>
    36e4:	051040ef          	jal	7f34 <ee_printf>
    36e8:	000b0513          	mv	a0,s6
    36ec:	7ec040ef          	jal	7ed8 <time_in_secs>
    36f0:	00050593          	mv	a1,a0
    36f4:	0000cd37          	lui	s10,0xc
    36f8:	dd4d0513          	addi	a0,s10,-556 # bdd4 <__modsi3+0x1e0>
    36fc:	039040ef          	jal	7f34 <ee_printf>
    3700:	000b0513          	mv	a0,s6
    3704:	7d4040ef          	jal	7ed8 <time_in_secs>
    3708:	7a051463          	bnez	a0,3eb0 <main+0xff8>
    370c:	000b0513          	mv	a0,s6
    3710:	7c8040ef          	jal	7ed8 <time_in_secs>
    3714:	00900b13          	li	s6,9
    3718:	78ab7263          	bgeu	s6,a0,3e9c <main+0xfe4>
    371c:	3c092b8b          	th.ext	s7,s2,15,0
    3720:	00010db7          	lui	s11,0x10
    3724:	000dae83          	lw	t4,0(s11) # 10000 <default_num_contexts>
    3728:	03812f03          	lw	t5,56(sp)
    372c:	03df05b3          	mul	a1,t5,t4
    3730:	0000cfb7          	lui	t6,0xc
    3734:	e44f8513          	addi	a0,t6,-444 # be44 <__modsi3+0x250>
    3738:	7fc040ef          	jal	7f34 <ee_printf>
    373c:	0000c737          	lui	a4,0xc
    3740:	e5c70593          	addi	a1,a4,-420 # be5c <__modsi3+0x268>
    3744:	0000c2b7          	lui	t0,0xc
    3748:	e6828513          	addi	a0,t0,-408 # be68 <__modsi3+0x274>
    374c:	7e8040ef          	jal	7f34 <ee_printf>
    3750:	0000c337          	lui	t1,0xc
    3754:	e8030593          	addi	a1,t1,-384 # be80 <__modsi3+0x28c>
    3758:	0000c7b7          	lui	a5,0xc
    375c:	06c78513          	addi	a0,a5,108 # c06c <__modsi3+0x478>
    3760:	7d4040ef          	jal	7f34 <ee_printf>
    3764:	0000c3b7          	lui	t2,0xc
    3768:	08438593          	addi	a1,t2,132 # c084 <__modsi3+0x490>
    376c:	0000c637          	lui	a2,0xc
    3770:	09060513          	addi	a0,a2,144 # c090 <__modsi3+0x49c>
    3774:	7c0040ef          	jal	7f34 <ee_printf>
    3778:	000a0593          	mv	a1,s4
    377c:	0000ca37          	lui	s4,0xc
    3780:	0a8a0513          	addi	a0,s4,168 # c0a8 <__modsi3+0x4b4>
    3784:	7b0040ef          	jal	7f34 <ee_printf>
    3788:	03c12583          	lw	a1,60(sp)
    378c:	0015f993          	andi	s3,a1,1
    3790:	18098a63          	beqz	s3,3924 <main+0xa6c>
    3794:	000da403          	lw	s0,0(s11)
    3798:	18040663          	beqz	s0,3924 <main+0xa6c>
    379c:	00000913          	li	s2,0
    37a0:	0000c6b7          	lui	a3,0xc
    37a4:	0c468c13          	addi	s8,a3,196 # c0c4 <__modsi3+0x4d0>
    37a8:	00491d13          	slli	s10,s2,0x4
    37ac:	012d0cb3          	add	s9,s10,s2
    37b0:	202cc533          	sh2add	a0,s9,sp
    37b4:	05655603          	lhu	a2,86(a0)
    37b8:	00090593          	mv	a1,s2
    37bc:	000c0513          	mv	a0,s8
    37c0:	774040ef          	jal	7f34 <ee_printf>
    37c4:	00190493          	addi	s1,s2,1
    37c8:	3c04bb0b          	th.extu	s6,s1,15,0
    37cc:	000da883          	lw	a7,0(s11)
    37d0:	151b7a63          	bgeu	s6,a7,3924 <main+0xa6c>
    37d4:	004b1e13          	slli	t3,s6,0x4
    37d8:	016e0933          	add	s2,t3,s6
    37dc:	06010e93          	addi	t4,sp,96
    37e0:	21d94f33          	sh2add	t5,s2,t4
    37e4:	ff6f5603          	lhu	a2,-10(t5)
    37e8:	000b0593          	mv	a1,s6
    37ec:	000c0513          	mv	a0,s8
    37f0:	744040ef          	jal	7f34 <ee_printf>
    37f4:	001b0f93          	addi	t6,s6,1
    37f8:	3c0fba0b          	th.extu	s4,t6,15,0
    37fc:	000da703          	lw	a4,0(s11)
    3800:	12ea7263          	bgeu	s4,a4,3924 <main+0xa6c>
    3804:	004a1293          	slli	t0,s4,0x4
    3808:	01428333          	add	t1,t0,s4
    380c:	06010793          	addi	a5,sp,96
    3810:	20f343b3          	sh2add	t2,t1,a5
    3814:	ff63d603          	lhu	a2,-10(t2)
    3818:	000a0593          	mv	a1,s4
    381c:	000c0513          	mv	a0,s8
    3820:	714040ef          	jal	7f34 <ee_printf>
    3824:	001a0613          	addi	a2,s4,1
    3828:	3c06398b          	th.extu	s3,a2,15,0
    382c:	000da583          	lw	a1,0(s11)
    3830:	0eb9fa63          	bgeu	s3,a1,3924 <main+0xa6c>
    3834:	00499413          	slli	s0,s3,0x4
    3838:	013406b3          	add	a3,s0,s3
    383c:	06010d13          	addi	s10,sp,96
    3840:	21a6ccb3          	sh2add	s9,a3,s10
    3844:	ff6cd603          	lhu	a2,-10(s9)
    3848:	00098593          	mv	a1,s3
    384c:	000c0513          	mv	a0,s8
    3850:	6e4040ef          	jal	7f34 <ee_printf>
    3854:	00198813          	addi	a6,s3,1
    3858:	3c08348b          	th.extu	s1,a6,15,0
    385c:	000da503          	lw	a0,0(s11)
    3860:	0ca4f263          	bgeu	s1,a0,3924 <main+0xa6c>
    3864:	00449b13          	slli	s6,s1,0x4
    3868:	009b08b3          	add	a7,s6,s1
    386c:	06010e13          	addi	t3,sp,96
    3870:	21c8c933          	sh2add	s2,a7,t3
    3874:	ff695603          	lhu	a2,-10(s2)
    3878:	00048593          	mv	a1,s1
    387c:	000c0513          	mv	a0,s8
    3880:	6b4040ef          	jal	7f34 <ee_printf>
    3884:	00148e93          	addi	t4,s1,1
    3888:	3c0eba0b          	th.extu	s4,t4,15,0
    388c:	000daf03          	lw	t5,0(s11)
    3890:	09ea7a63          	bgeu	s4,t5,3924 <main+0xa6c>
    3894:	004a1f93          	slli	t6,s4,0x4
    3898:	014f82b3          	add	t0,t6,s4
    389c:	06010713          	addi	a4,sp,96
    38a0:	20e2c333          	sh2add	t1,t0,a4
    38a4:	ff635603          	lhu	a2,-10(t1)
    38a8:	000a0593          	mv	a1,s4
    38ac:	000c0513          	mv	a0,s8
    38b0:	684040ef          	jal	7f34 <ee_printf>
    38b4:	001a0793          	addi	a5,s4,1
    38b8:	3c07b98b          	th.extu	s3,a5,15,0
    38bc:	000da383          	lw	t2,0(s11)
    38c0:	0679f263          	bgeu	s3,t2,3924 <main+0xa6c>
    38c4:	00499613          	slli	a2,s3,0x4
    38c8:	013605b3          	add	a1,a2,s3
    38cc:	06010413          	addi	s0,sp,96
    38d0:	2085c6b3          	sh2add	a3,a1,s0
    38d4:	ff66d603          	lhu	a2,-10(a3)
    38d8:	00098593          	mv	a1,s3
    38dc:	000c0513          	mv	a0,s8
    38e0:	654040ef          	jal	7f34 <ee_printf>
    38e4:	00198d13          	addi	s10,s3,1
    38e8:	3c0d3c8b          	th.extu	s9,s10,15,0
    38ec:	000da803          	lw	a6,0(s11)
    38f0:	030cfa63          	bgeu	s9,a6,3924 <main+0xa6c>
    38f4:	004c9493          	slli	s1,s9,0x4
    38f8:	01948533          	add	a0,s1,s9
    38fc:	06010b13          	addi	s6,sp,96
    3900:	216548b3          	sh2add	a7,a0,s6
    3904:	ff68d603          	lhu	a2,-10(a7)
    3908:	000c8593          	mv	a1,s9
    390c:	000c0513          	mv	a0,s8
    3910:	624040ef          	jal	7f34 <ee_printf>
    3914:	001c8e13          	addi	t3,s9,1
    3918:	3c0e390b          	th.extu	s2,t3,15,0
    391c:	000dae83          	lw	t4,0(s11)
    3920:	e9d964e3          	bltu	s2,t4,37a8 <main+0x8f0>
    3924:	03c12d83          	lw	s11,60(sp)
    3928:	002dfc13          	andi	s8,s11,2
    392c:	180c0c63          	beqz	s8,3ac4 <main+0xc0c>
    3930:	00010a37          	lui	s4,0x10
    3934:	000a2f03          	lw	t5,0(s4) # 10000 <default_num_contexts>
    3938:	680f0a63          	beqz	t5,3fcc <main+0x1114>
    393c:	00000d13          	li	s10,0
    3940:	0000c2b7          	lui	t0,0xc
    3944:	0e028993          	addi	s3,t0,224 # c0e0 <__modsi3+0x4ec>
    3948:	004d1713          	slli	a4,s10,0x4
    394c:	01a70333          	add	t1,a4,s10
    3950:	202343b3          	sh2add	t2,t1,sp
    3954:	0583d603          	lhu	a2,88(t2)
    3958:	000d0593          	mv	a1,s10
    395c:	00098513          	mv	a0,s3
    3960:	5d4040ef          	jal	7f34 <ee_printf>
    3964:	001d0613          	addi	a2,s10,1
    3968:	3c06340b          	th.extu	s0,a2,15,0
    396c:	000a2583          	lw	a1,0(s4)
    3970:	14b47a63          	bgeu	s0,a1,3ac4 <main+0xc0c>
    3974:	00441693          	slli	a3,s0,0x4
    3978:	00868d33          	add	s10,a3,s0
    397c:	06010c93          	addi	s9,sp,96
    3980:	219d4833          	sh2add	a6,s10,s9
    3984:	ff885603          	lhu	a2,-8(a6)
    3988:	00040593          	mv	a1,s0
    398c:	00098513          	mv	a0,s3
    3990:	5a4040ef          	jal	7f34 <ee_printf>
    3994:	00140493          	addi	s1,s0,1
    3998:	3c04bb0b          	th.extu	s6,s1,15,0
    399c:	000a2503          	lw	a0,0(s4)
    39a0:	12ab7263          	bgeu	s6,a0,3ac4 <main+0xc0c>
    39a4:	004b1893          	slli	a7,s6,0x4
    39a8:	01688e33          	add	t3,a7,s6
    39ac:	06010913          	addi	s2,sp,96
    39b0:	212e4eb3          	sh2add	t4,t3,s2
    39b4:	ff8ed603          	lhu	a2,-8(t4)
    39b8:	000b0593          	mv	a1,s6
    39bc:	00098513          	mv	a0,s3
    39c0:	574040ef          	jal	7f34 <ee_printf>
    39c4:	001b0d93          	addi	s11,s6,1
    39c8:	3c0dbc0b          	th.extu	s8,s11,15,0
    39cc:	000a2f03          	lw	t5,0(s4)
    39d0:	0fec7a63          	bgeu	s8,t5,3ac4 <main+0xc0c>
    39d4:	004c1f93          	slli	t6,s8,0x4
    39d8:	018f82b3          	add	t0,t6,s8
    39dc:	06010713          	addi	a4,sp,96
    39e0:	20e2c333          	sh2add	t1,t0,a4
    39e4:	ff835603          	lhu	a2,-8(t1)
    39e8:	000c0593          	mv	a1,s8
    39ec:	00098513          	mv	a0,s3
    39f0:	544040ef          	jal	7f34 <ee_printf>
    39f4:	001c0793          	addi	a5,s8,1
    39f8:	3c07b40b          	th.extu	s0,a5,15,0
    39fc:	000a2383          	lw	t2,0(s4)
    3a00:	0c747263          	bgeu	s0,t2,3ac4 <main+0xc0c>
    3a04:	00441613          	slli	a2,s0,0x4
    3a08:	008605b3          	add	a1,a2,s0
    3a0c:	06010693          	addi	a3,sp,96
    3a10:	20d5cd33          	sh2add	s10,a1,a3
    3a14:	ff8d5603          	lhu	a2,-8(s10)
    3a18:	00040593          	mv	a1,s0
    3a1c:	00098513          	mv	a0,s3
    3a20:	514040ef          	jal	7f34 <ee_printf>
    3a24:	00140c93          	addi	s9,s0,1
    3a28:	3c0cb48b          	th.extu	s1,s9,15,0
    3a2c:	000a2803          	lw	a6,0(s4)
    3a30:	0904fa63          	bgeu	s1,a6,3ac4 <main+0xc0c>
    3a34:	00449b13          	slli	s6,s1,0x4
    3a38:	009b0533          	add	a0,s6,s1
    3a3c:	06010893          	addi	a7,sp,96
    3a40:	21154e33          	sh2add	t3,a0,a7
    3a44:	ff8e5603          	lhu	a2,-8(t3)
    3a48:	00048593          	mv	a1,s1
    3a4c:	00098513          	mv	a0,s3
    3a50:	4e4040ef          	jal	7f34 <ee_printf>
    3a54:	00148913          	addi	s2,s1,1
    3a58:	3c093d8b          	th.extu	s11,s2,15,0
    3a5c:	000a2e83          	lw	t4,0(s4)
    3a60:	07ddf263          	bgeu	s11,t4,3ac4 <main+0xc0c>
    3a64:	004d9c13          	slli	s8,s11,0x4
    3a68:	01bc0f33          	add	t5,s8,s11
    3a6c:	06010f93          	addi	t6,sp,96
    3a70:	21ff42b3          	sh2add	t0,t5,t6
    3a74:	ff82d603          	lhu	a2,-8(t0)
    3a78:	000d8593          	mv	a1,s11
    3a7c:	00098513          	mv	a0,s3
    3a80:	4b4040ef          	jal	7f34 <ee_printf>
    3a84:	001d8713          	addi	a4,s11,1
    3a88:	3c07340b          	th.extu	s0,a4,15,0
    3a8c:	000a2303          	lw	t1,0(s4)
    3a90:	02647a63          	bgeu	s0,t1,3ac4 <main+0xc0c>
    3a94:	00441793          	slli	a5,s0,0x4
    3a98:	008783b3          	add	t2,a5,s0
    3a9c:	06010613          	addi	a2,sp,96
    3aa0:	20c3c5b3          	sh2add	a1,t2,a2
    3aa4:	ff85d603          	lhu	a2,-8(a1)
    3aa8:	00040593          	mv	a1,s0
    3aac:	00098513          	mv	a0,s3
    3ab0:	484040ef          	jal	7f34 <ee_printf>
    3ab4:	00140693          	addi	a3,s0,1
    3ab8:	3c06bd0b          	th.extu	s10,a3,15,0
    3abc:	000a2c83          	lw	s9,0(s4)
    3ac0:	e99d64e3          	bltu	s10,s9,3948 <main+0xa90>
    3ac4:	03c12a03          	lw	s4,60(sp)
    3ac8:	004a7993          	andi	s3,s4,4
    3acc:	18098c63          	beqz	s3,3c64 <main+0xdac>
    3ad0:	00010b37          	lui	s6,0x10
    3ad4:	000b2483          	lw	s1,0(s6) # 10000 <default_num_contexts>
    3ad8:	30048663          	beqz	s1,3de4 <main+0xf2c>
    3adc:	00000413          	li	s0,0
    3ae0:	0000c837          	lui	a6,0xc
    3ae4:	0fc80913          	addi	s2,a6,252 # c0fc <__modsi3+0x508>
    3ae8:	00441513          	slli	a0,s0,0x4
    3aec:	008508b3          	add	a7,a0,s0
    3af0:	2028cdb3          	sh2add	s11,a7,sp
    3af4:	05add603          	lhu	a2,90(s11)
    3af8:	00040593          	mv	a1,s0
    3afc:	00090513          	mv	a0,s2
    3b00:	434040ef          	jal	7f34 <ee_printf>
    3b04:	00140e93          	addi	t4,s0,1
    3b08:	3c0ebc0b          	th.extu	s8,t4,15,0
    3b0c:	000b2f03          	lw	t5,0(s6)
    3b10:	15ec7a63          	bgeu	s8,t5,3c64 <main+0xdac>
    3b14:	004c1f93          	slli	t6,s8,0x4
    3b18:	018f82b3          	add	t0,t6,s8
    3b1c:	06010713          	addi	a4,sp,96
    3b20:	20e2c433          	sh2add	s0,t0,a4
    3b24:	ffa45603          	lhu	a2,-6(s0)
    3b28:	000c0593          	mv	a1,s8
    3b2c:	00090513          	mv	a0,s2
    3b30:	404040ef          	jal	7f34 <ee_printf>
    3b34:	001c0313          	addi	t1,s8,1
    3b38:	3c033d0b          	th.extu	s10,t1,15,0
    3b3c:	000b2783          	lw	a5,0(s6)
    3b40:	12fd7263          	bgeu	s10,a5,3c64 <main+0xdac>
    3b44:	004d1393          	slli	t2,s10,0x4
    3b48:	01a38633          	add	a2,t2,s10
    3b4c:	06010593          	addi	a1,sp,96
    3b50:	20b646b3          	sh2add	a3,a2,a1
    3b54:	ffa6d603          	lhu	a2,-6(a3)
    3b58:	000d0593          	mv	a1,s10
    3b5c:	00090513          	mv	a0,s2
    3b60:	3d4040ef          	jal	7f34 <ee_printf>
    3b64:	001d0c93          	addi	s9,s10,1
    3b68:	3c0cba0b          	th.extu	s4,s9,15,0
    3b6c:	000b2983          	lw	s3,0(s6)
    3b70:	0f3a7a63          	bgeu	s4,s3,3c64 <main+0xdac>
    3b74:	004a1493          	slli	s1,s4,0x4
    3b78:	01448833          	add	a6,s1,s4
    3b7c:	06010513          	addi	a0,sp,96
    3b80:	20a848b3          	sh2add	a7,a6,a0
    3b84:	ffa8d603          	lhu	a2,-6(a7)
    3b88:	000a0593          	mv	a1,s4
    3b8c:	00090513          	mv	a0,s2
    3b90:	3a4040ef          	jal	7f34 <ee_printf>
    3b94:	001a0e13          	addi	t3,s4,1
    3b98:	3c0e3d8b          	th.extu	s11,t3,15,0
    3b9c:	000b2e83          	lw	t4,0(s6)
    3ba0:	0dddf263          	bgeu	s11,t4,3c64 <main+0xdac>
    3ba4:	004d9c13          	slli	s8,s11,0x4
    3ba8:	01bc0f33          	add	t5,s8,s11
    3bac:	06010f93          	addi	t6,sp,96
    3bb0:	21ff42b3          	sh2add	t0,t5,t6
    3bb4:	ffa2d603          	lhu	a2,-6(t0)
    3bb8:	000d8593          	mv	a1,s11
    3bbc:	00090513          	mv	a0,s2
    3bc0:	374040ef          	jal	7f34 <ee_printf>
    3bc4:	001d8713          	addi	a4,s11,1
    3bc8:	3c07340b          	th.extu	s0,a4,15,0
    3bcc:	000b2303          	lw	t1,0(s6)
    3bd0:	08647a63          	bgeu	s0,t1,3c64 <main+0xdac>
    3bd4:	00441d13          	slli	s10,s0,0x4
    3bd8:	008d07b3          	add	a5,s10,s0
    3bdc:	06010393          	addi	t2,sp,96
    3be0:	2077c633          	sh2add	a2,a5,t2
    3be4:	ffa65603          	lhu	a2,-6(a2)
    3be8:	00040593          	mv	a1,s0
    3bec:	00090513          	mv	a0,s2
    3bf0:	344040ef          	jal	7f34 <ee_printf>
    3bf4:	00140593          	addi	a1,s0,1
    3bf8:	3c05bc8b          	th.extu	s9,a1,15,0
    3bfc:	000b2683          	lw	a3,0(s6)
    3c00:	06dcf263          	bgeu	s9,a3,3c64 <main+0xdac>
    3c04:	004c9a13          	slli	s4,s9,0x4
    3c08:	019a09b3          	add	s3,s4,s9
    3c0c:	06010493          	addi	s1,sp,96
    3c10:	2099c833          	sh2add	a6,s3,s1
    3c14:	ffa85603          	lhu	a2,-6(a6)
    3c18:	000c8593          	mv	a1,s9
    3c1c:	00090513          	mv	a0,s2
    3c20:	314040ef          	jal	7f34 <ee_printf>
    3c24:	001c8513          	addi	a0,s9,1
    3c28:	3c053d8b          	th.extu	s11,a0,15,0
    3c2c:	000b2883          	lw	a7,0(s6)
    3c30:	031dfa63          	bgeu	s11,a7,3c64 <main+0xdac>
    3c34:	004d9e13          	slli	t3,s11,0x4
    3c38:	01be0eb3          	add	t4,t3,s11
    3c3c:	06010c13          	addi	s8,sp,96
    3c40:	218ecf33          	sh2add	t5,t4,s8
    3c44:	ffaf5603          	lhu	a2,-6(t5)
    3c48:	000d8593          	mv	a1,s11
    3c4c:	00090513          	mv	a0,s2
    3c50:	2e4040ef          	jal	7f34 <ee_printf>
    3c54:	001d8f93          	addi	t6,s11,1
    3c58:	3c0fb40b          	th.extu	s0,t6,15,0
    3c5c:	000b2283          	lw	t0,0(s6)
    3c60:	e85464e3          	bltu	s0,t0,3ae8 <main+0xc30>
    3c64:	00010b37          	lui	s6,0x10
    3c68:	000b2903          	lw	s2,0(s6) # 10000 <default_num_contexts>
    3c6c:	16090c63          	beqz	s2,3de4 <main+0xf2c>
    3c70:	00000993          	li	s3,0
    3c74:	0000c737          	lui	a4,0xc
    3c78:	11870d13          	addi	s10,a4,280 # c118 <__modsi3+0x524>
    3c7c:	00499313          	slli	t1,s3,0x4
    3c80:	013307b3          	add	a5,t1,s3
    3c84:	2027c633          	sh2add	a2,a5,sp
    3c88:	05465603          	lhu	a2,84(a2)
    3c8c:	00098593          	mv	a1,s3
    3c90:	000d0513          	mv	a0,s10
    3c94:	2a0040ef          	jal	7f34 <ee_printf>
    3c98:	00198593          	addi	a1,s3,1
    3c9c:	3c05bc8b          	th.extu	s9,a1,15,0
    3ca0:	000b2683          	lw	a3,0(s6)
    3ca4:	14dcf063          	bgeu	s9,a3,3de4 <main+0xf2c>
    3ca8:	004c9a13          	slli	s4,s9,0x4
    3cac:	019a09b3          	add	s3,s4,s9
    3cb0:	2029c833          	sh2add	a6,s3,sp
    3cb4:	05485603          	lhu	a2,84(a6)
    3cb8:	000c8593          	mv	a1,s9
    3cbc:	000d0513          	mv	a0,s10
    3cc0:	274040ef          	jal	7f34 <ee_printf>
    3cc4:	001c8513          	addi	a0,s9,1
    3cc8:	3c053d8b          	th.extu	s11,a0,15,0
    3ccc:	000b2883          	lw	a7,0(s6)
    3cd0:	111dfa63          	bgeu	s11,a7,3de4 <main+0xf2c>
    3cd4:	004d9e13          	slli	t3,s11,0x4
    3cd8:	01be0eb3          	add	t4,t3,s11
    3cdc:	202ecf33          	sh2add	t5,t4,sp
    3ce0:	054f5603          	lhu	a2,84(t5)
    3ce4:	000d8593          	mv	a1,s11
    3ce8:	000d0513          	mv	a0,s10
    3cec:	248040ef          	jal	7f34 <ee_printf>
    3cf0:	001d8f93          	addi	t6,s11,1
    3cf4:	3c0fb40b          	th.extu	s0,t6,15,0
    3cf8:	000b2283          	lw	t0,0(s6)
    3cfc:	0e547463          	bgeu	s0,t0,3de4 <main+0xf2c>
    3d00:	00441913          	slli	s2,s0,0x4
    3d04:	00890333          	add	t1,s2,s0
    3d08:	202347b3          	sh2add	a5,t1,sp
    3d0c:	0547d603          	lhu	a2,84(a5)
    3d10:	00040593          	mv	a1,s0
    3d14:	000d0513          	mv	a0,s10
    3d18:	21c040ef          	jal	7f34 <ee_printf>
    3d1c:	00140393          	addi	t2,s0,1
    3d20:	3c03bc8b          	th.extu	s9,t2,15,0
    3d24:	000b2603          	lw	a2,0(s6)
    3d28:	0accfe63          	bgeu	s9,a2,3de4 <main+0xf2c>
    3d2c:	004c9593          	slli	a1,s9,0x4
    3d30:	019586b3          	add	a3,a1,s9
    3d34:	06010a13          	addi	s4,sp,96
    3d38:	2146c9b3          	sh2add	s3,a3,s4
    3d3c:	ff49d603          	lhu	a2,-12(s3)
    3d40:	000c8593          	mv	a1,s9
    3d44:	000d0513          	mv	a0,s10
    3d48:	1ec040ef          	jal	7f34 <ee_printf>
    3d4c:	001c8493          	addi	s1,s9,1
    3d50:	3c04bd8b          	th.extu	s11,s1,15,0
    3d54:	000b2803          	lw	a6,0(s6)
    3d58:	090df663          	bgeu	s11,a6,3de4 <main+0xf2c>
    3d5c:	004d9513          	slli	a0,s11,0x4
    3d60:	01b508b3          	add	a7,a0,s11
    3d64:	2028ceb3          	sh2add	t4,a7,sp
    3d68:	054ed603          	lhu	a2,84(t4)
    3d6c:	000d8593          	mv	a1,s11
    3d70:	000d0513          	mv	a0,s10
    3d74:	1c0040ef          	jal	7f34 <ee_printf>
    3d78:	001d8c13          	addi	s8,s11,1
    3d7c:	3c0c340b          	th.extu	s0,s8,15,0
    3d80:	000b2f03          	lw	t5,0(s6)
    3d84:	07e47063          	bgeu	s0,t5,3de4 <main+0xf2c>
    3d88:	00441f93          	slli	t6,s0,0x4
    3d8c:	008f82b3          	add	t0,t6,s0
    3d90:	2022c333          	sh2add	t1,t0,sp
    3d94:	05435603          	lhu	a2,84(t1)
    3d98:	00040593          	mv	a1,s0
    3d9c:	000d0513          	mv	a0,s10
    3da0:	194040ef          	jal	7f34 <ee_printf>
    3da4:	00140713          	addi	a4,s0,1
    3da8:	3c073c8b          	th.extu	s9,a4,15,0
    3dac:	000b2783          	lw	a5,0(s6)
    3db0:	02fcfa63          	bgeu	s9,a5,3de4 <main+0xf2c>
    3db4:	004c9393          	slli	t2,s9,0x4
    3db8:	01938633          	add	a2,t2,s9
    3dbc:	06010593          	addi	a1,sp,96
    3dc0:	20b646b3          	sh2add	a3,a2,a1
    3dc4:	ff46d603          	lhu	a2,-12(a3)
    3dc8:	000c8593          	mv	a1,s9
    3dcc:	000d0513          	mv	a0,s10
    3dd0:	164040ef          	jal	7f34 <ee_printf>
    3dd4:	001c8a13          	addi	s4,s9,1
    3dd8:	3c0a398b          	th.extu	s3,s4,15,0
    3ddc:	000b2483          	lw	s1,0(s6)
    3de0:	e899eee3          	bltu	s3,s1,3c7c <main+0xdc4>
    3de4:	0a0b8463          	beqz	s7,3e8c <main+0xfd4>
    3de8:	11705063          	blez	s7,3ee8 <main+0x1030>
    3dec:	0000cb37          	lui	s6,0xc
    3df0:	1e4b0513          	addi	a0,s6,484 # c1e4 <__modsi3+0x5f0>
    3df4:	140040ef          	jal	7f34 <ee_printf>
    3df8:	05e10513          	addi	a0,sp,94
    3dfc:	10c040ef          	jal	7f08 <portable_fini>
    3e00:	00000513          	li	a0,0
    3e04:	09c12083          	lw	ra,156(sp)
    3e08:	09812403          	lw	s0,152(sp)
    3e0c:	09412483          	lw	s1,148(sp)
    3e10:	09012903          	lw	s2,144(sp)
    3e14:	08c12983          	lw	s3,140(sp)
    3e18:	08812a03          	lw	s4,136(sp)
    3e1c:	08012b03          	lw	s6,128(sp)
    3e20:	07c12b83          	lw	s7,124(sp)
    3e24:	07812c03          	lw	s8,120(sp)
    3e28:	07412c83          	lw	s9,116(sp)
    3e2c:	07012d03          	lw	s10,112(sp)
    3e30:	06c12d83          	lw	s11,108(sp)
    3e34:	0a010113          	addi	sp,sp,160
    3e38:	00008067          	ret
    3e3c:	00010bb7          	lui	s7,0x10
    3e40:	fffb8913          	addi	s2,s7,-1 # ffff <_data_load_start+0x388b>
    3e44:	87dff06f          	j	36c0 <main+0x808>
    3e48:	03612423          	sw	s6,40(sp)
    3e4c:	00400c13          	li	s8,4
    3e50:	e50ff06f          	j	34a0 <main+0x5e8>
    3e54:	03612423          	sw	s6,40(sp)
    3e58:	00400c13          	li	s8,4
    3e5c:	000c1463          	bnez	s8,3e64 <main+0xfac>
    3e60:	950ff06f          	j	2fb0 <main+0xf8>
    3e64:	938ff06f          	j	2f9c <main+0xe4>
    3e68:	000b8693          	mv	a3,s7
    3e6c:	00090593          	mv	a1,s2
    3e70:	00c12503          	lw	a0,12(sp)
    3e74:	0c0040ef          	jal	7f34 <ee_printf>
    3e78:	ffc4d383          	lhu	t2,-4(s1)
    3e7c:	00138593          	addi	a1,t2,1
    3e80:	3c05b60b          	th.extu	a2,a1,15,0
    3e84:	fec49e23          	sh	a2,-4(s1)
    3e88:	f34ff06f          	j	35bc <main+0x704>
    3e8c:	0000cd37          	lui	s10,0xc
    3e90:	134d0513          	addi	a0,s10,308 # c134 <__modsi3+0x540>
    3e94:	0a0040ef          	jal	7f34 <ee_printf>
    3e98:	f61ff06f          	j	3df8 <main+0xf40>
    3e9c:	0000ce37          	lui	t3,0xc
    3ea0:	e04e0513          	addi	a0,t3,-508 # be04 <__modsi3+0x210>
    3ea4:	090040ef          	jal	7f34 <ee_printf>
    3ea8:	00190913          	addi	s2,s2,1
    3eac:	871ff06f          	j	371c <main+0x864>
    3eb0:	00010cb7          	lui	s9,0x10
    3eb4:	000ca803          	lw	a6,0(s9) # 10000 <default_num_contexts>
    3eb8:	03812503          	lw	a0,56(sp)
    3ebc:	030504b3          	mul	s1,a0,a6
    3ec0:	000b0513          	mv	a0,s6
    3ec4:	014040ef          	jal	7ed8 <time_in_secs>
    3ec8:	00050593          	mv	a1,a0
    3ecc:	00048513          	mv	a0,s1
    3ed0:	4a9070ef          	jal	bb78 <__hidden___udivsi3>
    3ed4:	00050593          	mv	a1,a0
    3ed8:	0000c8b7          	lui	a7,0xc
    3edc:	dec88513          	addi	a0,a7,-532 # bdec <__modsi3+0x1f8>
    3ee0:	054040ef          	jal	7f34 <ee_printf>
    3ee4:	829ff06f          	j	370c <main+0x854>
    3ee8:	0000cbb7          	lui	s7,0xc
    3eec:	180b8513          	addi	a0,s7,384 # c180 <__modsi3+0x58c>
    3ef0:	044040ef          	jal	7f34 <ee_printf>
    3ef4:	f05ff06f          	j	3df8 <main+0xf40>
    3ef8:	09512223          	sw	s5,132(sp)
    3efc:	0000c2b7          	lui	t0,0xc
    3f00:	ce428513          	addi	a0,t0,-796 # bce4 <__modsi3+0xf0>
    3f04:	030040ef          	jal	7f34 <ee_printf>
    3f08:	000097b7          	lui	a5,0x9
    3f0c:	d8478b93          	addi	s7,a5,-636 # 8d84 <ee_printf+0xe50>
    3f10:	000b8d93          	mv	s11,s7
    3f14:	74700c13          	li	s8,1863
    3f18:	000c0d13          	mv	s10,s8
    3f1c:	0000e337          	lui	t1,0xe
    3f20:	3c130c93          	addi	s9,t1,961 # e3c1 <_data_load_start+0x1c4d>
    3f24:	01912023          	sw	s9,0(sp)
    3f28:	e48ff06f          	j	3570 <main+0x6b8>
    3f2c:	09512223          	sw	s5,132(sp)
    3f30:	0000cab7          	lui	s5,0xc
    3f34:	c54a8513          	addi	a0,s5,-940 # bc54 <__modsi3+0x60>
    3f38:	7fd030ef          	jal	7f34 <ee_printf>
    3f3c:	00004637          	lui	a2,0x4
    3f40:	9bf60b93          	addi	s7,a2,-1601 # 39bf <main+0xb07>
    3f44:	000b8d93          	mv	s11,s7
    3f48:	000016b7          	lui	a3,0x1
    3f4c:	19968c13          	addi	s8,a3,409 # 1199 <core_bench_list+0xdf1>
    3f50:	000c0d13          	mv	s10,s8
    3f54:	000039b7          	lui	s3,0x3
    3f58:	34098c93          	addi	s9,s3,832 # 3340 <main+0x488>
    3f5c:	01912023          	sw	s9,0(sp)
    3f60:	e10ff06f          	j	3570 <main+0x6b8>
    3f64:	09512223          	sw	s5,132(sp)
    3f68:	0000c537          	lui	a0,0xc
    3f6c:	c2450513          	addi	a0,a0,-988 # bc24 <__modsi3+0x30>
    3f70:	7c5030ef          	jal	7f34 <ee_printf>
    3f74:	00006937          	lui	s2,0x6
    3f78:	e4790b93          	addi	s7,s2,-441 # 5e47 <core_init_matrix+0x49b>
    3f7c:	000b8d93          	mv	s11,s7
    3f80:	0000c8b7          	lui	a7,0xc
    3f84:	e5288c13          	addi	s8,a7,-430 # be52 <__modsi3+0x25e>
    3f88:	000c0d13          	mv	s10,s8
    3f8c:	0000d437          	lui	s0,0xd
    3f90:	4b040c93          	addi	s9,s0,1200 # d4b0 <_data_load_start+0xd3c>
    3f94:	01912023          	sw	s9,0(sp)
    3f98:	dd8ff06f          	j	3570 <main+0x6b8>
    3f9c:	02011283          	lh	t0,32(sp)
    3fa0:	00028463          	beqz	t0,3fa8 <main+0x10f0>
    3fa4:	fb5fe06f          	j	2f58 <main+0xa0>
    3fa8:	34153337          	lui	t1,0x34153
    3fac:	41530393          	addi	t2,t1,1045 # 34153415 <_stack_top+0x3413f415>
    3fb0:	00712e23          	sw	t2,28(sp)
    3fb4:	06600413          	li	s0,102
    3fb8:	02811023          	sh	s0,32(sp)
    3fbc:	f9dfe06f          	j	2f58 <main+0xa0>
    3fc0:	00000913          	li	s2,0
    3fc4:	08412a83          	lw	s5,132(sp)
    3fc8:	ef8ff06f          	j	36c0 <main+0x808>
    3fcc:	004dff93          	andi	t6,s11,4
    3fd0:	c80f8ae3          	beqz	t6,3c64 <main+0xdac>
    3fd4:	e11ff06f          	j	3de4 <main+0xf2c>

00003fd8 <core_bench_matrix>:
    3fd8:	fc010113          	addi	sp,sp,-64
    3fdc:	02112e23          	sw	ra,60(sp)
    3fe0:	01b12623          	sw	s11,12(sp)
    3fe4:	00060d93          	mv	s11,a2
    3fe8:	00052603          	lw	a2,0(a0)
    3fec:	48060ee3          	beqz	a2,4c88 <core_bench_matrix+0xcb0>
    3ff0:	02812c23          	sw	s0,56(sp)
    3ff4:	02912a23          	sw	s1,52(sp)
    3ff8:	03212823          	sw	s2,48(sp)
    3ffc:	03312623          	sw	s3,44(sp)
    4000:	03412423          	sw	s4,40(sp)
    4004:	03512223          	sw	s5,36(sp)
    4008:	03612023          	sw	s6,32(sp)
    400c:	01712e23          	sw	s7,28(sp)
    4010:	01812c23          	sw	s8,24(sp)
    4014:	01912a23          	sw	s9,20(sp)
    4018:	01a12823          	sw	s10,16(sp)
    401c:	00058993          	mv	s3,a1
    4020:	00c52c03          	lw	s8,12(a0)
    4024:	00852a83          	lw	s5,8(a0)
    4028:	fffff937          	lui	s2,0xfffff
    402c:	0125e933          	or	s2,a1,s2
    4030:	00161493          	slli	s1,a2,0x1
    4034:	00452a03          	lw	s4,4(a0)
    4038:	214626b3          	sh1add	a3,a2,s4
    403c:	00000c93          	li	s9,0
    4040:	409687b3          	sub	a5,a3,s1
    4044:	ffe48713          	addi	a4,s1,-2
    4048:	00175293          	srli	t0,a4,0x1
    404c:	00128313          	addi	t1,t0,1
    4050:	00737393          	andi	t2,t1,7
    4054:	0a038463          	beqz	t2,40fc <core_bench_matrix+0x124>
    4058:	00100593          	li	a1,1
    405c:	08b38663          	beq	t2,a1,40e8 <core_bench_matrix+0x110>
    4060:	00200413          	li	s0,2
    4064:	06838a63          	beq	t2,s0,40d8 <core_bench_matrix+0x100>
    4068:	00300513          	li	a0,3
    406c:	04a38e63          	beq	t2,a0,40c8 <core_bench_matrix+0xf0>
    4070:	00400813          	li	a6,4
    4074:	05038263          	beq	t2,a6,40b8 <core_bench_matrix+0xe0>
    4078:	00500893          	li	a7,5
    407c:	03138663          	beq	t2,a7,40a8 <core_bench_matrix+0xd0>
    4080:	00600b13          	li	s6,6
    4084:	01638a63          	beq	t2,s6,4098 <core_bench_matrix+0xc0>
    4088:	0007db83          	lhu	s7,0(a5)
    408c:	01798d33          	add	s10,s3,s7
    4090:	01a79023          	sh	s10,0(a5)
    4094:	00278793          	addi	a5,a5,2
    4098:	0007de03          	lhu	t3,0(a5)
    409c:	01c98eb3          	add	t4,s3,t3
    40a0:	01d79023          	sh	t4,0(a5)
    40a4:	00278793          	addi	a5,a5,2
    40a8:	0007df03          	lhu	t5,0(a5)
    40ac:	01e98fb3          	add	t6,s3,t5
    40b0:	01f79023          	sh	t6,0(a5)
    40b4:	00278793          	addi	a5,a5,2
    40b8:	0007d703          	lhu	a4,0(a5)
    40bc:	00e982b3          	add	t0,s3,a4
    40c0:	00579023          	sh	t0,0(a5)
    40c4:	00278793          	addi	a5,a5,2
    40c8:	0007d303          	lhu	t1,0(a5)
    40cc:	006983b3          	add	t2,s3,t1
    40d0:	00779023          	sh	t2,0(a5)
    40d4:	00278793          	addi	a5,a5,2
    40d8:	0007d583          	lhu	a1,0(a5)
    40dc:	00b98433          	add	s0,s3,a1
    40e0:	00879023          	sh	s0,0(a5)
    40e4:	00278793          	addi	a5,a5,2
    40e8:	0007d503          	lhu	a0,0(a5)
    40ec:	00a98833          	add	a6,s3,a0
    40f0:	01079023          	sh	a6,0(a5)
    40f4:	00278793          	addi	a5,a5,2
    40f8:	06f68663          	beq	a3,a5,4164 <core_bench_matrix+0x18c>
    40fc:	0007d883          	lhu	a7,0(a5)
    4100:	01198b33          	add	s6,s3,a7
    4104:	01679023          	sh	s6,0(a5)
    4108:	0027db83          	lhu	s7,2(a5)
    410c:	01798d33          	add	s10,s3,s7
    4110:	01a79123          	sh	s10,2(a5)
    4114:	0047de03          	lhu	t3,4(a5)
    4118:	01c98eb3          	add	t4,s3,t3
    411c:	01d79223          	sh	t4,4(a5)
    4120:	0067df03          	lhu	t5,6(a5)
    4124:	01e98fb3          	add	t6,s3,t5
    4128:	01f79323          	sh	t6,6(a5)
    412c:	0087d703          	lhu	a4,8(a5)
    4130:	00e982b3          	add	t0,s3,a4
    4134:	00579423          	sh	t0,8(a5)
    4138:	00a7d303          	lhu	t1,10(a5)
    413c:	006983b3          	add	t2,s3,t1
    4140:	00779523          	sh	t2,10(a5)
    4144:	00c7d583          	lhu	a1,12(a5)
    4148:	00b98433          	add	s0,s3,a1
    414c:	00879623          	sh	s0,12(a5)
    4150:	00e7d503          	lhu	a0,14(a5)
    4154:	00a98833          	add	a6,s3,a0
    4158:	01079723          	sh	a6,14(a5)
    415c:	01078793          	addi	a5,a5,16
    4160:	f8f69ee3          	bne	a3,a5,40fc <core_bench_matrix+0x124>
    4164:	001c8413          	addi	s0,s9,1
    4168:	009686b3          	add	a3,a3,s1
    416c:	00860663          	beq	a2,s0,4178 <core_bench_matrix+0x1a0>
    4170:	00040c93          	mv	s9,s0
    4174:	ecdff06f          	j	4040 <core_bench_matrix+0x68>
    4178:	00241b93          	slli	s7,s0,0x2
    417c:	000c0b13          	mv	s6,s8
    4180:	000c0613          	mv	a2,s8
    4184:	000a0693          	mv	a3,s4
    4188:	00000593          	li	a1,0
    418c:	00000793          	li	a5,0
    4190:	00747893          	andi	a7,s0,7
    4194:	0a088463          	beqz	a7,423c <core_bench_matrix+0x264>
    4198:	00100d13          	li	s10,1
    419c:	09a88663          	beq	a7,s10,4228 <core_bench_matrix+0x250>
    41a0:	00200e13          	li	t3,2
    41a4:	07c88a63          	beq	a7,t3,4218 <core_bench_matrix+0x240>
    41a8:	00300e93          	li	t4,3
    41ac:	05d88e63          	beq	a7,t4,4208 <core_bench_matrix+0x230>
    41b0:	00400f13          	li	t5,4
    41b4:	05e88263          	beq	a7,t5,41f8 <core_bench_matrix+0x220>
    41b8:	00500f93          	li	t6,5
    41bc:	03f88663          	beq	a7,t6,41e8 <core_bench_matrix+0x210>
    41c0:	00600713          	li	a4,6
    41c4:	00e88a63          	beq	a7,a4,41d8 <core_bench_matrix+0x200>
    41c8:	22f6c28b          	th.lrh	t0,a3,a5,1
    41cc:	03328333          	mul	t1,t0,s3
    41d0:	44f6530b          	th.srw	t1,a2,a5,2
    41d4:	000d0793          	mv	a5,s10
    41d8:	22f6c38b          	th.lrh	t2,a3,a5,1
    41dc:	03338533          	mul	a0,t2,s3
    41e0:	44f6550b          	th.srw	a0,a2,a5,2
    41e4:	00178793          	addi	a5,a5,1
    41e8:	22f6c80b          	th.lrh	a6,a3,a5,1
    41ec:	033808b3          	mul	a7,a6,s3
    41f0:	44f6588b          	th.srw	a7,a2,a5,2
    41f4:	00178793          	addi	a5,a5,1
    41f8:	22f6cd0b          	th.lrh	s10,a3,a5,1
    41fc:	033d0e33          	mul	t3,s10,s3
    4200:	44f65e0b          	th.srw	t3,a2,a5,2
    4204:	00178793          	addi	a5,a5,1
    4208:	22f6ce8b          	th.lrh	t4,a3,a5,1
    420c:	033e8f33          	mul	t5,t4,s3
    4210:	44f65f0b          	th.srw	t5,a2,a5,2
    4214:	00178793          	addi	a5,a5,1
    4218:	22f6cf8b          	th.lrh	t6,a3,a5,1
    421c:	033f8733          	mul	a4,t6,s3
    4220:	44f6570b          	th.srw	a4,a2,a5,2
    4224:	00178793          	addi	a5,a5,1
    4228:	22f6c28b          	th.lrh	t0,a3,a5,1
    422c:	03328333          	mul	t1,t0,s3
    4230:	44f6530b          	th.srw	t1,a2,a5,2
    4234:	00178793          	addi	a5,a5,1
    4238:	08f40463          	beq	s0,a5,42c0 <core_bench_matrix+0x2e8>
    423c:	22f6c38b          	th.lrh	t2,a3,a5,1
    4240:	03338533          	mul	a0,t2,s3
    4244:	44f6550b          	th.srw	a0,a2,a5,2
    4248:	00178813          	addi	a6,a5,1
    424c:	2306c88b          	th.lrh	a7,a3,a6,1
    4250:	03388d33          	mul	s10,a7,s3
    4254:	45065d0b          	th.srw	s10,a2,a6,2
    4258:	00278e13          	addi	t3,a5,2
    425c:	23c6ce8b          	th.lrh	t4,a3,t3,1
    4260:	033e8f33          	mul	t5,t4,s3
    4264:	45c65f0b          	th.srw	t5,a2,t3,2
    4268:	00378f93          	addi	t6,a5,3
    426c:	23f6c70b          	th.lrh	a4,a3,t6,1
    4270:	033702b3          	mul	t0,a4,s3
    4274:	45f6528b          	th.srw	t0,a2,t6,2
    4278:	00478313          	addi	t1,a5,4
    427c:	2266c38b          	th.lrh	t2,a3,t1,1
    4280:	03338533          	mul	a0,t2,s3
    4284:	4466550b          	th.srw	a0,a2,t1,2
    4288:	00578813          	addi	a6,a5,5
    428c:	2306c88b          	th.lrh	a7,a3,a6,1
    4290:	03388d33          	mul	s10,a7,s3
    4294:	45065d0b          	th.srw	s10,a2,a6,2
    4298:	00678e13          	addi	t3,a5,6
    429c:	23c6ce8b          	th.lrh	t4,a3,t3,1
    42a0:	033e8f33          	mul	t5,t4,s3
    42a4:	45c65f0b          	th.srw	t5,a2,t3,2
    42a8:	00778f93          	addi	t6,a5,7
    42ac:	23f6c70b          	th.lrh	a4,a3,t6,1
    42b0:	033702b3          	mul	t0,a4,s3
    42b4:	45f6528b          	th.srw	t0,a2,t6,2
    42b8:	00878793          	addi	a5,a5,8
    42bc:	f8f410e3          	bne	s0,a5,423c <core_bench_matrix+0x264>
    42c0:	009686b3          	add	a3,a3,s1
    42c4:	01760633          	add	a2,a2,s7
    42c8:	00bc8663          	beq	s9,a1,42d4 <core_bench_matrix+0x2fc>
    42cc:	00158593          	addi	a1,a1,1
    42d0:	ebdff06f          	j	418c <core_bench_matrix+0x1b4>
    42d4:	017c05b3          	add	a1,s8,s7
    42d8:	00000313          	li	t1,0
    42dc:	00000e13          	li	t3,0
    42e0:	00000513          	li	a0,0
    42e4:	00000813          	li	a6,0
    42e8:	417587b3          	sub	a5,a1,s7
    42ec:	00030693          	mv	a3,t1
    42f0:	0007a303          	lw	t1,0(a5)
    42f4:	006e0e33          	add	t3,t3,t1
    42f8:	03c94463          	blt	s2,t3,4320 <core_bench_matrix+0x348>
    42fc:	0066a3b3          	slt	t2,a3,t1
    4300:	00750533          	add	a0,a0,t2
    4304:	3c05250b          	th.ext	a0,a0,15,0
    4308:	00478793          	addi	a5,a5,4
    430c:	02f58a63          	beq	a1,a5,4340 <core_bench_matrix+0x368>
    4310:	00030693          	mv	a3,t1
    4314:	0007a303          	lw	t1,0(a5)
    4318:	006e0e33          	add	t3,t3,t1
    431c:	ffc950e3          	bge	s2,t3,42fc <core_bench_matrix+0x324>
    4320:	00a50893          	addi	a7,a0,10
    4324:	3c08a50b          	th.ext	a0,a7,15,0
    4328:	00478793          	addi	a5,a5,4
    432c:	00f58863          	beq	a1,a5,433c <core_bench_matrix+0x364>
    4330:	00000e13          	li	t3,0
    4334:	00030693          	mv	a3,t1
    4338:	fddff06f          	j	4314 <core_bench_matrix+0x33c>
    433c:	00000e13          	li	t3,0
    4340:	00180d13          	addi	s10,a6,1
    4344:	017585b3          	add	a1,a1,s7
    4348:	010c8663          	beq	s9,a6,4354 <core_bench_matrix+0x37c>
    434c:	000d0813          	mv	a6,s10
    4350:	f99ff06f          	j	42e8 <core_bench_matrix+0x310>
    4354:	00000593          	li	a1,0
    4358:	181030ef          	jal	7cd8 <crc16>
    435c:	00050593          	mv	a1,a0
    4360:	000a0613          	mv	a2,s4
    4364:	00000513          	li	a0,0
    4368:	00000693          	li	a3,0
    436c:	00000793          	li	a5,0
    4370:	007d7e93          	andi	t4,s10,7
    4374:	0c0e8063          	beqz	t4,4434 <core_bench_matrix+0x45c>
    4378:	00100813          	li	a6,1
    437c:	0b0e8063          	beq	t4,a6,441c <core_bench_matrix+0x444>
    4380:	00200f13          	li	t5,2
    4384:	09ee8263          	beq	t4,t5,4408 <core_bench_matrix+0x430>
    4388:	00300f93          	li	t6,3
    438c:	07fe8463          	beq	t4,t6,43f4 <core_bench_matrix+0x41c>
    4390:	00400713          	li	a4,4
    4394:	04ee8663          	beq	t4,a4,43e0 <core_bench_matrix+0x408>
    4398:	00500293          	li	t0,5
    439c:	025e8863          	beq	t4,t0,43cc <core_bench_matrix+0x3f4>
    43a0:	00600313          	li	t1,6
    43a4:	006e8a63          	beq	t4,t1,43b8 <core_bench_matrix+0x3e0>
    43a8:	22d6438b          	th.lrh	t2,a2,a3,1
    43ac:	22dac68b          	th.lrh	a3,s5,a3,1
    43b0:	02d386b3          	mul	a3,t2,a3
    43b4:	00080793          	mv	a5,a6
    43b8:	22f6488b          	th.lrh	a7,a2,a5,1
    43bc:	22face0b          	th.lrh	t3,s5,a5,1
    43c0:	03c88eb3          	mul	t4,a7,t3
    43c4:	01d686b3          	add	a3,a3,t4
    43c8:	00178793          	addi	a5,a5,1
    43cc:	22f64f0b          	th.lrh	t5,a2,a5,1
    43d0:	22fac80b          	th.lrh	a6,s5,a5,1
    43d4:	030f0fb3          	mul	t6,t5,a6
    43d8:	01f686b3          	add	a3,a3,t6
    43dc:	00178793          	addi	a5,a5,1
    43e0:	22f6470b          	th.lrh	a4,a2,a5,1
    43e4:	22fac28b          	th.lrh	t0,s5,a5,1
    43e8:	02570333          	mul	t1,a4,t0
    43ec:	006686b3          	add	a3,a3,t1
    43f0:	00178793          	addi	a5,a5,1
    43f4:	22f6438b          	th.lrh	t2,a2,a5,1
    43f8:	22fac88b          	th.lrh	a7,s5,a5,1
    43fc:	03138e33          	mul	t3,t2,a7
    4400:	01c686b3          	add	a3,a3,t3
    4404:	00178793          	addi	a5,a5,1
    4408:	22f64e8b          	th.lrh	t4,a2,a5,1
    440c:	22facf0b          	th.lrh	t5,s5,a5,1
    4410:	03ee8833          	mul	a6,t4,t5
    4414:	010686b3          	add	a3,a3,a6
    4418:	00178793          	addi	a5,a5,1
    441c:	22f64f8b          	th.lrh	t6,a2,a5,1
    4420:	22fac70b          	th.lrh	a4,s5,a5,1
    4424:	02ef82b3          	mul	t0,t6,a4
    4428:	005686b3          	add	a3,a3,t0
    442c:	00178793          	addi	a5,a5,1
    4430:	0afd0463          	beq	s10,a5,44d8 <core_bench_matrix+0x500>
    4434:	22f6430b          	th.lrh	t1,a2,a5,1
    4438:	22fac38b          	th.lrh	t2,s5,a5,1
    443c:	027308b3          	mul	a7,t1,t2
    4440:	01168e33          	add	t3,a3,a7
    4444:	00178e93          	addi	t4,a5,1
    4448:	23d64f0b          	th.lrh	t5,a2,t4,1
    444c:	23dac80b          	th.lrh	a6,s5,t4,1
    4450:	030f0fb3          	mul	t6,t5,a6
    4454:	01fe0733          	add	a4,t3,t6
    4458:	00278293          	addi	t0,a5,2
    445c:	2256468b          	th.lrh	a3,a2,t0,1
    4460:	225ac30b          	th.lrh	t1,s5,t0,1
    4464:	026683b3          	mul	t2,a3,t1
    4468:	007708b3          	add	a7,a4,t2
    446c:	00378e13          	addi	t3,a5,3
    4470:	23c64e8b          	th.lrh	t4,a2,t3,1
    4474:	23cacf0b          	th.lrh	t5,s5,t3,1
    4478:	03ee8833          	mul	a6,t4,t5
    447c:	01088fb3          	add	t6,a7,a6
    4480:	00478713          	addi	a4,a5,4
    4484:	22e6428b          	th.lrh	t0,a2,a4,1
    4488:	22eac68b          	th.lrh	a3,s5,a4,1
    448c:	02d28333          	mul	t1,t0,a3
    4490:	006f83b3          	add	t2,t6,t1
    4494:	00578893          	addi	a7,a5,5
    4498:	23164e0b          	th.lrh	t3,a2,a7,1
    449c:	231ace8b          	th.lrh	t4,s5,a7,1
    44a0:	03de0f33          	mul	t5,t3,t4
    44a4:	01e38fb3          	add	t6,t2,t5
    44a8:	00678813          	addi	a6,a5,6
    44ac:	2306470b          	th.lrh	a4,a2,a6,1
    44b0:	230ac28b          	th.lrh	t0,s5,a6,1
    44b4:	025706b3          	mul	a3,a4,t0
    44b8:	00df8333          	add	t1,t6,a3
    44bc:	00778393          	addi	t2,a5,7
    44c0:	2276488b          	th.lrh	a7,a2,t2,1
    44c4:	227ace0b          	th.lrh	t3,s5,t2,1
    44c8:	03c88eb3          	mul	t4,a7,t3
    44cc:	01d306b3          	add	a3,t1,t4
    44d0:	00878793          	addi	a5,a5,8
    44d4:	f6fd10e3          	bne	s10,a5,4434 <core_bench_matrix+0x45c>
    44d8:	44ac568b          	th.srw	a3,s8,a0,2
    44dc:	00960633          	add	a2,a2,s1
    44e0:	00ac8663          	beq	s9,a0,44ec <core_bench_matrix+0x514>
    44e4:	00150513          	addi	a0,a0,1
    44e8:	e81ff06f          	j	4368 <core_bench_matrix+0x390>
    44ec:	000c0513          	mv	a0,s8
    44f0:	00000c93          	li	s9,0
    44f4:	00000293          	li	t0,0
    44f8:	00000713          	li	a4,0
    44fc:	00000693          	li	a3,0
    4500:	000c8613          	mv	a2,s9
    4504:	00000793          	li	a5,0
    4508:	44f54c8b          	th.lrw	s9,a0,a5,2
    450c:	019282b3          	add	t0,t0,s9
    4510:	02594463          	blt	s2,t0,4538 <core_bench_matrix+0x560>
    4514:	01962d33          	slt	s10,a2,s9
    4518:	01a70f33          	add	t5,a4,s10
    451c:	3c0f270b          	th.ext	a4,t5,15,0
    4520:	00178793          	addi	a5,a5,1
    4524:	0287fa63          	bgeu	a5,s0,4558 <core_bench_matrix+0x580>
    4528:	000c8613          	mv	a2,s9
    452c:	44f54c8b          	th.lrw	s9,a0,a5,2
    4530:	019282b3          	add	t0,t0,s9
    4534:	fe5950e3          	bge	s2,t0,4514 <core_bench_matrix+0x53c>
    4538:	00a70f93          	addi	t6,a4,10
    453c:	3c0fa70b          	th.ext	a4,t6,15,0
    4540:	00178793          	addi	a5,a5,1
    4544:	0087f863          	bgeu	a5,s0,4554 <core_bench_matrix+0x57c>
    4548:	00000293          	li	t0,0
    454c:	000c8613          	mv	a2,s9
    4550:	fddff06f          	j	452c <core_bench_matrix+0x554>
    4554:	00000293          	li	t0,0
    4558:	00168693          	addi	a3,a3,1
    455c:	01750533          	add	a0,a0,s7
    4560:	fa86e0e3          	bltu	a3,s0,4500 <core_bench_matrix+0x528>
    4564:	00070513          	mv	a0,a4
    4568:	770030ef          	jal	7cd8 <crc16>
    456c:	00050593          	mv	a1,a0
    4570:	000a0813          	mv	a6,s4
    4574:	000c0513          	mv	a0,s8
    4578:	00000e13          	li	t3,0
    457c:	000a8393          	mv	t2,s5
    4580:	00000313          	li	t1,0
    4584:	fff40893          	addi	a7,s0,-1
    4588:	0078f613          	andi	a2,a7,7
    458c:	00081e83          	lh	t4,0(a6)
    4590:	00039c83          	lh	s9,0(t2)
    4594:	039e86b3          	mul	a3,t4,s9
    4598:	00100793          	li	a5,1
    459c:	00938733          	add	a4,t2,s1
    45a0:	1887fa63          	bgeu	a5,s0,4734 <core_bench_matrix+0x75c>
    45a4:	0c060e63          	beqz	a2,4680 <core_bench_matrix+0x6a8>
    45a8:	0af60e63          	beq	a2,a5,4664 <core_bench_matrix+0x68c>
    45ac:	00200d13          	li	s10,2
    45b0:	09a60e63          	beq	a2,s10,464c <core_bench_matrix+0x674>
    45b4:	00300f13          	li	t5,3
    45b8:	07e60e63          	beq	a2,t5,4634 <core_bench_matrix+0x65c>
    45bc:	00400f93          	li	t6,4
    45c0:	05f60e63          	beq	a2,t6,461c <core_bench_matrix+0x644>
    45c4:	00500293          	li	t0,5
    45c8:	02560e63          	beq	a2,t0,4604 <core_bench_matrix+0x62c>
    45cc:	00600893          	li	a7,6
    45d0:	01160e63          	beq	a2,a7,45ec <core_bench_matrix+0x614>
    45d4:	22f8478b          	th.lrh	a5,a6,a5,1
    45d8:	2093c60b          	th.lrh	a2,t2,s1,0
    45dc:	02c78eb3          	mul	t4,a5,a2
    45e0:	01d686b3          	add	a3,a3,t4
    45e4:	000d0793          	mv	a5,s10
    45e8:	00970733          	add	a4,a4,s1
    45ec:	22f84c8b          	th.lrh	s9,a6,a5,1
    45f0:	00071d03          	lh	s10,0(a4)
    45f4:	03ac8f33          	mul	t5,s9,s10
    45f8:	01e686b3          	add	a3,a3,t5
    45fc:	00178793          	addi	a5,a5,1
    4600:	00970733          	add	a4,a4,s1
    4604:	22f84f8b          	th.lrh	t6,a6,a5,1
    4608:	00071283          	lh	t0,0(a4)
    460c:	025f88b3          	mul	a7,t6,t0
    4610:	011686b3          	add	a3,a3,a7
    4614:	00178793          	addi	a5,a5,1
    4618:	00970733          	add	a4,a4,s1
    461c:	22f8460b          	th.lrh	a2,a6,a5,1
    4620:	00071e83          	lh	t4,0(a4)
    4624:	03d60cb3          	mul	s9,a2,t4
    4628:	019686b3          	add	a3,a3,s9
    462c:	00178793          	addi	a5,a5,1
    4630:	00970733          	add	a4,a4,s1
    4634:	22f84d0b          	th.lrh	s10,a6,a5,1
    4638:	00071f03          	lh	t5,0(a4)
    463c:	03ed0fb3          	mul	t6,s10,t5
    4640:	01f686b3          	add	a3,a3,t6
    4644:	00178793          	addi	a5,a5,1
    4648:	00970733          	add	a4,a4,s1
    464c:	22f8428b          	th.lrh	t0,a6,a5,1
    4650:	00071883          	lh	a7,0(a4)
    4654:	03128633          	mul	a2,t0,a7
    4658:	00c686b3          	add	a3,a3,a2
    465c:	00178793          	addi	a5,a5,1
    4660:	00970733          	add	a4,a4,s1
    4664:	22f84c8b          	th.lrh	s9,a6,a5,1
    4668:	00071e83          	lh	t4,0(a4)
    466c:	03dc8d33          	mul	s10,s9,t4
    4670:	01a686b3          	add	a3,a3,s10
    4674:	00178793          	addi	a5,a5,1
    4678:	00970733          	add	a4,a4,s1
    467c:	0a87fc63          	bgeu	a5,s0,4734 <core_bench_matrix+0x75c>
    4680:	22f84f0b          	th.lrh	t5,a6,a5,1
    4684:	00071f83          	lh	t6,0(a4)
    4688:	03ff02b3          	mul	t0,t5,t6
    468c:	005688b3          	add	a7,a3,t0
    4690:	00178613          	addi	a2,a5,1
    4694:	22c84c8b          	th.lrh	s9,a6,a2,1
    4698:	20974e8b          	th.lrh	t4,a4,s1,0
    469c:	03dc8d33          	mul	s10,s9,t4
    46a0:	01a88f33          	add	t5,a7,s10
    46a4:	00278693          	addi	a3,a5,2
    46a8:	20e4afb3          	sh1add	t6,s1,a4
    46ac:	22d8428b          	th.lrh	t0,a6,a3,1
    46b0:	2297470b          	th.lrh	a4,a4,s1,1
    46b4:	02e288b3          	mul	a7,t0,a4
    46b8:	011f0633          	add	a2,t5,a7
    46bc:	00378c93          	addi	s9,a5,3
    46c0:	23984e8b          	th.lrh	t4,a6,s9,1
    46c4:	209fcd0b          	th.lrh	s10,t6,s1,0
    46c8:	03ae8f33          	mul	t5,t4,s10
    46cc:	01e602b3          	add	t0,a2,t5
    46d0:	00478693          	addi	a3,a5,4
    46d4:	21f4a8b3          	sh1add	a7,s1,t6
    46d8:	22d8470b          	th.lrh	a4,a6,a3,1
    46dc:	229fcf8b          	th.lrh	t6,t6,s1,1
    46e0:	03f70633          	mul	a2,a4,t6
    46e4:	00c28cb3          	add	s9,t0,a2
    46e8:	00578e93          	addi	t4,a5,5
    46ec:	23d84d0b          	th.lrh	s10,a6,t4,1
    46f0:	2098cf0b          	th.lrh	t5,a7,s1,0
    46f4:	03ed02b3          	mul	t0,s10,t5
    46f8:	005c8fb3          	add	t6,s9,t0
    46fc:	00678693          	addi	a3,a5,6
    4700:	2114a733          	sh1add	a4,s1,a7
    4704:	22d8460b          	th.lrh	a2,a6,a3,1
    4708:	2298c88b          	th.lrh	a7,a7,s1,1
    470c:	03160cb3          	mul	s9,a2,a7
    4710:	019f8d33          	add	s10,t6,s9
    4714:	00778e93          	addi	t4,a5,7
    4718:	23d84f0b          	th.lrh	t5,a6,t4,1
    471c:	2097428b          	th.lrh	t0,a4,s1,0
    4720:	025f0fb3          	mul	t6,t5,t0
    4724:	01fd06b3          	add	a3,s10,t6
    4728:	00878793          	addi	a5,a5,8
    472c:	20e4a733          	sh1add	a4,s1,a4
    4730:	f487e8e3          	bltu	a5,s0,4680 <core_bench_matrix+0x6a8>
    4734:	4465568b          	th.srw	a3,a0,t1,2
    4738:	00130313          	addi	t1,t1,1
    473c:	00238393          	addi	t2,t2,2
    4740:	e48362e3          	bltu	t1,s0,4584 <core_bench_matrix+0x5ac>
    4744:	001e0e13          	addi	t3,t3,1
    4748:	01750533          	add	a0,a0,s7
    474c:	00980833          	add	a6,a6,s1
    4750:	e28e66e3          	bltu	t3,s0,457c <core_bench_matrix+0x5a4>
    4754:	000c0d13          	mv	s10,s8
    4758:	00000393          	li	t2,0
    475c:	00000c93          	li	s9,0
    4760:	00000613          	li	a2,0
    4764:	00000893          	li	a7,0
    4768:	00038513          	mv	a0,t2
    476c:	00000793          	li	a5,0
    4770:	44fd438b          	th.lrw	t2,s10,a5,2
    4774:	007c8cb3          	add	s9,s9,t2
    4778:	03994463          	blt	s2,s9,47a0 <core_bench_matrix+0x7c8>
    477c:	00752333          	slt	t1,a0,t2
    4780:	00660733          	add	a4,a2,t1
    4784:	3c07260b          	th.ext	a2,a4,15,0
    4788:	00178793          	addi	a5,a5,1
    478c:	0287fa63          	bgeu	a5,s0,47c0 <core_bench_matrix+0x7e8>
    4790:	00038513          	mv	a0,t2
    4794:	44fd438b          	th.lrw	t2,s10,a5,2
    4798:	007c8cb3          	add	s9,s9,t2
    479c:	ff9950e3          	bge	s2,s9,477c <core_bench_matrix+0x7a4>
    47a0:	00a60693          	addi	a3,a2,10
    47a4:	3c06a60b          	th.ext	a2,a3,15,0
    47a8:	00178793          	addi	a5,a5,1
    47ac:	0087f863          	bgeu	a5,s0,47bc <core_bench_matrix+0x7e4>
    47b0:	00000c93          	li	s9,0
    47b4:	00038513          	mv	a0,t2
    47b8:	fddff06f          	j	4794 <core_bench_matrix+0x7bc>
    47bc:	00000c93          	li	s9,0
    47c0:	00188893          	addi	a7,a7,1
    47c4:	017d0d33          	add	s10,s10,s7
    47c8:	fa88e0e3          	bltu	a7,s0,4768 <core_bench_matrix+0x790>
    47cc:	00060513          	mv	a0,a2
    47d0:	508030ef          	jal	7cd8 <crc16>
    47d4:	00050593          	mv	a1,a0
    47d8:	000a0813          	mv	a6,s4
    47dc:	00000513          	li	a0,0
    47e0:	000a8f13          	mv	t5,s5
    47e4:	00000293          	li	t0,0
    47e8:	fff40e93          	addi	t4,s0,-1
    47ec:	007eff93          	andi	t6,t4,7
    47f0:	00081e03          	lh	t3,0(a6)
    47f4:	000f1383          	lh	t2,0(t5)
    47f8:	027e0333          	mul	t1,t3,t2
    47fc:	1423370b          	th.extu	a4,t1,5,2
    4800:	2c53368b          	th.extu	a3,t1,11,5
    4804:	02d706b3          	mul	a3,a4,a3
    4808:	00100793          	li	a5,1
    480c:	009f0733          	add	a4,t5,s1
    4810:	2487f463          	bgeu	a5,s0,4a58 <core_bench_matrix+0xa80>
    4814:	120f8863          	beqz	t6,4944 <core_bench_matrix+0x96c>
    4818:	10ff8263          	beq	t6,a5,491c <core_bench_matrix+0x944>
    481c:	00200c93          	li	s9,2
    4820:	0d9f8c63          	beq	t6,s9,48f8 <core_bench_matrix+0x920>
    4824:	00300613          	li	a2,3
    4828:	0acf8663          	beq	t6,a2,48d4 <core_bench_matrix+0x8fc>
    482c:	00400893          	li	a7,4
    4830:	091f8063          	beq	t6,a7,48b0 <core_bench_matrix+0x8d8>
    4834:	00500d13          	li	s10,5
    4838:	05af8a63          	beq	t6,s10,488c <core_bench_matrix+0x8b4>
    483c:	00600e93          	li	t4,6
    4840:	03df8463          	beq	t6,t4,4868 <core_bench_matrix+0x890>
    4844:	22f8478b          	th.lrh	a5,a6,a5,1
    4848:	209f4f8b          	th.lrh	t6,t5,s1,0
    484c:	03f78e33          	mul	t3,a5,t6
    4850:	142e338b          	th.extu	t2,t3,5,2
    4854:	2c5e330b          	th.extu	t1,t3,11,5
    4858:	02638633          	mul	a2,t2,t1
    485c:	00c686b3          	add	a3,a3,a2
    4860:	000c8793          	mv	a5,s9
    4864:	00970733          	add	a4,a4,s1
    4868:	22f84c8b          	th.lrh	s9,a6,a5,1
    486c:	00071883          	lh	a7,0(a4)
    4870:	031c8d33          	mul	s10,s9,a7
    4874:	142d3e8b          	th.extu	t4,s10,5,2
    4878:	2c5d3f8b          	th.extu	t6,s10,11,5
    487c:	03fe8e33          	mul	t3,t4,t6
    4880:	01c686b3          	add	a3,a3,t3
    4884:	00178793          	addi	a5,a5,1
    4888:	00970733          	add	a4,a4,s1
    488c:	22f8438b          	th.lrh	t2,a6,a5,1
    4890:	00071303          	lh	t1,0(a4)
    4894:	02638633          	mul	a2,t2,t1
    4898:	14263c8b          	th.extu	s9,a2,5,2
    489c:	2c56388b          	th.extu	a7,a2,11,5
    48a0:	031c8d33          	mul	s10,s9,a7
    48a4:	01a686b3          	add	a3,a3,s10
    48a8:	00178793          	addi	a5,a5,1
    48ac:	00970733          	add	a4,a4,s1
    48b0:	22f84e8b          	th.lrh	t4,a6,a5,1
    48b4:	00071f83          	lh	t6,0(a4)
    48b8:	03fe83b3          	mul	t2,t4,t6
    48bc:	1423be0b          	th.extu	t3,t2,5,2
    48c0:	2c53b30b          	th.extu	t1,t2,11,5
    48c4:	026e0633          	mul	a2,t3,t1
    48c8:	00c686b3          	add	a3,a3,a2
    48cc:	00178793          	addi	a5,a5,1
    48d0:	00970733          	add	a4,a4,s1
    48d4:	22f84c8b          	th.lrh	s9,a6,a5,1
    48d8:	00071883          	lh	a7,0(a4)
    48dc:	031c8d33          	mul	s10,s9,a7
    48e0:	142d3e8b          	th.extu	t4,s10,5,2
    48e4:	2c5d3f8b          	th.extu	t6,s10,11,5
    48e8:	03fe83b3          	mul	t2,t4,t6
    48ec:	007686b3          	add	a3,a3,t2
    48f0:	00178793          	addi	a5,a5,1
    48f4:	00970733          	add	a4,a4,s1
    48f8:	22f8430b          	th.lrh	t1,a6,a5,1
    48fc:	00071e03          	lh	t3,0(a4)
    4900:	03c30633          	mul	a2,t1,t3
    4904:	14263c8b          	th.extu	s9,a2,5,2
    4908:	2c56388b          	th.extu	a7,a2,11,5
    490c:	031c8d33          	mul	s10,s9,a7
    4910:	01a686b3          	add	a3,a3,s10
    4914:	00178793          	addi	a5,a5,1
    4918:	00970733          	add	a4,a4,s1
    491c:	22f84e8b          	th.lrh	t4,a6,a5,1
    4920:	00071f83          	lh	t6,0(a4)
    4924:	03fe83b3          	mul	t2,t4,t6
    4928:	1423b30b          	th.extu	t1,t2,5,2
    492c:	2c53be0b          	th.extu	t3,t2,11,5
    4930:	03c30633          	mul	a2,t1,t3
    4934:	00c686b3          	add	a3,a3,a2
    4938:	00178793          	addi	a5,a5,1
    493c:	00970733          	add	a4,a4,s1
    4940:	1087fc63          	bgeu	a5,s0,4a58 <core_bench_matrix+0xa80>
    4944:	22f84c8b          	th.lrh	s9,a6,a5,1
    4948:	00071883          	lh	a7,0(a4)
    494c:	031c8d33          	mul	s10,s9,a7
    4950:	142d3e8b          	th.extu	t4,s10,5,2
    4954:	2c5d3f8b          	th.extu	t6,s10,11,5
    4958:	03fe83b3          	mul	t2,t4,t6
    495c:	00768333          	add	t1,a3,t2
    4960:	00178e13          	addi	t3,a5,1
    4964:	23c8460b          	th.lrh	a2,a6,t3,1
    4968:	2097468b          	th.lrh	a3,a4,s1,0
    496c:	02d60cb3          	mul	s9,a2,a3
    4970:	142cb88b          	th.extu	a7,s9,5,2
    4974:	2c5cbd0b          	th.extu	s10,s9,11,5
    4978:	03a88eb3          	mul	t4,a7,s10
    497c:	01d30fb3          	add	t6,t1,t4
    4980:	00278393          	addi	t2,a5,2
    4984:	20e4a333          	sh1add	t1,s1,a4
    4988:	22784e0b          	th.lrh	t3,a6,t2,1
    498c:	2297470b          	th.lrh	a4,a4,s1,1
    4990:	02ee0633          	mul	a2,t3,a4
    4994:	1426368b          	th.extu	a3,a2,5,2
    4998:	2c563c8b          	th.extu	s9,a2,11,5
    499c:	039688b3          	mul	a7,a3,s9
    49a0:	011f8d33          	add	s10,t6,a7
    49a4:	00378e93          	addi	t4,a5,3
    49a8:	23d84f8b          	th.lrh	t6,a6,t4,1
    49ac:	2093438b          	th.lrh	t2,t1,s1,0
    49b0:	027f8733          	mul	a4,t6,t2
    49b4:	14273e0b          	th.extu	t3,a4,5,2
    49b8:	2c57360b          	th.extu	a2,a4,11,5
    49bc:	02ce06b3          	mul	a3,t3,a2
    49c0:	00dd0cb3          	add	s9,s10,a3
    49c4:	00478893          	addi	a7,a5,4
    49c8:	2064ad33          	sh1add	s10,s1,t1
    49cc:	23184e8b          	th.lrh	t4,a6,a7,1
    49d0:	2293430b          	th.lrh	t1,t1,s1,1
    49d4:	026e8fb3          	mul	t6,t4,t1
    49d8:	142fb38b          	th.extu	t2,t6,5,2
    49dc:	2c5fb70b          	th.extu	a4,t6,11,5
    49e0:	02e38e33          	mul	t3,t2,a4
    49e4:	01cc8633          	add	a2,s9,t3
    49e8:	00578693          	addi	a3,a5,5
    49ec:	22d84c8b          	th.lrh	s9,a6,a3,1
    49f0:	209d488b          	th.lrh	a7,s10,s1,0
    49f4:	031c8eb3          	mul	t4,s9,a7
    49f8:	142eb30b          	th.extu	t1,t4,5,2
    49fc:	2c5ebf8b          	th.extu	t6,t4,11,5
    4a00:	03f303b3          	mul	t2,t1,t6
    4a04:	00760633          	add	a2,a2,t2
    4a08:	00678e13          	addi	t3,a5,6
    4a0c:	21a4a733          	sh1add	a4,s1,s10
    4a10:	23c8468b          	th.lrh	a3,a6,t3,1
    4a14:	229d4d0b          	th.lrh	s10,s10,s1,1
    4a18:	03a68cb3          	mul	s9,a3,s10
    4a1c:	142cb88b          	th.extu	a7,s9,5,2
    4a20:	2c5cbe8b          	th.extu	t4,s9,11,5
    4a24:	03d88333          	mul	t1,a7,t4
    4a28:	00660fb3          	add	t6,a2,t1
    4a2c:	00778393          	addi	t2,a5,7
    4a30:	2278460b          	th.lrh	a2,a6,t2,1
    4a34:	20974e0b          	th.lrh	t3,a4,s1,0
    4a38:	03c606b3          	mul	a3,a2,t3
    4a3c:	1426bd0b          	th.extu	s10,a3,5,2
    4a40:	2c56bc8b          	th.extu	s9,a3,11,5
    4a44:	039d08b3          	mul	a7,s10,s9
    4a48:	011f86b3          	add	a3,t6,a7
    4a4c:	00878793          	addi	a5,a5,8
    4a50:	20e4a733          	sh1add	a4,s1,a4
    4a54:	ee87e8e3          	bltu	a5,s0,4944 <core_bench_matrix+0x96c>
    4a58:	445c568b          	th.srw	a3,s8,t0,2
    4a5c:	00128293          	addi	t0,t0,1
    4a60:	002f0f13          	addi	t5,t5,2
    4a64:	d882e2e3          	bltu	t0,s0,47e8 <core_bench_matrix+0x810>
    4a68:	00150513          	addi	a0,a0,1
    4a6c:	017c0c33          	add	s8,s8,s7
    4a70:	00980833          	add	a6,a6,s1
    4a74:	d68566e3          	bltu	a0,s0,47e0 <core_bench_matrix+0x808>
    4a78:	00000f13          	li	t5,0
    4a7c:	00000e93          	li	t4,0
    4a80:	00000513          	li	a0,0
    4a84:	00000313          	li	t1,0
    4a88:	000f0693          	mv	a3,t5
    4a8c:	00000793          	li	a5,0
    4a90:	44fb4f0b          	th.lrw	t5,s6,a5,2
    4a94:	01ee8eb3          	add	t4,t4,t5
    4a98:	03d94463          	blt	s2,t4,4ac0 <core_bench_matrix+0xae8>
    4a9c:	01e6a2b3          	slt	t0,a3,t5
    4aa0:	00550ab3          	add	s5,a0,t0
    4aa4:	3c0aa50b          	th.ext	a0,s5,15,0
    4aa8:	00178793          	addi	a5,a5,1
    4aac:	0287fa63          	bgeu	a5,s0,4ae0 <core_bench_matrix+0xb08>
    4ab0:	000f0693          	mv	a3,t5
    4ab4:	44fb4f0b          	th.lrw	t5,s6,a5,2
    4ab8:	01ee8eb3          	add	t4,t4,t5
    4abc:	ffd950e3          	bge	s2,t4,4a9c <core_bench_matrix+0xac4>
    4ac0:	00a50713          	addi	a4,a0,10
    4ac4:	3c07250b          	th.ext	a0,a4,15,0
    4ac8:	00178793          	addi	a5,a5,1
    4acc:	0087f863          	bgeu	a5,s0,4adc <core_bench_matrix+0xb04>
    4ad0:	00000e93          	li	t4,0
    4ad4:	000f0693          	mv	a3,t5
    4ad8:	fddff06f          	j	4ab4 <core_bench_matrix+0xadc>
    4adc:	00000e93          	li	t4,0
    4ae0:	00130313          	addi	t1,t1,1
    4ae4:	017b0b33          	add	s6,s6,s7
    4ae8:	fa8360e3          	bltu	t1,s0,4a88 <core_bench_matrix+0xab0>
    4aec:	1ec030ef          	jal	7cd8 <crc16>
    4af0:	00000693          	li	a3,0
    4af4:	fff40593          	addi	a1,s0,-1
    4af8:	0075f913          	andi	s2,a1,7
    4afc:	000a5b83          	lhu	s7,0(s4)
    4b00:	413b8fb3          	sub	t6,s7,s3
    4b04:	01fa1023          	sh	t6,0(s4)
    4b08:	00100793          	li	a5,1
    4b0c:	1287f663          	bgeu	a5,s0,4c38 <core_bench_matrix+0xc60>
    4b10:	0a090263          	beqz	s2,4bb4 <core_bench_matrix+0xbdc>
    4b14:	08f90663          	beq	s2,a5,4ba0 <core_bench_matrix+0xbc8>
    4b18:	00200393          	li	t2,2
    4b1c:	06790a63          	beq	s2,t2,4b90 <core_bench_matrix+0xbb8>
    4b20:	00300613          	li	a2,3
    4b24:	04c90e63          	beq	s2,a2,4b80 <core_bench_matrix+0xba8>
    4b28:	00400e13          	li	t3,4
    4b2c:	05c90263          	beq	s2,t3,4b70 <core_bench_matrix+0xb98>
    4b30:	00500d13          	li	s10,5
    4b34:	03a90663          	beq	s2,s10,4b60 <core_bench_matrix+0xb88>
    4b38:	00600c93          	li	s9,6
    4b3c:	01990a63          	beq	s2,s9,4b50 <core_bench_matrix+0xb78>
    4b40:	a2fa488b          	th.lrhu	a7,s4,a5,1
    4b44:	41388c33          	sub	s8,a7,s3
    4b48:	22fa5c0b          	th.srh	s8,s4,a5,1
    4b4c:	00038793          	mv	a5,t2
    4b50:	a2fa480b          	th.lrhu	a6,s4,a5,1
    4b54:	41380f33          	sub	t5,a6,s3
    4b58:	22fa5f0b          	th.srh	t5,s4,a5,1
    4b5c:	00178793          	addi	a5,a5,1
    4b60:	a2fa428b          	th.lrhu	t0,s4,a5,1
    4b64:	41328ab3          	sub	s5,t0,s3
    4b68:	22fa5a8b          	th.srh	s5,s4,a5,1
    4b6c:	00178793          	addi	a5,a5,1
    4b70:	a2fa470b          	th.lrhu	a4,s4,a5,1
    4b74:	41370eb3          	sub	t4,a4,s3
    4b78:	22fa5e8b          	th.srh	t4,s4,a5,1
    4b7c:	00178793          	addi	a5,a5,1
    4b80:	a2fa430b          	th.lrhu	t1,s4,a5,1
    4b84:	41330b33          	sub	s6,t1,s3
    4b88:	22fa5b0b          	th.srh	s6,s4,a5,1
    4b8c:	00178793          	addi	a5,a5,1
    4b90:	a2fa458b          	th.lrhu	a1,s4,a5,1
    4b94:	41358933          	sub	s2,a1,s3
    4b98:	22fa590b          	th.srh	s2,s4,a5,1
    4b9c:	00178793          	addi	a5,a5,1
    4ba0:	a2fa4b8b          	th.lrhu	s7,s4,a5,1
    4ba4:	413b8fb3          	sub	t6,s7,s3
    4ba8:	22fa5f8b          	th.srh	t6,s4,a5,1
    4bac:	00178793          	addi	a5,a5,1
    4bb0:	0887f463          	bgeu	a5,s0,4c38 <core_bench_matrix+0xc60>
    4bb4:	a2fa438b          	th.lrhu	t2,s4,a5,1
    4bb8:	41338633          	sub	a2,t2,s3
    4bbc:	22fa560b          	th.srh	a2,s4,a5,1
    4bc0:	00178e13          	addi	t3,a5,1
    4bc4:	a3ca4d0b          	th.lrhu	s10,s4,t3,1
    4bc8:	413d0cb3          	sub	s9,s10,s3
    4bcc:	23ca5c8b          	th.srh	s9,s4,t3,1
    4bd0:	00278893          	addi	a7,a5,2
    4bd4:	a31a4c0b          	th.lrhu	s8,s4,a7,1
    4bd8:	413c0833          	sub	a6,s8,s3
    4bdc:	231a580b          	th.srh	a6,s4,a7,1
    4be0:	00378f13          	addi	t5,a5,3
    4be4:	a3ea428b          	th.lrhu	t0,s4,t5,1
    4be8:	41328ab3          	sub	s5,t0,s3
    4bec:	23ea5a8b          	th.srh	s5,s4,t5,1
    4bf0:	00478e93          	addi	t4,a5,4
    4bf4:	a3da470b          	th.lrhu	a4,s4,t4,1
    4bf8:	41370333          	sub	t1,a4,s3
    4bfc:	23da530b          	th.srh	t1,s4,t4,1
    4c00:	00578b13          	addi	s6,a5,5
    4c04:	a36a458b          	th.lrhu	a1,s4,s6,1
    4c08:	41358933          	sub	s2,a1,s3
    4c0c:	236a590b          	th.srh	s2,s4,s6,1
    4c10:	00678b93          	addi	s7,a5,6
    4c14:	a37a4f8b          	th.lrhu	t6,s4,s7,1
    4c18:	413f83b3          	sub	t2,t6,s3
    4c1c:	237a538b          	th.srh	t2,s4,s7,1
    4c20:	00778613          	addi	a2,a5,7
    4c24:	a2ca4e0b          	th.lrhu	t3,s4,a2,1
    4c28:	413e0d33          	sub	s10,t3,s3
    4c2c:	22ca5d0b          	th.srh	s10,s4,a2,1
    4c30:	00878793          	addi	a5,a5,8
    4c34:	f887e0e3          	bltu	a5,s0,4bb4 <core_bench_matrix+0xbdc>
    4c38:	00168693          	addi	a3,a3,1
    4c3c:	009a0a33          	add	s4,s4,s1
    4c40:	ea86eae3          	bltu	a3,s0,4af4 <core_bench_matrix+0xb1c>
    4c44:	03812403          	lw	s0,56(sp)
    4c48:	03412483          	lw	s1,52(sp)
    4c4c:	03012903          	lw	s2,48(sp)
    4c50:	02c12983          	lw	s3,44(sp)
    4c54:	02812a03          	lw	s4,40(sp)
    4c58:	02412a83          	lw	s5,36(sp)
    4c5c:	02012b03          	lw	s6,32(sp)
    4c60:	01c12b83          	lw	s7,28(sp)
    4c64:	01812c03          	lw	s8,24(sp)
    4c68:	01412c83          	lw	s9,20(sp)
    4c6c:	01012d03          	lw	s10,16(sp)
    4c70:	000d8593          	mv	a1,s11
    4c74:	3c05250b          	th.ext	a0,a0,15,0
    4c78:	03c12083          	lw	ra,60(sp)
    4c7c:	00c12d83          	lw	s11,12(sp)
    4c80:	04010113          	addi	sp,sp,64
    4c84:	0540306f          	j	7cd8 <crc16>
    4c88:	00000593          	li	a1,0
    4c8c:	00000513          	li	a0,0
    4c90:	048030ef          	jal	7cd8 <crc16>
    4c94:	00050593          	mv	a1,a0
    4c98:	00000513          	li	a0,0
    4c9c:	03c030ef          	jal	7cd8 <crc16>
    4ca0:	00050593          	mv	a1,a0
    4ca4:	00000513          	li	a0,0
    4ca8:	030030ef          	jal	7cd8 <crc16>
    4cac:	00050593          	mv	a1,a0
    4cb0:	00000513          	li	a0,0
    4cb4:	024030ef          	jal	7cd8 <crc16>
    4cb8:	000d8593          	mv	a1,s11
    4cbc:	3c05250b          	th.ext	a0,a0,15,0
    4cc0:	03c12083          	lw	ra,60(sp)
    4cc4:	00c12d83          	lw	s11,12(sp)
    4cc8:	04010113          	addi	sp,sp,64
    4ccc:	00c0306f          	j	7cd8 <crc16>

00004cd0 <matrix_test>:
    4cd0:	fc010113          	addi	sp,sp,-64
    4cd4:	02112e23          	sw	ra,60(sp)
    4cd8:	48050ce3          	beqz	a0,5970 <matrix_test+0xca0>
    4cdc:	02812c23          	sw	s0,56(sp)
    4ce0:	02912a23          	sw	s1,52(sp)
    4ce4:	03212823          	sw	s2,48(sp)
    4ce8:	03312623          	sw	s3,44(sp)
    4cec:	03412423          	sw	s4,40(sp)
    4cf0:	03512223          	sw	s5,36(sp)
    4cf4:	03612023          	sw	s6,32(sp)
    4cf8:	01712e23          	sw	s7,28(sp)
    4cfc:	01812c23          	sw	s8,24(sp)
    4d00:	01912a23          	sw	s9,20(sp)
    4d04:	01a12823          	sw	s10,16(sp)
    4d08:	01b12623          	sw	s11,12(sp)
    4d0c:	00058c93          	mv	s9,a1
    4d10:	00060c13          	mv	s8,a2
    4d14:	00068a93          	mv	s5,a3
    4d18:	00070993          	mv	s3,a4
    4d1c:	fffff937          	lui	s2,0xfffff
    4d20:	01276933          	or	s2,a4,s2
    4d24:	00151413          	slli	s0,a0,0x1
    4d28:	00060a13          	mv	s4,a2
    4d2c:	20c526b3          	sh1add	a3,a0,a2
    4d30:	00000d13          	li	s10,0
    4d34:	408687b3          	sub	a5,a3,s0
    4d38:	ffe40713          	addi	a4,s0,-2
    4d3c:	00175293          	srli	t0,a4,0x1
    4d40:	00128313          	addi	t1,t0,1
    4d44:	00737393          	andi	t2,t1,7
    4d48:	0a038463          	beqz	t2,4df0 <matrix_test+0x120>
    4d4c:	00100613          	li	a2,1
    4d50:	08c38663          	beq	t2,a2,4ddc <matrix_test+0x10c>
    4d54:	00200493          	li	s1,2
    4d58:	06938a63          	beq	t2,s1,4dcc <matrix_test+0xfc>
    4d5c:	00300593          	li	a1,3
    4d60:	04b38e63          	beq	t2,a1,4dbc <matrix_test+0xec>
    4d64:	00400813          	li	a6,4
    4d68:	05038263          	beq	t2,a6,4dac <matrix_test+0xdc>
    4d6c:	00500893          	li	a7,5
    4d70:	03138663          	beq	t2,a7,4d9c <matrix_test+0xcc>
    4d74:	00600b13          	li	s6,6
    4d78:	01638a63          	beq	t2,s6,4d8c <matrix_test+0xbc>
    4d7c:	0007db83          	lhu	s7,0(a5)
    4d80:	01798db3          	add	s11,s3,s7
    4d84:	01b79023          	sh	s11,0(a5)
    4d88:	00278793          	addi	a5,a5,2
    4d8c:	0007de03          	lhu	t3,0(a5)
    4d90:	01c98eb3          	add	t4,s3,t3
    4d94:	01d79023          	sh	t4,0(a5)
    4d98:	00278793          	addi	a5,a5,2
    4d9c:	0007df03          	lhu	t5,0(a5)
    4da0:	01e98fb3          	add	t6,s3,t5
    4da4:	01f79023          	sh	t6,0(a5)
    4da8:	00278793          	addi	a5,a5,2
    4dac:	0007d703          	lhu	a4,0(a5)
    4db0:	00e982b3          	add	t0,s3,a4
    4db4:	00579023          	sh	t0,0(a5)
    4db8:	00278793          	addi	a5,a5,2
    4dbc:	0007d303          	lhu	t1,0(a5)
    4dc0:	006983b3          	add	t2,s3,t1
    4dc4:	00779023          	sh	t2,0(a5)
    4dc8:	00278793          	addi	a5,a5,2
    4dcc:	0007d603          	lhu	a2,0(a5)
    4dd0:	00c984b3          	add	s1,s3,a2
    4dd4:	00979023          	sh	s1,0(a5)
    4dd8:	00278793          	addi	a5,a5,2
    4ddc:	0007d583          	lhu	a1,0(a5)
    4de0:	00b98833          	add	a6,s3,a1
    4de4:	01079023          	sh	a6,0(a5)
    4de8:	00278793          	addi	a5,a5,2
    4dec:	06f68663          	beq	a3,a5,4e58 <matrix_test+0x188>
    4df0:	0007d883          	lhu	a7,0(a5)
    4df4:	01198b33          	add	s6,s3,a7
    4df8:	01679023          	sh	s6,0(a5)
    4dfc:	0027db83          	lhu	s7,2(a5)
    4e00:	01798db3          	add	s11,s3,s7
    4e04:	01b79123          	sh	s11,2(a5)
    4e08:	0047de03          	lhu	t3,4(a5)
    4e0c:	01c98eb3          	add	t4,s3,t3
    4e10:	01d79223          	sh	t4,4(a5)
    4e14:	0067df03          	lhu	t5,6(a5)
    4e18:	01e98fb3          	add	t6,s3,t5
    4e1c:	01f79323          	sh	t6,6(a5)
    4e20:	0087d703          	lhu	a4,8(a5)
    4e24:	00e982b3          	add	t0,s3,a4
    4e28:	00579423          	sh	t0,8(a5)
    4e2c:	00a7d303          	lhu	t1,10(a5)
    4e30:	006983b3          	add	t2,s3,t1
    4e34:	00779523          	sh	t2,10(a5)
    4e38:	00c7d603          	lhu	a2,12(a5)
    4e3c:	00c984b3          	add	s1,s3,a2
    4e40:	00979623          	sh	s1,12(a5)
    4e44:	00e7d583          	lhu	a1,14(a5)
    4e48:	00b98833          	add	a6,s3,a1
    4e4c:	01079723          	sh	a6,14(a5)
    4e50:	01078793          	addi	a5,a5,16
    4e54:	f8f69ee3          	bne	a3,a5,4df0 <matrix_test+0x120>
    4e58:	001d0493          	addi	s1,s10,1
    4e5c:	008686b3          	add	a3,a3,s0
    4e60:	00950663          	beq	a0,s1,4e6c <matrix_test+0x19c>
    4e64:	00048d13          	mv	s10,s1
    4e68:	ecdff06f          	j	4d34 <matrix_test+0x64>
    4e6c:	00249b93          	slli	s7,s1,0x2
    4e70:	000c8b13          	mv	s6,s9
    4e74:	000c8613          	mv	a2,s9
    4e78:	000c0693          	mv	a3,s8
    4e7c:	00000593          	li	a1,0
    4e80:	00000793          	li	a5,0
    4e84:	0074f893          	andi	a7,s1,7
    4e88:	0a088463          	beqz	a7,4f30 <matrix_test+0x260>
    4e8c:	00100513          	li	a0,1
    4e90:	08a88663          	beq	a7,a0,4f1c <matrix_test+0x24c>
    4e94:	00200d93          	li	s11,2
    4e98:	07b88a63          	beq	a7,s11,4f0c <matrix_test+0x23c>
    4e9c:	00300e13          	li	t3,3
    4ea0:	05c88e63          	beq	a7,t3,4efc <matrix_test+0x22c>
    4ea4:	00400e93          	li	t4,4
    4ea8:	05d88263          	beq	a7,t4,4eec <matrix_test+0x21c>
    4eac:	00500f13          	li	t5,5
    4eb0:	03e88663          	beq	a7,t5,4edc <matrix_test+0x20c>
    4eb4:	00600f93          	li	t6,6
    4eb8:	01f88a63          	beq	a7,t6,4ecc <matrix_test+0x1fc>
    4ebc:	22f6c70b          	th.lrh	a4,a3,a5,1
    4ec0:	033702b3          	mul	t0,a4,s3
    4ec4:	44f6528b          	th.srw	t0,a2,a5,2
    4ec8:	00050793          	mv	a5,a0
    4ecc:	22f6c30b          	th.lrh	t1,a3,a5,1
    4ed0:	033303b3          	mul	t2,t1,s3
    4ed4:	44f6538b          	th.srw	t2,a2,a5,2
    4ed8:	00178793          	addi	a5,a5,1
    4edc:	22f6c80b          	th.lrh	a6,a3,a5,1
    4ee0:	033808b3          	mul	a7,a6,s3
    4ee4:	44f6588b          	th.srw	a7,a2,a5,2
    4ee8:	00178793          	addi	a5,a5,1
    4eec:	22f6c50b          	th.lrh	a0,a3,a5,1
    4ef0:	03350db3          	mul	s11,a0,s3
    4ef4:	44f65d8b          	th.srw	s11,a2,a5,2
    4ef8:	00178793          	addi	a5,a5,1
    4efc:	22f6ce0b          	th.lrh	t3,a3,a5,1
    4f00:	033e0eb3          	mul	t4,t3,s3
    4f04:	44f65e8b          	th.srw	t4,a2,a5,2
    4f08:	00178793          	addi	a5,a5,1
    4f0c:	22f6cf0b          	th.lrh	t5,a3,a5,1
    4f10:	033f0fb3          	mul	t6,t5,s3
    4f14:	44f65f8b          	th.srw	t6,a2,a5,2
    4f18:	00178793          	addi	a5,a5,1
    4f1c:	22f6c70b          	th.lrh	a4,a3,a5,1
    4f20:	033702b3          	mul	t0,a4,s3
    4f24:	44f6528b          	th.srw	t0,a2,a5,2
    4f28:	00178793          	addi	a5,a5,1
    4f2c:	08978463          	beq	a5,s1,4fb4 <matrix_test+0x2e4>
    4f30:	22f6c30b          	th.lrh	t1,a3,a5,1
    4f34:	033303b3          	mul	t2,t1,s3
    4f38:	44f6538b          	th.srw	t2,a2,a5,2
    4f3c:	00178813          	addi	a6,a5,1
    4f40:	2306c88b          	th.lrh	a7,a3,a6,1
    4f44:	03388533          	mul	a0,a7,s3
    4f48:	4506550b          	th.srw	a0,a2,a6,2
    4f4c:	00278d93          	addi	s11,a5,2
    4f50:	23b6ce0b          	th.lrh	t3,a3,s11,1
    4f54:	033e0eb3          	mul	t4,t3,s3
    4f58:	45b65e8b          	th.srw	t4,a2,s11,2
    4f5c:	00378f13          	addi	t5,a5,3
    4f60:	23e6cf8b          	th.lrh	t6,a3,t5,1
    4f64:	033f8733          	mul	a4,t6,s3
    4f68:	45e6570b          	th.srw	a4,a2,t5,2
    4f6c:	00478293          	addi	t0,a5,4
    4f70:	2256c30b          	th.lrh	t1,a3,t0,1
    4f74:	033303b3          	mul	t2,t1,s3
    4f78:	4456538b          	th.srw	t2,a2,t0,2
    4f7c:	00578813          	addi	a6,a5,5
    4f80:	2306c88b          	th.lrh	a7,a3,a6,1
    4f84:	03388533          	mul	a0,a7,s3
    4f88:	4506550b          	th.srw	a0,a2,a6,2
    4f8c:	00678d93          	addi	s11,a5,6
    4f90:	23b6ce0b          	th.lrh	t3,a3,s11,1
    4f94:	033e0eb3          	mul	t4,t3,s3
    4f98:	45b65e8b          	th.srw	t4,a2,s11,2
    4f9c:	00778f13          	addi	t5,a5,7
    4fa0:	23e6cf8b          	th.lrh	t6,a3,t5,1
    4fa4:	033f8733          	mul	a4,t6,s3
    4fa8:	45e6570b          	th.srw	a4,a2,t5,2
    4fac:	00878793          	addi	a5,a5,8
    4fb0:	f89790e3          	bne	a5,s1,4f30 <matrix_test+0x260>
    4fb4:	008686b3          	add	a3,a3,s0
    4fb8:	01760633          	add	a2,a2,s7
    4fbc:	01a58663          	beq	a1,s10,4fc8 <matrix_test+0x2f8>
    4fc0:	00158593          	addi	a1,a1,1
    4fc4:	ebdff06f          	j	4e80 <matrix_test+0x1b0>
    4fc8:	017c85b3          	add	a1,s9,s7
    4fcc:	00000293          	li	t0,0
    4fd0:	00000e13          	li	t3,0
    4fd4:	00000513          	li	a0,0
    4fd8:	00000f13          	li	t5,0
    4fdc:	417587b3          	sub	a5,a1,s7
    4fe0:	00028693          	mv	a3,t0
    4fe4:	0007a283          	lw	t0,0(a5)
    4fe8:	005e0e33          	add	t3,t3,t0
    4fec:	03c94463          	blt	s2,t3,5014 <matrix_test+0x344>
    4ff0:	0056a333          	slt	t1,a3,t0
    4ff4:	006503b3          	add	t2,a0,t1
    4ff8:	3c03a50b          	th.ext	a0,t2,15,0
    4ffc:	00478793          	addi	a5,a5,4
    5000:	02f58a63          	beq	a1,a5,5034 <matrix_test+0x364>
    5004:	00028693          	mv	a3,t0
    5008:	0007a283          	lw	t0,0(a5)
    500c:	005e0e33          	add	t3,t3,t0
    5010:	ffc950e3          	bge	s2,t3,4ff0 <matrix_test+0x320>
    5014:	00a50893          	addi	a7,a0,10
    5018:	3c08a50b          	th.ext	a0,a7,15,0
    501c:	00478793          	addi	a5,a5,4
    5020:	00f58863          	beq	a1,a5,5030 <matrix_test+0x360>
    5024:	00000e13          	li	t3,0
    5028:	00028693          	mv	a3,t0
    502c:	fddff06f          	j	5008 <matrix_test+0x338>
    5030:	00000e13          	li	t3,0
    5034:	001f0d93          	addi	s11,t5,1
    5038:	017585b3          	add	a1,a1,s7
    503c:	01ed0663          	beq	s10,t5,5048 <matrix_test+0x378>
    5040:	000d8f13          	mv	t5,s11
    5044:	f99ff06f          	j	4fdc <matrix_test+0x30c>
    5048:	00000593          	li	a1,0
    504c:	48d020ef          	jal	7cd8 <crc16>
    5050:	00050593          	mv	a1,a0
    5054:	000c0613          	mv	a2,s8
    5058:	00000513          	li	a0,0
    505c:	00000693          	li	a3,0
    5060:	00000793          	li	a5,0
    5064:	007dfe93          	andi	t4,s11,7
    5068:	0c0e8063          	beqz	t4,5128 <matrix_test+0x458>
    506c:	00100813          	li	a6,1
    5070:	0b0e8063          	beq	t4,a6,5110 <matrix_test+0x440>
    5074:	00200f13          	li	t5,2
    5078:	09ee8263          	beq	t4,t5,50fc <matrix_test+0x42c>
    507c:	00300f93          	li	t6,3
    5080:	07fe8463          	beq	t4,t6,50e8 <matrix_test+0x418>
    5084:	00400713          	li	a4,4
    5088:	04ee8663          	beq	t4,a4,50d4 <matrix_test+0x404>
    508c:	00500293          	li	t0,5
    5090:	025e8863          	beq	t4,t0,50c0 <matrix_test+0x3f0>
    5094:	00600313          	li	t1,6
    5098:	006e8a63          	beq	t4,t1,50ac <matrix_test+0x3dc>
    509c:	22d6438b          	th.lrh	t2,a2,a3,1
    50a0:	22dac68b          	th.lrh	a3,s5,a3,1
    50a4:	02d386b3          	mul	a3,t2,a3
    50a8:	00080793          	mv	a5,a6
    50ac:	22f6488b          	th.lrh	a7,a2,a5,1
    50b0:	22face0b          	th.lrh	t3,s5,a5,1
    50b4:	03c88eb3          	mul	t4,a7,t3
    50b8:	01d686b3          	add	a3,a3,t4
    50bc:	00178793          	addi	a5,a5,1
    50c0:	22f64f0b          	th.lrh	t5,a2,a5,1
    50c4:	22fac80b          	th.lrh	a6,s5,a5,1
    50c8:	030f0fb3          	mul	t6,t5,a6
    50cc:	01f686b3          	add	a3,a3,t6
    50d0:	00178793          	addi	a5,a5,1
    50d4:	22f6470b          	th.lrh	a4,a2,a5,1
    50d8:	22fac28b          	th.lrh	t0,s5,a5,1
    50dc:	02570333          	mul	t1,a4,t0
    50e0:	006686b3          	add	a3,a3,t1
    50e4:	00178793          	addi	a5,a5,1
    50e8:	22f6438b          	th.lrh	t2,a2,a5,1
    50ec:	22fac88b          	th.lrh	a7,s5,a5,1
    50f0:	03138e33          	mul	t3,t2,a7
    50f4:	01c686b3          	add	a3,a3,t3
    50f8:	00178793          	addi	a5,a5,1
    50fc:	22f64e8b          	th.lrh	t4,a2,a5,1
    5100:	22facf0b          	th.lrh	t5,s5,a5,1
    5104:	03ee8833          	mul	a6,t4,t5
    5108:	010686b3          	add	a3,a3,a6
    510c:	00178793          	addi	a5,a5,1
    5110:	22f64f8b          	th.lrh	t6,a2,a5,1
    5114:	22fac70b          	th.lrh	a4,s5,a5,1
    5118:	02ef82b3          	mul	t0,t6,a4
    511c:	005686b3          	add	a3,a3,t0
    5120:	00178793          	addi	a5,a5,1
    5124:	0afd8463          	beq	s11,a5,51cc <matrix_test+0x4fc>
    5128:	22f6430b          	th.lrh	t1,a2,a5,1
    512c:	22fac38b          	th.lrh	t2,s5,a5,1
    5130:	027308b3          	mul	a7,t1,t2
    5134:	01168e33          	add	t3,a3,a7
    5138:	00178e93          	addi	t4,a5,1
    513c:	23d64f0b          	th.lrh	t5,a2,t4,1
    5140:	23dac80b          	th.lrh	a6,s5,t4,1
    5144:	030f0fb3          	mul	t6,t5,a6
    5148:	01fe0733          	add	a4,t3,t6
    514c:	00278293          	addi	t0,a5,2
    5150:	2256468b          	th.lrh	a3,a2,t0,1
    5154:	225ac30b          	th.lrh	t1,s5,t0,1
    5158:	026683b3          	mul	t2,a3,t1
    515c:	007708b3          	add	a7,a4,t2
    5160:	00378e13          	addi	t3,a5,3
    5164:	23c64e8b          	th.lrh	t4,a2,t3,1
    5168:	23cacf0b          	th.lrh	t5,s5,t3,1
    516c:	03ee8833          	mul	a6,t4,t5
    5170:	01088fb3          	add	t6,a7,a6
    5174:	00478713          	addi	a4,a5,4
    5178:	22e6428b          	th.lrh	t0,a2,a4,1
    517c:	22eac68b          	th.lrh	a3,s5,a4,1
    5180:	02d28333          	mul	t1,t0,a3
    5184:	006f83b3          	add	t2,t6,t1
    5188:	00578893          	addi	a7,a5,5
    518c:	23164e0b          	th.lrh	t3,a2,a7,1
    5190:	231ace8b          	th.lrh	t4,s5,a7,1
    5194:	03de0f33          	mul	t5,t3,t4
    5198:	01e38fb3          	add	t6,t2,t5
    519c:	00678813          	addi	a6,a5,6
    51a0:	2306470b          	th.lrh	a4,a2,a6,1
    51a4:	230ac28b          	th.lrh	t0,s5,a6,1
    51a8:	025706b3          	mul	a3,a4,t0
    51ac:	00df8333          	add	t1,t6,a3
    51b0:	00778393          	addi	t2,a5,7
    51b4:	2276488b          	th.lrh	a7,a2,t2,1
    51b8:	227ace0b          	th.lrh	t3,s5,t2,1
    51bc:	03c88eb3          	mul	t4,a7,t3
    51c0:	01d306b3          	add	a3,t1,t4
    51c4:	00878793          	addi	a5,a5,8
    51c8:	f6fd90e3          	bne	s11,a5,5128 <matrix_test+0x458>
    51cc:	44acd68b          	th.srw	a3,s9,a0,2
    51d0:	00860633          	add	a2,a2,s0
    51d4:	00ad0663          	beq	s10,a0,51e0 <matrix_test+0x510>
    51d8:	00150513          	addi	a0,a0,1
    51dc:	e81ff06f          	j	505c <matrix_test+0x38c>
    51e0:	000c8513          	mv	a0,s9
    51e4:	00000d13          	li	s10,0
    51e8:	00000293          	li	t0,0
    51ec:	00000713          	li	a4,0
    51f0:	00000693          	li	a3,0
    51f4:	000d0613          	mv	a2,s10
    51f8:	00000793          	li	a5,0
    51fc:	44f54d0b          	th.lrw	s10,a0,a5,2
    5200:	01a282b3          	add	t0,t0,s10
    5204:	02594463          	blt	s2,t0,522c <matrix_test+0x55c>
    5208:	01a62db3          	slt	s11,a2,s10
    520c:	01b70f33          	add	t5,a4,s11
    5210:	3c0f270b          	th.ext	a4,t5,15,0
    5214:	00178793          	addi	a5,a5,1
    5218:	0297fa63          	bgeu	a5,s1,524c <matrix_test+0x57c>
    521c:	000d0613          	mv	a2,s10
    5220:	44f54d0b          	th.lrw	s10,a0,a5,2
    5224:	01a282b3          	add	t0,t0,s10
    5228:	fe5950e3          	bge	s2,t0,5208 <matrix_test+0x538>
    522c:	00a70f93          	addi	t6,a4,10
    5230:	3c0fa70b          	th.ext	a4,t6,15,0
    5234:	00178793          	addi	a5,a5,1
    5238:	0097f863          	bgeu	a5,s1,5248 <matrix_test+0x578>
    523c:	00000293          	li	t0,0
    5240:	000d0613          	mv	a2,s10
    5244:	fddff06f          	j	5220 <matrix_test+0x550>
    5248:	00000293          	li	t0,0
    524c:	00168693          	addi	a3,a3,1
    5250:	01750533          	add	a0,a0,s7
    5254:	fa96e0e3          	bltu	a3,s1,51f4 <matrix_test+0x524>
    5258:	00070513          	mv	a0,a4
    525c:	27d020ef          	jal	7cd8 <crc16>
    5260:	00050593          	mv	a1,a0
    5264:	000c0813          	mv	a6,s8
    5268:	000c8e13          	mv	t3,s9
    526c:	00000e93          	li	t4,0
    5270:	000a8393          	mv	t2,s5
    5274:	00000313          	li	t1,0
    5278:	fff48893          	addi	a7,s1,-1
    527c:	0078f613          	andi	a2,a7,7
    5280:	00081d03          	lh	s10,0(a6)
    5284:	00039d83          	lh	s11,0(t2)
    5288:	03bd06b3          	mul	a3,s10,s11
    528c:	00100793          	li	a5,1
    5290:	00838733          	add	a4,t2,s0
    5294:	1897fa63          	bgeu	a5,s1,5428 <matrix_test+0x758>
    5298:	0c060e63          	beqz	a2,5374 <matrix_test+0x6a4>
    529c:	0af60e63          	beq	a2,a5,5358 <matrix_test+0x688>
    52a0:	00200f13          	li	t5,2
    52a4:	09e60e63          	beq	a2,t5,5340 <matrix_test+0x670>
    52a8:	00300f93          	li	t6,3
    52ac:	07f60e63          	beq	a2,t6,5328 <matrix_test+0x658>
    52b0:	00400293          	li	t0,4
    52b4:	04560e63          	beq	a2,t0,5310 <matrix_test+0x640>
    52b8:	00500513          	li	a0,5
    52bc:	02a60e63          	beq	a2,a0,52f8 <matrix_test+0x628>
    52c0:	00600893          	li	a7,6
    52c4:	01160e63          	beq	a2,a7,52e0 <matrix_test+0x610>
    52c8:	22f8478b          	th.lrh	a5,a6,a5,1
    52cc:	2083c60b          	th.lrh	a2,t2,s0,0
    52d0:	02c78d33          	mul	s10,a5,a2
    52d4:	01a686b3          	add	a3,a3,s10
    52d8:	000f0793          	mv	a5,t5
    52dc:	00870733          	add	a4,a4,s0
    52e0:	22f84d8b          	th.lrh	s11,a6,a5,1
    52e4:	00071f03          	lh	t5,0(a4)
    52e8:	03ed8fb3          	mul	t6,s11,t5
    52ec:	01f686b3          	add	a3,a3,t6
    52f0:	00178793          	addi	a5,a5,1
    52f4:	00870733          	add	a4,a4,s0
    52f8:	22f8428b          	th.lrh	t0,a6,a5,1
    52fc:	00071503          	lh	a0,0(a4)
    5300:	02a288b3          	mul	a7,t0,a0
    5304:	011686b3          	add	a3,a3,a7
    5308:	00178793          	addi	a5,a5,1
    530c:	00870733          	add	a4,a4,s0
    5310:	22f8460b          	th.lrh	a2,a6,a5,1
    5314:	00071d03          	lh	s10,0(a4)
    5318:	03a60db3          	mul	s11,a2,s10
    531c:	01b686b3          	add	a3,a3,s11
    5320:	00178793          	addi	a5,a5,1
    5324:	00870733          	add	a4,a4,s0
    5328:	22f84f0b          	th.lrh	t5,a6,a5,1
    532c:	00071f83          	lh	t6,0(a4)
    5330:	03ff02b3          	mul	t0,t5,t6
    5334:	005686b3          	add	a3,a3,t0
    5338:	00178793          	addi	a5,a5,1
    533c:	00870733          	add	a4,a4,s0
    5340:	22f8488b          	th.lrh	a7,a6,a5,1
    5344:	00071503          	lh	a0,0(a4)
    5348:	02a88633          	mul	a2,a7,a0
    534c:	00c686b3          	add	a3,a3,a2
    5350:	00178793          	addi	a5,a5,1
    5354:	00870733          	add	a4,a4,s0
    5358:	22f84d0b          	th.lrh	s10,a6,a5,1
    535c:	00071d83          	lh	s11,0(a4)
    5360:	03bd0f33          	mul	t5,s10,s11
    5364:	01e686b3          	add	a3,a3,t5
    5368:	00178793          	addi	a5,a5,1
    536c:	00870733          	add	a4,a4,s0
    5370:	0a97fc63          	bgeu	a5,s1,5428 <matrix_test+0x758>
    5374:	22f84f8b          	th.lrh	t6,a6,a5,1
    5378:	00071283          	lh	t0,0(a4)
    537c:	025f88b3          	mul	a7,t6,t0
    5380:	01168633          	add	a2,a3,a7
    5384:	00178513          	addi	a0,a5,1
    5388:	22a84d0b          	th.lrh	s10,a6,a0,1
    538c:	20874d8b          	th.lrh	s11,a4,s0,0
    5390:	03bd0f33          	mul	t5,s10,s11
    5394:	01e60fb3          	add	t6,a2,t5
    5398:	00278693          	addi	a3,a5,2
    539c:	20e422b3          	sh1add	t0,s0,a4
    53a0:	22d8488b          	th.lrh	a7,a6,a3,1
    53a4:	2287470b          	th.lrh	a4,a4,s0,1
    53a8:	02e88633          	mul	a2,a7,a4
    53ac:	00cf8533          	add	a0,t6,a2
    53b0:	00378d13          	addi	s10,a5,3
    53b4:	23a84d8b          	th.lrh	s11,a6,s10,1
    53b8:	2082cf0b          	th.lrh	t5,t0,s0,0
    53bc:	03ed8fb3          	mul	t6,s11,t5
    53c0:	01f508b3          	add	a7,a0,t6
    53c4:	00478693          	addi	a3,a5,4
    53c8:	20542533          	sh1add	a0,s0,t0
    53cc:	22d8470b          	th.lrh	a4,a6,a3,1
    53d0:	2282c28b          	th.lrh	t0,t0,s0,1
    53d4:	02570633          	mul	a2,a4,t0
    53d8:	00c88d33          	add	s10,a7,a2
    53dc:	00578d93          	addi	s11,a5,5
    53e0:	23b84f0b          	th.lrh	t5,a6,s11,1
    53e4:	20854f8b          	th.lrh	t6,a0,s0,0
    53e8:	03ff08b3          	mul	a7,t5,t6
    53ec:	011d02b3          	add	t0,s10,a7
    53f0:	00678693          	addi	a3,a5,6
    53f4:	20a42733          	sh1add	a4,s0,a0
    53f8:	22d8460b          	th.lrh	a2,a6,a3,1
    53fc:	2285450b          	th.lrh	a0,a0,s0,1
    5400:	02a60d33          	mul	s10,a2,a0
    5404:	01a28db3          	add	s11,t0,s10
    5408:	00778f13          	addi	t5,a5,7
    540c:	23e84f8b          	th.lrh	t6,a6,t5,1
    5410:	2087488b          	th.lrh	a7,a4,s0,0
    5414:	031f82b3          	mul	t0,t6,a7
    5418:	005d86b3          	add	a3,s11,t0
    541c:	00878793          	addi	a5,a5,8
    5420:	20e42733          	sh1add	a4,s0,a4
    5424:	f497e8e3          	bltu	a5,s1,5374 <matrix_test+0x6a4>
    5428:	446e568b          	th.srw	a3,t3,t1,2
    542c:	00130313          	addi	t1,t1,1
    5430:	00238393          	addi	t2,t2,2
    5434:	e49362e3          	bltu	t1,s1,5278 <matrix_test+0x5a8>
    5438:	001e8e93          	addi	t4,t4,1
    543c:	017e0e33          	add	t3,t3,s7
    5440:	00880833          	add	a6,a6,s0
    5444:	e29ee6e3          	bltu	t4,s1,5270 <matrix_test+0x5a0>
    5448:	000c8f13          	mv	t5,s9
    544c:	00000393          	li	t2,0
    5450:	00000d13          	li	s10,0
    5454:	00000513          	li	a0,0
    5458:	00000d93          	li	s11,0
    545c:	00038693          	mv	a3,t2
    5460:	00000793          	li	a5,0
    5464:	44ff438b          	th.lrw	t2,t5,a5,2
    5468:	007d0d33          	add	s10,s10,t2
    546c:	03a94463          	blt	s2,s10,5494 <matrix_test+0x7c4>
    5470:	0076a333          	slt	t1,a3,t2
    5474:	006506b3          	add	a3,a0,t1
    5478:	3c06a50b          	th.ext	a0,a3,15,0
    547c:	00178793          	addi	a5,a5,1
    5480:	0297fa63          	bgeu	a5,s1,54b4 <matrix_test+0x7e4>
    5484:	00038693          	mv	a3,t2
    5488:	44ff438b          	th.lrw	t2,t5,a5,2
    548c:	007d0d33          	add	s10,s10,t2
    5490:	ffa950e3          	bge	s2,s10,5470 <matrix_test+0x7a0>
    5494:	00a50713          	addi	a4,a0,10
    5498:	3c07250b          	th.ext	a0,a4,15,0
    549c:	00178793          	addi	a5,a5,1
    54a0:	0097f863          	bgeu	a5,s1,54b0 <matrix_test+0x7e0>
    54a4:	00000d13          	li	s10,0
    54a8:	00038693          	mv	a3,t2
    54ac:	fddff06f          	j	5488 <matrix_test+0x7b8>
    54b0:	00000d13          	li	s10,0
    54b4:	001d8d93          	addi	s11,s11,1
    54b8:	017f0f33          	add	t5,t5,s7
    54bc:	fa9de0e3          	bltu	s11,s1,545c <matrix_test+0x78c>
    54c0:	019020ef          	jal	7cd8 <crc16>
    54c4:	00050593          	mv	a1,a0
    54c8:	00000513          	li	a0,0
    54cc:	000a8f93          	mv	t6,s5
    54d0:	00000893          	li	a7,0
    54d4:	fff48613          	addi	a2,s1,-1
    54d8:	00767293          	andi	t0,a2,7
    54dc:	000c1e83          	lh	t4,0(s8)
    54e0:	000f9e03          	lh	t3,0(t6)
    54e4:	03ce8833          	mul	a6,t4,t3
    54e8:	1428338b          	th.extu	t2,a6,5,2
    54ec:	2c58330b          	th.extu	t1,a6,11,5
    54f0:	026386b3          	mul	a3,t2,t1
    54f4:	00100793          	li	a5,1
    54f8:	008f8733          	add	a4,t6,s0
    54fc:	2497f463          	bgeu	a5,s1,5744 <matrix_test+0xa74>
    5500:	12028863          	beqz	t0,5630 <matrix_test+0x960>
    5504:	10f28263          	beq	t0,a5,5608 <matrix_test+0x938>
    5508:	00200d13          	li	s10,2
    550c:	0da28c63          	beq	t0,s10,55e4 <matrix_test+0x914>
    5510:	00300d93          	li	s11,3
    5514:	0bb28663          	beq	t0,s11,55c0 <matrix_test+0x8f0>
    5518:	00400f13          	li	t5,4
    551c:	09e28063          	beq	t0,t5,559c <matrix_test+0x8cc>
    5520:	00500613          	li	a2,5
    5524:	04c28a63          	beq	t0,a2,5578 <matrix_test+0x8a8>
    5528:	00600e93          	li	t4,6
    552c:	03d28463          	beq	t0,t4,5554 <matrix_test+0x884>
    5530:	22fc478b          	th.lrh	a5,s8,a5,1
    5534:	208fc28b          	th.lrh	t0,t6,s0,0
    5538:	02578e33          	mul	t3,a5,t0
    553c:	142e380b          	th.extu	a6,t3,5,2
    5540:	2c5e338b          	th.extu	t2,t3,11,5
    5544:	02780333          	mul	t1,a6,t2
    5548:	006686b3          	add	a3,a3,t1
    554c:	000d0793          	mv	a5,s10
    5550:	00870733          	add	a4,a4,s0
    5554:	22fc4d0b          	th.lrh	s10,s8,a5,1
    5558:	00071d83          	lh	s11,0(a4)
    555c:	03bd0f33          	mul	t5,s10,s11
    5560:	142f3e8b          	th.extu	t4,t5,5,2
    5564:	2c5f360b          	th.extu	a2,t5,11,5
    5568:	02ce82b3          	mul	t0,t4,a2
    556c:	005686b3          	add	a3,a3,t0
    5570:	00178793          	addi	a5,a5,1
    5574:	00870733          	add	a4,a4,s0
    5578:	22fc4e0b          	th.lrh	t3,s8,a5,1
    557c:	00071803          	lh	a6,0(a4)
    5580:	030e03b3          	mul	t2,t3,a6
    5584:	1423b30b          	th.extu	t1,t2,5,2
    5588:	2c53bd0b          	th.extu	s10,t2,11,5
    558c:	03a30db3          	mul	s11,t1,s10
    5590:	01b686b3          	add	a3,a3,s11
    5594:	00178793          	addi	a5,a5,1
    5598:	00870733          	add	a4,a4,s0
    559c:	22fc4f0b          	th.lrh	t5,s8,a5,1
    55a0:	00071e83          	lh	t4,0(a4)
    55a4:	03df0633          	mul	a2,t5,t4
    55a8:	1426328b          	th.extu	t0,a2,5,2
    55ac:	2c563e0b          	th.extu	t3,a2,11,5
    55b0:	03c28833          	mul	a6,t0,t3
    55b4:	010686b3          	add	a3,a3,a6
    55b8:	00178793          	addi	a5,a5,1
    55bc:	00870733          	add	a4,a4,s0
    55c0:	22fc438b          	th.lrh	t2,s8,a5,1
    55c4:	00071303          	lh	t1,0(a4)
    55c8:	02638d33          	mul	s10,t2,t1
    55cc:	142d3d8b          	th.extu	s11,s10,5,2
    55d0:	2c5d3f0b          	th.extu	t5,s10,11,5
    55d4:	03ed8eb3          	mul	t4,s11,t5
    55d8:	01d686b3          	add	a3,a3,t4
    55dc:	00178793          	addi	a5,a5,1
    55e0:	00870733          	add	a4,a4,s0
    55e4:	22fc460b          	th.lrh	a2,s8,a5,1
    55e8:	00071283          	lh	t0,0(a4)
    55ec:	02560e33          	mul	t3,a2,t0
    55f0:	142e380b          	th.extu	a6,t3,5,2
    55f4:	2c5e338b          	th.extu	t2,t3,11,5
    55f8:	02780333          	mul	t1,a6,t2
    55fc:	006686b3          	add	a3,a3,t1
    5600:	00178793          	addi	a5,a5,1
    5604:	00870733          	add	a4,a4,s0
    5608:	22fc4d0b          	th.lrh	s10,s8,a5,1
    560c:	00071d83          	lh	s11,0(a4)
    5610:	03bd0f33          	mul	t5,s10,s11
    5614:	142f3e8b          	th.extu	t4,t5,5,2
    5618:	2c5f360b          	th.extu	a2,t5,11,5
    561c:	02ce82b3          	mul	t0,t4,a2
    5620:	005686b3          	add	a3,a3,t0
    5624:	00178793          	addi	a5,a5,1
    5628:	00870733          	add	a4,a4,s0
    562c:	1097fc63          	bgeu	a5,s1,5744 <matrix_test+0xa74>
    5630:	22fc4e0b          	th.lrh	t3,s8,a5,1
    5634:	00071803          	lh	a6,0(a4)
    5638:	030e03b3          	mul	t2,t3,a6
    563c:	1423bd0b          	th.extu	s10,t2,5,2
    5640:	2c53b30b          	th.extu	t1,t2,11,5
    5644:	026d0db3          	mul	s11,s10,t1
    5648:	01b68f33          	add	t5,a3,s11
    564c:	00178e93          	addi	t4,a5,1
    5650:	23dc460b          	th.lrh	a2,s8,t4,1
    5654:	2087428b          	th.lrh	t0,a4,s0,0
    5658:	025606b3          	mul	a3,a2,t0
    565c:	1426be0b          	th.extu	t3,a3,5,2
    5660:	2c56b80b          	th.extu	a6,a3,11,5
    5664:	030e03b3          	mul	t2,t3,a6
    5668:	007f0d33          	add	s10,t5,t2
    566c:	00278d93          	addi	s11,a5,2
    5670:	20e42333          	sh1add	t1,s0,a4
    5674:	23bc4f0b          	th.lrh	t5,s8,s11,1
    5678:	2287470b          	th.lrh	a4,a4,s0,1
    567c:	02ef0eb3          	mul	t4,t5,a4
    5680:	142eb60b          	th.extu	a2,t4,5,2
    5684:	2c5eb28b          	th.extu	t0,t4,11,5
    5688:	025606b3          	mul	a3,a2,t0
    568c:	00dd0e33          	add	t3,s10,a3
    5690:	00378813          	addi	a6,a5,3
    5694:	230c438b          	th.lrh	t2,s8,a6,1
    5698:	20834d0b          	th.lrh	s10,t1,s0,0
    569c:	03a38db3          	mul	s11,t2,s10
    56a0:	142dbf0b          	th.extu	t5,s11,5,2
    56a4:	2c5db70b          	th.extu	a4,s11,11,5
    56a8:	02ef0eb3          	mul	t4,t5,a4
    56ac:	01de0633          	add	a2,t3,t4
    56b0:	00478293          	addi	t0,a5,4
    56b4:	20642e33          	sh1add	t3,s0,t1
    56b8:	225c480b          	th.lrh	a6,s8,t0,1
    56bc:	2283430b          	th.lrh	t1,t1,s0,1
    56c0:	026803b3          	mul	t2,a6,t1
    56c4:	1423b68b          	th.extu	a3,t2,5,2
    56c8:	2c53bd0b          	th.extu	s10,t2,11,5
    56cc:	03a68db3          	mul	s11,a3,s10
    56d0:	01b60f33          	add	t5,a2,s11
    56d4:	00578713          	addi	a4,a5,5
    56d8:	22ec4e8b          	th.lrh	t4,s8,a4,1
    56dc:	208e460b          	th.lrh	a2,t3,s0,0
    56e0:	02ce82b3          	mul	t0,t4,a2
    56e4:	1422b80b          	th.extu	a6,t0,5,2
    56e8:	2c52b30b          	th.extu	t1,t0,11,5
    56ec:	026803b3          	mul	t2,a6,t1
    56f0:	007f0d33          	add	s10,t5,t2
    56f4:	00678693          	addi	a3,a5,6
    56f8:	21c42db3          	sh1add	s11,s0,t3
    56fc:	22dc4f0b          	th.lrh	t5,s8,a3,1
    5700:	228e4e0b          	th.lrh	t3,t3,s0,1
    5704:	03cf0733          	mul	a4,t5,t3
    5708:	14273e8b          	th.extu	t4,a4,5,2
    570c:	2c57360b          	th.extu	a2,a4,11,5
    5710:	02ce82b3          	mul	t0,t4,a2
    5714:	005d0833          	add	a6,s10,t0
    5718:	00778313          	addi	t1,a5,7
    571c:	226c438b          	th.lrh	t2,s8,t1,1
    5720:	208dcd0b          	th.lrh	s10,s11,s0,0
    5724:	03a38f33          	mul	t5,t2,s10
    5728:	142f368b          	th.extu	a3,t5,5,2
    572c:	2c5f3e0b          	th.extu	t3,t5,11,5
    5730:	03c68733          	mul	a4,a3,t3
    5734:	00e806b3          	add	a3,a6,a4
    5738:	00878793          	addi	a5,a5,8
    573c:	21b42733          	sh1add	a4,s0,s11
    5740:	ee97e8e3          	bltu	a5,s1,5630 <matrix_test+0x960>
    5744:	451cd68b          	th.srw	a3,s9,a7,2
    5748:	00188893          	addi	a7,a7,1
    574c:	002f8f93          	addi	t6,t6,2
    5750:	d898e2e3          	bltu	a7,s1,54d4 <matrix_test+0x804>
    5754:	00150513          	addi	a0,a0,1
    5758:	017c8cb3          	add	s9,s9,s7
    575c:	008c0c33          	add	s8,s8,s0
    5760:	d69566e3          	bltu	a0,s1,54cc <matrix_test+0x7fc>
    5764:	00000f93          	li	t6,0
    5768:	00000e93          	li	t4,0
    576c:	00000513          	li	a0,0
    5770:	00000293          	li	t0,0
    5774:	000f8693          	mv	a3,t6
    5778:	00000793          	li	a5,0
    577c:	44fb4f8b          	th.lrw	t6,s6,a5,2
    5780:	01fe8eb3          	add	t4,t4,t6
    5784:	03d94463          	blt	s2,t4,57ac <matrix_test+0xadc>
    5788:	01f6a8b3          	slt	a7,a3,t6
    578c:	01150ab3          	add	s5,a0,a7
    5790:	3c0aa50b          	th.ext	a0,s5,15,0
    5794:	00178793          	addi	a5,a5,1
    5798:	0297fa63          	bgeu	a5,s1,57cc <matrix_test+0xafc>
    579c:	000f8693          	mv	a3,t6
    57a0:	44fb4f8b          	th.lrw	t6,s6,a5,2
    57a4:	01fe8eb3          	add	t4,t4,t6
    57a8:	ffd950e3          	bge	s2,t4,5788 <matrix_test+0xab8>
    57ac:	00a50d93          	addi	s11,a0,10
    57b0:	3c0da50b          	th.ext	a0,s11,15,0
    57b4:	00178793          	addi	a5,a5,1
    57b8:	0097f863          	bgeu	a5,s1,57c8 <matrix_test+0xaf8>
    57bc:	00000e93          	li	t4,0
    57c0:	000f8693          	mv	a3,t6
    57c4:	fddff06f          	j	57a0 <matrix_test+0xad0>
    57c8:	00000e93          	li	t4,0
    57cc:	00128293          	addi	t0,t0,1
    57d0:	017b0b33          	add	s6,s6,s7
    57d4:	fa92e0e3          	bltu	t0,s1,5774 <matrix_test+0xaa4>
    57d8:	500020ef          	jal	7cd8 <crc16>
    57dc:	00000693          	li	a3,0
    57e0:	fff48593          	addi	a1,s1,-1
    57e4:	0075f913          	andi	s2,a1,7
    57e8:	000a5b83          	lhu	s7,0(s4)
    57ec:	413b8633          	sub	a2,s7,s3
    57f0:	00ca1023          	sh	a2,0(s4)
    57f4:	00100793          	li	a5,1
    57f8:	1297f663          	bgeu	a5,s1,5924 <matrix_test+0xc54>
    57fc:	0a090263          	beqz	s2,58a0 <matrix_test+0xbd0>
    5800:	08f90663          	beq	s2,a5,588c <matrix_test+0xbbc>
    5804:	00200813          	li	a6,2
    5808:	07090a63          	beq	s2,a6,587c <matrix_test+0xbac>
    580c:	00300313          	li	t1,3
    5810:	04690e63          	beq	s2,t1,586c <matrix_test+0xb9c>
    5814:	00400393          	li	t2,4
    5818:	04790263          	beq	s2,t2,585c <matrix_test+0xb8c>
    581c:	00500d13          	li	s10,5
    5820:	03a90663          	beq	s2,s10,584c <matrix_test+0xb7c>
    5824:	00600f13          	li	t5,6
    5828:	01e90a63          	beq	s2,t5,583c <matrix_test+0xb6c>
    582c:	a2fa4e0b          	th.lrhu	t3,s4,a5,1
    5830:	413e0733          	sub	a4,t3,s3
    5834:	22fa570b          	th.srh	a4,s4,a5,1
    5838:	00080793          	mv	a5,a6
    583c:	a2fa4c8b          	th.lrhu	s9,s4,a5,1
    5840:	413c8c33          	sub	s8,s9,s3
    5844:	22fa5c0b          	th.srh	s8,s4,a5,1
    5848:	00178793          	addi	a5,a5,1
    584c:	a2fa4f8b          	th.lrhu	t6,s4,a5,1
    5850:	413f88b3          	sub	a7,t6,s3
    5854:	22fa588b          	th.srh	a7,s4,a5,1
    5858:	00178793          	addi	a5,a5,1
    585c:	a2fa4a8b          	th.lrhu	s5,s4,a5,1
    5860:	413a8db3          	sub	s11,s5,s3
    5864:	22fa5d8b          	th.srh	s11,s4,a5,1
    5868:	00178793          	addi	a5,a5,1
    586c:	a2fa4e8b          	th.lrhu	t4,s4,a5,1
    5870:	413e82b3          	sub	t0,t4,s3
    5874:	22fa528b          	th.srh	t0,s4,a5,1
    5878:	00178793          	addi	a5,a5,1
    587c:	a2fa4b0b          	th.lrhu	s6,s4,a5,1
    5880:	413b05b3          	sub	a1,s6,s3
    5884:	22fa558b          	th.srh	a1,s4,a5,1
    5888:	00178793          	addi	a5,a5,1
    588c:	a2fa490b          	th.lrhu	s2,s4,a5,1
    5890:	41390bb3          	sub	s7,s2,s3
    5894:	22fa5b8b          	th.srh	s7,s4,a5,1
    5898:	00178793          	addi	a5,a5,1
    589c:	0897f463          	bgeu	a5,s1,5924 <matrix_test+0xc54>
    58a0:	a2fa460b          	th.lrhu	a2,s4,a5,1
    58a4:	41360833          	sub	a6,a2,s3
    58a8:	22fa580b          	th.srh	a6,s4,a5,1
    58ac:	00178313          	addi	t1,a5,1
    58b0:	a26a438b          	th.lrhu	t2,s4,t1,1
    58b4:	41338d33          	sub	s10,t2,s3
    58b8:	226a5d0b          	th.srh	s10,s4,t1,1
    58bc:	00278f13          	addi	t5,a5,2
    58c0:	a3ea4e0b          	th.lrhu	t3,s4,t5,1
    58c4:	413e0733          	sub	a4,t3,s3
    58c8:	23ea570b          	th.srh	a4,s4,t5,1
    58cc:	00378c93          	addi	s9,a5,3
    58d0:	a39a4c0b          	th.lrhu	s8,s4,s9,1
    58d4:	413c0fb3          	sub	t6,s8,s3
    58d8:	239a5f8b          	th.srh	t6,s4,s9,1
    58dc:	00478893          	addi	a7,a5,4
    58e0:	a31a4a8b          	th.lrhu	s5,s4,a7,1
    58e4:	413a8db3          	sub	s11,s5,s3
    58e8:	231a5d8b          	th.srh	s11,s4,a7,1
    58ec:	00578e93          	addi	t4,a5,5
    58f0:	a3da428b          	th.lrhu	t0,s4,t4,1
    58f4:	41328b33          	sub	s6,t0,s3
    58f8:	23da5b0b          	th.srh	s6,s4,t4,1
    58fc:	00678593          	addi	a1,a5,6
    5900:	a2ba490b          	th.lrhu	s2,s4,a1,1
    5904:	41390bb3          	sub	s7,s2,s3
    5908:	22ba5b8b          	th.srh	s7,s4,a1,1
    590c:	00778613          	addi	a2,a5,7
    5910:	a2ca480b          	th.lrhu	a6,s4,a2,1
    5914:	41380333          	sub	t1,a6,s3
    5918:	22ca530b          	th.srh	t1,s4,a2,1
    591c:	00878793          	addi	a5,a5,8
    5920:	f897e0e3          	bltu	a5,s1,58a0 <matrix_test+0xbd0>
    5924:	00168693          	addi	a3,a3,1
    5928:	008a0a33          	add	s4,s4,s0
    592c:	ea96eae3          	bltu	a3,s1,57e0 <matrix_test+0xb10>
    5930:	03812403          	lw	s0,56(sp)
    5934:	03412483          	lw	s1,52(sp)
    5938:	03012903          	lw	s2,48(sp)
    593c:	02c12983          	lw	s3,44(sp)
    5940:	02812a03          	lw	s4,40(sp)
    5944:	02412a83          	lw	s5,36(sp)
    5948:	02012b03          	lw	s6,32(sp)
    594c:	01c12b83          	lw	s7,28(sp)
    5950:	01812c03          	lw	s8,24(sp)
    5954:	01412c83          	lw	s9,20(sp)
    5958:	01012d03          	lw	s10,16(sp)
    595c:	00c12d83          	lw	s11,12(sp)
    5960:	3c05250b          	th.ext	a0,a0,15,0
    5964:	03c12083          	lw	ra,60(sp)
    5968:	04010113          	addi	sp,sp,64
    596c:	00008067          	ret
    5970:	00000593          	li	a1,0
    5974:	364020ef          	jal	7cd8 <crc16>
    5978:	00050593          	mv	a1,a0
    597c:	00000513          	li	a0,0
    5980:	358020ef          	jal	7cd8 <crc16>
    5984:	00050593          	mv	a1,a0
    5988:	00000513          	li	a0,0
    598c:	34c020ef          	jal	7cd8 <crc16>
    5990:	00050593          	mv	a1,a0
    5994:	00000513          	li	a0,0
    5998:	340020ef          	jal	7cd8 <crc16>
    599c:	3c05250b          	th.ext	a0,a0,15,0
    59a0:	03c12083          	lw	ra,60(sp)
    59a4:	04010113          	addi	sp,sp,64
    59a8:	00008067          	ret

000059ac <core_init_matrix>:
    59ac:	fe010113          	addi	sp,sp,-32
    59b0:	00812e23          	sw	s0,28(sp)
    59b4:	00912c23          	sw	s1,24(sp)
    59b8:	00050713          	mv	a4,a0
    59bc:	00061463          	bnez	a2,59c4 <core_init_matrix+0x18>
    59c0:	00100613          	li	a2,1
    59c4:	fff58593          	addi	a1,a1,-1
    59c8:	ffc5ff13          	andi	t5,a1,-4
    59cc:	004f0e13          	addi	t3,t5,4
    59d0:	000e0393          	mv	t2,t3
    59d4:	4a070463          	beqz	a4,5e7c <core_init_matrix+0x4d0>
    59d8:	00000793          	li	a5,0
    59dc:	00078513          	mv	a0,a5
    59e0:	00178893          	addi	a7,a5,1
    59e4:	03188833          	mul	a6,a7,a7
    59e8:	00381293          	slli	t0,a6,0x3
    59ec:	08e2f863          	bgeu	t0,a4,5a7c <core_init_matrix+0xd0>
    59f0:	00088513          	mv	a0,a7
    59f4:	00278313          	addi	t1,a5,2
    59f8:	02630433          	mul	s0,t1,t1
    59fc:	00341493          	slli	s1,s0,0x3
    5a00:	06e4fe63          	bgeu	s1,a4,5a7c <core_init_matrix+0xd0>
    5a04:	00030513          	mv	a0,t1
    5a08:	00378e93          	addi	t4,a5,3
    5a0c:	03de8fb3          	mul	t6,t4,t4
    5a10:	003f9593          	slli	a1,t6,0x3
    5a14:	06e5f463          	bgeu	a1,a4,5a7c <core_init_matrix+0xd0>
    5a18:	000e8513          	mv	a0,t4
    5a1c:	00478893          	addi	a7,a5,4
    5a20:	03188833          	mul	a6,a7,a7
    5a24:	00381293          	slli	t0,a6,0x3
    5a28:	04e2fa63          	bgeu	t0,a4,5a7c <core_init_matrix+0xd0>
    5a2c:	00088513          	mv	a0,a7
    5a30:	00578313          	addi	t1,a5,5
    5a34:	02630433          	mul	s0,t1,t1
    5a38:	00341493          	slli	s1,s0,0x3
    5a3c:	04e4f063          	bgeu	s1,a4,5a7c <core_init_matrix+0xd0>
    5a40:	00030513          	mv	a0,t1
    5a44:	00678e93          	addi	t4,a5,6
    5a48:	03de8fb3          	mul	t6,t4,t4
    5a4c:	003f9593          	slli	a1,t6,0x3
    5a50:	02e5f663          	bgeu	a1,a4,5a7c <core_init_matrix+0xd0>
    5a54:	000e8513          	mv	a0,t4
    5a58:	00778893          	addi	a7,a5,7
    5a5c:	03188833          	mul	a6,a7,a7
    5a60:	00381293          	slli	t0,a6,0x3
    5a64:	00e2fc63          	bgeu	t0,a4,5a7c <core_init_matrix+0xd0>
    5a68:	00088513          	mv	a0,a7
    5a6c:	00878793          	addi	a5,a5,8
    5a70:	02f78333          	mul	t1,a5,a5
    5a74:	00331413          	slli	s0,t1,0x3
    5a78:	f6e462e3          	bltu	s0,a4,59dc <core_init_matrix+0x30>
    5a7c:	02a50733          	mul	a4,a0,a0
    5a80:	00171413          	slli	s0,a4,0x1
    5a84:	20772fb3          	sh1add	t6,a4,t2
    5a88:	3e050463          	beqz	a0,5e70 <core_init_matrix+0x4c4>
    5a8c:	01212a23          	sw	s2,20(sp)
    5a90:	01312823          	sw	s3,16(sp)
    5a94:	00050493          	mv	s1,a0
    5a98:	00150893          	addi	a7,a0,1
    5a9c:	00151293          	slli	t0,a0,0x1
    5aa0:	00000e93          	li	t4,0
    5aa4:	00100913          	li	s2,1
    5aa8:	800109b7          	lui	s3,0x80010
    5aac:	fff98813          	addi	a6,s3,-1 # 8000ffff <_stack_top+0x7fffbfff>
    5ab0:	ffff0337          	lui	t1,0xffff0
    5ab4:	41ef8f33          	sub	t5,t6,t5
    5ab8:	ffcf0593          	addi	a1,t5,-4
    5abc:	00090f13          	mv	t5,s2
    5ac0:	000e0713          	mv	a4,t3
    5ac4:	412887b3          	sub	a5,a7,s2
    5ac8:	0077f793          	andi	a5,a5,7
    5acc:	38078e63          	beqz	a5,5e68 <core_init_matrix+0x4bc>
    5ad0:	00100993          	li	s3,1
    5ad4:	17378263          	beq	a5,s3,5c38 <core_init_matrix+0x28c>
    5ad8:	00200993          	li	s3,2
    5adc:	13378463          	beq	a5,s3,5c04 <core_init_matrix+0x258>
    5ae0:	00300993          	li	s3,3
    5ae4:	0f378663          	beq	a5,s3,5bd0 <core_init_matrix+0x224>
    5ae8:	00400993          	li	s3,4
    5aec:	0b378863          	beq	a5,s3,5b9c <core_init_matrix+0x1f0>
    5af0:	00500993          	li	s3,5
    5af4:	07378a63          	beq	a5,s3,5b68 <core_init_matrix+0x1bc>
    5af8:	00600993          	li	s3,6
    5afc:	03378c63          	beq	a5,s3,5b34 <core_init_matrix+0x188>
    5b00:	03260633          	mul	a2,a2,s2
    5b04:	01067633          	and	a2,a2,a6
    5b08:	00065863          	bgez	a2,5b18 <core_init_matrix+0x16c>
    5b0c:	fff60793          	addi	a5,a2,-1
    5b10:	0067e9b3          	or	s3,a5,t1
    5b14:	00198613          	addi	a2,s3,1
    5b18:	00c907b3          	add	a5,s2,a2
    5b1c:	20e5d78b          	th.srh	a5,a1,a4,0
    5b20:	012789b3          	add	s3,a5,s2
    5b24:	0ff9f793          	zext.b	a5,s3
    5b28:	00f71023          	sh	a5,0(a4)
    5b2c:	00190913          	addi	s2,s2,1 # fffff001 <_stack_top+0xfffeb001>
    5b30:	00270713          	addi	a4,a4,2
    5b34:	03260633          	mul	a2,a2,s2
    5b38:	01067633          	and	a2,a2,a6
    5b3c:	00065863          	bgez	a2,5b4c <core_init_matrix+0x1a0>
    5b40:	fff60993          	addi	s3,a2,-1
    5b44:	0069e7b3          	or	a5,s3,t1
    5b48:	00178613          	addi	a2,a5,1
    5b4c:	00c909b3          	add	s3,s2,a2
    5b50:	20e5d98b          	th.srh	s3,a1,a4,0
    5b54:	012987b3          	add	a5,s3,s2
    5b58:	0ff7f993          	zext.b	s3,a5
    5b5c:	01371023          	sh	s3,0(a4)
    5b60:	00190913          	addi	s2,s2,1
    5b64:	00270713          	addi	a4,a4,2
    5b68:	03260633          	mul	a2,a2,s2
    5b6c:	01067633          	and	a2,a2,a6
    5b70:	00065863          	bgez	a2,5b80 <core_init_matrix+0x1d4>
    5b74:	fff60793          	addi	a5,a2,-1
    5b78:	0067e9b3          	or	s3,a5,t1
    5b7c:	00198613          	addi	a2,s3,1
    5b80:	00c907b3          	add	a5,s2,a2
    5b84:	20e5d78b          	th.srh	a5,a1,a4,0
    5b88:	012789b3          	add	s3,a5,s2
    5b8c:	0ff9f793          	zext.b	a5,s3
    5b90:	00f71023          	sh	a5,0(a4)
    5b94:	00190913          	addi	s2,s2,1
    5b98:	00270713          	addi	a4,a4,2
    5b9c:	03260633          	mul	a2,a2,s2
    5ba0:	01067633          	and	a2,a2,a6
    5ba4:	00065863          	bgez	a2,5bb4 <core_init_matrix+0x208>
    5ba8:	fff60993          	addi	s3,a2,-1
    5bac:	0069e7b3          	or	a5,s3,t1
    5bb0:	00178613          	addi	a2,a5,1
    5bb4:	00c909b3          	add	s3,s2,a2
    5bb8:	20e5d98b          	th.srh	s3,a1,a4,0
    5bbc:	012987b3          	add	a5,s3,s2
    5bc0:	0ff7f993          	zext.b	s3,a5
    5bc4:	01371023          	sh	s3,0(a4)
    5bc8:	00190913          	addi	s2,s2,1
    5bcc:	00270713          	addi	a4,a4,2
    5bd0:	03260633          	mul	a2,a2,s2
    5bd4:	01067633          	and	a2,a2,a6
    5bd8:	00065863          	bgez	a2,5be8 <core_init_matrix+0x23c>
    5bdc:	fff60793          	addi	a5,a2,-1
    5be0:	0067e9b3          	or	s3,a5,t1
    5be4:	00198613          	addi	a2,s3,1
    5be8:	00c907b3          	add	a5,s2,a2
    5bec:	20e5d78b          	th.srh	a5,a1,a4,0
    5bf0:	012789b3          	add	s3,a5,s2
    5bf4:	0ff9f793          	zext.b	a5,s3
    5bf8:	00f71023          	sh	a5,0(a4)
    5bfc:	00190913          	addi	s2,s2,1
    5c00:	00270713          	addi	a4,a4,2
    5c04:	03260633          	mul	a2,a2,s2
    5c08:	01067633          	and	a2,a2,a6
    5c0c:	00065863          	bgez	a2,5c1c <core_init_matrix+0x270>
    5c10:	fff60993          	addi	s3,a2,-1
    5c14:	0069e7b3          	or	a5,s3,t1
    5c18:	00178613          	addi	a2,a5,1
    5c1c:	00c909b3          	add	s3,s2,a2
    5c20:	20e5d98b          	th.srh	s3,a1,a4,0
    5c24:	012987b3          	add	a5,s3,s2
    5c28:	0ff7f993          	zext.b	s3,a5
    5c2c:	01371023          	sh	s3,0(a4)
    5c30:	00190913          	addi	s2,s2,1
    5c34:	00270713          	addi	a4,a4,2
    5c38:	03260633          	mul	a2,a2,s2
    5c3c:	01067633          	and	a2,a2,a6
    5c40:	00065863          	bgez	a2,5c50 <core_init_matrix+0x2a4>
    5c44:	fff60793          	addi	a5,a2,-1
    5c48:	0067e9b3          	or	s3,a5,t1
    5c4c:	00198613          	addi	a2,s3,1
    5c50:	00c907b3          	add	a5,s2,a2
    5c54:	20e5d78b          	th.srh	a5,a1,a4,0
    5c58:	012789b3          	add	s3,a5,s2
    5c5c:	0ff9f793          	zext.b	a5,s3
    5c60:	00f71023          	sh	a5,0(a4)
    5c64:	00190913          	addi	s2,s2,1
    5c68:	00270713          	addi	a4,a4,2
    5c6c:	1b190863          	beq	s2,a7,5e1c <core_init_matrix+0x470>
    5c70:	01412623          	sw	s4,12(sp)
    5c74:	03260a33          	mul	s4,a2,s2
    5c78:	010a7a33          	and	s4,s4,a6
    5c7c:	000a5863          	bgez	s4,5c8c <core_init_matrix+0x2e0>
    5c80:	fffa0613          	addi	a2,s4,-1
    5c84:	006669b3          	or	s3,a2,t1
    5c88:	00198a13          	addi	s4,s3,1
    5c8c:	014907b3          	add	a5,s2,s4
    5c90:	20e5d78b          	th.srh	a5,a1,a4,0
    5c94:	01278633          	add	a2,a5,s2
    5c98:	0ff67993          	zext.b	s3,a2
    5c9c:	01371023          	sh	s3,0(a4)
    5ca0:	00190793          	addi	a5,s2,1
    5ca4:	00270713          	addi	a4,a4,2
    5ca8:	02fa0933          	mul	s2,s4,a5
    5cac:	01097633          	and	a2,s2,a6
    5cb0:	00065863          	bgez	a2,5cc0 <core_init_matrix+0x314>
    5cb4:	fff60a13          	addi	s4,a2,-1
    5cb8:	006a6633          	or	a2,s4,t1
    5cbc:	00160613          	addi	a2,a2,1
    5cc0:	00c789b3          	add	s3,a5,a2
    5cc4:	20e5d98b          	th.srh	s3,a1,a4,0
    5cc8:	00f98933          	add	s2,s3,a5
    5ccc:	0ff97a13          	zext.b	s4,s2
    5cd0:	01471023          	sh	s4,0(a4)
    5cd4:	00178993          	addi	s3,a5,1
    5cd8:	00270a13          	addi	s4,a4,2
    5cdc:	03360633          	mul	a2,a2,s3
    5ce0:	01067633          	and	a2,a2,a6
    5ce4:	00065863          	bgez	a2,5cf4 <core_init_matrix+0x348>
    5ce8:	fff60913          	addi	s2,a2,-1
    5cec:	00696633          	or	a2,s2,t1
    5cf0:	00160613          	addi	a2,a2,1
    5cf4:	00c98933          	add	s2,s3,a2
    5cf8:	2145d90b          	th.srh	s2,a1,s4,0
    5cfc:	013909b3          	add	s3,s2,s3
    5d00:	0ff9fa13          	zext.b	s4,s3
    5d04:	01471123          	sh	s4,2(a4)
    5d08:	00278993          	addi	s3,a5,2
    5d0c:	00470a13          	addi	s4,a4,4
    5d10:	03360633          	mul	a2,a2,s3
    5d14:	01067633          	and	a2,a2,a6
    5d18:	00065863          	bgez	a2,5d28 <core_init_matrix+0x37c>
    5d1c:	fff60913          	addi	s2,a2,-1
    5d20:	00696633          	or	a2,s2,t1
    5d24:	00160613          	addi	a2,a2,1
    5d28:	00c98933          	add	s2,s3,a2
    5d2c:	2145d90b          	th.srh	s2,a1,s4,0
    5d30:	013909b3          	add	s3,s2,s3
    5d34:	0ff9fa13          	zext.b	s4,s3
    5d38:	01471223          	sh	s4,4(a4)
    5d3c:	00378993          	addi	s3,a5,3
    5d40:	00670a13          	addi	s4,a4,6
    5d44:	03360633          	mul	a2,a2,s3
    5d48:	01067633          	and	a2,a2,a6
    5d4c:	00065863          	bgez	a2,5d5c <core_init_matrix+0x3b0>
    5d50:	fff60913          	addi	s2,a2,-1
    5d54:	00696633          	or	a2,s2,t1
    5d58:	00160613          	addi	a2,a2,1
    5d5c:	00c98933          	add	s2,s3,a2
    5d60:	2145d90b          	th.srh	s2,a1,s4,0
    5d64:	013909b3          	add	s3,s2,s3
    5d68:	0ff9fa13          	zext.b	s4,s3
    5d6c:	01471323          	sh	s4,6(a4)
    5d70:	00478993          	addi	s3,a5,4
    5d74:	00870a13          	addi	s4,a4,8
    5d78:	03360633          	mul	a2,a2,s3
    5d7c:	01067633          	and	a2,a2,a6
    5d80:	00065863          	bgez	a2,5d90 <core_init_matrix+0x3e4>
    5d84:	fff60913          	addi	s2,a2,-1
    5d88:	00696633          	or	a2,s2,t1
    5d8c:	00160613          	addi	a2,a2,1
    5d90:	00c98933          	add	s2,s3,a2
    5d94:	2145d90b          	th.srh	s2,a1,s4,0
    5d98:	013909b3          	add	s3,s2,s3
    5d9c:	0ff9fa13          	zext.b	s4,s3
    5da0:	01471423          	sh	s4,8(a4)
    5da4:	00578993          	addi	s3,a5,5
    5da8:	00a70a13          	addi	s4,a4,10
    5dac:	03360633          	mul	a2,a2,s3
    5db0:	01067633          	and	a2,a2,a6
    5db4:	00065863          	bgez	a2,5dc4 <core_init_matrix+0x418>
    5db8:	fff60913          	addi	s2,a2,-1
    5dbc:	00696633          	or	a2,s2,t1
    5dc0:	00160613          	addi	a2,a2,1
    5dc4:	00c98933          	add	s2,s3,a2
    5dc8:	2145d90b          	th.srh	s2,a1,s4,0
    5dcc:	013909b3          	add	s3,s2,s3
    5dd0:	0ff9fa13          	zext.b	s4,s3
    5dd4:	01471523          	sh	s4,10(a4)
    5dd8:	00678993          	addi	s3,a5,6
    5ddc:	00c70a13          	addi	s4,a4,12
    5de0:	03360633          	mul	a2,a2,s3
    5de4:	01067633          	and	a2,a2,a6
    5de8:	00065863          	bgez	a2,5df8 <core_init_matrix+0x44c>
    5dec:	fff60913          	addi	s2,a2,-1
    5df0:	00696633          	or	a2,s2,t1
    5df4:	00160613          	addi	a2,a2,1
    5df8:	00c98933          	add	s2,s3,a2
    5dfc:	2145d90b          	th.srh	s2,a1,s4,0
    5e00:	013909b3          	add	s3,s2,s3
    5e04:	0ff9fa13          	zext.b	s4,s3
    5e08:	01471623          	sh	s4,12(a4)
    5e0c:	00778913          	addi	s2,a5,7
    5e10:	00e70713          	addi	a4,a4,14
    5e14:	e71910e3          	bne	s2,a7,5c74 <core_init_matrix+0x2c8>
    5e18:	00c12a03          	lw	s4,12(sp)
    5e1c:	01e50933          	add	s2,a0,t5
    5e20:	001e8e93          	addi	t4,t4,1
    5e24:	00a888b3          	add	a7,a7,a0
    5e28:	005e0e33          	add	t3,t3,t0
    5e2c:	c8ae98e3          	bne	t4,a0,5abc <core_init_matrix+0x110>
    5e30:	01412903          	lw	s2,20(sp)
    5e34:	01012983          	lw	s3,16(sp)
    5e38:	0076a223          	sw	t2,4(a3)
    5e3c:	01f6a423          	sw	t6,8(a3)
    5e40:	008f8f33          	add	t5,t6,s0
    5e44:	ffff0793          	addi	a5,t5,-1
    5e48:	ffc7f613          	andi	a2,a5,-4
    5e4c:	00460713          	addi	a4,a2,4
    5e50:	00e6a623          	sw	a4,12(a3)
    5e54:	0096a023          	sw	s1,0(a3)
    5e58:	01c12403          	lw	s0,28(sp)
    5e5c:	01812483          	lw	s1,24(sp)
    5e60:	02010113          	addi	sp,sp,32
    5e64:	00008067          	ret
    5e68:	01412623          	sw	s4,12(sp)
    5e6c:	e09ff06f          	j	5c74 <core_init_matrix+0x2c8>
    5e70:	00000413          	li	s0,0
    5e74:	00000493          	li	s1,0
    5e78:	fc1ff06f          	j	5e38 <core_init_matrix+0x48c>
    5e7c:	01212a23          	sw	s2,20(sp)
    5e80:	01312823          	sw	s3,16(sp)
    5e84:	006f0f93          	addi	t6,t5,6
    5e88:	fff00493          	li	s1,-1
    5e8c:	00048513          	mv	a0,s1
    5e90:	00200413          	li	s0,2
    5e94:	c05ff06f          	j	5a98 <core_init_matrix+0xec>

00005e98 <matrix_sum>:
    5e98:	00050e13          	mv	t3,a0
    5e9c:	08050263          	beqz	a0,5f20 <matrix_sum+0x88>
    5ea0:	00251313          	slli	t1,a0,0x2
    5ea4:	20b54833          	sh2add	a6,a0,a1
    5ea8:	00000893          	li	a7,0
    5eac:	00000513          	li	a0,0
    5eb0:	00000693          	li	a3,0
    5eb4:	00000713          	li	a4,0
    5eb8:	406807b3          	sub	a5,a6,t1
    5ebc:	00068393          	mv	t2,a3
    5ec0:	0007a683          	lw	a3,0(a5)
    5ec4:	00d70733          	add	a4,a4,a3
    5ec8:	02e64463          	blt	a2,a4,5ef0 <matrix_sum+0x58>
    5ecc:	00d3a5b3          	slt	a1,t2,a3
    5ed0:	00b50533          	add	a0,a0,a1
    5ed4:	3c05250b          	th.ext	a0,a0,15,0
    5ed8:	00478793          	addi	a5,a5,4
    5edc:	02f80a63          	beq	a6,a5,5f10 <matrix_sum+0x78>
    5ee0:	00068393          	mv	t2,a3
    5ee4:	0007a683          	lw	a3,0(a5)
    5ee8:	00d70733          	add	a4,a4,a3
    5eec:	fee650e3          	bge	a2,a4,5ecc <matrix_sum+0x34>
    5ef0:	00a50293          	addi	t0,a0,10
    5ef4:	3c02a50b          	th.ext	a0,t0,15,0
    5ef8:	00478793          	addi	a5,a5,4
    5efc:	00f80863          	beq	a6,a5,5f0c <matrix_sum+0x74>
    5f00:	00000713          	li	a4,0
    5f04:	00068393          	mv	t2,a3
    5f08:	fddff06f          	j	5ee4 <matrix_sum+0x4c>
    5f0c:	00000713          	li	a4,0
    5f10:	00188893          	addi	a7,a7,1
    5f14:	00680833          	add	a6,a6,t1
    5f18:	fb1e10e3          	bne	t3,a7,5eb8 <matrix_sum+0x20>
    5f1c:	00008067          	ret
    5f20:	00000513          	li	a0,0
    5f24:	00008067          	ret

00005f28 <matrix_mul_const>:
    5f28:	14050663          	beqz	a0,6074 <matrix_mul_const+0x14c>
    5f2c:	00000813          	li	a6,0
    5f30:	00000793          	li	a5,0
    5f34:	00757713          	andi	a4,a0,7
    5f38:	0a070463          	beqz	a4,5fe0 <matrix_mul_const+0xb8>
    5f3c:	00100893          	li	a7,1
    5f40:	09170663          	beq	a4,a7,5fcc <matrix_mul_const+0xa4>
    5f44:	00200313          	li	t1,2
    5f48:	06670a63          	beq	a4,t1,5fbc <matrix_mul_const+0x94>
    5f4c:	00300293          	li	t0,3
    5f50:	04570e63          	beq	a4,t0,5fac <matrix_mul_const+0x84>
    5f54:	00400393          	li	t2,4
    5f58:	04770263          	beq	a4,t2,5f9c <matrix_mul_const+0x74>
    5f5c:	00500e13          	li	t3,5
    5f60:	03c70663          	beq	a4,t3,5f8c <matrix_mul_const+0x64>
    5f64:	00600e93          	li	t4,6
    5f68:	01d70a63          	beq	a4,t4,5f7c <matrix_mul_const+0x54>
    5f6c:	22f64f0b          	th.lrh	t5,a2,a5,1
    5f70:	02df0fb3          	mul	t6,t5,a3
    5f74:	44f5df8b          	th.srw	t6,a1,a5,2
    5f78:	00088793          	mv	a5,a7
    5f7c:	22f6470b          	th.lrh	a4,a2,a5,1
    5f80:	02d708b3          	mul	a7,a4,a3
    5f84:	44f5d88b          	th.srw	a7,a1,a5,2
    5f88:	00178793          	addi	a5,a5,1
    5f8c:	22f6430b          	th.lrh	t1,a2,a5,1
    5f90:	02d302b3          	mul	t0,t1,a3
    5f94:	44f5d28b          	th.srw	t0,a1,a5,2
    5f98:	00178793          	addi	a5,a5,1
    5f9c:	22f6438b          	th.lrh	t2,a2,a5,1
    5fa0:	02d38e33          	mul	t3,t2,a3
    5fa4:	44f5de0b          	th.srw	t3,a1,a5,2
    5fa8:	00178793          	addi	a5,a5,1
    5fac:	22f64e8b          	th.lrh	t4,a2,a5,1
    5fb0:	02de8f33          	mul	t5,t4,a3
    5fb4:	44f5df0b          	th.srw	t5,a1,a5,2
    5fb8:	00178793          	addi	a5,a5,1
    5fbc:	22f64f8b          	th.lrh	t6,a2,a5,1
    5fc0:	02df8733          	mul	a4,t6,a3
    5fc4:	44f5d70b          	th.srw	a4,a1,a5,2
    5fc8:	00178793          	addi	a5,a5,1
    5fcc:	22f6488b          	th.lrh	a7,a2,a5,1
    5fd0:	02d88333          	mul	t1,a7,a3
    5fd4:	44f5d30b          	th.srw	t1,a1,a5,2
    5fd8:	00178793          	addi	a5,a5,1
    5fdc:	08f50463          	beq	a0,a5,6064 <matrix_mul_const+0x13c>
    5fe0:	22f6428b          	th.lrh	t0,a2,a5,1
    5fe4:	02d283b3          	mul	t2,t0,a3
    5fe8:	44f5d38b          	th.srw	t2,a1,a5,2
    5fec:	00178e13          	addi	t3,a5,1
    5ff0:	23c64e8b          	th.lrh	t4,a2,t3,1
    5ff4:	02de8f33          	mul	t5,t4,a3
    5ff8:	45c5df0b          	th.srw	t5,a1,t3,2
    5ffc:	00278f93          	addi	t6,a5,2
    6000:	23f6470b          	th.lrh	a4,a2,t6,1
    6004:	02d708b3          	mul	a7,a4,a3
    6008:	45f5d88b          	th.srw	a7,a1,t6,2
    600c:	00378313          	addi	t1,a5,3
    6010:	2266428b          	th.lrh	t0,a2,t1,1
    6014:	02d283b3          	mul	t2,t0,a3
    6018:	4465d38b          	th.srw	t2,a1,t1,2
    601c:	00478e13          	addi	t3,a5,4
    6020:	23c64e8b          	th.lrh	t4,a2,t3,1
    6024:	02de8f33          	mul	t5,t4,a3
    6028:	45c5df0b          	th.srw	t5,a1,t3,2
    602c:	00578f93          	addi	t6,a5,5
    6030:	23f6470b          	th.lrh	a4,a2,t6,1
    6034:	02d708b3          	mul	a7,a4,a3
    6038:	45f5d88b          	th.srw	a7,a1,t6,2
    603c:	00678313          	addi	t1,a5,6
    6040:	2266428b          	th.lrh	t0,a2,t1,1
    6044:	02d283b3          	mul	t2,t0,a3
    6048:	4465d38b          	th.srw	t2,a1,t1,2
    604c:	00778e13          	addi	t3,a5,7
    6050:	23c64e8b          	th.lrh	t4,a2,t3,1
    6054:	02de8f33          	mul	t5,t4,a3
    6058:	45c5df0b          	th.srw	t5,a1,t3,2
    605c:	00878793          	addi	a5,a5,8
    6060:	f8f510e3          	bne	a0,a5,5fe0 <matrix_mul_const+0xb8>
    6064:	00180813          	addi	a6,a6,1
    6068:	20c52633          	sh1add	a2,a0,a2
    606c:	20b545b3          	sh2add	a1,a0,a1
    6070:	eca810e3          	bne	a6,a0,5f30 <matrix_mul_const+0x8>
    6074:	00008067          	ret

00006078 <matrix_add_const>:
    6078:	14050063          	beqz	a0,61b8 <matrix_add_const+0x140>
    607c:	00151813          	slli	a6,a0,0x1
    6080:	20b526b3          	sh1add	a3,a0,a1
    6084:	00000593          	li	a1,0
    6088:	410687b3          	sub	a5,a3,a6
    608c:	ffe80713          	addi	a4,a6,-2
    6090:	00175293          	srli	t0,a4,0x1
    6094:	00128313          	addi	t1,t0,1
    6098:	00737393          	andi	t2,t1,7
    609c:	0a038463          	beqz	t2,6144 <matrix_add_const+0xcc>
    60a0:	00100893          	li	a7,1
    60a4:	09138663          	beq	t2,a7,6130 <matrix_add_const+0xb8>
    60a8:	00200e13          	li	t3,2
    60ac:	07c38a63          	beq	t2,t3,6120 <matrix_add_const+0xa8>
    60b0:	00300e93          	li	t4,3
    60b4:	05d38e63          	beq	t2,t4,6110 <matrix_add_const+0x98>
    60b8:	00400f13          	li	t5,4
    60bc:	05e38263          	beq	t2,t5,6100 <matrix_add_const+0x88>
    60c0:	00500f93          	li	t6,5
    60c4:	03f38663          	beq	t2,t6,60f0 <matrix_add_const+0x78>
    60c8:	00600713          	li	a4,6
    60cc:	00e38a63          	beq	t2,a4,60e0 <matrix_add_const+0x68>
    60d0:	0007d283          	lhu	t0,0(a5)
    60d4:	00560333          	add	t1,a2,t0
    60d8:	00679023          	sh	t1,0(a5)
    60dc:	00278793          	addi	a5,a5,2
    60e0:	0007d383          	lhu	t2,0(a5)
    60e4:	007608b3          	add	a7,a2,t2
    60e8:	01179023          	sh	a7,0(a5)
    60ec:	00278793          	addi	a5,a5,2
    60f0:	0007de03          	lhu	t3,0(a5)
    60f4:	01c60eb3          	add	t4,a2,t3
    60f8:	01d79023          	sh	t4,0(a5)
    60fc:	00278793          	addi	a5,a5,2
    6100:	0007df03          	lhu	t5,0(a5)
    6104:	01e60fb3          	add	t6,a2,t5
    6108:	01f79023          	sh	t6,0(a5)
    610c:	00278793          	addi	a5,a5,2
    6110:	0007d703          	lhu	a4,0(a5)
    6114:	00e602b3          	add	t0,a2,a4
    6118:	00579023          	sh	t0,0(a5)
    611c:	00278793          	addi	a5,a5,2
    6120:	0007d303          	lhu	t1,0(a5)
    6124:	006603b3          	add	t2,a2,t1
    6128:	00779023          	sh	t2,0(a5)
    612c:	00278793          	addi	a5,a5,2
    6130:	0007d883          	lhu	a7,0(a5)
    6134:	01160e33          	add	t3,a2,a7
    6138:	01c79023          	sh	t3,0(a5)
    613c:	00278793          	addi	a5,a5,2
    6140:	06f68663          	beq	a3,a5,61ac <matrix_add_const+0x134>
    6144:	0007de83          	lhu	t4,0(a5)
    6148:	01d60f33          	add	t5,a2,t4
    614c:	01e79023          	sh	t5,0(a5)
    6150:	0027df83          	lhu	t6,2(a5)
    6154:	01f60733          	add	a4,a2,t6
    6158:	00e79123          	sh	a4,2(a5)
    615c:	0047d283          	lhu	t0,4(a5)
    6160:	00560333          	add	t1,a2,t0
    6164:	00679223          	sh	t1,4(a5)
    6168:	0067d383          	lhu	t2,6(a5)
    616c:	007608b3          	add	a7,a2,t2
    6170:	01179323          	sh	a7,6(a5)
    6174:	0087de03          	lhu	t3,8(a5)
    6178:	01c60eb3          	add	t4,a2,t3
    617c:	01d79423          	sh	t4,8(a5)
    6180:	00a7df03          	lhu	t5,10(a5)
    6184:	01e60fb3          	add	t6,a2,t5
    6188:	01f79523          	sh	t6,10(a5)
    618c:	00c7d703          	lhu	a4,12(a5)
    6190:	00e602b3          	add	t0,a2,a4
    6194:	00579623          	sh	t0,12(a5)
    6198:	00e7d303          	lhu	t1,14(a5)
    619c:	006603b3          	add	t2,a2,t1
    61a0:	00779723          	sh	t2,14(a5)
    61a4:	01078793          	addi	a5,a5,16
    61a8:	f8f69ee3          	bne	a3,a5,6144 <matrix_add_const+0xcc>
    61ac:	00158593          	addi	a1,a1,1
    61b0:	010686b3          	add	a3,a3,a6
    61b4:	ecb51ae3          	bne	a0,a1,6088 <matrix_add_const+0x10>
    61b8:	00008067          	ret

000061bc <matrix_mul_vect>:
    61bc:	18050463          	beqz	a0,6344 <matrix_mul_vect+0x188>
    61c0:	00000893          	li	a7,0
    61c4:	00000813          	li	a6,0
    61c8:	00000793          	li	a5,0
    61cc:	00757713          	andi	a4,a0,7
    61d0:	0c070063          	beqz	a4,6290 <matrix_mul_vect+0xd4>
    61d4:	00100313          	li	t1,1
    61d8:	0a670063          	beq	a4,t1,6278 <matrix_mul_vect+0xbc>
    61dc:	00200e13          	li	t3,2
    61e0:	09c70263          	beq	a4,t3,6264 <matrix_mul_vect+0xa8>
    61e4:	00300293          	li	t0,3
    61e8:	06570463          	beq	a4,t0,6250 <matrix_mul_vect+0x94>
    61ec:	00400393          	li	t2,4
    61f0:	04770663          	beq	a4,t2,623c <matrix_mul_vect+0x80>
    61f4:	00500e93          	li	t4,5
    61f8:	03d70863          	beq	a4,t4,6228 <matrix_mul_vect+0x6c>
    61fc:	00600f13          	li	t5,6
    6200:	01e70a63          	beq	a4,t5,6214 <matrix_mul_vect+0x58>
    6204:	2306478b          	th.lrh	a5,a2,a6,1
    6208:	2306c80b          	th.lrh	a6,a3,a6,1
    620c:	03078833          	mul	a6,a5,a6
    6210:	00030793          	mv	a5,t1
    6214:	22f64f8b          	th.lrh	t6,a2,a5,1
    6218:	22f6c70b          	th.lrh	a4,a3,a5,1
    621c:	02ef8333          	mul	t1,t6,a4
    6220:	00680833          	add	a6,a6,t1
    6224:	00178793          	addi	a5,a5,1
    6228:	22f64e0b          	th.lrh	t3,a2,a5,1
    622c:	22f6c28b          	th.lrh	t0,a3,a5,1
    6230:	025e03b3          	mul	t2,t3,t0
    6234:	00780833          	add	a6,a6,t2
    6238:	00178793          	addi	a5,a5,1
    623c:	22f64e8b          	th.lrh	t4,a2,a5,1
    6240:	22f6cf0b          	th.lrh	t5,a3,a5,1
    6244:	03ee8fb3          	mul	t6,t4,t5
    6248:	01f80833          	add	a6,a6,t6
    624c:	00178793          	addi	a5,a5,1
    6250:	22f6470b          	th.lrh	a4,a2,a5,1
    6254:	22f6c30b          	th.lrh	t1,a3,a5,1
    6258:	02670e33          	mul	t3,a4,t1
    625c:	01c80833          	add	a6,a6,t3
    6260:	00178793          	addi	a5,a5,1
    6264:	22f6428b          	th.lrh	t0,a2,a5,1
    6268:	22f6c38b          	th.lrh	t2,a3,a5,1
    626c:	02728eb3          	mul	t4,t0,t2
    6270:	01d80833          	add	a6,a6,t4
    6274:	00178793          	addi	a5,a5,1
    6278:	22f64f0b          	th.lrh	t5,a2,a5,1
    627c:	22f6cf8b          	th.lrh	t6,a3,a5,1
    6280:	03ff0733          	mul	a4,t5,t6
    6284:	00e80833          	add	a6,a6,a4
    6288:	00178793          	addi	a5,a5,1
    628c:	0af50463          	beq	a0,a5,6334 <matrix_mul_vect+0x178>
    6290:	22f64e0b          	th.lrh	t3,a2,a5,1
    6294:	22f6c30b          	th.lrh	t1,a3,a5,1
    6298:	026e02b3          	mul	t0,t3,t1
    629c:	005803b3          	add	t2,a6,t0
    62a0:	00178e93          	addi	t4,a5,1
    62a4:	23d64f0b          	th.lrh	t5,a2,t4,1
    62a8:	23d6cf8b          	th.lrh	t6,a3,t4,1
    62ac:	03ff0733          	mul	a4,t5,t6
    62b0:	00e38e33          	add	t3,t2,a4
    62b4:	00278313          	addi	t1,a5,2
    62b8:	2266480b          	th.lrh	a6,a2,t1,1
    62bc:	2266c28b          	th.lrh	t0,a3,t1,1
    62c0:	025803b3          	mul	t2,a6,t0
    62c4:	007e0eb3          	add	t4,t3,t2
    62c8:	00378f13          	addi	t5,a5,3
    62cc:	23e64f8b          	th.lrh	t6,a2,t5,1
    62d0:	23e6c70b          	th.lrh	a4,a3,t5,1
    62d4:	02ef8e33          	mul	t3,t6,a4
    62d8:	01ce82b3          	add	t0,t4,t3
    62dc:	00478313          	addi	t1,a5,4
    62e0:	2266480b          	th.lrh	a6,a2,t1,1
    62e4:	2266c38b          	th.lrh	t2,a3,t1,1
    62e8:	02780eb3          	mul	t4,a6,t2
    62ec:	01d28f33          	add	t5,t0,t4
    62f0:	00578f93          	addi	t6,a5,5
    62f4:	23f6470b          	th.lrh	a4,a2,t6,1
    62f8:	23f6ce0b          	th.lrh	t3,a3,t6,1
    62fc:	03c702b3          	mul	t0,a4,t3
    6300:	005f03b3          	add	t2,t5,t0
    6304:	00678313          	addi	t1,a5,6
    6308:	2266480b          	th.lrh	a6,a2,t1,1
    630c:	2266ce8b          	th.lrh	t4,a3,t1,1
    6310:	03d80f33          	mul	t5,a6,t4
    6314:	01e38fb3          	add	t6,t2,t5
    6318:	00778713          	addi	a4,a5,7
    631c:	22e64e0b          	th.lrh	t3,a2,a4,1
    6320:	22e6c28b          	th.lrh	t0,a3,a4,1
    6324:	025e03b3          	mul	t2,t3,t0
    6328:	007f8833          	add	a6,t6,t2
    632c:	00878793          	addi	a5,a5,8
    6330:	f6f510e3          	bne	a0,a5,6290 <matrix_mul_vect+0xd4>
    6334:	4515d80b          	th.srw	a6,a1,a7,2
    6338:	00188893          	addi	a7,a7,1
    633c:	20c52633          	sh1add	a2,a0,a2
    6340:	e8a892e3          	bne	a7,a0,61c4 <matrix_mul_vect+0x8>
    6344:	00008067          	ret

00006348 <matrix_mul_matrix>:
    6348:	1e050263          	beqz	a0,652c <matrix_mul_matrix+0x1e4>
    634c:	00058f13          	mv	t5,a1
    6350:	00151813          	slli	a6,a0,0x1
    6354:	00060e93          	mv	t4,a2
    6358:	20c52e33          	sh1add	t3,a0,a2
    635c:	00000f93          	li	t6,0
    6360:	00068893          	mv	a7,a3
    6364:	00000313          	li	t1,0
    6368:	00088713          	mv	a4,a7
    636c:	000e8793          	mv	a5,t4
    6370:	00000593          	li	a1,0
    6374:	41de0633          	sub	a2,t3,t4
    6378:	ffe60293          	addi	t0,a2,-2
    637c:	0012d393          	srli	t2,t0,0x1
    6380:	00138613          	addi	a2,t2,1
    6384:	00767393          	andi	t2,a2,7
    6388:	0c038e63          	beqz	t2,6464 <matrix_mul_matrix+0x11c>
    638c:	00100293          	li	t0,1
    6390:	0a538c63          	beq	t2,t0,6448 <matrix_mul_matrix+0x100>
    6394:	00200613          	li	a2,2
    6398:	08c38c63          	beq	t2,a2,6430 <matrix_mul_matrix+0xe8>
    639c:	00300293          	li	t0,3
    63a0:	06538c63          	beq	t2,t0,6418 <matrix_mul_matrix+0xd0>
    63a4:	00400613          	li	a2,4
    63a8:	04c38c63          	beq	t2,a2,6400 <matrix_mul_matrix+0xb8>
    63ac:	00500293          	li	t0,5
    63b0:	02538c63          	beq	t2,t0,63e8 <matrix_mul_matrix+0xa0>
    63b4:	00600613          	li	a2,6
    63b8:	00c38c63          	beq	t2,a2,63d0 <matrix_mul_matrix+0x88>
    63bc:	000e9583          	lh	a1,0(t4)
    63c0:	00089783          	lh	a5,0(a7)
    63c4:	02f585b3          	mul	a1,a1,a5
    63c8:	002e8793          	addi	a5,t4,2
    63cc:	01088733          	add	a4,a7,a6
    63d0:	00079383          	lh	t2,0(a5)
    63d4:	00071283          	lh	t0,0(a4)
    63d8:	02538633          	mul	a2,t2,t0
    63dc:	00c585b3          	add	a1,a1,a2
    63e0:	00278793          	addi	a5,a5,2
    63e4:	01070733          	add	a4,a4,a6
    63e8:	00079383          	lh	t2,0(a5)
    63ec:	00071283          	lh	t0,0(a4)
    63f0:	02538633          	mul	a2,t2,t0
    63f4:	00c585b3          	add	a1,a1,a2
    63f8:	00278793          	addi	a5,a5,2
    63fc:	01070733          	add	a4,a4,a6
    6400:	00079383          	lh	t2,0(a5)
    6404:	00071283          	lh	t0,0(a4)
    6408:	02538633          	mul	a2,t2,t0
    640c:	00c585b3          	add	a1,a1,a2
    6410:	00278793          	addi	a5,a5,2
    6414:	01070733          	add	a4,a4,a6
    6418:	00079383          	lh	t2,0(a5)
    641c:	00071283          	lh	t0,0(a4)
    6420:	02538633          	mul	a2,t2,t0
    6424:	00c585b3          	add	a1,a1,a2
    6428:	00278793          	addi	a5,a5,2
    642c:	01070733          	add	a4,a4,a6
    6430:	00079383          	lh	t2,0(a5)
    6434:	00071283          	lh	t0,0(a4)
    6438:	02538633          	mul	a2,t2,t0
    643c:	00c585b3          	add	a1,a1,a2
    6440:	00278793          	addi	a5,a5,2
    6444:	01070733          	add	a4,a4,a6
    6448:	00079383          	lh	t2,0(a5)
    644c:	00071283          	lh	t0,0(a4)
    6450:	02538633          	mul	a2,t2,t0
    6454:	00c585b3          	add	a1,a1,a2
    6458:	00278793          	addi	a5,a5,2
    645c:	01070733          	add	a4,a4,a6
    6460:	08fe0e63          	beq	t3,a5,64fc <matrix_mul_matrix+0x1b4>
    6464:	00079383          	lh	t2,0(a5)
    6468:	00071283          	lh	t0,0(a4)
    646c:	02538633          	mul	a2,t2,t0
    6470:	00c583b3          	add	t2,a1,a2
    6474:	00279583          	lh	a1,2(a5)
    6478:	2107428b          	th.lrh	t0,a4,a6,0
    647c:	02558633          	mul	a2,a1,t0
    6480:	00c383b3          	add	t2,t2,a2
    6484:	20e825b3          	sh1add	a1,a6,a4
    6488:	00479283          	lh	t0,4(a5)
    648c:	2307470b          	th.lrh	a4,a4,a6,1
    6490:	02e28633          	mul	a2,t0,a4
    6494:	00c383b3          	add	t2,t2,a2
    6498:	00679703          	lh	a4,6(a5)
    649c:	2105c28b          	th.lrh	t0,a1,a6,0
    64a0:	02570633          	mul	a2,a4,t0
    64a4:	00c383b3          	add	t2,t2,a2
    64a8:	20b822b3          	sh1add	t0,a6,a1
    64ac:	00879703          	lh	a4,8(a5)
    64b0:	2305c58b          	th.lrh	a1,a1,a6,1
    64b4:	02b70633          	mul	a2,a4,a1
    64b8:	00c383b3          	add	t2,t2,a2
    64bc:	00a79703          	lh	a4,10(a5)
    64c0:	2102c58b          	th.lrh	a1,t0,a6,0
    64c4:	02b70633          	mul	a2,a4,a1
    64c8:	00c383b3          	add	t2,t2,a2
    64cc:	20582733          	sh1add	a4,a6,t0
    64d0:	00c79583          	lh	a1,12(a5)
    64d4:	2302c28b          	th.lrh	t0,t0,a6,1
    64d8:	02558633          	mul	a2,a1,t0
    64dc:	00c383b3          	add	t2,t2,a2
    64e0:	00e79583          	lh	a1,14(a5)
    64e4:	2107428b          	th.lrh	t0,a4,a6,0
    64e8:	02558633          	mul	a2,a1,t0
    64ec:	00c385b3          	add	a1,t2,a2
    64f0:	01078793          	addi	a5,a5,16
    64f4:	20e82733          	sh1add	a4,a6,a4
    64f8:	f6fe16e3          	bne	t3,a5,6464 <matrix_mul_matrix+0x11c>
    64fc:	446f558b          	th.srw	a1,t5,t1,2
    6500:	00130793          	addi	a5,t1,1 # ffff0001 <_stack_top+0xfffdc001>
    6504:	00288893          	addi	a7,a7,2
    6508:	00f50663          	beq	a0,a5,6514 <matrix_mul_matrix+0x1cc>
    650c:	00078313          	mv	t1,a5
    6510:	e59ff06f          	j	6368 <matrix_mul_matrix+0x20>
    6514:	21e54f33          	sh2add	t5,a0,t5
    6518:	010e8eb3          	add	t4,t4,a6
    651c:	010e0e33          	add	t3,t3,a6
    6520:	006f8663          	beq	t6,t1,652c <matrix_mul_matrix+0x1e4>
    6524:	001f8f93          	addi	t6,t6,1
    6528:	e39ff06f          	j	6360 <matrix_mul_matrix+0x18>
    652c:	00008067          	ret

00006530 <matrix_mul_matrix_bitextract>:
    6530:	28050c63          	beqz	a0,67c8 <matrix_mul_matrix_bitextract+0x298>
    6534:	00058f93          	mv	t6,a1
    6538:	00151813          	slli	a6,a0,0x1
    653c:	00060f13          	mv	t5,a2
    6540:	20c52eb3          	sh1add	t4,a0,a2
    6544:	00000293          	li	t0,0
    6548:	00068313          	mv	t1,a3
    654c:	00000e13          	li	t3,0
    6550:	00030713          	mv	a4,t1
    6554:	000f0793          	mv	a5,t5
    6558:	00000593          	li	a1,0
    655c:	41ee8633          	sub	a2,t4,t5
    6560:	ffe60393          	addi	t2,a2,-2
    6564:	0013d893          	srli	a7,t2,0x1
    6568:	00188613          	addi	a2,a7,1
    656c:	00767393          	andi	t2,a2,7
    6570:	12038863          	beqz	t2,66a0 <matrix_mul_matrix_bitextract+0x170>
    6574:	00100893          	li	a7,1
    6578:	11138063          	beq	t2,a7,6678 <matrix_mul_matrix_bitextract+0x148>
    657c:	00200613          	li	a2,2
    6580:	0cc38a63          	beq	t2,a2,6654 <matrix_mul_matrix_bitextract+0x124>
    6584:	00300893          	li	a7,3
    6588:	0b138463          	beq	t2,a7,6630 <matrix_mul_matrix_bitextract+0x100>
    658c:	00400613          	li	a2,4
    6590:	06c38e63          	beq	t2,a2,660c <matrix_mul_matrix_bitextract+0xdc>
    6594:	00500893          	li	a7,5
    6598:	05138863          	beq	t2,a7,65e8 <matrix_mul_matrix_bitextract+0xb8>
    659c:	00600613          	li	a2,6
    65a0:	02c38263          	beq	t2,a2,65c4 <matrix_mul_matrix_bitextract+0x94>
    65a4:	000f1783          	lh	a5,0(t5)
    65a8:	00031703          	lh	a4,0(t1)
    65ac:	02e783b3          	mul	t2,a5,a4
    65b0:	1423b58b          	th.extu	a1,t2,5,2
    65b4:	2c53b88b          	th.extu	a7,t2,11,5
    65b8:	031585b3          	mul	a1,a1,a7
    65bc:	002f0793          	addi	a5,t5,2
    65c0:	01030733          	add	a4,t1,a6
    65c4:	00079603          	lh	a2,0(a5)
    65c8:	00071383          	lh	t2,0(a4)
    65cc:	02760633          	mul	a2,a2,t2
    65d0:	1426388b          	th.extu	a7,a2,5,2
    65d4:	2c56338b          	th.extu	t2,a2,11,5
    65d8:	02788633          	mul	a2,a7,t2
    65dc:	00c585b3          	add	a1,a1,a2
    65e0:	00278793          	addi	a5,a5,2
    65e4:	01070733          	add	a4,a4,a6
    65e8:	00079383          	lh	t2,0(a5)
    65ec:	00071883          	lh	a7,0(a4)
    65f0:	03138633          	mul	a2,t2,a7
    65f4:	1426338b          	th.extu	t2,a2,5,2
    65f8:	2c56388b          	th.extu	a7,a2,11,5
    65fc:	03138633          	mul	a2,t2,a7
    6600:	00c585b3          	add	a1,a1,a2
    6604:	00278793          	addi	a5,a5,2
    6608:	01070733          	add	a4,a4,a6
    660c:	00079383          	lh	t2,0(a5)
    6610:	00071883          	lh	a7,0(a4)
    6614:	03138633          	mul	a2,t2,a7
    6618:	1426338b          	th.extu	t2,a2,5,2
    661c:	2c56388b          	th.extu	a7,a2,11,5
    6620:	03138633          	mul	a2,t2,a7
    6624:	00c585b3          	add	a1,a1,a2
    6628:	00278793          	addi	a5,a5,2
    662c:	01070733          	add	a4,a4,a6
    6630:	00079383          	lh	t2,0(a5)
    6634:	00071883          	lh	a7,0(a4)
    6638:	03138633          	mul	a2,t2,a7
    663c:	1426338b          	th.extu	t2,a2,5,2
    6640:	2c56388b          	th.extu	a7,a2,11,5
    6644:	03138633          	mul	a2,t2,a7
    6648:	00c585b3          	add	a1,a1,a2
    664c:	00278793          	addi	a5,a5,2
    6650:	01070733          	add	a4,a4,a6
    6654:	00079383          	lh	t2,0(a5)
    6658:	00071883          	lh	a7,0(a4)
    665c:	03138633          	mul	a2,t2,a7
    6660:	1426338b          	th.extu	t2,a2,5,2
    6664:	2c56388b          	th.extu	a7,a2,11,5
    6668:	03138633          	mul	a2,t2,a7
    666c:	00c585b3          	add	a1,a1,a2
    6670:	00278793          	addi	a5,a5,2
    6674:	01070733          	add	a4,a4,a6
    6678:	00079383          	lh	t2,0(a5)
    667c:	00071883          	lh	a7,0(a4)
    6680:	03138633          	mul	a2,t2,a7
    6684:	1426338b          	th.extu	t2,a2,5,2
    6688:	2c56388b          	th.extu	a7,a2,11,5
    668c:	03138633          	mul	a2,t2,a7
    6690:	00c585b3          	add	a1,a1,a2
    6694:	00278793          	addi	a5,a5,2
    6698:	01070733          	add	a4,a4,a6
    669c:	0efe8e63          	beq	t4,a5,6798 <matrix_mul_matrix_bitextract+0x268>
    66a0:	00079383          	lh	t2,0(a5)
    66a4:	00071883          	lh	a7,0(a4)
    66a8:	031383b3          	mul	t2,t2,a7
    66ac:	1423b60b          	th.extu	a2,t2,5,2
    66b0:	2c53b88b          	th.extu	a7,t2,11,5
    66b4:	031603b3          	mul	t2,a2,a7
    66b8:	00758633          	add	a2,a1,t2
    66bc:	00279583          	lh	a1,2(a5)
    66c0:	2107488b          	th.lrh	a7,a4,a6,0
    66c4:	031583b3          	mul	t2,a1,a7
    66c8:	1423b88b          	th.extu	a7,t2,5,2
    66cc:	2c53b58b          	th.extu	a1,t2,11,5
    66d0:	02b883b3          	mul	t2,a7,a1
    66d4:	00760633          	add	a2,a2,t2
    66d8:	20e823b3          	sh1add	t2,a6,a4
    66dc:	00479883          	lh	a7,4(a5)
    66e0:	2307470b          	th.lrh	a4,a4,a6,1
    66e4:	02e888b3          	mul	a7,a7,a4
    66e8:	1428b58b          	th.extu	a1,a7,5,2
    66ec:	2c58b70b          	th.extu	a4,a7,11,5
    66f0:	02e588b3          	mul	a7,a1,a4
    66f4:	01160633          	add	a2,a2,a7
    66f8:	00679703          	lh	a4,6(a5)
    66fc:	2103c58b          	th.lrh	a1,t2,a6,0
    6700:	02b708b3          	mul	a7,a4,a1
    6704:	1428b58b          	th.extu	a1,a7,5,2
    6708:	2c58b70b          	th.extu	a4,a7,11,5
    670c:	02e588b3          	mul	a7,a1,a4
    6710:	01160633          	add	a2,a2,a7
    6714:	207828b3          	sh1add	a7,a6,t2
    6718:	00879703          	lh	a4,8(a5)
    671c:	2303c38b          	th.lrh	t2,t2,a6,1
    6720:	02770733          	mul	a4,a4,t2
    6724:	1427358b          	th.extu	a1,a4,5,2
    6728:	2c57338b          	th.extu	t2,a4,11,5
    672c:	02758733          	mul	a4,a1,t2
    6730:	00e60633          	add	a2,a2,a4
    6734:	00a79383          	lh	t2,10(a5)
    6738:	2108c58b          	th.lrh	a1,a7,a6,0
    673c:	02b38733          	mul	a4,t2,a1
    6740:	1427338b          	th.extu	t2,a4,5,2
    6744:	2c57358b          	th.extu	a1,a4,11,5
    6748:	02b38733          	mul	a4,t2,a1
    674c:	00e60633          	add	a2,a2,a4
    6750:	211823b3          	sh1add	t2,a6,a7
    6754:	00c79583          	lh	a1,12(a5)
    6758:	2308c88b          	th.lrh	a7,a7,a6,1
    675c:	03158733          	mul	a4,a1,a7
    6760:	1427388b          	th.extu	a7,a4,5,2
    6764:	2c57358b          	th.extu	a1,a4,11,5
    6768:	02b88733          	mul	a4,a7,a1
    676c:	00e60633          	add	a2,a2,a4
    6770:	00e79883          	lh	a7,14(a5)
    6774:	2103c58b          	th.lrh	a1,t2,a6,0
    6778:	02b88733          	mul	a4,a7,a1
    677c:	1427358b          	th.extu	a1,a4,5,2
    6780:	2c57388b          	th.extu	a7,a4,11,5
    6784:	03158733          	mul	a4,a1,a7
    6788:	00e605b3          	add	a1,a2,a4
    678c:	01078793          	addi	a5,a5,16
    6790:	20782733          	sh1add	a4,a6,t2
    6794:	f0fe96e3          	bne	t4,a5,66a0 <matrix_mul_matrix_bitextract+0x170>
    6798:	45cfd58b          	th.srw	a1,t6,t3,2
    679c:	001e0793          	addi	a5,t3,1
    67a0:	00230313          	addi	t1,t1,2
    67a4:	00f50663          	beq	a0,a5,67b0 <matrix_mul_matrix_bitextract+0x280>
    67a8:	00078e13          	mv	t3,a5
    67ac:	da5ff06f          	j	6550 <matrix_mul_matrix_bitextract+0x20>
    67b0:	21f54fb3          	sh2add	t6,a0,t6
    67b4:	010f0f33          	add	t5,t5,a6
    67b8:	010e8eb3          	add	t4,t4,a6
    67bc:	01c28663          	beq	t0,t3,67c8 <matrix_mul_matrix_bitextract+0x298>
    67c0:	00128293          	addi	t0,t0,1
    67c4:	d85ff06f          	j	6548 <matrix_mul_matrix_bitextract+0x18>
    67c8:	00008067          	ret

000067cc <core_bench_state>:
    67cc:	f9010113          	addi	sp,sp,-112
    67d0:	06112623          	sw	ra,108(sp)
    67d4:	06812423          	sw	s0,104(sp)
    67d8:	06912223          	sw	s1,100(sp)
    67dc:	07212023          	sw	s2,96(sp)
    67e0:	05312e23          	sw	s3,92(sp)
    67e4:	05412c23          	sw	s4,88(sp)
    67e8:	05512a23          	sw	s5,84(sp)
    67ec:	05612823          	sw	s6,80(sp)
    67f0:	05912223          	sw	s9,68(sp)
    67f4:	00050c93          	mv	s9,a0
    67f8:	00058493          	mv	s1,a1
    67fc:	00060a13          	mv	s4,a2
    6800:	00068993          	mv	s3,a3
    6804:	00070a93          	mv	s5,a4
    6808:	00d66b33          	or	s6,a2,a3
    680c:	000b1a63          	bnez	s6,6820 <core_bench_state+0x54>
    6810:	00010737          	lui	a4,0x10
    6814:	7e470293          	addi	t0,a4,2020 # 107e4 <zero_state_cache_valid.4>
    6818:	0002c683          	lbu	a3,0(t0)
    681c:	28069ee3          	bnez	a3,72b8 <core_bench_state+0xaec>
    6820:	05712623          	sw	s7,76(sp)
    6824:	02012023          	sw	zero,32(sp)
    6828:	00012023          	sw	zero,0(sp)
    682c:	02012223          	sw	zero,36(sp)
    6830:	00012223          	sw	zero,4(sp)
    6834:	02012423          	sw	zero,40(sp)
    6838:	00012423          	sw	zero,8(sp)
    683c:	02012623          	sw	zero,44(sp)
    6840:	00012623          	sw	zero,12(sp)
    6844:	02012823          	sw	zero,48(sp)
    6848:	00012823          	sw	zero,16(sp)
    684c:	02012a23          	sw	zero,52(sp)
    6850:	00012a23          	sw	zero,20(sp)
    6854:	02012c23          	sw	zero,56(sp)
    6858:	00012c23          	sw	zero,24(sp)
    685c:	02012e23          	sw	zero,60(sp)
    6860:	00012e23          	sw	zero,28(sp)
    6864:	0004c303          	lbu	t1,0(s1)
    6868:	38030ee3          	beqz	t1,7404 <core_bench_state+0xc38>
    686c:	05812423          	sw	s8,72(sp)
    6870:	00048813          	mv	a6,s1
    6874:	00030893          	mv	a7,t1
    6878:	00000393          	li	t2,0
    687c:	00000293          	li	t0,0
    6880:	00000613          	li	a2,0
    6884:	00000413          	li	s0,0
    6888:	00000f93          	li	t6,0
    688c:	00000513          	li	a0,0
    6890:	00000713          	li	a4,0
    6894:	02c00e13          	li	t3,44
    6898:	02e00f13          	li	t5,46
    689c:	04500913          	li	s2,69
    68a0:	00900e93          	li	t4,9
    68a4:	02b00593          	li	a1,43
    68a8:	02d00b93          	li	s7,45
    68ac:	49c88a63          	beq	a7,t3,6d40 <core_bench_state+0x574>
    68b0:	5de88a63          	beq	a7,t5,6e84 <core_bench_state+0x6b8>
    68b4:	591f6a63          	bltu	t5,a7,6e48 <core_bench_state+0x67c>
    68b8:	60b88263          	beq	a7,a1,6ebc <core_bench_state+0x6f0>
    68bc:	5f789663          	bne	a7,s7,6ea8 <core_bench_state+0x6dc>
    68c0:	00170713          	addi	a4,a4,1
    68c4:	00180813          	addi	a6,a6,1
    68c8:	00084683          	lbu	a3,0(a6)
    68cc:	38068ee3          	beqz	a3,7468 <core_bench_state+0xc9c>
    68d0:	39c686e3          	beq	a3,t3,745c <core_bench_state+0xc90>
    68d4:	001f8f93          	addi	t6,t6,1
    68d8:	fd068893          	addi	a7,a3,-48
    68dc:	0ff8fc13          	zext.b	s8,a7
    68e0:	438eee63          	bltu	t4,s8,6d1c <core_bench_state+0x550>
    68e4:	00180813          	addi	a6,a6,1
    68e8:	00084c03          	lbu	s8,0(a6)
    68ec:	240c04e3          	beqz	s8,7334 <core_bench_state+0xb68>
    68f0:	1bcc0ee3          	beq	s8,t3,72ac <core_bench_state+0xae0>
    68f4:	45ec0c63          	beq	s8,t5,6d4c <core_bench_state+0x580>
    68f8:	fd0c0693          	addi	a3,s8,-48
    68fc:	0ff6f893          	zext.b	a7,a3
    6900:	531eec63          	bltu	t4,a7,6e38 <core_bench_state+0x66c>
    6904:	00180813          	addi	a6,a6,1
    6908:	00084c03          	lbu	s8,0(a6)
    690c:	300c04e3          	beqz	s8,7414 <core_bench_state+0xc48>
    6910:	ffcc12e3          	bne	s8,t3,68f4 <core_bench_state+0x128>
    6914:	00400893          	li	a7,4
    6918:	00180813          	addi	a6,a6,1
    691c:	45114c0b          	th.lrw	s8,sp,a7,2
    6920:	001c0693          	addi	a3,s8,1
    6924:	4511568b          	th.srw	a3,sp,a7,2
    6928:	00084883          	lbu	a7,0(a6)
    692c:	f80890e3          	bnez	a7,68ac <core_bench_state+0xe0>
    6930:	02712c23          	sw	t2,56(sp)
    6934:	02512623          	sw	t0,44(sp)
    6938:	02c12a23          	sw	a2,52(sp)
    693c:	02812823          	sw	s0,48(sp)
    6940:	03f12423          	sw	t6,40(sp)
    6944:	02e12023          	sw	a4,32(sp)
    6948:	02a12223          	sw	a0,36(sp)
    694c:	5a0b0863          	beqz	s6,6efc <core_bench_state+0x730>
    6950:	01948933          	add	s2,s1,s9
    6954:	3924f6e3          	bgeu	s1,s2,74e0 <core_bench_state+0xd14>
    6958:	04812c03          	lw	s8,72(sp)
    695c:	00100313          	li	t1,1
    6960:	1e6a9ce3          	bne	s5,t1,7358 <core_bench_state+0xb8c>
    6964:	02c00293          	li	t0,44
    6968:	fff4c393          	not	t2,s1
    696c:	00790833          	add	a6,s2,t2
    6970:	00787513          	andi	a0,a6,7
    6974:	0004c583          	lbu	a1,0(s1)
    6978:	00558663          	beq	a1,t0,6984 <core_bench_state+0x1b8>
    697c:	0145cbb3          	xor	s7,a1,s4
    6980:	01748023          	sb	s7,0(s1)
    6984:	00148713          	addi	a4,s1,1
    6988:	15277a63          	bgeu	a4,s2,6adc <core_bench_state+0x310>
    698c:	0c050263          	beqz	a0,6a50 <core_bench_state+0x284>
    6990:	00100e13          	li	t3,1
    6994:	0bc50263          	beq	a0,t3,6a38 <core_bench_state+0x26c>
    6998:	00200e93          	li	t4,2
    699c:	09d50463          	beq	a0,t4,6a24 <core_bench_state+0x258>
    69a0:	00300f13          	li	t5,3
    69a4:	07e50663          	beq	a0,t5,6a10 <core_bench_state+0x244>
    69a8:	00400693          	li	a3,4
    69ac:	04d50863          	beq	a0,a3,69fc <core_bench_state+0x230>
    69b0:	00500893          	li	a7,5
    69b4:	03150a63          	beq	a0,a7,69e8 <core_bench_state+0x21c>
    69b8:	00600313          	li	t1,6
    69bc:	00650c63          	beq	a0,t1,69d4 <core_bench_state+0x208>
    69c0:	00074f83          	lbu	t6,0(a4)
    69c4:	005f8663          	beq	t6,t0,69d0 <core_bench_state+0x204>
    69c8:	014fc433          	xor	s0,t6,s4
    69cc:	00870023          	sb	s0,0(a4)
    69d0:	00170713          	addi	a4,a4,1
    69d4:	00074603          	lbu	a2,0(a4)
    69d8:	00560663          	beq	a2,t0,69e4 <core_bench_state+0x218>
    69dc:	014643b3          	xor	t2,a2,s4
    69e0:	00770023          	sb	t2,0(a4)
    69e4:	00170713          	addi	a4,a4,1
    69e8:	00074803          	lbu	a6,0(a4)
    69ec:	00580663          	beq	a6,t0,69f8 <core_bench_state+0x22c>
    69f0:	01484533          	xor	a0,a6,s4
    69f4:	00a70023          	sb	a0,0(a4)
    69f8:	00170713          	addi	a4,a4,1
    69fc:	00074583          	lbu	a1,0(a4)
    6a00:	00558663          	beq	a1,t0,6a0c <core_bench_state+0x240>
    6a04:	0145cbb3          	xor	s7,a1,s4
    6a08:	01770023          	sb	s7,0(a4)
    6a0c:	00170713          	addi	a4,a4,1
    6a10:	00074e03          	lbu	t3,0(a4)
    6a14:	005e0663          	beq	t3,t0,6a20 <core_bench_state+0x254>
    6a18:	014e4eb3          	xor	t4,t3,s4
    6a1c:	01d70023          	sb	t4,0(a4)
    6a20:	00170713          	addi	a4,a4,1
    6a24:	00074f03          	lbu	t5,0(a4)
    6a28:	005f0663          	beq	t5,t0,6a34 <core_bench_state+0x268>
    6a2c:	014f46b3          	xor	a3,t5,s4
    6a30:	00d70023          	sb	a3,0(a4)
    6a34:	00170713          	addi	a4,a4,1
    6a38:	00074883          	lbu	a7,0(a4)
    6a3c:	00588663          	beq	a7,t0,6a48 <core_bench_state+0x27c>
    6a40:	0148c333          	xor	t1,a7,s4
    6a44:	00670023          	sb	t1,0(a4)
    6a48:	00170713          	addi	a4,a4,1
    6a4c:	09277863          	bgeu	a4,s2,6adc <core_bench_state+0x310>
    6a50:	00074f83          	lbu	t6,0(a4)
    6a54:	005f8663          	beq	t6,t0,6a60 <core_bench_state+0x294>
    6a58:	014fc433          	xor	s0,t6,s4
    6a5c:	00870023          	sb	s0,0(a4)
    6a60:	00170613          	addi	a2,a4,1
    6a64:	00174383          	lbu	t2,1(a4)
    6a68:	00538663          	beq	t2,t0,6a74 <core_bench_state+0x2a8>
    6a6c:	0143c833          	xor	a6,t2,s4
    6a70:	010700a3          	sb	a6,1(a4)
    6a74:	00164703          	lbu	a4,1(a2)
    6a78:	00570663          	beq	a4,t0,6a84 <core_bench_state+0x2b8>
    6a7c:	01474533          	xor	a0,a4,s4
    6a80:	00a600a3          	sb	a0,1(a2)
    6a84:	00264583          	lbu	a1,2(a2)
    6a88:	00558663          	beq	a1,t0,6a94 <core_bench_state+0x2c8>
    6a8c:	0145cbb3          	xor	s7,a1,s4
    6a90:	01760123          	sb	s7,2(a2)
    6a94:	00364e03          	lbu	t3,3(a2)
    6a98:	005e0663          	beq	t3,t0,6aa4 <core_bench_state+0x2d8>
    6a9c:	014e4eb3          	xor	t4,t3,s4
    6aa0:	01d601a3          	sb	t4,3(a2)
    6aa4:	00464f03          	lbu	t5,4(a2)
    6aa8:	005f0663          	beq	t5,t0,6ab4 <core_bench_state+0x2e8>
    6aac:	014f46b3          	xor	a3,t5,s4
    6ab0:	00d60223          	sb	a3,4(a2)
    6ab4:	00564883          	lbu	a7,5(a2)
    6ab8:	00588663          	beq	a7,t0,6ac4 <core_bench_state+0x2f8>
    6abc:	0148c333          	xor	t1,a7,s4
    6ac0:	006602a3          	sb	t1,5(a2)
    6ac4:	00664f83          	lbu	t6,6(a2)
    6ac8:	005f8663          	beq	t6,t0,6ad4 <core_bench_state+0x308>
    6acc:	014fc433          	xor	s0,t6,s4
    6ad0:	00860323          	sb	s0,6(a2)
    6ad4:	00760713          	addi	a4,a2,7
    6ad8:	f7276ce3          	bltu	a4,s2,6a50 <core_bench_state+0x284>
    6adc:	0004c303          	lbu	t1,0(s1)
    6ae0:	1a0306e3          	beqz	t1,748c <core_bench_state+0xcc0>
    6ae4:	03812e03          	lw	t3,56(sp)
    6ae8:	03412f83          	lw	t6,52(sp)
    6aec:	03012403          	lw	s0,48(sp)
    6af0:	02c12883          	lw	a7,44(sp)
    6af4:	02812803          	lw	a6,40(sp)
    6af8:	02412383          	lw	t2,36(sp)
    6afc:	02012e83          	lw	t4,32(sp)
    6b00:	00048613          	mv	a2,s1
    6b04:	02c00693          	li	a3,44
    6b08:	02e00513          	li	a0,46
    6b0c:	04500a13          	li	s4,69
    6b10:	00900593          	li	a1,9
    6b14:	02b00293          	li	t0,43
    6b18:	02d00b93          	li	s7,45
    6b1c:	78d30263          	beq	t1,a3,72a0 <core_bench_state+0xad4>
    6b20:	70a30463          	beq	t1,a0,7228 <core_bench_state+0xa5c>
    6b24:	6a656c63          	bltu	a0,t1,71dc <core_bench_state+0xa10>
    6b28:	72530c63          	beq	t1,t0,7260 <core_bench_state+0xa94>
    6b2c:	73731063          	bne	t1,s7,724c <core_bench_state+0xa80>
    6b30:	001e8e93          	addi	t4,t4,1
    6b34:	00160613          	addi	a2,a2,1
    6b38:	00064f03          	lbu	t5,0(a2)
    6b3c:	180f04e3          	beqz	t5,74c4 <core_bench_state+0xcf8>
    6b40:	18df06e3          	beq	t5,a3,74cc <core_bench_state+0xd00>
    6b44:	00180813          	addi	a6,a6,1
    6b48:	fd0f0713          	addi	a4,t5,-48
    6b4c:	0ff77313          	zext.b	t1,a4
    6b50:	5665f263          	bgeu	a1,t1,70b4 <core_bench_state+0x8e8>
    6b54:	72af0663          	beq	t5,a0,7280 <core_bench_state+0xab4>
    6b58:	00160613          	addi	a2,a2,1
    6b5c:	00100f13          	li	t5,1
    6b60:	45e1470b          	th.lrw	a4,sp,t5,2
    6b64:	00170313          	addi	t1,a4,1
    6b68:	45e1530b          	th.srw	t1,sp,t5,2
    6b6c:	00064303          	lbu	t1,0(a2)
    6b70:	fa0316e3          	bnez	t1,6b1c <core_bench_state+0x350>
    6b74:	03c12c23          	sw	t3,56(sp)
    6b78:	03112623          	sw	a7,44(sp)
    6b7c:	03f12a23          	sw	t6,52(sp)
    6b80:	02812823          	sw	s0,48(sp)
    6b84:	03012423          	sw	a6,40(sp)
    6b88:	03d12023          	sw	t4,32(sp)
    6b8c:	02712223          	sw	t2,36(sp)
    6b90:	1924f263          	bgeu	s1,s2,6d14 <core_bench_state+0x548>
    6b94:	00100613          	li	a2,1
    6b98:	7eca9663          	bne	s5,a2,7384 <core_bench_state+0xbb8>
    6b9c:	02c00693          	li	a3,44
    6ba0:	fff4c813          	not	a6,s1
    6ba4:	010908b3          	add	a7,s2,a6
    6ba8:	0078fa13          	andi	s4,a7,7
    6bac:	0004ca83          	lbu	s5,0(s1)
    6bb0:	00da8663          	beq	s5,a3,6bbc <core_bench_state+0x3f0>
    6bb4:	013acbb3          	xor	s7,s5,s3
    6bb8:	01748023          	sb	s7,0(s1)
    6bbc:	00148713          	addi	a4,s1,1
    6bc0:	15277a63          	bgeu	a4,s2,6d14 <core_bench_state+0x548>
    6bc4:	0c0a0263          	beqz	s4,6c88 <core_bench_state+0x4bc>
    6bc8:	00100e13          	li	t3,1
    6bcc:	0bca0263          	beq	s4,t3,6c70 <core_bench_state+0x4a4>
    6bd0:	00200e93          	li	t4,2
    6bd4:	09da0463          	beq	s4,t4,6c5c <core_bench_state+0x490>
    6bd8:	00300f93          	li	t6,3
    6bdc:	07fa0663          	beq	s4,t6,6c48 <core_bench_state+0x47c>
    6be0:	00400f13          	li	t5,4
    6be4:	05ea0863          	beq	s4,t5,6c34 <core_bench_state+0x468>
    6be8:	00500393          	li	t2,5
    6bec:	027a0a63          	beq	s4,t2,6c20 <core_bench_state+0x454>
    6bf0:	00600313          	li	t1,6
    6bf4:	006a0c63          	beq	s4,t1,6c0c <core_bench_state+0x440>
    6bf8:	00074603          	lbu	a2,0(a4)
    6bfc:	00d60663          	beq	a2,a3,6c08 <core_bench_state+0x43c>
    6c00:	013642b3          	xor	t0,a2,s3
    6c04:	00570023          	sb	t0,0(a4)
    6c08:	00170713          	addi	a4,a4,1
    6c0c:	00074403          	lbu	s0,0(a4)
    6c10:	00d40663          	beq	s0,a3,6c1c <core_bench_state+0x450>
    6c14:	01344533          	xor	a0,s0,s3
    6c18:	00a70023          	sb	a0,0(a4)
    6c1c:	00170713          	addi	a4,a4,1
    6c20:	00074583          	lbu	a1,0(a4)
    6c24:	00d58663          	beq	a1,a3,6c30 <core_bench_state+0x464>
    6c28:	0135c833          	xor	a6,a1,s3
    6c2c:	01070023          	sb	a6,0(a4)
    6c30:	00170713          	addi	a4,a4,1
    6c34:	00074883          	lbu	a7,0(a4)
    6c38:	00d88663          	beq	a7,a3,6c44 <core_bench_state+0x478>
    6c3c:	0138ca33          	xor	s4,a7,s3
    6c40:	01470023          	sb	s4,0(a4)
    6c44:	00170713          	addi	a4,a4,1
    6c48:	00074a83          	lbu	s5,0(a4)
    6c4c:	00da8663          	beq	s5,a3,6c58 <core_bench_state+0x48c>
    6c50:	013acbb3          	xor	s7,s5,s3
    6c54:	01770023          	sb	s7,0(a4)
    6c58:	00170713          	addi	a4,a4,1
    6c5c:	00074e03          	lbu	t3,0(a4)
    6c60:	00de0663          	beq	t3,a3,6c6c <core_bench_state+0x4a0>
    6c64:	013e4eb3          	xor	t4,t3,s3
    6c68:	01d70023          	sb	t4,0(a4)
    6c6c:	00170713          	addi	a4,a4,1
    6c70:	00074f83          	lbu	t6,0(a4)
    6c74:	00df8663          	beq	t6,a3,6c80 <core_bench_state+0x4b4>
    6c78:	013fcf33          	xor	t5,t6,s3
    6c7c:	01e70023          	sb	t5,0(a4)
    6c80:	00170713          	addi	a4,a4,1
    6c84:	09277863          	bgeu	a4,s2,6d14 <core_bench_state+0x548>
    6c88:	00074383          	lbu	t2,0(a4)
    6c8c:	00d38663          	beq	t2,a3,6c98 <core_bench_state+0x4cc>
    6c90:	0133c333          	xor	t1,t2,s3
    6c94:	00670023          	sb	t1,0(a4)
    6c98:	00170613          	addi	a2,a4,1
    6c9c:	00174283          	lbu	t0,1(a4)
    6ca0:	00d28663          	beq	t0,a3,6cac <core_bench_state+0x4e0>
    6ca4:	0132c433          	xor	s0,t0,s3
    6ca8:	008700a3          	sb	s0,1(a4)
    6cac:	00164703          	lbu	a4,1(a2)
    6cb0:	00d70663          	beq	a4,a3,6cbc <core_bench_state+0x4f0>
    6cb4:	01374533          	xor	a0,a4,s3
    6cb8:	00a600a3          	sb	a0,1(a2)
    6cbc:	00264583          	lbu	a1,2(a2)
    6cc0:	00d58663          	beq	a1,a3,6ccc <core_bench_state+0x500>
    6cc4:	0135c833          	xor	a6,a1,s3
    6cc8:	01060123          	sb	a6,2(a2)
    6ccc:	00364883          	lbu	a7,3(a2)
    6cd0:	00d88663          	beq	a7,a3,6cdc <core_bench_state+0x510>
    6cd4:	0138ca33          	xor	s4,a7,s3
    6cd8:	014601a3          	sb	s4,3(a2)
    6cdc:	00464a83          	lbu	s5,4(a2)
    6ce0:	00da8663          	beq	s5,a3,6cec <core_bench_state+0x520>
    6ce4:	013acbb3          	xor	s7,s5,s3
    6ce8:	01760223          	sb	s7,4(a2)
    6cec:	00564e03          	lbu	t3,5(a2)
    6cf0:	00de0663          	beq	t3,a3,6cfc <core_bench_state+0x530>
    6cf4:	013e4eb3          	xor	t4,t3,s3
    6cf8:	01d602a3          	sb	t4,5(a2)
    6cfc:	00664f83          	lbu	t6,6(a2)
    6d00:	00df8663          	beq	t6,a3,6d0c <core_bench_state+0x540>
    6d04:	013fcf33          	xor	t5,t6,s3
    6d08:	01e60323          	sb	t5,6(a2)
    6d0c:	00760713          	addi	a4,a2,7
    6d10:	f7276ce3          	bltu	a4,s2,6c88 <core_bench_state+0x4bc>
    6d14:	320b1a63          	bnez	s6,7048 <core_bench_state+0x87c>
    6d18:	29c0006f          	j	6fb4 <core_bench_state+0x7e8>
    6d1c:	1de68063          	beq	a3,t5,6edc <core_bench_state+0x710>
    6d20:	00180813          	addi	a6,a6,1
    6d24:	00100893          	li	a7,1
    6d28:	45114c0b          	th.lrw	s8,sp,a7,2
    6d2c:	001c0693          	addi	a3,s8,1
    6d30:	4511568b          	th.srw	a3,sp,a7,2
    6d34:	00084883          	lbu	a7,0(a6)
    6d38:	be088ce3          	beqz	a7,6930 <core_bench_state+0x164>
    6d3c:	b7c89ae3          	bne	a7,t3,68b0 <core_bench_state+0xe4>
    6d40:	00000893          	li	a7,0
    6d44:	00180813          	addi	a6,a6,1
    6d48:	bd5ff06f          	j	691c <core_bench_state+0x150>
    6d4c:	00140413          	addi	s0,s0,1
    6d50:	00180c13          	addi	s8,a6,1
    6d54:	00184803          	lbu	a6,1(a6)
    6d58:	6a080063          	beqz	a6,73f8 <core_bench_state+0xc2c>
    6d5c:	6dc80063          	beq	a6,t3,741c <core_bench_state+0xc50>
    6d60:	0df87693          	andi	a3,a6,223
    6d64:	03268863          	beq	a3,s2,6d94 <core_bench_state+0x5c8>
    6d68:	fd080813          	addi	a6,a6,-48
    6d6c:	0ff87893          	zext.b	a7,a6
    6d70:	111ee263          	bltu	t4,a7,6e74 <core_bench_state+0x6a8>
    6d74:	001c0c13          	addi	s8,s8,1
    6d78:	000c4803          	lbu	a6,0(s8)
    6d7c:	6c080a63          	beqz	a6,7450 <core_bench_state+0xc84>
    6d80:	ffc810e3          	bne	a6,t3,6d60 <core_bench_state+0x594>
    6d84:	000c0813          	mv	a6,s8
    6d88:	00500893          	li	a7,5
    6d8c:	00180813          	addi	a6,a6,1
    6d90:	b8dff06f          	j	691c <core_bench_state+0x150>
    6d94:	00160613          	addi	a2,a2,1
    6d98:	001c0813          	addi	a6,s8,1
    6d9c:	001c4683          	lbu	a3,1(s8)
    6da0:	56068a63          	beqz	a3,7314 <core_bench_state+0xb48>
    6da4:	57c68c63          	beq	a3,t3,731c <core_bench_state+0xb50>
    6da8:	00b68c63          	beq	a3,a1,6dc0 <core_bench_state+0x5f4>
    6dac:	01768a63          	beq	a3,s7,6dc0 <core_bench_state+0x5f4>
    6db0:	00128293          	addi	t0,t0,1
    6db4:	002c0813          	addi	a6,s8,2
    6db8:	00100893          	li	a7,1
    6dbc:	f6dff06f          	j	6d28 <core_bench_state+0x55c>
    6dc0:	00128293          	addi	t0,t0,1
    6dc4:	002c0813          	addi	a6,s8,2
    6dc8:	002c4883          	lbu	a7,2(s8)
    6dcc:	54088063          	beqz	a7,730c <core_bench_state+0xb40>
    6dd0:	55c88c63          	beq	a7,t3,7328 <core_bench_state+0xb5c>
    6dd4:	00138393          	addi	t2,t2,1
    6dd8:	fd088813          	addi	a6,a7,-48
    6ddc:	0ff87693          	zext.b	a3,a6
    6de0:	02deee63          	bltu	t4,a3,6e1c <core_bench_state+0x650>
    6de4:	003c0813          	addi	a6,s8,3
    6de8:	003c4683          	lbu	a3,3(s8)
    6dec:	56068263          	beqz	a3,7350 <core_bench_state+0xb84>
    6df0:	55c68663          	beq	a3,t3,733c <core_bench_state+0xb70>
    6df4:	fd068c13          	addi	s8,a3,-48
    6df8:	0ffc7893          	zext.b	a7,s8
    6dfc:	031ee663          	bltu	t4,a7,6e28 <core_bench_state+0x65c>
    6e00:	00180813          	addi	a6,a6,1
    6e04:	00084683          	lbu	a3,0(a6)
    6e08:	54068063          	beqz	a3,7348 <core_bench_state+0xb7c>
    6e0c:	ffc694e3          	bne	a3,t3,6df4 <core_bench_state+0x628>
    6e10:	00700893          	li	a7,7
    6e14:	00180813          	addi	a6,a6,1
    6e18:	b05ff06f          	j	691c <core_bench_state+0x150>
    6e1c:	003c0813          	addi	a6,s8,3
    6e20:	00100893          	li	a7,1
    6e24:	f05ff06f          	j	6d28 <core_bench_state+0x55c>
    6e28:	00150513          	addi	a0,a0,1
    6e2c:	00180813          	addi	a6,a6,1
    6e30:	00100893          	li	a7,1
    6e34:	ef5ff06f          	j	6d28 <core_bench_state+0x55c>
    6e38:	00140413          	addi	s0,s0,1
    6e3c:	00180813          	addi	a6,a6,1
    6e40:	00100893          	li	a7,1
    6e44:	ee5ff06f          	j	6d28 <core_bench_state+0x55c>
    6e48:	fd088893          	addi	a7,a7,-48
    6e4c:	0ff8fc13          	zext.b	s8,a7
    6e50:	058eec63          	bltu	t4,s8,6ea8 <core_bench_state+0x6dc>
    6e54:	00170713          	addi	a4,a4,1
    6e58:	00180813          	addi	a6,a6,1
    6e5c:	00084c03          	lbu	s8,0(a6)
    6e60:	600c0863          	beqz	s8,7470 <core_bench_state+0xca4>
    6e64:	a9cc18e3          	bne	s8,t3,68f4 <core_bench_state+0x128>
    6e68:	00400893          	li	a7,4
    6e6c:	00180813          	addi	a6,a6,1
    6e70:	aadff06f          	j	691c <core_bench_state+0x150>
    6e74:	00160613          	addi	a2,a2,1
    6e78:	001c0813          	addi	a6,s8,1
    6e7c:	00100893          	li	a7,1
    6e80:	ea9ff06f          	j	6d28 <core_bench_state+0x55c>
    6e84:	00170713          	addi	a4,a4,1
    6e88:	00180c13          	addi	s8,a6,1
    6e8c:	00184803          	lbu	a6,1(a6)
    6e90:	5e080463          	beqz	a6,7478 <core_bench_state+0xcac>
    6e94:	edc816e3          	bne	a6,t3,6d60 <core_bench_state+0x594>
    6e98:	000c0813          	mv	a6,s8
    6e9c:	00500893          	li	a7,5
    6ea0:	00180813          	addi	a6,a6,1
    6ea4:	a79ff06f          	j	691c <core_bench_state+0x150>
    6ea8:	00150513          	addi	a0,a0,1
    6eac:	00170713          	addi	a4,a4,1
    6eb0:	00180813          	addi	a6,a6,1
    6eb4:	00100893          	li	a7,1
    6eb8:	e71ff06f          	j	6d28 <core_bench_state+0x55c>
    6ebc:	00170713          	addi	a4,a4,1
    6ec0:	00180813          	addi	a6,a6,1
    6ec4:	00084683          	lbu	a3,0(a6)
    6ec8:	5a068e63          	beqz	a3,7484 <core_bench_state+0xcb8>
    6ecc:	a1c694e3          	bne	a3,t3,68d4 <core_bench_state+0x108>
    6ed0:	00200893          	li	a7,2
    6ed4:	00180813          	addi	a6,a6,1
    6ed8:	a45ff06f          	j	691c <core_bench_state+0x150>
    6edc:	00180c13          	addi	s8,a6,1
    6ee0:	00184803          	lbu	a6,1(a6)
    6ee4:	5a080a63          	beqz	a6,7498 <core_bench_state+0xccc>
    6ee8:	e7c81ce3          	bne	a6,t3,6d60 <core_bench_state+0x594>
    6eec:	000c0813          	mv	a6,s8
    6ef0:	00500893          	li	a7,5
    6ef4:	00180813          	addi	a6,a6,1
    6ef8:	a25ff06f          	j	691c <core_bench_state+0x150>
    6efc:	04812c03          	lw	s8,72(sp)
    6f00:	00012903          	lw	s2,0(sp)
    6f04:	00191993          	slli	s3,s2,0x1
    6f08:	01312023          	sw	s3,0(sp)
    6f0c:	02012b03          	lw	s6,32(sp)
    6f10:	001b1693          	slli	a3,s6,0x1
    6f14:	02d12023          	sw	a3,32(sp)
    6f18:	00412383          	lw	t2,4(sp)
    6f1c:	00139313          	slli	t1,t2,0x1
    6f20:	00612223          	sw	t1,4(sp)
    6f24:	02412603          	lw	a2,36(sp)
    6f28:	00161293          	slli	t0,a2,0x1
    6f2c:	02512223          	sw	t0,36(sp)
    6f30:	00812403          	lw	s0,8(sp)
    6f34:	00141513          	slli	a0,s0,0x1
    6f38:	00a12423          	sw	a0,8(sp)
    6f3c:	02812583          	lw	a1,40(sp)
    6f40:	00159813          	slli	a6,a1,0x1
    6f44:	03012423          	sw	a6,40(sp)
    6f48:	00c12883          	lw	a7,12(sp)
    6f4c:	00189a13          	slli	s4,a7,0x1
    6f50:	01412623          	sw	s4,12(sp)
    6f54:	02c12a83          	lw	s5,44(sp)
    6f58:	001a9b93          	slli	s7,s5,0x1
    6f5c:	03712623          	sw	s7,44(sp)
    6f60:	01012e03          	lw	t3,16(sp)
    6f64:	001e1e93          	slli	t4,t3,0x1
    6f68:	01d12823          	sw	t4,16(sp)
    6f6c:	03012f83          	lw	t6,48(sp)
    6f70:	001f9f13          	slli	t5,t6,0x1
    6f74:	03e12823          	sw	t5,48(sp)
    6f78:	01412703          	lw	a4,20(sp)
    6f7c:	00171913          	slli	s2,a4,0x1
    6f80:	01212a23          	sw	s2,20(sp)
    6f84:	03412983          	lw	s3,52(sp)
    6f88:	00199b13          	slli	s6,s3,0x1
    6f8c:	03612a23          	sw	s6,52(sp)
    6f90:	01812683          	lw	a3,24(sp)
    6f94:	00169393          	slli	t2,a3,0x1
    6f98:	00712c23          	sw	t2,24(sp)
    6f9c:	03812303          	lw	t1,56(sp)
    6fa0:	00131613          	slli	a2,t1,0x1
    6fa4:	02c12c23          	sw	a2,56(sp)
    6fa8:	01c12283          	lw	t0,28(sp)
    6fac:	00129413          	slli	s0,t0,0x1
    6fb0:	00812e23          	sw	s0,28(sp)
    6fb4:	00010537          	lui	a0,0x10
    6fb8:	7e450593          	addi	a1,a0,2020 # 107e4 <zero_state_cache_valid.4>
    6fbc:	00012803          	lw	a6,0(sp)
    6fc0:	0105a623          	sw	a6,12(a1)
    6fc4:	00412883          	lw	a7,4(sp)
    6fc8:	0115a823          	sw	a7,16(a1)
    6fcc:	00812a03          	lw	s4,8(sp)
    6fd0:	0145aa23          	sw	s4,20(a1)
    6fd4:	00c12a83          	lw	s5,12(sp)
    6fd8:	0155ac23          	sw	s5,24(a1)
    6fdc:	01012b83          	lw	s7,16(sp)
    6fe0:	0175ae23          	sw	s7,28(a1)
    6fe4:	01412e03          	lw	t3,20(sp)
    6fe8:	03c5a023          	sw	t3,32(a1)
    6fec:	01812e83          	lw	t4,24(sp)
    6ff0:	03d5a223          	sw	t4,36(a1)
    6ff4:	01c12f83          	lw	t6,28(sp)
    6ff8:	03f5a423          	sw	t6,40(a1)
    6ffc:	02012f03          	lw	t5,32(sp)
    7000:	03e5a623          	sw	t5,44(a1)
    7004:	02412703          	lw	a4,36(sp)
    7008:	02e5a823          	sw	a4,48(a1)
    700c:	02812903          	lw	s2,40(sp)
    7010:	0325aa23          	sw	s2,52(a1)
    7014:	02c12983          	lw	s3,44(sp)
    7018:	0335ac23          	sw	s3,56(a1)
    701c:	03012b03          	lw	s6,48(sp)
    7020:	0365ae23          	sw	s6,60(a1)
    7024:	03412683          	lw	a3,52(sp)
    7028:	04d5a023          	sw	a3,64(a1)
    702c:	03812383          	lw	t2,56(sp)
    7030:	0475a223          	sw	t2,68(a1)
    7034:	0405a423          	sw	zero,72(a1)
    7038:	0195a223          	sw	s9,4(a1)
    703c:	0095a423          	sw	s1,8(a1)
    7040:	00100493          	li	s1,1
    7044:	00958023          	sb	s1,0(a1)
    7048:	00078593          	mv	a1,a5
    704c:	00100413          	li	s0,1
    7050:	02010c93          	addi	s9,sp,32
    7054:	00900a13          	li	s4,9
    7058:	202447b3          	sh2add	a5,s0,sp
    705c:	ffc7a503          	lw	a0,-4(a5)
    7060:	46d000ef          	jal	7ccc <crcu32>
    7064:	00050593          	mv	a1,a0
    7068:	21944333          	sh2add	t1,s0,s9
    706c:	ffc32503          	lw	a0,-4(t1)
    7070:	45d000ef          	jal	7ccc <crcu32>
    7074:	00050593          	mv	a1,a0
    7078:	00140413          	addi	s0,s0,1
    707c:	fd441ee3          	bne	s0,s4,7058 <core_bench_state+0x88c>
    7080:	04c12b83          	lw	s7,76(sp)
    7084:	00058513          	mv	a0,a1
    7088:	06c12083          	lw	ra,108(sp)
    708c:	06812403          	lw	s0,104(sp)
    7090:	06412483          	lw	s1,100(sp)
    7094:	06012903          	lw	s2,96(sp)
    7098:	05c12983          	lw	s3,92(sp)
    709c:	05812a03          	lw	s4,88(sp)
    70a0:	05412a83          	lw	s5,84(sp)
    70a4:	05012b03          	lw	s6,80(sp)
    70a8:	04412c83          	lw	s9,68(sp)
    70ac:	07010113          	addi	sp,sp,112
    70b0:	00008067          	ret
    70b4:	00160613          	addi	a2,a2,1
    70b8:	00064703          	lbu	a4,0(a2)
    70bc:	32070a63          	beqz	a4,73f0 <core_bench_state+0xc24>
    70c0:	24d70063          	beq	a4,a3,7300 <core_bench_state+0xb34>
    70c4:	02a70063          	beq	a4,a0,70e4 <core_bench_state+0x918>
    70c8:	fd070313          	addi	t1,a4,-48
    70cc:	0ff37f13          	zext.b	t5,t1
    70d0:	0fe5f863          	bgeu	a1,t5,71c0 <core_bench_state+0x9f4>
    70d4:	00140413          	addi	s0,s0,1
    70d8:	00160613          	addi	a2,a2,1
    70dc:	00100f13          	li	t5,1
    70e0:	a81ff06f          	j	6b60 <core_bench_state+0x394>
    70e4:	00140413          	addi	s0,s0,1
    70e8:	00160f13          	addi	t5,a2,1
    70ec:	00164703          	lbu	a4,1(a2)
    70f0:	34070a63          	beqz	a4,7444 <core_bench_state+0xc78>
    70f4:	32d70c63          	beq	a4,a3,742c <core_bench_state+0xc60>
    70f8:	0df77613          	andi	a2,a4,223
    70fc:	03460063          	beq	a2,s4,711c <core_bench_state+0x950>
    7100:	fd070313          	addi	t1,a4,-48
    7104:	0ff37713          	zext.b	a4,t1
    7108:	10e5f063          	bgeu	a1,a4,7208 <core_bench_state+0xa3c>
    710c:	001f8f93          	addi	t6,t6,1
    7110:	001f0613          	addi	a2,t5,1
    7114:	00100f13          	li	t5,1
    7118:	a49ff06f          	j	6b60 <core_bench_state+0x394>
    711c:	001f8f93          	addi	t6,t6,1
    7120:	001f0613          	addi	a2,t5,1
    7124:	001f4303          	lbu	t1,1(t5)
    7128:	28030c63          	beqz	t1,73c0 <core_bench_state+0xbf4>
    712c:	28d30463          	beq	t1,a3,73b4 <core_bench_state+0xbe8>
    7130:	00530c63          	beq	t1,t0,7148 <core_bench_state+0x97c>
    7134:	01730a63          	beq	t1,s7,7148 <core_bench_state+0x97c>
    7138:	00188893          	addi	a7,a7,1
    713c:	002f0613          	addi	a2,t5,2
    7140:	00100f13          	li	t5,1
    7144:	a1dff06f          	j	6b60 <core_bench_state+0x394>
    7148:	00188893          	addi	a7,a7,1
    714c:	002f0613          	addi	a2,t5,2
    7150:	002f4703          	lbu	a4,2(t5)
    7154:	24070c63          	beqz	a4,73ac <core_bench_state+0xbe0>
    7158:	26d70863          	beq	a4,a3,73c8 <core_bench_state+0xbfc>
    715c:	001e0e13          	addi	t3,t3,1
    7160:	fd070613          	addi	a2,a4,-48
    7164:	0ff67313          	zext.b	t1,a2
    7168:	0065f863          	bgeu	a1,t1,7178 <core_bench_state+0x9ac>
    716c:	003f0613          	addi	a2,t5,3
    7170:	00100f13          	li	t5,1
    7174:	9edff06f          	j	6b60 <core_bench_state+0x394>
    7178:	003f0613          	addi	a2,t5,3
    717c:	003f4303          	lbu	t1,3(t5)
    7180:	24030a63          	beqz	t1,73d4 <core_bench_state+0xc08>
    7184:	26d30063          	beq	t1,a3,73e4 <core_bench_state+0xc18>
    7188:	fd030f13          	addi	t5,t1,-48
    718c:	0fff7713          	zext.b	a4,t5
    7190:	00e5fa63          	bgeu	a1,a4,71a4 <core_bench_state+0x9d8>
    7194:	00138393          	addi	t2,t2,1
    7198:	00160613          	addi	a2,a2,1
    719c:	00100f13          	li	t5,1
    71a0:	9c1ff06f          	j	6b60 <core_bench_state+0x394>
    71a4:	00160613          	addi	a2,a2,1
    71a8:	00064303          	lbu	t1,0(a2)
    71ac:	22030863          	beqz	t1,73dc <core_bench_state+0xc10>
    71b0:	fcd31ce3          	bne	t1,a3,7188 <core_bench_state+0x9bc>
    71b4:	00700f13          	li	t5,7
    71b8:	00160613          	addi	a2,a2,1
    71bc:	9a5ff06f          	j	6b60 <core_bench_state+0x394>
    71c0:	00160613          	addi	a2,a2,1
    71c4:	00064703          	lbu	a4,0(a2)
    71c8:	26070a63          	beqz	a4,743c <core_bench_state+0xc70>
    71cc:	eed71ce3          	bne	a4,a3,70c4 <core_bench_state+0x8f8>
    71d0:	00400f13          	li	t5,4
    71d4:	00160613          	addi	a2,a2,1
    71d8:	989ff06f          	j	6b60 <core_bench_state+0x394>
    71dc:	fd030f13          	addi	t5,t1,-48
    71e0:	0fff7313          	zext.b	t1,t5
    71e4:	0665e463          	bltu	a1,t1,724c <core_bench_state+0xa80>
    71e8:	001e8e93          	addi	t4,t4,1
    71ec:	00160613          	addi	a2,a2,1
    71f0:	00064703          	lbu	a4,0(a2)
    71f4:	2e070263          	beqz	a4,74d8 <core_bench_state+0xd0c>
    71f8:	ecd716e3          	bne	a4,a3,70c4 <core_bench_state+0x8f8>
    71fc:	00400f13          	li	t5,4
    7200:	00160613          	addi	a2,a2,1
    7204:	95dff06f          	j	6b60 <core_bench_state+0x394>
    7208:	001f0f13          	addi	t5,t5,1
    720c:	000f4703          	lbu	a4,0(t5)
    7210:	28070a63          	beqz	a4,74a4 <core_bench_state+0xcd8>
    7214:	eed712e3          	bne	a4,a3,70f8 <core_bench_state+0x92c>
    7218:	000f0613          	mv	a2,t5
    721c:	00500f13          	li	t5,5
    7220:	00160613          	addi	a2,a2,1
    7224:	93dff06f          	j	6b60 <core_bench_state+0x394>
    7228:	001e8e93          	addi	t4,t4,1
    722c:	00160f13          	addi	t5,a2,1
    7230:	00164703          	lbu	a4,1(a2)
    7234:	28070263          	beqz	a4,74b8 <core_bench_state+0xcec>
    7238:	ecd710e3          	bne	a4,a3,70f8 <core_bench_state+0x92c>
    723c:	000f0613          	mv	a2,t5
    7240:	00500f13          	li	t5,5
    7244:	00160613          	addi	a2,a2,1
    7248:	919ff06f          	j	6b60 <core_bench_state+0x394>
    724c:	00138393          	addi	t2,t2,1
    7250:	001e8e93          	addi	t4,t4,1
    7254:	00160613          	addi	a2,a2,1
    7258:	00100f13          	li	t5,1
    725c:	905ff06f          	j	6b60 <core_bench_state+0x394>
    7260:	001e8e93          	addi	t4,t4,1
    7264:	00160613          	addi	a2,a2,1
    7268:	00064f03          	lbu	t5,0(a2)
    726c:	240f0263          	beqz	t5,74b0 <core_bench_state+0xce4>
    7270:	8cdf1ae3          	bne	t5,a3,6b44 <core_bench_state+0x378>
    7274:	00200f13          	li	t5,2
    7278:	00160613          	addi	a2,a2,1
    727c:	8e5ff06f          	j	6b60 <core_bench_state+0x394>
    7280:	00160f13          	addi	t5,a2,1
    7284:	00164703          	lbu	a4,1(a2)
    7288:	26070063          	beqz	a4,74e8 <core_bench_state+0xd1c>
    728c:	e6d716e3          	bne	a4,a3,70f8 <core_bench_state+0x92c>
    7290:	000f0613          	mv	a2,t5
    7294:	00500f13          	li	t5,5
    7298:	00160613          	addi	a2,a2,1
    729c:	8c5ff06f          	j	6b60 <core_bench_state+0x394>
    72a0:	00000f13          	li	t5,0
    72a4:	00160613          	addi	a2,a2,1
    72a8:	8b9ff06f          	j	6b60 <core_bench_state+0x394>
    72ac:	00400893          	li	a7,4
    72b0:	00180813          	addi	a6,a6,1
    72b4:	e68ff06f          	j	691c <core_bench_state+0x150>
    72b8:	0042a303          	lw	t1,4(t0)
    72bc:	d6a31263          	bne	t1,a0,6820 <core_bench_state+0x54>
    72c0:	0082a383          	lw	t2,8(t0)
    72c4:	d4b39e63          	bne	t2,a1,6820 <core_bench_state+0x54>
    72c8:	00078593          	mv	a1,a5
    72cc:	00000b13          	li	s6,0
    72d0:	00c28a93          	addi	s5,t0,12
    72d4:	02c28993          	addi	s3,t0,44
    72d8:	00800913          	li	s2,8
    72dc:	456ac50b          	th.lrw	a0,s5,s6,2
    72e0:	1ed000ef          	jal	7ccc <crcu32>
    72e4:	00050593          	mv	a1,a0
    72e8:	4569c50b          	th.lrw	a0,s3,s6,2
    72ec:	1e1000ef          	jal	7ccc <crcu32>
    72f0:	00050593          	mv	a1,a0
    72f4:	001b0b13          	addi	s6,s6,1
    72f8:	ff2b12e3          	bne	s6,s2,72dc <core_bench_state+0xb10>
    72fc:	d89ff06f          	j	7084 <core_bench_state+0x8b8>
    7300:	00400f13          	li	t5,4
    7304:	00160613          	addi	a2,a2,1
    7308:	859ff06f          	j	6b60 <core_bench_state+0x394>
    730c:	00600893          	li	a7,6
    7310:	a19ff06f          	j	6d28 <core_bench_state+0x55c>
    7314:	00300893          	li	a7,3
    7318:	a11ff06f          	j	6d28 <core_bench_state+0x55c>
    731c:	00300893          	li	a7,3
    7320:	00180813          	addi	a6,a6,1
    7324:	df8ff06f          	j	691c <core_bench_state+0x150>
    7328:	00600893          	li	a7,6
    732c:	00180813          	addi	a6,a6,1
    7330:	decff06f          	j	691c <core_bench_state+0x150>
    7334:	00400893          	li	a7,4
    7338:	9f1ff06f          	j	6d28 <core_bench_state+0x55c>
    733c:	00700893          	li	a7,7
    7340:	00180813          	addi	a6,a6,1
    7344:	dd8ff06f          	j	691c <core_bench_state+0x150>
    7348:	00700893          	li	a7,7
    734c:	9ddff06f          	j	6d28 <core_bench_state+0x55c>
    7350:	00700893          	li	a7,7
    7354:	9d5ff06f          	j	6d28 <core_bench_state+0x55c>
    7358:	00048713          	mv	a4,s1
    735c:	02c00f93          	li	t6,44
    7360:	00074403          	lbu	s0,0(a4)
    7364:	01f40663          	beq	s0,t6,7370 <core_bench_state+0xba4>
    7368:	01444633          	xor	a2,s0,s4
    736c:	00c70023          	sb	a2,0(a4)
    7370:	01570733          	add	a4,a4,s5
    7374:	ff2766e3          	bltu	a4,s2,7360 <core_bench_state+0xb94>
    7378:	0004c303          	lbu	t1,0(s1)
    737c:	f6031463          	bnez	t1,6ae4 <core_bench_state+0x318>
    7380:	9924fae3          	bgeu	s1,s2,6d14 <core_bench_state+0x548>
    7384:	00048593          	mv	a1,s1
    7388:	02c00293          	li	t0,44
    738c:	0005c403          	lbu	s0,0(a1)
    7390:	00540663          	beq	s0,t0,739c <core_bench_state+0xbd0>
    7394:	01344533          	xor	a0,s0,s3
    7398:	00a58023          	sb	a0,0(a1)
    739c:	015585b3          	add	a1,a1,s5
    73a0:	ff25e6e3          	bltu	a1,s2,738c <core_bench_state+0xbc0>
    73a4:	ca0b12e3          	bnez	s6,7048 <core_bench_state+0x87c>
    73a8:	c0dff06f          	j	6fb4 <core_bench_state+0x7e8>
    73ac:	00600f13          	li	t5,6
    73b0:	fb0ff06f          	j	6b60 <core_bench_state+0x394>
    73b4:	00300f13          	li	t5,3
    73b8:	00160613          	addi	a2,a2,1
    73bc:	fa4ff06f          	j	6b60 <core_bench_state+0x394>
    73c0:	00300f13          	li	t5,3
    73c4:	f9cff06f          	j	6b60 <core_bench_state+0x394>
    73c8:	00600f13          	li	t5,6
    73cc:	00160613          	addi	a2,a2,1
    73d0:	f90ff06f          	j	6b60 <core_bench_state+0x394>
    73d4:	00700f13          	li	t5,7
    73d8:	f88ff06f          	j	6b60 <core_bench_state+0x394>
    73dc:	00700f13          	li	t5,7
    73e0:	f80ff06f          	j	6b60 <core_bench_state+0x394>
    73e4:	00700f13          	li	t5,7
    73e8:	00160613          	addi	a2,a2,1
    73ec:	f74ff06f          	j	6b60 <core_bench_state+0x394>
    73f0:	00400f13          	li	t5,4
    73f4:	f6cff06f          	j	6b60 <core_bench_state+0x394>
    73f8:	000c0813          	mv	a6,s8
    73fc:	00500893          	li	a7,5
    7400:	929ff06f          	j	6d28 <core_bench_state+0x55c>
    7404:	ae0b0ee3          	beqz	s6,6f00 <core_bench_state+0x734>
    7408:	01948933          	add	s2,s1,s9
    740c:	d524e863          	bltu	s1,s2,695c <core_bench_state+0x190>
    7410:	c39ff06f          	j	7048 <core_bench_state+0x87c>
    7414:	00400893          	li	a7,4
    7418:	911ff06f          	j	6d28 <core_bench_state+0x55c>
    741c:	000c0813          	mv	a6,s8
    7420:	00500893          	li	a7,5
    7424:	00180813          	addi	a6,a6,1
    7428:	cf4ff06f          	j	691c <core_bench_state+0x150>
    742c:	000f0613          	mv	a2,t5
    7430:	00500f13          	li	t5,5
    7434:	00160613          	addi	a2,a2,1
    7438:	f28ff06f          	j	6b60 <core_bench_state+0x394>
    743c:	00400f13          	li	t5,4
    7440:	f20ff06f          	j	6b60 <core_bench_state+0x394>
    7444:	000f0613          	mv	a2,t5
    7448:	00500f13          	li	t5,5
    744c:	f14ff06f          	j	6b60 <core_bench_state+0x394>
    7450:	000c0813          	mv	a6,s8
    7454:	00500893          	li	a7,5
    7458:	8d1ff06f          	j	6d28 <core_bench_state+0x55c>
    745c:	00200893          	li	a7,2
    7460:	00180813          	addi	a6,a6,1
    7464:	cb8ff06f          	j	691c <core_bench_state+0x150>
    7468:	00200893          	li	a7,2
    746c:	8bdff06f          	j	6d28 <core_bench_state+0x55c>
    7470:	00400893          	li	a7,4
    7474:	8b5ff06f          	j	6d28 <core_bench_state+0x55c>
    7478:	000c0813          	mv	a6,s8
    747c:	00500893          	li	a7,5
    7480:	8a9ff06f          	j	6d28 <core_bench_state+0x55c>
    7484:	00200893          	li	a7,2
    7488:	8a1ff06f          	j	6d28 <core_bench_state+0x55c>
    748c:	f124e863          	bltu	s1,s2,6b9c <core_bench_state+0x3d0>
    7490:	ba0b1ce3          	bnez	s6,7048 <core_bench_state+0x87c>
    7494:	b21ff06f          	j	6fb4 <core_bench_state+0x7e8>
    7498:	000c0813          	mv	a6,s8
    749c:	00500893          	li	a7,5
    74a0:	889ff06f          	j	6d28 <core_bench_state+0x55c>
    74a4:	000f0613          	mv	a2,t5
    74a8:	00500f13          	li	t5,5
    74ac:	eb4ff06f          	j	6b60 <core_bench_state+0x394>
    74b0:	00200f13          	li	t5,2
    74b4:	eacff06f          	j	6b60 <core_bench_state+0x394>
    74b8:	000f0613          	mv	a2,t5
    74bc:	00500f13          	li	t5,5
    74c0:	ea0ff06f          	j	6b60 <core_bench_state+0x394>
    74c4:	00200f13          	li	t5,2
    74c8:	e98ff06f          	j	6b60 <core_bench_state+0x394>
    74cc:	00200f13          	li	t5,2
    74d0:	00160613          	addi	a2,a2,1
    74d4:	e8cff06f          	j	6b60 <core_bench_state+0x394>
    74d8:	00400f13          	li	t5,4
    74dc:	e84ff06f          	j	6b60 <core_bench_state+0x394>
    74e0:	04812c03          	lw	s8,72(sp)
    74e4:	e00ff06f          	j	6ae4 <core_bench_state+0x318>
    74e8:	000f0613          	mv	a2,t5
    74ec:	00500f13          	li	t5,5
    74f0:	e70ff06f          	j	6b60 <core_bench_state+0x394>

000074f4 <core_init_state>:
    74f4:	fff50313          	addi	t1,a0,-1
    74f8:	00100f93          	li	t6,1
    74fc:	2a6ff863          	bgeu	t6,t1,77ac <core_init_state+0x2b8>
    7500:	01f585b3          	add	a1,a1,t6
    7504:	00000793          	li	a5,0
    7508:	00700e13          	li	t3,7
    750c:	0000ceb7          	lui	t4,0xc
    7510:	318e8e93          	addi	t4,t4,792 # c318 <floatpat>
    7514:	00400f13          	li	t5,4
    7518:	02c00293          	li	t0,44
    751c:	0075f713          	andi	a4,a1,7
    7520:	1035b68b          	th.extu	a3,a1,4,3
    7524:	07c70863          	beq	a4,t3,7594 <core_init_state+0xa0>
    7528:	24ef6863          	bltu	t5,a4,7778 <core_init_state+0x284>
    752c:	ffd70893          	addi	a7,a4,-3
    7530:	3c08b70b          	th.extu	a4,a7,15,0
    7534:	06efe663          	bltu	t6,a4,75a0 <core_init_state+0xac>
    7538:	44dec68b          	th.lrw	a3,t4,a3,2
    753c:	00978893          	addi	a7,a5,9
    7540:	00158593          	addi	a1,a1,1
    7544:	0668f263          	bgeu	a7,t1,75a8 <core_init_state+0xb4>
    7548:	00f60833          	add	a6,a2,a5
    754c:	00d86733          	or	a4,a6,a3
    7550:	00377393          	andi	t2,a4,3
    7554:	22039863          	bnez	t2,7784 <core_init_state+0x290>
    7558:	40d80733          	sub	a4,a6,a3
    755c:	fff70393          	addi	t2,a4,-1
    7560:	0033b713          	sltiu	a4,t2,3
    7564:	22071063          	bnez	a4,7784 <core_init_state+0x290>
    7568:	0006a383          	lw	t2,0(a3)
    756c:	40f6538b          	th.srw	t2,a2,a5,0
    7570:	0046a683          	lw	a3,4(a3)
    7574:	00d82223          	sw	a3,4(a6)
    7578:	00800713          	li	a4,8
    757c:	00f607b3          	add	a5,a2,a5
    7580:	00e7d28b          	th.srb	t0,a5,a4,0
    7584:	00088793          	mv	a5,a7
    7588:	0075f713          	andi	a4,a1,7
    758c:	1035b68b          	th.extu	a3,a1,4,3
    7590:	f9c71ce3          	bne	a4,t3,7528 <core_init_state+0x34>
    7594:	21d6c3b3          	sh2add	t2,a3,t4
    7598:	0203a683          	lw	a3,32(t2)
    759c:	fa1ff06f          	j	753c <core_init_state+0x48>
    75a0:	00578893          	addi	a7,a5,5
    75a4:	1668e063          	bltu	a7,t1,7704 <core_init_state+0x210>
    75a8:	1ca7f663          	bgeu	a5,a0,7774 <core_init_state+0x280>
    75ac:	00178393          	addi	t2,a5,1
    75b0:	40f502b3          	sub	t0,a0,a5
    75b4:	00753333          	sltu	t1,a0,t2
    75b8:	00100e13          	li	t3,1
    75bc:	40629e0b          	th.mveqz	t3,t0,t1
    75c0:	00f60f33          	add	t5,a2,a5
    75c4:	41e00fb3          	neg	t6,t5
    75c8:	003ffe93          	andi	t4,t6,3
    75cc:	fff28813          	addi	a6,t0,-1
    75d0:	00683693          	sltiu	a3,a6,6
    75d4:	0e069663          	bnez	a3,76c0 <core_init_state+0x1cc>
    75d8:	0e031463          	bnez	t1,76c0 <core_init_state+0x1cc>
    75dc:	1a0e8e63          	beqz	t4,7798 <core_init_state+0x2a4>
    75e0:	00f6500b          	th.srb	zero,a2,a5,0
    75e4:	002ff713          	andi	a4,t6,2
    75e8:	00070e63          	beqz	a4,7604 <core_init_state+0x110>
    75ec:	0076500b          	th.srb	zero,a2,t2,0
    75f0:	00278393          	addi	t2,a5,2
    75f4:	00300893          	li	a7,3
    75f8:	011e9663          	bne	t4,a7,7604 <core_init_state+0x110>
    75fc:	0076500b          	th.srb	zero,a2,t2,0
    7600:	011783b3          	add	t2,a5,a7
    7604:	41de05b3          	sub	a1,t3,t4
    7608:	01d787b3          	add	a5,a5,t4
    760c:	00f60733          	add	a4,a2,a5
    7610:	ffc5f293          	andi	t0,a1,-4
    7614:	00e28e33          	add	t3,t0,a4
    7618:	ffc28313          	addi	t1,t0,-4
    761c:	00235f13          	srli	t5,t1,0x2
    7620:	001f0f93          	addi	t6,t5,1
    7624:	007ffe93          	andi	t4,t6,7
    7628:	060e8463          	beqz	t4,7690 <core_init_state+0x19c>
    762c:	00100813          	li	a6,1
    7630:	050e8a63          	beq	t4,a6,7684 <core_init_state+0x190>
    7634:	00200693          	li	a3,2
    7638:	04de8263          	beq	t4,a3,767c <core_init_state+0x188>
    763c:	00300893          	li	a7,3
    7640:	031e8a63          	beq	t4,a7,7674 <core_init_state+0x180>
    7644:	00400793          	li	a5,4
    7648:	02fe8263          	beq	t4,a5,766c <core_init_state+0x178>
    764c:	00500313          	li	t1,5
    7650:	006e8a63          	beq	t4,t1,7664 <core_init_state+0x170>
    7654:	00600f13          	li	t5,6
    7658:	15ee9463          	bne	t4,t5,77a0 <core_init_state+0x2ac>
    765c:	00072023          	sw	zero,0(a4)
    7660:	00470713          	addi	a4,a4,4
    7664:	00072023          	sw	zero,0(a4)
    7668:	00470713          	addi	a4,a4,4
    766c:	00072023          	sw	zero,0(a4)
    7670:	00470713          	addi	a4,a4,4
    7674:	00072023          	sw	zero,0(a4)
    7678:	00470713          	addi	a4,a4,4
    767c:	00072023          	sw	zero,0(a4)
    7680:	00470713          	addi	a4,a4,4
    7684:	00072023          	sw	zero,0(a4)
    7688:	00470713          	addi	a4,a4,4
    768c:	02ee0663          	beq	t3,a4,76b8 <core_init_state+0x1c4>
    7690:	00072023          	sw	zero,0(a4)
    7694:	00072223          	sw	zero,4(a4)
    7698:	00072423          	sw	zero,8(a4)
    769c:	00072623          	sw	zero,12(a4)
    76a0:	00072823          	sw	zero,16(a4)
    76a4:	00072a23          	sw	zero,20(a4)
    76a8:	00072c23          	sw	zero,24(a4)
    76ac:	00072e23          	sw	zero,28(a4)
    76b0:	02070713          	addi	a4,a4,32
    76b4:	fcee1ee3          	bne	t3,a4,7690 <core_init_state+0x19c>
    76b8:	0ab28e63          	beq	t0,a1,7774 <core_init_state+0x280>
    76bc:	007287b3          	add	a5,t0,t2
    76c0:	00f6500b          	th.srb	zero,a2,a5,0
    76c4:	00178393          	addi	t2,a5,1
    76c8:	0aa3f663          	bgeu	t2,a0,7774 <core_init_state+0x280>
    76cc:	0076500b          	th.srb	zero,a2,t2,0
    76d0:	00278593          	addi	a1,a5,2
    76d4:	0aa5f063          	bgeu	a1,a0,7774 <core_init_state+0x280>
    76d8:	00b6500b          	th.srb	zero,a2,a1,0
    76dc:	00378293          	addi	t0,a5,3
    76e0:	08a2fa63          	bgeu	t0,a0,7774 <core_init_state+0x280>
    76e4:	0056500b          	th.srb	zero,a2,t0,0
    76e8:	00478e13          	addi	t3,a5,4
    76ec:	08ae7463          	bgeu	t3,a0,7774 <core_init_state+0x280>
    76f0:	01c6500b          	th.srb	zero,a2,t3,0
    76f4:	00578f93          	addi	t6,a5,5
    76f8:	06affe63          	bgeu	t6,a0,7774 <core_init_state+0x280>
    76fc:	01f6500b          	th.srb	zero,a2,t6,0
    7700:	00008067          	ret
    7704:	0000c3b7          	lui	t2,0xc
    7708:	31838813          	addi	a6,t2,792 # c318 <floatpat>
    770c:	2106c6b3          	sh2add	a3,a3,a6
    7710:	0306a683          	lw	a3,48(a3)
    7714:	00178393          	addi	t2,a5,1
    7718:	00158593          	addi	a1,a1,1
    771c:	0006c703          	lbu	a4,0(a3)
    7720:	00f6570b          	th.srb	a4,a2,a5,0
    7724:	00400713          	li	a4,4
    7728:	0016c803          	lbu	a6,1(a3)
    772c:	0076580b          	th.srb	a6,a2,t2,0
    7730:	0026c383          	lbu	t2,2(a3)
    7734:	00f60833          	add	a6,a2,a5
    7738:	00780123          	sb	t2,2(a6)
    773c:	0036c383          	lbu	t2,3(a3)
    7740:	007801a3          	sb	t2,3(a6)
    7744:	00400393          	li	t2,4
    7748:	e2770ae3          	beq	a4,t2,757c <core_init_state+0x88>
    774c:	0046c703          	lbu	a4,4(a3)
    7750:	00e80223          	sb	a4,4(a6)
    7754:	0056c383          	lbu	t2,5(a3)
    7758:	007802a3          	sb	t2,5(a6)
    775c:	0066c703          	lbu	a4,6(a3)
    7760:	00e80323          	sb	a4,6(a6)
    7764:	0076c683          	lbu	a3,7(a3)
    7768:	00d803a3          	sb	a3,7(a6)
    776c:	00800713          	li	a4,8
    7770:	e0dff06f          	j	757c <core_init_state+0x88>
    7774:	00008067          	ret
    7778:	21d6c833          	sh2add	a6,a3,t4
    777c:	01082683          	lw	a3,16(a6)
    7780:	dbdff06f          	j	753c <core_init_state+0x48>
    7784:	00178393          	addi	t2,a5,1
    7788:	0006c703          	lbu	a4,0(a3)
    778c:	00e80023          	sb	a4,0(a6)
    7790:	00800713          	li	a4,8
    7794:	f95ff06f          	j	7728 <core_init_state+0x234>
    7798:	00078393          	mv	t2,a5
    779c:	e69ff06f          	j	7604 <core_init_state+0x110>
    77a0:	00072023          	sw	zero,0(a4)
    77a4:	00470713          	addi	a4,a4,4
    77a8:	eb5ff06f          	j	765c <core_init_state+0x168>
    77ac:	00000793          	li	a5,0
    77b0:	f11ff06f          	j	76c0 <core_init_state+0x1cc>

000077b4 <core_state_transition>:
    77b4:	00052783          	lw	a5,0(a0)
    77b8:	0007c703          	lbu	a4,0(a5)
    77bc:	06070863          	beqz	a4,782c <core_state_transition+0x78>
    77c0:	02c00693          	li	a3,44
    77c4:	2cd70063          	beq	a4,a3,7a84 <core_state_transition+0x2d0>
    77c8:	02e00613          	li	a2,46
    77cc:	26c70063          	beq	a4,a2,7a2c <core_state_transition+0x278>
    77d0:	22e66063          	bltu	a2,a4,79f0 <core_state_transition+0x23c>
    77d4:	02b00e93          	li	t4,43
    77d8:	07d70063          	beq	a4,t4,7838 <core_state_transition+0x84>
    77dc:	02d00613          	li	a2,45
    77e0:	26c71c63          	bne	a4,a2,7a58 <core_state_transition+0x2a4>
    77e4:	0005a703          	lw	a4,0(a1)
    77e8:	00170293          	addi	t0,a4,1
    77ec:	0055a023          	sw	t0,0(a1)
    77f0:	00178713          	addi	a4,a5,1
    77f4:	0017c303          	lbu	t1,1(a5)
    77f8:	34030063          	beqz	t1,7b38 <core_state_transition+0x384>
    77fc:	28d30a63          	beq	t1,a3,7a90 <core_state_transition+0x2dc>
    7800:	0085a783          	lw	a5,8(a1)
    7804:	00178693          	addi	a3,a5,1
    7808:	fd030393          	addi	t2,t1,-48
    780c:	0ff3f893          	zext.b	a7,t2
    7810:	00900813          	li	a6,9
    7814:	05187c63          	bgeu	a6,a7,786c <core_state_transition+0xb8>
    7818:	02e00e13          	li	t3,46
    781c:	27c30063          	beq	t1,t3,7a7c <core_state_transition+0x2c8>
    7820:	00d5a423          	sw	a3,8(a1)
    7824:	00170793          	addi	a5,a4,1
    7828:	00100713          	li	a4,1
    782c:	00f52023          	sw	a5,0(a0)
    7830:	00070513          	mv	a0,a4
    7834:	00008067          	ret
    7838:	0005af03          	lw	t5,0(a1)
    783c:	001f0f93          	addi	t6,t5,1
    7840:	01f5a023          	sw	t6,0(a1)
    7844:	00178713          	addi	a4,a5,1
    7848:	0017c303          	lbu	t1,1(a5)
    784c:	2c030a63          	beqz	t1,7b20 <core_state_transition+0x36c>
    7850:	fad318e3          	bne	t1,a3,7800 <core_state_transition+0x4c>
    7854:	00070793          	mv	a5,a4
    7858:	00200713          	li	a4,2
    785c:	00178793          	addi	a5,a5,1
    7860:	00f52023          	sw	a5,0(a0)
    7864:	00070513          	mv	a0,a4
    7868:	00008067          	ret
    786c:	00d5a423          	sw	a3,8(a1)
    7870:	00170713          	addi	a4,a4,1
    7874:	00074e83          	lbu	t4,0(a4)
    7878:	280e8863          	beqz	t4,7b08 <core_state_transition+0x354>
    787c:	02c00f13          	li	t5,44
    7880:	27ee8c63          	beq	t4,t5,7af8 <core_state_transition+0x344>
    7884:	02e00f93          	li	t6,46
    7888:	03fe8a63          	beq	t4,t6,78bc <core_state_transition+0x108>
    788c:	fd0e8613          	addi	a2,t4,-48
    7890:	0ff67293          	zext.b	t0,a2
    7894:	00900313          	li	t1,9
    7898:	fc537ce3          	bgeu	t1,t0,7870 <core_state_transition+0xbc>
    789c:	0105a683          	lw	a3,16(a1)
    78a0:	00168393          	addi	t2,a3,1
    78a4:	0075a823          	sw	t2,16(a1)
    78a8:	00170793          	addi	a5,a4,1
    78ac:	00100713          	li	a4,1
    78b0:	00f52023          	sw	a5,0(a0)
    78b4:	00070513          	mv	a0,a4
    78b8:	00008067          	ret
    78bc:	0105a883          	lw	a7,16(a1)
    78c0:	00188813          	addi	a6,a7,1
    78c4:	0105a823          	sw	a6,16(a1)
    78c8:	00170713          	addi	a4,a4,1
    78cc:	00074e03          	lbu	t3,0(a4)
    78d0:	1e0e0c63          	beqz	t3,7ac8 <core_state_transition+0x314>
    78d4:	02c00e93          	li	t4,44
    78d8:	21de0863          	beq	t3,t4,7ae8 <core_state_transition+0x334>
    78dc:	0dfe7793          	andi	a5,t3,223
    78e0:	04500f13          	li	t5,69
    78e4:	03e78a63          	beq	a5,t5,7918 <core_state_transition+0x164>
    78e8:	fd0e0f93          	addi	t6,t3,-48
    78ec:	0ffff613          	zext.b	a2,t6
    78f0:	00900293          	li	t0,9
    78f4:	fcc2fae3          	bgeu	t0,a2,78c8 <core_state_transition+0x114>
    78f8:	0145a303          	lw	t1,20(a1)
    78fc:	00130693          	addi	a3,t1,1
    7900:	00d5aa23          	sw	a3,20(a1)
    7904:	00170793          	addi	a5,a4,1
    7908:	00100713          	li	a4,1
    790c:	00f52023          	sw	a5,0(a0)
    7910:	00070513          	mv	a0,a4
    7914:	00008067          	ret
    7918:	0145a383          	lw	t2,20(a1)
    791c:	00138893          	addi	a7,t2,1
    7920:	0115aa23          	sw	a7,20(a1)
    7924:	00170793          	addi	a5,a4,1
    7928:	00174803          	lbu	a6,1(a4)
    792c:	16080e63          	beqz	a6,7aa8 <core_state_transition+0x2f4>
    7930:	02c00e13          	li	t3,44
    7934:	19c80463          	beq	a6,t3,7abc <core_state_transition+0x308>
    7938:	02b00e93          	li	t4,43
    793c:	03d80663          	beq	a6,t4,7968 <core_state_transition+0x1b4>
    7940:	02d00793          	li	a5,45
    7944:	02f80263          	beq	a6,a5,7968 <core_state_transition+0x1b4>
    7948:	00c5af03          	lw	t5,12(a1)
    794c:	001f0f93          	addi	t6,t5,1
    7950:	01f5a623          	sw	t6,12(a1)
    7954:	00270793          	addi	a5,a4,2
    7958:	00100713          	li	a4,1
    795c:	00f52023          	sw	a5,0(a0)
    7960:	00070513          	mv	a0,a4
    7964:	00008067          	ret
    7968:	00c5a603          	lw	a2,12(a1)
    796c:	00160293          	addi	t0,a2,1
    7970:	0055a623          	sw	t0,12(a1)
    7974:	00270793          	addi	a5,a4,2
    7978:	00274303          	lbu	t1,2(a4)
    797c:	12030263          	beqz	t1,7aa0 <core_state_transition+0x2ec>
    7980:	02c00693          	li	a3,44
    7984:	12d30663          	beq	t1,a3,7ab0 <core_state_transition+0x2fc>
    7988:	0185a383          	lw	t2,24(a1)
    798c:	00138893          	addi	a7,t2,1
    7990:	fd030813          	addi	a6,t1,-48
    7994:	0ff87e13          	zext.b	t3,a6
    7998:	00900613          	li	a2,9
    799c:	01c67a63          	bgeu	a2,t3,79b0 <core_state_transition+0x1fc>
    79a0:	0115ac23          	sw	a7,24(a1)
    79a4:	00370793          	addi	a5,a4,3
    79a8:	00100713          	li	a4,1
    79ac:	e81ff06f          	j	782c <core_state_transition+0x78>
    79b0:	0115ac23          	sw	a7,24(a1)
    79b4:	00078e93          	mv	t4,a5
    79b8:	00178793          	addi	a5,a5,1
    79bc:	0007cf03          	lbu	t5,0(a5)
    79c0:	100f0a63          	beqz	t5,7ad4 <core_state_transition+0x320>
    79c4:	02c00f93          	li	t6,44
    79c8:	11ff0a63          	beq	t5,t6,7adc <core_state_transition+0x328>
    79cc:	fd0f0293          	addi	t0,t5,-48
    79d0:	0ff2f313          	zext.b	t1,t0
    79d4:	fe6670e3          	bgeu	a2,t1,79b4 <core_state_transition+0x200>
    79d8:	0045a783          	lw	a5,4(a1)
    79dc:	00178713          	addi	a4,a5,1
    79e0:	00e5a223          	sw	a4,4(a1)
    79e4:	002e8793          	addi	a5,t4,2
    79e8:	00100713          	li	a4,1
    79ec:	e41ff06f          	j	782c <core_state_transition+0x78>
    79f0:	fd070313          	addi	t1,a4,-48
    79f4:	0ff37393          	zext.b	t2,t1
    79f8:	00900813          	li	a6,9
    79fc:	04786e63          	bltu	a6,t2,7a58 <core_state_transition+0x2a4>
    7a00:	0005a883          	lw	a7,0(a1)
    7a04:	00188e13          	addi	t3,a7,1
    7a08:	01c5a023          	sw	t3,0(a1)
    7a0c:	00178713          	addi	a4,a5,1
    7a10:	0017ce83          	lbu	t4,1(a5)
    7a14:	100e8063          	beqz	t4,7b14 <core_state_transition+0x360>
    7a18:	e6de96e3          	bne	t4,a3,7884 <core_state_transition+0xd0>
    7a1c:	00070793          	mv	a5,a4
    7a20:	00400713          	li	a4,4
    7a24:	00178793          	addi	a5,a5,1
    7a28:	e39ff06f          	j	7860 <core_state_transition+0xac>
    7a2c:	0005a703          	lw	a4,0(a1)
    7a30:	00170293          	addi	t0,a4,1
    7a34:	0055a023          	sw	t0,0(a1)
    7a38:	00178713          	addi	a4,a5,1
    7a3c:	0017ce03          	lbu	t3,1(a5)
    7a40:	0e0e0663          	beqz	t3,7b2c <core_state_transition+0x378>
    7a44:	e8de1ce3          	bne	t3,a3,78dc <core_state_transition+0x128>
    7a48:	00070793          	mv	a5,a4
    7a4c:	00500713          	li	a4,5
    7a50:	00178793          	addi	a5,a5,1
    7a54:	e0dff06f          	j	7860 <core_state_transition+0xac>
    7a58:	0045a683          	lw	a3,4(a1)
    7a5c:	00168393          	addi	t2,a3,1
    7a60:	0075a223          	sw	t2,4(a1)
    7a64:	0005a883          	lw	a7,0(a1)
    7a68:	00188813          	addi	a6,a7,1
    7a6c:	0105a023          	sw	a6,0(a1)
    7a70:	00178793          	addi	a5,a5,1
    7a74:	00100713          	li	a4,1
    7a78:	db5ff06f          	j	782c <core_state_transition+0x78>
    7a7c:	00d5a423          	sw	a3,8(a1)
    7a80:	e49ff06f          	j	78c8 <core_state_transition+0x114>
    7a84:	00000713          	li	a4,0
    7a88:	00178793          	addi	a5,a5,1
    7a8c:	dd5ff06f          	j	7860 <core_state_transition+0xac>
    7a90:	00070793          	mv	a5,a4
    7a94:	00200713          	li	a4,2
    7a98:	00178793          	addi	a5,a5,1
    7a9c:	dc5ff06f          	j	7860 <core_state_transition+0xac>
    7aa0:	00600713          	li	a4,6
    7aa4:	d89ff06f          	j	782c <core_state_transition+0x78>
    7aa8:	00300713          	li	a4,3
    7aac:	d81ff06f          	j	782c <core_state_transition+0x78>
    7ab0:	00600713          	li	a4,6
    7ab4:	00178793          	addi	a5,a5,1
    7ab8:	da9ff06f          	j	7860 <core_state_transition+0xac>
    7abc:	00300713          	li	a4,3
    7ac0:	00178793          	addi	a5,a5,1
    7ac4:	d9dff06f          	j	7860 <core_state_transition+0xac>
    7ac8:	00070793          	mv	a5,a4
    7acc:	00500713          	li	a4,5
    7ad0:	d5dff06f          	j	782c <core_state_transition+0x78>
    7ad4:	00700713          	li	a4,7
    7ad8:	d55ff06f          	j	782c <core_state_transition+0x78>
    7adc:	00700713          	li	a4,7
    7ae0:	00178793          	addi	a5,a5,1
    7ae4:	d7dff06f          	j	7860 <core_state_transition+0xac>
    7ae8:	00070793          	mv	a5,a4
    7aec:	00500713          	li	a4,5
    7af0:	00178793          	addi	a5,a5,1
    7af4:	d6dff06f          	j	7860 <core_state_transition+0xac>
    7af8:	00070793          	mv	a5,a4
    7afc:	00400713          	li	a4,4
    7b00:	00178793          	addi	a5,a5,1
    7b04:	d5dff06f          	j	7860 <core_state_transition+0xac>
    7b08:	00070793          	mv	a5,a4
    7b0c:	00400713          	li	a4,4
    7b10:	d1dff06f          	j	782c <core_state_transition+0x78>
    7b14:	00070793          	mv	a5,a4
    7b18:	00400713          	li	a4,4
    7b1c:	d11ff06f          	j	782c <core_state_transition+0x78>
    7b20:	00070793          	mv	a5,a4
    7b24:	00200713          	li	a4,2
    7b28:	d05ff06f          	j	782c <core_state_transition+0x78>
    7b2c:	00070793          	mv	a5,a4
    7b30:	00500713          	li	a4,5
    7b34:	cf9ff06f          	j	782c <core_state_transition+0x78>
    7b38:	00070793          	mv	a5,a4
    7b3c:	00200713          	li	a4,2
    7b40:	cedff06f          	j	782c <core_state_transition+0x78>

00007b44 <get_seed_32>:
    7b44:	00500793          	li	a5,5
    7b48:	04a7e863          	bltu	a5,a0,7b98 <get_seed_32+0x54>
    7b4c:	0000c2b7          	lui	t0,0xc
    7b50:	35828313          	addi	t1,t0,856 # c358 <intpat+0x10>
    7b54:	44a3438b          	th.lrw	t2,t1,a0,2
    7b58:	00038067          	jr	t2
    7b5c:	00011537          	lui	a0,0x11
    7b60:	83852503          	lw	a0,-1992(a0) # 10838 <seed5_volatile>
    7b64:	00008067          	ret
    7b68:	00011737          	lui	a4,0x11
    7b6c:	84072503          	lw	a0,-1984(a4) # 10840 <seed1_volatile>
    7b70:	00008067          	ret
    7b74:	000116b7          	lui	a3,0x11
    7b78:	83c6a503          	lw	a0,-1988(a3) # 1083c <seed2_volatile>
    7b7c:	00008067          	ret
    7b80:	00010637          	lui	a2,0x10
    7b84:	00862503          	lw	a0,8(a2) # 10008 <seed3_volatile>
    7b88:	00008067          	ret
    7b8c:	000105b7          	lui	a1,0x10
    7b90:	0045a503          	lw	a0,4(a1) # 10004 <seed4_volatile>
    7b94:	00008067          	ret
    7b98:	00000513          	li	a0,0
    7b9c:	00008067          	ret

00007ba0 <crcu8>:
    7ba0:	0ff5f793          	zext.b	a5,a1
    7ba4:	00879293          	slli	t0,a5,0x8
    7ba8:	0085d593          	srli	a1,a1,0x8
    7bac:	00b2e333          	or	t1,t0,a1
    7bb0:	00001737          	lui	a4,0x1
    7bb4:	f0f70393          	addi	t2,a4,-241 # f0f <core_bench_list+0xb67>
    7bb8:	00737633          	and	a2,t1,t2
    7bbc:	00461693          	slli	a3,a2,0x4
    7bc0:	fffffe37          	lui	t3,0xfffff
    7bc4:	0f0e0f13          	addi	t5,t3,240 # fffff0f0 <_stack_top+0xfffeb0f0>
    7bc8:	01e37833          	and	a6,t1,t5
    7bcc:	00485893          	srli	a7,a6,0x4
    7bd0:	0116eeb3          	or	t4,a3,a7
    7bd4:	00003fb7          	lui	t6,0x3
    7bd8:	333f8793          	addi	a5,t6,819 # 3333 <main+0x47b>
    7bdc:	00fef2b3          	and	t0,t4,a5
    7be0:	00229593          	slli	a1,t0,0x2
    7be4:	ffffd337          	lui	t1,0xffffd
    7be8:	ccc30e13          	addi	t3,t1,-820 # ffffcccc <_stack_top+0xfffe8ccc>
    7bec:	01cef733          	and	a4,t4,t3
    7bf0:	00275613          	srli	a2,a4,0x2
    7bf4:	00c5e6b3          	or	a3,a1,a2
    7bf8:	00005837          	lui	a6,0x5
    7bfc:	55580f93          	addi	t6,a6,1365 # 5555 <matrix_test+0x885>
    7c00:	01f6f8b3          	and	a7,a3,t6
    7c04:	00189e93          	slli	t4,a7,0x1
    7c08:	ffffb2b7          	lui	t0,0xffffb
    7c0c:	aaa28313          	addi	t1,t0,-1366 # ffffaaaa <_stack_top+0xfffe6aaa>
    7c10:	0066f5b3          	and	a1,a3,t1
    7c14:	0015d713          	srli	a4,a1,0x1
    7c18:	00eee833          	or	a6,t4,a4
    7c1c:	00f57613          	andi	a2,a0,15
    7c20:	00461693          	slli	a3,a2,0x4
    7c24:	00455513          	srli	a0,a0,0x4
    7c28:	00a6e8b3          	or	a7,a3,a0
    7c2c:	0338fe93          	andi	t4,a7,51
    7c30:	002e9293          	slli	t0,t4,0x2
    7c34:	0cc8f593          	andi	a1,a7,204
    7c38:	0025d713          	srli	a4,a1,0x2
    7c3c:	00e2e633          	or	a2,t0,a4
    7c40:	05567693          	andi	a3,a2,85
    7c44:	00169513          	slli	a0,a3,0x1
    7c48:	0aa67893          	andi	a7,a2,170
    7c4c:	0018de93          	srli	t4,a7,0x1
    7c50:	00885293          	srli	t0,a6,0x8
    7c54:	01d565b3          	or	a1,a0,t4
    7c58:	00b2c733          	xor	a4,t0,a1
    7c5c:	00881813          	slli	a6,a6,0x8
    7c60:	0000c637          	lui	a2,0xc
    7c64:	37060693          	addi	a3,a2,880 # c370 <intpat+0x28>
    7c68:	a2e6c50b          	th.lrhu	a0,a3,a4,1
    7c6c:	010548b3          	xor	a7,a0,a6
    7c70:	0ff57e93          	zext.b	t4,a0
    7c74:	008e9293          	slli	t0,t4,0x8
    7c78:	3c88b58b          	th.extu	a1,a7,15,8
    7c7c:	00b2e833          	or	a6,t0,a1
    7c80:	007873b3          	and	t2,a6,t2
    7c84:	00439713          	slli	a4,t2,0x4
    7c88:	01e87f33          	and	t5,a6,t5
    7c8c:	004f5613          	srli	a2,t5,0x4
    7c90:	00c766b3          	or	a3,a4,a2
    7c94:	00f6f7b3          	and	a5,a3,a5
    7c98:	00279513          	slli	a0,a5,0x2
    7c9c:	01c6fe33          	and	t3,a3,t3
    7ca0:	002e5893          	srli	a7,t3,0x2
    7ca4:	01156eb3          	or	t4,a0,a7
    7ca8:	01feffb3          	and	t6,t4,t6
    7cac:	001f9293          	slli	t0,t6,0x1
    7cb0:	006ef333          	and	t1,t4,t1
    7cb4:	00135593          	srli	a1,t1,0x1
    7cb8:	00b2e533          	or	a0,t0,a1
    7cbc:	00008067          	ret

00007cc0 <crcu16>:
    7cc0:	50b5050b          	.insn	4, 0x50b5050b
    7cc4:	3c05350b          	th.extu	a0,a0,15,0
    7cc8:	00008067          	ret

00007ccc <crcu32>:
    7ccc:	52b5050b          	.insn	4, 0x52b5050b
    7cd0:	3c05350b          	th.extu	a0,a0,15,0
    7cd4:	00008067          	ret

00007cd8 <crc16>:
    7cd8:	3c05350b          	th.extu	a0,a0,15,0
    7cdc:	50b5028b          	.insn	4, 0x50b5028b
    7ce0:	3c02b50b          	th.extu	a0,t0,15,0
    7ce4:	00008067          	ret

00007ce8 <check_data_types>:
    7ce8:	00000513          	li	a0,0
    7cec:	00008067          	ret

00007cf0 <barebones_clock>:
    7cf0:	100007b7          	lui	a5,0x10000
    7cf4:	00c78293          	addi	t0,a5,12 # 1000000c <_stack_top+0xffec00c>
    7cf8:	10000737          	lui	a4,0x10000
    7cfc:	00870313          	addi	t1,a4,8 # 10000008 <_stack_top+0xffec008>
    7d00:	0002a603          	lw	a2,0(t0)
    7d04:	00032503          	lw	a0,0(t1)
    7d08:	0002a683          	lw	a3,0(t0)
    7d0c:	06d60c63          	beq	a2,a3,7d84 <barebones_clock+0x94>
    7d10:	0002a383          	lw	t2,0(t0)
    7d14:	00032503          	lw	a0,0(t1)
    7d18:	0002a583          	lw	a1,0(t0)
    7d1c:	06b38463          	beq	t2,a1,7d84 <barebones_clock+0x94>
    7d20:	0002a803          	lw	a6,0(t0)
    7d24:	00032503          	lw	a0,0(t1)
    7d28:	0002a883          	lw	a7,0(t0)
    7d2c:	05180c63          	beq	a6,a7,7d84 <barebones_clock+0x94>
    7d30:	0002ae03          	lw	t3,0(t0)
    7d34:	00032503          	lw	a0,0(t1)
    7d38:	0002ae83          	lw	t4,0(t0)
    7d3c:	05de0463          	beq	t3,t4,7d84 <barebones_clock+0x94>
    7d40:	0002af03          	lw	t5,0(t0)
    7d44:	00032503          	lw	a0,0(t1)
    7d48:	0002af83          	lw	t6,0(t0)
    7d4c:	03ff0c63          	beq	t5,t6,7d84 <barebones_clock+0x94>
    7d50:	0002a783          	lw	a5,0(t0)
    7d54:	00032503          	lw	a0,0(t1)
    7d58:	0002a703          	lw	a4,0(t0)
    7d5c:	02e78463          	beq	a5,a4,7d84 <barebones_clock+0x94>
    7d60:	0002a603          	lw	a2,0(t0)
    7d64:	00032503          	lw	a0,0(t1)
    7d68:	0002a683          	lw	a3,0(t0)
    7d6c:	00d60c63          	beq	a2,a3,7d84 <barebones_clock+0x94>
    7d70:	0002a383          	lw	t2,0(t0)
    7d74:	00032503          	lw	a0,0(t1)
    7d78:	0002a583          	lw	a1,0(t0)
    7d7c:	f8b392e3          	bne	t2,a1,7d00 <barebones_clock+0x10>
    7d80:	00008067          	ret
    7d84:	00008067          	ret

00007d88 <start_time>:
    7d88:	100007b7          	lui	a5,0x10000
    7d8c:	00c78293          	addi	t0,a5,12 # 1000000c <_stack_top+0xffec00c>
    7d90:	10000737          	lui	a4,0x10000
    7d94:	00870313          	addi	t1,a4,8 # 10000008 <_stack_top+0xffec008>
    7d98:	0002a583          	lw	a1,0(t0)
    7d9c:	00032683          	lw	a3,0(t1)
    7da0:	0002a603          	lw	a2,0(t0)
    7da4:	06c58a63          	beq	a1,a2,7e18 <start_time+0x90>
    7da8:	0002a383          	lw	t2,0(t0)
    7dac:	00032683          	lw	a3,0(t1)
    7db0:	0002a503          	lw	a0,0(t0)
    7db4:	06a38263          	beq	t2,a0,7e18 <start_time+0x90>
    7db8:	0002a803          	lw	a6,0(t0)
    7dbc:	00032683          	lw	a3,0(t1)
    7dc0:	0002a883          	lw	a7,0(t0)
    7dc4:	05180a63          	beq	a6,a7,7e18 <start_time+0x90>
    7dc8:	0002ae03          	lw	t3,0(t0)
    7dcc:	00032683          	lw	a3,0(t1)
    7dd0:	0002ae83          	lw	t4,0(t0)
    7dd4:	05de0263          	beq	t3,t4,7e18 <start_time+0x90>
    7dd8:	0002af03          	lw	t5,0(t0)
    7ddc:	00032683          	lw	a3,0(t1)
    7de0:	0002af83          	lw	t6,0(t0)
    7de4:	03ff0a63          	beq	t5,t6,7e18 <start_time+0x90>
    7de8:	0002a783          	lw	a5,0(t0)
    7dec:	00032683          	lw	a3,0(t1)
    7df0:	0002a703          	lw	a4,0(t0)
    7df4:	02e78263          	beq	a5,a4,7e18 <start_time+0x90>
    7df8:	0002a583          	lw	a1,0(t0)
    7dfc:	00032683          	lw	a3,0(t1)
    7e00:	0002a603          	lw	a2,0(t0)
    7e04:	00c58a63          	beq	a1,a2,7e18 <start_time+0x90>
    7e08:	0002a383          	lw	t2,0(t0)
    7e0c:	00032683          	lw	a3,0(t1)
    7e10:	0002a503          	lw	a0,0(t0)
    7e14:	f8a392e3          	bne	t2,a0,7d98 <start_time+0x10>
    7e18:	000112b7          	lui	t0,0x11
    7e1c:	82d2a823          	sw	a3,-2000(t0) # 10830 <start_time_val>
    7e20:	00008067          	ret

00007e24 <stop_time>:
    7e24:	100007b7          	lui	a5,0x10000
    7e28:	00c78293          	addi	t0,a5,12 # 1000000c <_stack_top+0xffec00c>
    7e2c:	10000737          	lui	a4,0x10000
    7e30:	00870313          	addi	t1,a4,8 # 10000008 <_stack_top+0xffec008>
    7e34:	0002a583          	lw	a1,0(t0)
    7e38:	00032683          	lw	a3,0(t1)
    7e3c:	0002a603          	lw	a2,0(t0)
    7e40:	06c58a63          	beq	a1,a2,7eb4 <stop_time+0x90>
    7e44:	0002a383          	lw	t2,0(t0)
    7e48:	00032683          	lw	a3,0(t1)
    7e4c:	0002a503          	lw	a0,0(t0)
    7e50:	06a38263          	beq	t2,a0,7eb4 <stop_time+0x90>
    7e54:	0002a803          	lw	a6,0(t0)
    7e58:	00032683          	lw	a3,0(t1)
    7e5c:	0002a883          	lw	a7,0(t0)
    7e60:	05180a63          	beq	a6,a7,7eb4 <stop_time+0x90>
    7e64:	0002ae03          	lw	t3,0(t0)
    7e68:	00032683          	lw	a3,0(t1)
    7e6c:	0002ae83          	lw	t4,0(t0)
    7e70:	05de0263          	beq	t3,t4,7eb4 <stop_time+0x90>
    7e74:	0002af03          	lw	t5,0(t0)
    7e78:	00032683          	lw	a3,0(t1)
    7e7c:	0002af83          	lw	t6,0(t0)
    7e80:	03ff0a63          	beq	t5,t6,7eb4 <stop_time+0x90>
    7e84:	0002a783          	lw	a5,0(t0)
    7e88:	00032683          	lw	a3,0(t1)
    7e8c:	0002a703          	lw	a4,0(t0)
    7e90:	02e78263          	beq	a5,a4,7eb4 <stop_time+0x90>
    7e94:	0002a583          	lw	a1,0(t0)
    7e98:	00032683          	lw	a3,0(t1)
    7e9c:	0002a603          	lw	a2,0(t0)
    7ea0:	00c58a63          	beq	a1,a2,7eb4 <stop_time+0x90>
    7ea4:	0002a383          	lw	t2,0(t0)
    7ea8:	00032683          	lw	a3,0(t1)
    7eac:	0002a503          	lw	a0,0(t0)
    7eb0:	f8a392e3          	bne	t2,a0,7e34 <stop_time+0x10>
    7eb4:	000112b7          	lui	t0,0x11
    7eb8:	82d2aa23          	sw	a3,-1996(t0) # 10834 <stop_time_val>
    7ebc:	00008067          	ret

00007ec0 <get_time>:
    7ec0:	000117b7          	lui	a5,0x11
    7ec4:	83078293          	addi	t0,a5,-2000 # 10830 <start_time_val>
    7ec8:	0042a503          	lw	a0,4(t0)
    7ecc:	0002a303          	lw	t1,0(t0)
    7ed0:	40650533          	sub	a0,a0,t1
    7ed4:	00008067          	ret

00007ed8 <time_in_secs>:
    7ed8:	55e647b7          	lui	a5,0x55e64
    7edc:	b8978293          	addi	t0,a5,-1143 # 55e63b89 <_stack_top+0x55e4fb89>
    7ee0:	02553533          	mulhu	a0,a0,t0
    7ee4:	01955513          	srli	a0,a0,0x19
    7ee8:	00008067          	ret

00007eec <portable_init>:
    7eec:	100007b7          	lui	a5,0x10000
    7ef0:	0007a223          	sw	zero,4(a5) # 10000004 <_stack_top+0xffec004>
    7ef4:	00200713          	li	a4,2
    7ef8:	00e7ac23          	sw	a4,24(a5)
    7efc:	00100293          	li	t0,1
    7f00:	00550023          	sb	t0,0(a0)
    7f04:	00008067          	ret

00007f08 <portable_fini>:
    7f08:	00050023          	sb	zero,0(a0)
    7f0c:	100007b7          	lui	a5,0x10000
    7f10:	00100713          	li	a4,1
    7f14:	00e7a223          	sw	a4,4(a5) # 10000004 <_stack_top+0xffec004>
    7f18:	00008067          	ret

00007f1c <portable_malloc>:
    7f1c:	00000513          	li	a0,0
    7f20:	00008067          	ret

00007f24 <portable_free>:
    7f24:	00008067          	ret

00007f28 <uart_send_char>:
    7f28:	100007b7          	lui	a5,0x10000
    7f2c:	00a7a023          	sw	a0,0(a5) # 10000000 <_stack_top+0xffec000>
    7f30:	00008067          	ret

00007f34 <ee_printf>:
    7f34:	b2010113          	addi	sp,sp,-1248
    7f38:	4a112e23          	sw	ra,1212(sp)
    7f3c:	4cb12223          	sw	a1,1220(sp)
    7f40:	4cc12423          	sw	a2,1224(sp)
    7f44:	4cd12623          	sw	a3,1228(sp)
    7f48:	4ce12823          	sw	a4,1232(sp)
    7f4c:	4cf12a23          	sw	a5,1236(sp)
    7f50:	4d012c23          	sw	a6,1240(sp)
    7f54:	4d112e23          	sw	a7,1244(sp)
    7f58:	4c410793          	addi	a5,sp,1220
    7f5c:	02f12c23          	sw	a5,56(sp)
    7f60:	00054383          	lbu	t2,0(a0)
    7f64:	00039463          	bnez	t2,7f6c <ee_printf+0x38>
    7f68:	1290206f          	j	a890 <ee_printf+0x295c>
    7f6c:	4a812c23          	sw	s0,1208(sp)
    7f70:	4a912a23          	sw	s1,1204(sp)
    7f74:	4b212823          	sw	s2,1200(sp)
    7f78:	4b312623          	sw	s3,1196(sp)
    7f7c:	4b412423          	sw	s4,1192(sp)
    7f80:	4b512223          	sw	s5,1188(sp)
    7f84:	4b612023          	sw	s6,1184(sp)
    7f88:	49712e23          	sw	s7,1180(sp)
    7f8c:	49812c23          	sw	s8,1176(sp)
    7f90:	49912a23          	sw	s9,1172(sp)
    7f94:	49a12823          	sw	s10,1168(sp)
    7f98:	49b12623          	sw	s11,1164(sp)
    7f9c:	00078493          	mv	s1,a5
    7fa0:	02500993          	li	s3,37
    7fa4:	01000413          	li	s0,16
    7fa8:	0000c6b7          	lui	a3,0xc
    7fac:	57068913          	addi	s2,a3,1392 # c570 <intpat+0x228>
    7fb0:	04c00d13          	li	s10,76
    7fb4:	03700d93          	li	s11,55
    7fb8:	08010a13          	addi	s4,sp,128
    7fbc:	11338063          	beq	t2,s3,80bc <ee_printf+0x188>
    7fc0:	00154703          	lbu	a4,1(a0)
    7fc4:	007a0023          	sb	t2,0(s4)
    7fc8:	00150513          	addi	a0,a0,1
    7fcc:	00070393          	mv	t2,a4
    7fd0:	001a0a13          	addi	s4,s4,1
    7fd4:	fe0394e3          	bnez	t2,7fbc <ee_printf+0x88>
    7fd8:	000a0293          	mv	t0,s4
    7fdc:	4b812403          	lw	s0,1208(sp)
    7fe0:	4b412483          	lw	s1,1204(sp)
    7fe4:	4b012903          	lw	s2,1200(sp)
    7fe8:	4ac12983          	lw	s3,1196(sp)
    7fec:	4a812a03          	lw	s4,1192(sp)
    7ff0:	4a412a83          	lw	s5,1188(sp)
    7ff4:	4a012b03          	lw	s6,1184(sp)
    7ff8:	49c12b83          	lw	s7,1180(sp)
    7ffc:	49812c03          	lw	s8,1176(sp)
    8000:	49412c83          	lw	s9,1172(sp)
    8004:	49012d03          	lw	s10,1168(sp)
    8008:	48c12d83          	lw	s11,1164(sp)
    800c:	00028023          	sb	zero,0(t0)
    8010:	08014883          	lbu	a7,128(sp)
    8014:	1a088663          	beqz	a7,81c0 <ee_printf+0x28c>
    8018:	08010793          	addi	a5,sp,128
    801c:	100003b7          	lui	t2,0x10000
    8020:	0113a023          	sw	a7,0(t2) # 10000000 <_stack_top+0xffec000>
    8024:	00078513          	mv	a0,a5
    8028:	0017ce83          	lbu	t4,1(a5)
    802c:	060e8c63          	beqz	t4,80a4 <ee_printf+0x170>
    8030:	01d3a023          	sw	t4,0(t2)
    8034:	00178513          	addi	a0,a5,1
    8038:	0027cf03          	lbu	t5,2(a5)
    803c:	060f0463          	beqz	t5,80a4 <ee_printf+0x170>
    8040:	01e3a023          	sw	t5,0(t2)
    8044:	00278513          	addi	a0,a5,2
    8048:	0037cf83          	lbu	t6,3(a5)
    804c:	040f8c63          	beqz	t6,80a4 <ee_printf+0x170>
    8050:	01f3a023          	sw	t6,0(t2)
    8054:	00378513          	addi	a0,a5,3
    8058:	0047c683          	lbu	a3,4(a5)
    805c:	04068463          	beqz	a3,80a4 <ee_printf+0x170>
    8060:	00d3a023          	sw	a3,0(t2)
    8064:	00478513          	addi	a0,a5,4
    8068:	0057ce03          	lbu	t3,5(a5)
    806c:	020e0c63          	beqz	t3,80a4 <ee_printf+0x170>
    8070:	01c3a023          	sw	t3,0(t2)
    8074:	00578513          	addi	a0,a5,5
    8078:	0067c303          	lbu	t1,6(a5)
    807c:	02030463          	beqz	t1,80a4 <ee_printf+0x170>
    8080:	0063a023          	sw	t1,0(t2)
    8084:	00678513          	addi	a0,a5,6
    8088:	0077c583          	lbu	a1,7(a5)
    808c:	00058c63          	beqz	a1,80a4 <ee_printf+0x170>
    8090:	00b3a023          	sw	a1,0(t2)
    8094:	00778513          	addi	a0,a5,7
    8098:	00878793          	addi	a5,a5,8
    809c:	0007c883          	lbu	a7,0(a5)
    80a0:	f80890e3          	bnez	a7,8020 <ee_printf+0xec>
    80a4:	48010813          	addi	a6,sp,1152
    80a8:	41050633          	sub	a2,a0,a6
    80ac:	40160513          	addi	a0,a2,1025
    80b0:	4bc12083          	lw	ra,1212(sp)
    80b4:	4e010113          	addi	sp,sp,1248
    80b8:	00008067          	ret
    80bc:	00000713          	li	a4,0
    80c0:	00150613          	addi	a2,a0,1
    80c4:	00154583          	lbu	a1,1(a0)
    80c8:	fe058293          	addi	t0,a1,-32
    80cc:	0ff2f313          	zext.b	t1,t0
    80d0:	00646663          	bltu	s0,t1,80dc <ee_printf+0x1a8>
    80d4:	4469438b          	th.lrw	t2,s2,t1,2
    80d8:	00038067          	jr	t2
    80dc:	fd058813          	addi	a6,a1,-48
    80e0:	0ff87893          	zext.b	a7,a6
    80e4:	00900a93          	li	s5,9
    80e8:	151af263          	bgeu	s5,a7,822c <ee_printf+0x2f8>
    80ec:	02a00b13          	li	s6,42
    80f0:	25658663          	beq	a1,s6,833c <ee_printf+0x408>
    80f4:	fff00793          	li	a5,-1
    80f8:	02e00b93          	li	s7,46
    80fc:	0f758e63          	beq	a1,s7,81f8 <ee_printf+0x2c4>
    8100:	fff00c93          	li	s9,-1
    8104:	0df5fe13          	andi	t3,a1,223
    8108:	0dae0463          	beq	t3,s10,81d0 <ee_printf+0x29c>
    810c:	fbf58693          	addi	a3,a1,-65
    8110:	0ff6f293          	zext.b	t0,a3
    8114:	045de863          	bltu	s11,t0,8164 <ee_printf+0x230>
    8118:	0000c337          	lui	t1,0xc
    811c:	5b430393          	addi	t2,t1,1460 # c5b4 <intpat+0x26c>
    8120:	4453c80b          	th.lrw	a6,t2,t0,2
    8124:	00080067          	jr	a6
    8128:	00176713          	ori	a4,a4,1
    812c:	00060513          	mv	a0,a2
    8130:	f91ff06f          	j	80c0 <ee_printf+0x18c>
    8134:	01076713          	ori	a4,a4,16
    8138:	00060513          	mv	a0,a2
    813c:	f85ff06f          	j	80c0 <ee_printf+0x18c>
    8140:	00476713          	ori	a4,a4,4
    8144:	00060513          	mv	a0,a2
    8148:	f79ff06f          	j	80c0 <ee_printf+0x18c>
    814c:	02076713          	ori	a4,a4,32
    8150:	00060513          	mv	a0,a2
    8154:	f6dff06f          	j	80c0 <ee_printf+0x18c>
    8158:	00876713          	ori	a4,a4,8
    815c:	00060513          	mv	a0,a2
    8160:	f61ff06f          	j	80c0 <ee_printf+0x18c>
    8164:	00060693          	mv	a3,a2
    8168:	02500613          	li	a2,37
    816c:	00c59463          	bne	a1,a2,8174 <ee_printf+0x240>
    8170:	2e00106f          	j	9450 <ee_printf+0x151c>
    8174:	00ca0023          	sb	a2,0(s4)
    8178:	00058463          	beqz	a1,8180 <ee_printf+0x24c>
    817c:	2d00106f          	j	944c <ee_printf+0x1518>
    8180:	001a0293          	addi	t0,s4,1
    8184:	4b812403          	lw	s0,1208(sp)
    8188:	4b412483          	lw	s1,1204(sp)
    818c:	4b012903          	lw	s2,1200(sp)
    8190:	4ac12983          	lw	s3,1196(sp)
    8194:	4a812a03          	lw	s4,1192(sp)
    8198:	4a412a83          	lw	s5,1188(sp)
    819c:	4a012b03          	lw	s6,1184(sp)
    81a0:	49c12b83          	lw	s7,1180(sp)
    81a4:	49812c03          	lw	s8,1176(sp)
    81a8:	49412c83          	lw	s9,1172(sp)
    81ac:	49012d03          	lw	s10,1168(sp)
    81b0:	48c12d83          	lw	s11,1164(sp)
    81b4:	00028023          	sb	zero,0(t0)
    81b8:	08014883          	lbu	a7,128(sp)
    81bc:	e4089ee3          	bnez	a7,8018 <ee_printf+0xe4>
    81c0:	00000513          	li	a0,0
    81c4:	4bc12083          	lw	ra,1212(sp)
    81c8:	4e010113          	addi	sp,sp,1248
    81cc:	00008067          	ret
    81d0:	00058893          	mv	a7,a1
    81d4:	00160693          	addi	a3,a2,1
    81d8:	00164583          	lbu	a1,1(a2)
    81dc:	fbf58a93          	addi	s5,a1,-65
    81e0:	0ffafb93          	zext.b	s7,s5
    81e4:	f97de2e3          	bltu	s11,s7,8168 <ee_printf+0x234>
    81e8:	0000cb37          	lui	s6,0xc
    81ec:	694b0c13          	addi	s8,s6,1684 # c694 <intpat+0x34c>
    81f0:	457c450b          	th.lrw	a0,s8,s7,2
    81f4:	00050067          	jr	a0
    81f8:	00160513          	addi	a0,a2,1
    81fc:	00164583          	lbu	a1,1(a2)
    8200:	fd058b13          	addi	s6,a1,-48
    8204:	0ffb7c13          	zext.b	s8,s6
    8208:	00900e13          	li	t3,9
    820c:	018e6463          	bltu	t3,s8,8214 <ee_printf+0x2e0>
    8210:	0b80106f          	j	92c8 <ee_printf+0x1394>
    8214:	02a00c93          	li	s9,42
    8218:	01959463          	bne	a1,s9,8220 <ee_printf+0x2ec>
    821c:	1c00106f          	j	93dc <ee_printf+0x14a8>
    8220:	00050613          	mv	a2,a0
    8224:	00000c93          	li	s9,0
    8228:	eddff06f          	j	8104 <ee_printf+0x1d0>
    822c:	00000793          	li	a5,0
    8230:	000a8b93          	mv	s7,s5
    8234:	00160613          	addi	a2,a2,1
    8238:	00060513          	mv	a0,a2
    823c:	20f7cc33          	sh2add	s8,a5,a5
    8240:	20bc25b3          	sh1add	a1,s8,a1
    8244:	fd058793          	addi	a5,a1,-48
    8248:	00064583          	lbu	a1,0(a2)
    824c:	fd058c93          	addi	s9,a1,-48
    8250:	0ffcfe13          	zext.b	t3,s9
    8254:	ebcbe2e3          	bltu	s7,t3,80f8 <ee_printf+0x1c4>
    8258:	00160613          	addi	a2,a2,1
    825c:	20f7ceb3          	sh2add	t4,a5,a5
    8260:	20beaf33          	sh1add	t5,t4,a1
    8264:	fd0f0793          	addi	a5,t5,-48
    8268:	00064583          	lbu	a1,0(a2)
    826c:	fd058f93          	addi	t6,a1,-48
    8270:	0ffff693          	zext.b	a3,t6
    8274:	e8dbe2e3          	bltu	s7,a3,80f8 <ee_printf+0x1c4>
    8278:	00250613          	addi	a2,a0,2
    827c:	20f7c7b3          	sh2add	a5,a5,a5
    8280:	20b7a2b3          	sh1add	t0,a5,a1
    8284:	fd028793          	addi	a5,t0,-48
    8288:	00254583          	lbu	a1,2(a0)
    828c:	fd058313          	addi	t1,a1,-48
    8290:	0ff37393          	zext.b	t2,t1
    8294:	e67be2e3          	bltu	s7,t2,80f8 <ee_printf+0x1c4>
    8298:	00350613          	addi	a2,a0,3
    829c:	20f7c833          	sh2add	a6,a5,a5
    82a0:	20b828b3          	sh1add	a7,a6,a1
    82a4:	fd088793          	addi	a5,a7,-48
    82a8:	00354583          	lbu	a1,3(a0)
    82ac:	fd058a93          	addi	s5,a1,-48
    82b0:	0ffafb13          	zext.b	s6,s5
    82b4:	e56be2e3          	bltu	s7,s6,80f8 <ee_printf+0x1c4>
    82b8:	00450613          	addi	a2,a0,4
    82bc:	20f7cc33          	sh2add	s8,a5,a5
    82c0:	20bc25b3          	sh1add	a1,s8,a1
    82c4:	fd058793          	addi	a5,a1,-48
    82c8:	00454583          	lbu	a1,4(a0)
    82cc:	fd058c93          	addi	s9,a1,-48
    82d0:	0ffcfe13          	zext.b	t3,s9
    82d4:	e3cbe2e3          	bltu	s7,t3,80f8 <ee_printf+0x1c4>
    82d8:	00550613          	addi	a2,a0,5
    82dc:	20f7ceb3          	sh2add	t4,a5,a5
    82e0:	20beaf33          	sh1add	t5,t4,a1
    82e4:	fd0f0793          	addi	a5,t5,-48
    82e8:	00554583          	lbu	a1,5(a0)
    82ec:	fd058f93          	addi	t6,a1,-48
    82f0:	0ffff693          	zext.b	a3,t6
    82f4:	e0dbe2e3          	bltu	s7,a3,80f8 <ee_printf+0x1c4>
    82f8:	00650613          	addi	a2,a0,6
    82fc:	20f7c7b3          	sh2add	a5,a5,a5
    8300:	20b7a2b3          	sh1add	t0,a5,a1
    8304:	fd028793          	addi	a5,t0,-48
    8308:	00654583          	lbu	a1,6(a0)
    830c:	fd058313          	addi	t1,a1,-48
    8310:	0ff37393          	zext.b	t2,t1
    8314:	de7be2e3          	bltu	s7,t2,80f8 <ee_printf+0x1c4>
    8318:	00750613          	addi	a2,a0,7
    831c:	20f7c833          	sh2add	a6,a5,a5
    8320:	20b828b3          	sh1add	a7,a6,a1
    8324:	fd088793          	addi	a5,a7,-48
    8328:	00754583          	lbu	a1,7(a0)
    832c:	fd058513          	addi	a0,a1,-48
    8330:	0ff57a93          	zext.b	s5,a0
    8334:	f15bf0e3          	bgeu	s7,s5,8234 <ee_printf+0x300>
    8338:	dc1ff06f          	j	80f8 <ee_printf+0x1c4>
    833c:	00250613          	addi	a2,a0,2
    8340:	0004a783          	lw	a5,0(s1)
    8344:	0007c863          	bltz	a5,8354 <ee_printf+0x420>
    8348:	00254583          	lbu	a1,2(a0)
    834c:	00448493          	addi	s1,s1,4
    8350:	da9ff06f          	j	80f8 <ee_printf+0x1c4>
    8354:	40f007b3          	neg	a5,a5
    8358:	01076713          	ori	a4,a4,16
    835c:	00254583          	lbu	a1,2(a0)
    8360:	00448493          	addi	s1,s1,4
    8364:	d95ff06f          	j	80f8 <ee_printf+0x1c4>
    8368:	00060693          	mv	a3,a2
    836c:	0004a803          	lw	a6,0(s1)
    8370:	00448493          	addi	s1,s1,4
    8374:	00080b13          	mv	s6,a6
    8378:	01077b93          	andi	s7,a4,16
    837c:	000b8463          	beqz	s7,8384 <ee_printf+0x450>
    8380:	0740106f          	j	93f4 <ee_printf+0x14c0>
    8384:	00800c13          	li	s8,8
    8388:	000c0f13          	mv	t5,s8
    838c:	00177313          	andi	t1,a4,1
    8390:	00031463          	bnez	t1,8398 <ee_printf+0x464>
    8394:	7940306f          	j	bb28 <ee_printf+0x3bf4>
    8398:	03000893          	li	a7,48
    839c:	01177813          	andi	a6,a4,17
    83a0:	02077f93          	andi	t6,a4,32
    83a4:	000f9463          	bnez	t6,83ac <ee_printf+0x478>
    83a8:	75c0306f          	j	bb04 <ee_printf+0x3bd0>
    83ac:	01000613          	li	a2,16
    83b0:	00cf0463          	beq	t5,a2,83b8 <ee_printf+0x484>
    83b4:	77c0306f          	j	bb30 <ee_printf+0x3bfc>
    83b8:	00000e13          	li	t3,0
    83bc:	0000cf37          	lui	t5,0xc
    83c0:	2c8f0713          	addi	a4,t5,712 # c2c8 <__modsi3+0x6d4>
    83c4:	19d0206f          	j	ad60 <ee_printf+0x2e2c>
    83c8:	00060693          	mv	a3,a2
    83cc:	00448b13          	addi	s6,s1,4
    83d0:	0004ab83          	lw	s7,0(s1)
    83d4:	000b9463          	bnez	s7,83dc <ee_printf+0x4a8>
    83d8:	0e80106f          	j	94c0 <ee_printf+0x158c>
    83dc:	01077493          	andi	s1,a4,16
    83e0:	000bca83          	lbu	s5,0(s7)
    83e4:	000a9463          	bnez	s5,83ec <ee_printf+0x4b8>
    83e8:	56c0306f          	j	b954 <ee_printf+0x3a20>
    83ec:	019b88b3          	add	a7,s7,s9
    83f0:	000b8613          	mv	a2,s7
    83f4:	007cfe93          	andi	t4,s9,7
    83f8:	080e8463          	beqz	t4,8480 <ee_printf+0x54c>
    83fc:	001b8613          	addi	a2,s7,1
    8400:	001bc583          	lbu	a1,1(s7)
    8404:	0e058263          	beqz	a1,84e8 <ee_printf+0x5b4>
    8408:	00100f13          	li	t5,1
    840c:	07ee8a63          	beq	t4,t5,8480 <ee_printf+0x54c>
    8410:	00200f93          	li	t6,2
    8414:	07fe8063          	beq	t4,t6,8474 <ee_printf+0x540>
    8418:	00300e13          	li	t3,3
    841c:	05ce8663          	beq	t4,t3,8468 <ee_printf+0x534>
    8420:	00400293          	li	t0,4
    8424:	025e8c63          	beq	t4,t0,845c <ee_printf+0x528>
    8428:	00500393          	li	t2,5
    842c:	027e8263          	beq	t4,t2,8450 <ee_printf+0x51c>
    8430:	00600813          	li	a6,6
    8434:	010e8863          	beq	t4,a6,8444 <ee_printf+0x510>
    8438:	002b8613          	addi	a2,s7,2
    843c:	002bc303          	lbu	t1,2(s7)
    8440:	0a030463          	beqz	t1,84e8 <ee_printf+0x5b4>
    8444:	00160613          	addi	a2,a2,1
    8448:	00064703          	lbu	a4,0(a2)
    844c:	08070e63          	beqz	a4,84e8 <ee_printf+0x5b4>
    8450:	00160613          	addi	a2,a2,1
    8454:	00064a83          	lbu	s5,0(a2)
    8458:	080a8863          	beqz	s5,84e8 <ee_printf+0x5b4>
    845c:	00160613          	addi	a2,a2,1
    8460:	00064c83          	lbu	s9,0(a2)
    8464:	080c8263          	beqz	s9,84e8 <ee_printf+0x5b4>
    8468:	00160613          	addi	a2,a2,1
    846c:	00064c03          	lbu	s8,0(a2)
    8470:	060c0c63          	beqz	s8,84e8 <ee_printf+0x5b4>
    8474:	00160613          	addi	a2,a2,1
    8478:	00064503          	lbu	a0,0(a2)
    847c:	06050663          	beqz	a0,84e8 <ee_printf+0x5b4>
    8480:	07160663          	beq	a2,a7,84ec <ee_printf+0x5b8>
    8484:	00160613          	addi	a2,a2,1
    8488:	00060e93          	mv	t4,a2
    848c:	00064583          	lbu	a1,0(a2)
    8490:	04058c63          	beqz	a1,84e8 <ee_printf+0x5b4>
    8494:	00160613          	addi	a2,a2,1
    8498:	00064f03          	lbu	t5,0(a2)
    849c:	040f0663          	beqz	t5,84e8 <ee_printf+0x5b4>
    84a0:	002e8613          	addi	a2,t4,2
    84a4:	002ecf83          	lbu	t6,2(t4)
    84a8:	040f8063          	beqz	t6,84e8 <ee_printf+0x5b4>
    84ac:	003e8613          	addi	a2,t4,3
    84b0:	003ece03          	lbu	t3,3(t4)
    84b4:	020e0a63          	beqz	t3,84e8 <ee_printf+0x5b4>
    84b8:	004e8613          	addi	a2,t4,4
    84bc:	004ec283          	lbu	t0,4(t4)
    84c0:	02028463          	beqz	t0,84e8 <ee_printf+0x5b4>
    84c4:	005e8613          	addi	a2,t4,5
    84c8:	005ec383          	lbu	t2,5(t4)
    84cc:	00038e63          	beqz	t2,84e8 <ee_printf+0x5b4>
    84d0:	006e8613          	addi	a2,t4,6
    84d4:	006ec803          	lbu	a6,6(t4)
    84d8:	00080863          	beqz	a6,84e8 <ee_printf+0x5b4>
    84dc:	007e8613          	addi	a2,t4,7
    84e0:	007ec303          	lbu	t1,7(t4)
    84e4:	f8031ee3          	bnez	t1,8480 <ee_printf+0x54c>
    84e8:	00060893          	mv	a7,a2
    84ec:	41788c33          	sub	s8,a7,s7
    84f0:	00049463          	bnez	s1,84f8 <ee_printf+0x5c4>
    84f4:	7f90106f          	j	a4ec <ee_printf+0x25b8>
    84f8:	17805063          	blez	s8,8658 <ee_printf+0x724>
    84fc:	000c0513          	mv	a0,s8
    8500:	fffc0593          	addi	a1,s8,-1
    8504:	00500313          	li	t1,5
    8508:	00b36463          	bltu	t1,a1,8510 <ee_printf+0x5dc>
    850c:	2240306f          	j	b730 <ee_printf+0x37fc>
    8510:	014bee33          	or	t3,s7,s4
    8514:	003e7713          	andi	a4,t3,3
    8518:	00070463          	beqz	a4,8520 <ee_printf+0x5ec>
    851c:	3180306f          	j	b834 <ee_printf+0x3900>
    8520:	ffcc7893          	andi	a7,s8,-4
    8524:	ffc88f13          	addi	t5,a7,-4
    8528:	002f5613          	srli	a2,t5,0x2
    852c:	00160493          	addi	s1,a2,1
    8530:	0074fa93          	andi	s5,s1,7
    8534:	080a8463          	beqz	s5,85bc <ee_printf+0x688>
    8538:	00100293          	li	t0,1
    853c:	065a8863          	beq	s5,t0,85ac <ee_printf+0x678>
    8540:	00200f93          	li	t6,2
    8544:	05fa8e63          	beq	s5,t6,85a0 <ee_printf+0x66c>
    8548:	00300e93          	li	t4,3
    854c:	05da8463          	beq	s5,t4,8594 <ee_printf+0x660>
    8550:	00400393          	li	t2,4
    8554:	027a8a63          	beq	s5,t2,8588 <ee_printf+0x654>
    8558:	026a8263          	beq	s5,t1,857c <ee_printf+0x648>
    855c:	00600813          	li	a6,6
    8560:	010a8863          	beq	s5,a6,8570 <ee_printf+0x63c>
    8564:	40ebcc8b          	th.lrw	s9,s7,a4,0
    8568:	40ea5c8b          	th.srw	s9,s4,a4,0
    856c:	00470713          	addi	a4,a4,4
    8570:	40ebc58b          	th.lrw	a1,s7,a4,0
    8574:	40ea558b          	th.srw	a1,s4,a4,0
    8578:	00470713          	addi	a4,a4,4
    857c:	40ebc30b          	th.lrw	t1,s7,a4,0
    8580:	40ea530b          	th.srw	t1,s4,a4,0
    8584:	00470713          	addi	a4,a4,4
    8588:	40ebce0b          	th.lrw	t3,s7,a4,0
    858c:	40ea5e0b          	th.srw	t3,s4,a4,0
    8590:	00470713          	addi	a4,a4,4
    8594:	40ebcf0b          	th.lrw	t5,s7,a4,0
    8598:	40ea5f0b          	th.srw	t5,s4,a4,0
    859c:	00470713          	addi	a4,a4,4
    85a0:	40ebc60b          	th.lrw	a2,s7,a4,0
    85a4:	40ea560b          	th.srw	a2,s4,a4,0
    85a8:	00470713          	addi	a4,a4,4
    85ac:	40ebc48b          	th.lrw	s1,s7,a4,0
    85b0:	40ea548b          	th.srw	s1,s4,a4,0
    85b4:	00470713          	addi	a4,a4,4
    85b8:	06e88463          	beq	a7,a4,8620 <ee_printf+0x6ec>
    85bc:	40ebca8b          	th.lrw	s5,s7,a4,0
    85c0:	40ea5a8b          	th.srw	s5,s4,a4,0
    85c4:	00470293          	addi	t0,a4,4
    85c8:	405bcf8b          	th.lrw	t6,s7,t0,0
    85cc:	405a5f8b          	th.srw	t6,s4,t0,0
    85d0:	00870e93          	addi	t4,a4,8
    85d4:	41dbc38b          	th.lrw	t2,s7,t4,0
    85d8:	41da538b          	th.srw	t2,s4,t4,0
    85dc:	00c70813          	addi	a6,a4,12
    85e0:	410bcc8b          	th.lrw	s9,s7,a6,0
    85e4:	410a5c8b          	th.srw	s9,s4,a6,0
    85e8:	01070593          	addi	a1,a4,16
    85ec:	40bbc30b          	th.lrw	t1,s7,a1,0
    85f0:	40ba530b          	th.srw	t1,s4,a1,0
    85f4:	01470e13          	addi	t3,a4,20
    85f8:	41cbcf0b          	th.lrw	t5,s7,t3,0
    85fc:	41ca5f0b          	th.srw	t5,s4,t3,0
    8600:	01870613          	addi	a2,a4,24
    8604:	40cbc48b          	th.lrw	s1,s7,a2,0
    8608:	40ca548b          	th.srw	s1,s4,a2,0
    860c:	01c70a93          	addi	s5,a4,28
    8610:	415bc28b          	th.lrw	t0,s7,s5,0
    8614:	415a528b          	th.srw	t0,s4,s5,0
    8618:	02070713          	addi	a4,a4,32
    861c:	fae890e3          	bne	a7,a4,85bc <ee_printf+0x688>
    8620:	03150a63          	beq	a0,a7,8654 <ee_printf+0x720>
    8624:	011a0733          	add	a4,s4,a7
    8628:	011b8fb3          	add	t6,s7,a7
    862c:	811bcb8b          	th.lrbu	s7,s7,a7,0
    8630:	011a5b8b          	th.srb	s7,s4,a7,0
    8634:	00188e93          	addi	t4,a7,1
    8638:	018ede63          	bge	t4,s8,8654 <ee_printf+0x720>
    863c:	001fc383          	lbu	t2,1(t6)
    8640:	007700a3          	sb	t2,1(a4)
    8644:	00288893          	addi	a7,a7,2
    8648:	0188d663          	bge	a7,s8,8654 <ee_printf+0x720>
    864c:	002fc803          	lbu	a6,2(t6)
    8650:	01070123          	sb	a6,2(a4)
    8654:	00aa0a33          	add	s4,s4,a0
    8658:	00168513          	addi	a0,a3,1
    865c:	00fc4463          	blt	s8,a5,8664 <ee_printf+0x730>
    8660:	0800306f          	j	b6e0 <ee_printf+0x37ac>
    8664:	fff78e93          	addi	t4,a5,-1
    8668:	41878bb3          	sub	s7,a5,s8
    866c:	000a0313          	mv	t1,s4
    8670:	fffb8e13          	addi	t3,s7,-1
    8674:	00500713          	li	a4,5
    8678:	11c77863          	bgeu	a4,t3,8788 <ee_printf+0x854>
    867c:	414004b3          	neg	s1,s4
    8680:	0034ff13          	andi	t5,s1,3
    8684:	000f1463          	bnez	t5,868c <ee_printf+0x758>
    8688:	6dd0206f          	j	b564 <ee_printf+0x3630>
    868c:	02000613          	li	a2,32
    8690:	00ca0023          	sb	a2,0(s4)
    8694:	0024f293          	andi	t0,s1,2
    8698:	00029463          	bnez	t0,86a0 <ee_printf+0x76c>
    869c:	6bd0206f          	j	b558 <ee_printf+0x3624>
    86a0:	00ca00a3          	sb	a2,1(s4)
    86a4:	00300f93          	li	t6,3
    86a8:	01ff0463          	beq	t5,t6,86b0 <ee_printf+0x77c>
    86ac:	7d90206f          	j	b684 <ee_printf+0x3750>
    86b0:	003a0a93          	addi	s5,s4,3
    86b4:	00ca0123          	sb	a2,2(s4)
    86b8:	ffc78e93          	addi	t4,a5,-4
    86bc:	41eb83b3          	sub	t2,s7,t5
    86c0:	01ea07b3          	add	a5,s4,t5
    86c4:	ffc3f893          	andi	a7,t2,-4
    86c8:	01178833          	add	a6,a5,a7
    86cc:	20202cb7          	lui	s9,0x20202
    86d0:	020c8593          	addi	a1,s9,32 # 20202020 <_stack_top+0x201ee020>
    86d4:	ffc88e13          	addi	t3,a7,-4
    86d8:	002e5713          	srli	a4,t3,0x2
    86dc:	00170493          	addi	s1,a4,1
    86e0:	0074f613          	andi	a2,s1,7
    86e4:	06060863          	beqz	a2,8754 <ee_printf+0x820>
    86e8:	00100293          	li	t0,1
    86ec:	04560e63          	beq	a2,t0,8748 <ee_printf+0x814>
    86f0:	00200f93          	li	t6,2
    86f4:	05f60663          	beq	a2,t6,8740 <ee_printf+0x80c>
    86f8:	00300c93          	li	s9,3
    86fc:	03960e63          	beq	a2,s9,8738 <ee_printf+0x804>
    8700:	00400e13          	li	t3,4
    8704:	03c60663          	beq	a2,t3,8730 <ee_printf+0x7fc>
    8708:	00500713          	li	a4,5
    870c:	00e60e63          	beq	a2,a4,8728 <ee_printf+0x7f4>
    8710:	00600493          	li	s1,6
    8714:	00960663          	beq	a2,s1,8720 <ee_printf+0x7ec>
    8718:	41ea558b          	th.srw	a1,s4,t5,0
    871c:	00478793          	addi	a5,a5,4
    8720:	00b7a023          	sw	a1,0(a5)
    8724:	00478793          	addi	a5,a5,4
    8728:	00b7a023          	sw	a1,0(a5)
    872c:	00478793          	addi	a5,a5,4
    8730:	00b7a023          	sw	a1,0(a5)
    8734:	00478793          	addi	a5,a5,4
    8738:	00b7a023          	sw	a1,0(a5)
    873c:	00478793          	addi	a5,a5,4
    8740:	00b7a023          	sw	a1,0(a5)
    8744:	00478793          	addi	a5,a5,4
    8748:	00b7a023          	sw	a1,0(a5)
    874c:	00478793          	addi	a5,a5,4
    8750:	03078663          	beq	a5,a6,877c <ee_printf+0x848>
    8754:	00b7a023          	sw	a1,0(a5)
    8758:	00b7a223          	sw	a1,4(a5)
    875c:	00b7a423          	sw	a1,8(a5)
    8760:	00b7a623          	sw	a1,12(a5)
    8764:	00b7a823          	sw	a1,16(a5)
    8768:	00b7aa23          	sw	a1,20(a5)
    876c:	00b7ac23          	sw	a1,24(a5)
    8770:	00b7ae23          	sw	a1,28(a5)
    8774:	02078793          	addi	a5,a5,32
    8778:	fd079ee3          	bne	a5,a6,8754 <ee_printf+0x820>
    877c:	05138663          	beq	t2,a7,87c8 <ee_printf+0x894>
    8780:	411e8eb3          	sub	t4,t4,a7
    8784:	011a8a33          	add	s4,s5,a7
    8788:	02000f13          	li	t5,32
    878c:	01ea0023          	sb	t5,0(s4)
    8790:	03dc5c63          	bge	s8,t4,87c8 <ee_printf+0x894>
    8794:	01ea00a3          	sb	t5,1(s4)
    8798:	fffe8a93          	addi	s5,t4,-1
    879c:	035c5663          	bge	s8,s5,87c8 <ee_printf+0x894>
    87a0:	01ea0123          	sb	t5,2(s4)
    87a4:	ffee8393          	addi	t2,t4,-2
    87a8:	027c5063          	bge	s8,t2,87c8 <ee_printf+0x894>
    87ac:	01ea01a3          	sb	t5,3(s4)
    87b0:	ffde8893          	addi	a7,t4,-3
    87b4:	011c5a63          	bge	s8,a7,87c8 <ee_printf+0x894>
    87b8:	01ea0223          	sb	t5,4(s4)
    87bc:	ffce8813          	addi	a6,t4,-4
    87c0:	010c5463          	bge	s8,a6,87c8 <ee_printf+0x894>
    87c4:	01ea02a3          	sb	t5,5(s4)
    87c8:	006b8a33          	add	s4,s7,t1
    87cc:	0016c383          	lbu	t2,1(a3)
    87d0:	000b0493          	mv	s1,s6
    87d4:	fe039463          	bnez	t2,7fbc <ee_printf+0x88>
    87d8:	801ff06f          	j	7fd8 <ee_printf+0xa4>
    87dc:	00060693          	mv	a3,a2
    87e0:	01077b13          	andi	s6,a4,16
    87e4:	00448813          	addi	a6,s1,4
    87e8:	fff00c13          	li	s8,-1
    87ec:	498780e3          	beq	a5,s8,946c <ee_printf+0x1538>
    87f0:	0004a503          	lw	a0,0(s1)
    87f4:	00050613          	mv	a2,a0
    87f8:	480b16e3          	bnez	s6,9484 <ee_printf+0x1550>
    87fc:	00177b93          	andi	s7,a4,1
    8800:	000b9463          	bnez	s7,8808 <ee_printf+0x8d4>
    8804:	2cc0306f          	j	bad0 <ee_printf+0x3b9c>
    8808:	03000e13          	li	t3,48
    880c:	02077f13          	andi	t5,a4,32
    8810:	480f14e3          	bnez	t5,9498 <ee_printf+0x1564>
    8814:	00051463          	bnez	a0,881c <ee_printf+0x8e8>
    8818:	4c80206f          	j	ace0 <ee_printf+0x2dac>
    881c:	00061463          	bnez	a2,8824 <ee_printf+0x8f0>
    8820:	1fd0206f          	j	b21c <ee_printf+0x32e8>
    8824:	03c10593          	addi	a1,sp,60
    8828:	0000c2b7          	lui	t0,0xc
    882c:	2c828f93          	addi	t6,t0,712 # c2c8 <__modsi3+0x6d4>
    8830:	00000893          	li	a7,0
    8834:	00100513          	li	a0,1
    8838:	00050493          	mv	s1,a0
    883c:	00b50ab3          	add	s5,a0,a1
    8840:	00f67393          	andi	t2,a2,15
    8844:	807fcb0b          	th.lrbu	s6,t6,t2,0
    8848:	ff6a8fa3          	sb	s6,-1(s5)
    884c:	00465c13          	srli	s8,a2,0x4
    8850:	0c0c0c63          	beqz	s8,8928 <ee_printf+0x9f4>
    8854:	00050893          	mv	a7,a0
    8858:	00150513          	addi	a0,a0,1
    885c:	00b50333          	add	t1,a0,a1
    8860:	00fc7e93          	andi	t4,s8,15
    8864:	81dfc28b          	th.lrbu	t0,t6,t4,0
    8868:	fe530fa3          	sb	t0,-1(t1)
    886c:	00865a93          	srli	s5,a2,0x8
    8870:	0a0a8c63          	beqz	s5,8928 <ee_printf+0x9f4>
    8874:	00050893          	mv	a7,a0
    8878:	00248513          	addi	a0,s1,2
    887c:	00b503b3          	add	t2,a0,a1
    8880:	00fafb13          	andi	s6,s5,15
    8884:	816fcc0b          	th.lrbu	s8,t6,s6,0
    8888:	ff838fa3          	sb	s8,-1(t2)
    888c:	00c65313          	srli	t1,a2,0xc
    8890:	08030c63          	beqz	t1,8928 <ee_printf+0x9f4>
    8894:	00050893          	mv	a7,a0
    8898:	00348513          	addi	a0,s1,3
    889c:	00b502b3          	add	t0,a0,a1
    88a0:	00f37e93          	andi	t4,t1,15
    88a4:	81dfca8b          	th.lrbu	s5,t6,t4,0
    88a8:	ff528fa3          	sb	s5,-1(t0)
    88ac:	01065b13          	srli	s6,a2,0x10
    88b0:	060b0c63          	beqz	s6,8928 <ee_printf+0x9f4>
    88b4:	00050893          	mv	a7,a0
    88b8:	00448513          	addi	a0,s1,4
    88bc:	00b503b3          	add	t2,a0,a1
    88c0:	00fb7c13          	andi	s8,s6,15
    88c4:	818fc30b          	th.lrbu	t1,t6,s8,0
    88c8:	fe638fa3          	sb	t1,-1(t2)
    88cc:	01465293          	srli	t0,a2,0x14
    88d0:	04028c63          	beqz	t0,8928 <ee_printf+0x9f4>
    88d4:	00050893          	mv	a7,a0
    88d8:	00548513          	addi	a0,s1,5
    88dc:	00b50ab3          	add	s5,a0,a1
    88e0:	00f2fe93          	andi	t4,t0,15
    88e4:	81dfcb0b          	th.lrbu	s6,t6,t4,0
    88e8:	ff6a8fa3          	sb	s6,-1(s5)
    88ec:	01865c13          	srli	s8,a2,0x18
    88f0:	020c0c63          	beqz	s8,8928 <ee_printf+0x9f4>
    88f4:	00050893          	mv	a7,a0
    88f8:	00648513          	addi	a0,s1,6
    88fc:	00b503b3          	add	t2,a0,a1
    8900:	00fc7313          	andi	t1,s8,15
    8904:	806fc28b          	th.lrbu	t0,t6,t1,0
    8908:	fe538fa3          	sb	t0,-1(t2)
    890c:	01c65613          	srli	a2,a2,0x1c
    8910:	00060c63          	beqz	a2,8928 <ee_printf+0x9f4>
    8914:	00050893          	mv	a7,a0
    8918:	00748513          	addi	a0,s1,7
    891c:	00b505b3          	add	a1,a0,a1
    8920:	80cfcf8b          	th.lrbu	t6,t6,a2,0
    8924:	fff58fa3          	sb	t6,-1(a1)
    8928:	0aace333          	max	t1,s9,a0
    892c:	406787b3          	sub	a5,a5,t1
    8930:	560b8ee3          	beqz	s7,96ac <ee_printf+0x1778>
    8934:	000f0463          	beqz	t5,893c <ee_printf+0xa08>
    8938:	76c0206f          	j	b0a4 <ee_printf+0x3170>
    893c:	000a0593          	mv	a1,s4
    8940:	01077713          	andi	a4,a4,16
    8944:	00070463          	beqz	a4,894c <ee_printf+0xa18>
    8948:	4700206f          	j	adb8 <ee_printf+0x2e84>
    894c:	fff78e93          	addi	t4,a5,-1
    8950:	00f04463          	bgtz	a5,8958 <ee_printf+0xa24>
    8954:	18c0306f          	j	bae0 <ee_printf+0x3bac>
    8958:	00058c13          	mv	s8,a1
    895c:	00500b13          	li	s6,5
    8960:	11db7e63          	bgeu	s6,t4,8a7c <ee_printf+0xb48>
    8964:	40b003b3          	neg	t2,a1
    8968:	0033f293          	andi	t0,t2,3
    896c:	00029463          	bnez	t0,8974 <ee_printf+0xa40>
    8970:	5a90206f          	j	b718 <ee_printf+0x37e4>
    8974:	01c58023          	sb	t3,0(a1)
    8978:	0023fe93          	andi	t4,t2,2
    897c:	000e9463          	bnez	t4,8984 <ee_printf+0xa50>
    8980:	58d0206f          	j	b70c <ee_printf+0x37d8>
    8984:	01c580a3          	sb	t3,1(a1)
    8988:	00300613          	li	a2,3
    898c:	00c28463          	beq	t0,a2,8994 <ee_printf+0xa60>
    8990:	6f50206f          	j	b884 <ee_printf+0x3950>
    8994:	00358b93          	addi	s7,a1,3
    8998:	01c58123          	sb	t3,2(a1)
    899c:	ffc78e93          	addi	t4,a5,-4
    89a0:	40578fb3          	sub	t6,a5,t0
    89a4:	008e1a13          	slli	s4,t3,0x8
    89a8:	010e1493          	slli	s1,t3,0x10
    89ac:	014e6f33          	or	t5,t3,s4
    89b0:	018e1a93          	slli	s5,t3,0x18
    89b4:	009f6733          	or	a4,t5,s1
    89b8:	015763b3          	or	t2,a4,s5
    89bc:	005584b3          	add	s1,a1,t0
    89c0:	ffcffa13          	andi	s4,t6,-4
    89c4:	01448f33          	add	t5,s1,s4
    89c8:	ffca0b13          	addi	s6,s4,-4
    89cc:	002b5613          	srli	a2,s6,0x2
    89d0:	00160a93          	addi	s5,a2,1
    89d4:	007af713          	andi	a4,s5,7
    89d8:	06070863          	beqz	a4,8a48 <ee_printf+0xb14>
    89dc:	00100b13          	li	s6,1
    89e0:	05670e63          	beq	a4,s6,8a3c <ee_printf+0xb08>
    89e4:	00200613          	li	a2,2
    89e8:	04c70663          	beq	a4,a2,8a34 <ee_printf+0xb00>
    89ec:	00300a93          	li	s5,3
    89f0:	03570e63          	beq	a4,s5,8a2c <ee_printf+0xaf8>
    89f4:	00400b13          	li	s6,4
    89f8:	03670663          	beq	a4,s6,8a24 <ee_printf+0xaf0>
    89fc:	00500613          	li	a2,5
    8a00:	00c70e63          	beq	a4,a2,8a1c <ee_printf+0xae8>
    8a04:	00600a93          	li	s5,6
    8a08:	01570663          	beq	a4,s5,8a14 <ee_printf+0xae0>
    8a0c:	4055d38b          	th.srw	t2,a1,t0,0
    8a10:	00448493          	addi	s1,s1,4
    8a14:	0074a023          	sw	t2,0(s1)
    8a18:	00448493          	addi	s1,s1,4
    8a1c:	0074a023          	sw	t2,0(s1)
    8a20:	00448493          	addi	s1,s1,4
    8a24:	0074a023          	sw	t2,0(s1)
    8a28:	00448493          	addi	s1,s1,4
    8a2c:	0074a023          	sw	t2,0(s1)
    8a30:	00448493          	addi	s1,s1,4
    8a34:	0074a023          	sw	t2,0(s1)
    8a38:	00448493          	addi	s1,s1,4
    8a3c:	0074a023          	sw	t2,0(s1)
    8a40:	00448493          	addi	s1,s1,4
    8a44:	03e48663          	beq	s1,t5,8a70 <ee_printf+0xb3c>
    8a48:	0074a023          	sw	t2,0(s1)
    8a4c:	0074a223          	sw	t2,4(s1)
    8a50:	0074a423          	sw	t2,8(s1)
    8a54:	0074a623          	sw	t2,12(s1)
    8a58:	0074a823          	sw	t2,16(s1)
    8a5c:	0074aa23          	sw	t2,20(s1)
    8a60:	0074ac23          	sw	t2,24(s1)
    8a64:	0074ae23          	sw	t2,28(s1)
    8a68:	02048493          	addi	s1,s1,32
    8a6c:	fde49ee3          	bne	s1,t5,8a48 <ee_printf+0xb14>
    8a70:	054f8463          	beq	t6,s4,8ab8 <ee_printf+0xb84>
    8a74:	414e8eb3          	sub	t4,t4,s4
    8a78:	014b85b3          	add	a1,s7,s4
    8a7c:	01c58023          	sb	t3,0(a1)
    8a80:	03d05c63          	blez	t4,8ab8 <ee_printf+0xb84>
    8a84:	01c580a3          	sb	t3,1(a1)
    8a88:	00100293          	li	t0,1
    8a8c:	025e8663          	beq	t4,t0,8ab8 <ee_printf+0xb84>
    8a90:	01c58123          	sb	t3,2(a1)
    8a94:	00200b93          	li	s7,2
    8a98:	037e8063          	beq	t4,s7,8ab8 <ee_printf+0xb84>
    8a9c:	01c581a3          	sb	t3,3(a1)
    8aa0:	00300f93          	li	t6,3
    8aa4:	01fe8a63          	beq	t4,t6,8ab8 <ee_printf+0xb84>
    8aa8:	01c58223          	sb	t3,4(a1)
    8aac:	00400393          	li	t2,4
    8ab0:	007e8463          	beq	t4,t2,8ab8 <ee_printf+0xb84>
    8ab4:	01c582a3          	sb	t3,5(a1)
    8ab8:	018785b3          	add	a1,a5,s8
    8abc:	01954463          	blt	a0,s9,8ac4 <ee_printf+0xb90>
    8ac0:	6b50206f          	j	b974 <ee_printf+0x3a40>
    8ac4:	fff00793          	li	a5,-1
    8ac8:	56d0006f          	j	9834 <ee_printf+0x1900>
    8acc:	00060693          	mv	a3,a2
    8ad0:	00448c93          	addi	s9,s1,4
    8ad4:	00168513          	addi	a0,a3,1
    8ad8:	01077e13          	andi	t3,a4,16
    8adc:	1e0e0ae3          	beqz	t3,94d0 <ee_printf+0x159c>
    8ae0:	001a0313          	addi	t1,s4,1
    8ae4:	0004af03          	lw	t5,0(s1)
    8ae8:	01ea0023          	sb	t5,0(s4)
    8aec:	fff78893          	addi	a7,a5,-1
    8af0:	01104463          	bgtz	a7,8af8 <ee_printf+0xbc4>
    8af4:	7210206f          	j	ba14 <ee_printf+0x3ae0>
    8af8:	00088a93          	mv	s5,a7
    8afc:	00030e93          	mv	t4,t1
    8b00:	ffe78593          	addi	a1,a5,-2
    8b04:	00500713          	li	a4,5
    8b08:	10b75863          	bge	a4,a1,8c18 <ee_printf+0xce4>
    8b0c:	40600b33          	neg	s6,t1
    8b10:	003b7493          	andi	s1,s6,3
    8b14:	02048a63          	beqz	s1,8b48 <ee_printf+0xc14>
    8b18:	02000893          	li	a7,32
    8b1c:	011a00a3          	sb	a7,1(s4)
    8b20:	002b7393          	andi	t2,s6,2
    8b24:	00039463          	bnez	t2,8b2c <ee_printf+0xbf8>
    8b28:	2450206f          	j	b56c <ee_printf+0x3638>
    8b2c:	011a0123          	sb	a7,2(s4)
    8b30:	00300293          	li	t0,3
    8b34:	00548463          	beq	s1,t0,8b3c <ee_printf+0xc08>
    8b38:	3590206f          	j	b690 <ee_printf+0x375c>
    8b3c:	004a0313          	addi	t1,s4,4
    8b40:	011a01a3          	sb	a7,3(s4)
    8b44:	ffc78893          	addi	a7,a5,-4
    8b48:	409a8833          	sub	a6,s5,s1
    8b4c:	00148b93          	addi	s7,s1,1
    8b50:	017a07b3          	add	a5,s4,s7
    8b54:	ffc87c13          	andi	s8,a6,-4
    8b58:	00fc0fb3          	add	t6,s8,a5
    8b5c:	20202637          	lui	a2,0x20202
    8b60:	02060e13          	addi	t3,a2,32 # 20202020 <_stack_top+0x201ee020>
    8b64:	ffcc0f13          	addi	t5,s8,-4
    8b68:	002f5593          	srli	a1,t5,0x2
    8b6c:	00158713          	addi	a4,a1,1
    8b70:	00777b13          	andi	s6,a4,7
    8b74:	060b0863          	beqz	s6,8be4 <ee_printf+0xcb0>
    8b78:	00100493          	li	s1,1
    8b7c:	049b0e63          	beq	s6,s1,8bd8 <ee_printf+0xca4>
    8b80:	00200393          	li	t2,2
    8b84:	047b0663          	beq	s6,t2,8bd0 <ee_printf+0xc9c>
    8b88:	00300293          	li	t0,3
    8b8c:	025b0e63          	beq	s6,t0,8bc8 <ee_printf+0xc94>
    8b90:	00400613          	li	a2,4
    8b94:	02cb0663          	beq	s6,a2,8bc0 <ee_printf+0xc8c>
    8b98:	00500f13          	li	t5,5
    8b9c:	01eb0e63          	beq	s6,t5,8bb8 <ee_printf+0xc84>
    8ba0:	00600593          	li	a1,6
    8ba4:	00bb0663          	beq	s6,a1,8bb0 <ee_printf+0xc7c>
    8ba8:	417a5e0b          	th.srw	t3,s4,s7,0
    8bac:	00478793          	addi	a5,a5,4
    8bb0:	01c7a023          	sw	t3,0(a5)
    8bb4:	00478793          	addi	a5,a5,4
    8bb8:	01c7a023          	sw	t3,0(a5)
    8bbc:	00478793          	addi	a5,a5,4
    8bc0:	01c7a023          	sw	t3,0(a5)
    8bc4:	00478793          	addi	a5,a5,4
    8bc8:	01c7a023          	sw	t3,0(a5)
    8bcc:	00478793          	addi	a5,a5,4
    8bd0:	01c7a023          	sw	t3,0(a5)
    8bd4:	00478793          	addi	a5,a5,4
    8bd8:	01c7a023          	sw	t3,0(a5)
    8bdc:	00478793          	addi	a5,a5,4
    8be0:	02ff8663          	beq	t6,a5,8c0c <ee_printf+0xcd8>
    8be4:	01c7a023          	sw	t3,0(a5)
    8be8:	01c7a223          	sw	t3,4(a5)
    8bec:	01c7a423          	sw	t3,8(a5)
    8bf0:	01c7a623          	sw	t3,12(a5)
    8bf4:	01c7a823          	sw	t3,16(a5)
    8bf8:	01c7aa23          	sw	t3,20(a5)
    8bfc:	01c7ac23          	sw	t3,24(a5)
    8c00:	01c7ae23          	sw	t3,28(a5)
    8c04:	02078793          	addi	a5,a5,32
    8c08:	fcff9ee3          	bne	t6,a5,8be4 <ee_printf+0xcb0>
    8c0c:	050c0863          	beq	s8,a6,8c5c <ee_printf+0xd28>
    8c10:	418888b3          	sub	a7,a7,s8
    8c14:	01830333          	add	t1,t1,s8
    8c18:	02000a13          	li	s4,32
    8c1c:	01430023          	sb	s4,0(t1)
    8c20:	00100813          	li	a6,1
    8c24:	03185c63          	bge	a6,a7,8c5c <ee_printf+0xd28>
    8c28:	014300a3          	sb	s4,1(t1)
    8c2c:	00200b93          	li	s7,2
    8c30:	03788663          	beq	a7,s7,8c5c <ee_printf+0xd28>
    8c34:	01430123          	sb	s4,2(t1)
    8c38:	00300c13          	li	s8,3
    8c3c:	03888063          	beq	a7,s8,8c5c <ee_printf+0xd28>
    8c40:	014301a3          	sb	s4,3(t1)
    8c44:	00400f93          	li	t6,4
    8c48:	01f88a63          	beq	a7,t6,8c5c <ee_printf+0xd28>
    8c4c:	01430223          	sb	s4,4(t1)
    8c50:	00500e13          	li	t3,5
    8c54:	01c88463          	beq	a7,t3,8c5c <ee_printf+0xd28>
    8c58:	014302a3          	sb	s4,5(t1)
    8c5c:	01da8a33          	add	s4,s5,t4
    8c60:	0016c383          	lbu	t2,1(a3)
    8c64:	000c8493          	mv	s1,s9
    8c68:	b4039a63          	bnez	t2,7fbc <ee_printf+0x88>
    8c6c:	b6cff06f          	j	7fd8 <ee_printf+0xa4>
    8c70:	00060693          	mv	a3,a2
    8c74:	0004ae83          	lw	t4,0(s1)
    8c78:	00448493          	addi	s1,s1,4
    8c7c:	000e8b13          	mv	s6,t4
    8c80:	01077593          	andi	a1,a4,16
    8c84:	7a058e63          	beqz	a1,9440 <ee_printf+0x150c>
    8c88:	02077313          	andi	t1,a4,32
    8c8c:	00030463          	beqz	t1,8c94 <ee_printf+0xd60>
    8c90:	0b80206f          	j	ad48 <ee_printf+0x2e14>
    8c94:	000e8463          	beqz	t4,8c9c <ee_printf+0xd68>
    8c98:	4bc0206f          	j	b154 <ee_printf+0x3220>
    8c9c:	03000f13          	li	t5,48
    8ca0:	03e10e23          	sb	t5,60(sp)
    8ca4:	00100a93          	li	s5,1
    8ca8:	0b5ce633          	max	a2,s9,s5
    8cac:	40c787b3          	sub	a5,a5,a2
    8cb0:	00012023          	sw	zero,0(sp)
    8cb4:	01000e13          	li	t3,16
    8cb8:	000e0f13          	mv	t5,t3
    8cbc:	02000893          	li	a7,32
    8cc0:	00030e63          	beqz	t1,8cdc <ee_printf+0xda8>
    8cc4:	00800313          	li	t1,8
    8cc8:	006f1463          	bne	t5,t1,8cd0 <ee_printf+0xd9c>
    8ccc:	5ec0206f          	j	b2b8 <ee_printf+0x3384>
    8cd0:	01000813          	li	a6,16
    8cd4:	010f1463          	bne	t5,a6,8cdc <ee_printf+0xda8>
    8cd8:	6310106f          	j	ab08 <ee_printf+0x2bd4>
    8cdc:	000a0b93          	mv	s7,s4
    8ce0:	160e1c63          	bnez	t3,8e58 <ee_printf+0xf24>
    8ce4:	fff78e13          	addi	t3,a5,-1
    8ce8:	00f04463          	bgtz	a5,8cf0 <ee_printf+0xdbc>
    8cec:	6750206f          	j	bb60 <ee_printf+0x3c2c>
    8cf0:	000b8f93          	mv	t6,s7
    8cf4:	00500713          	li	a4,5
    8cf8:	11c77e63          	bgeu	a4,t3,8e14 <ee_printf+0xee0>
    8cfc:	41700a33          	neg	s4,s7
    8d00:	003a7593          	andi	a1,s4,3
    8d04:	00059463          	bnez	a1,8d0c <ee_printf+0xdd8>
    8d08:	6000206f          	j	b308 <ee_printf+0x33d4>
    8d0c:	011b8023          	sb	a7,0(s7)
    8d10:	002a7e13          	andi	t3,s4,2
    8d14:	000e1463          	bnez	t3,8d1c <ee_printf+0xde8>
    8d18:	5f80206f          	j	b310 <ee_printf+0x33dc>
    8d1c:	011b80a3          	sb	a7,1(s7)
    8d20:	00300393          	li	t2,3
    8d24:	00758463          	beq	a1,t2,8d2c <ee_printf+0xdf8>
    8d28:	6b00206f          	j	b3d8 <ee_printf+0x34a4>
    8d2c:	003b8293          	addi	t0,s7,3
    8d30:	011b8123          	sb	a7,2(s7)
    8d34:	ffc78e13          	addi	t3,a5,-4
    8d38:	40b78eb3          	sub	t4,a5,a1
    8d3c:	00889b13          	slli	s6,a7,0x8
    8d40:	01089313          	slli	t1,a7,0x10
    8d44:	0168e833          	or	a6,a7,s6
    8d48:	01889f13          	slli	t5,a7,0x18
    8d4c:	00686533          	or	a0,a6,t1
    8d50:	01e56c33          	or	s8,a0,t5
    8d54:	00bb8733          	add	a4,s7,a1
    8d58:	ffcef393          	andi	t2,t4,-4
    8d5c:	00e38a33          	add	s4,t2,a4
    8d60:	ffc38b13          	addi	s6,t2,-4
    8d64:	002b5313          	srli	t1,s6,0x2
    8d68:	00130813          	addi	a6,t1,1
    8d6c:	00787f13          	andi	t5,a6,7
    8d70:	060f0863          	beqz	t5,8de0 <ee_printf+0xeac>
    8d74:	00100513          	li	a0,1
    8d78:	04af0e63          	beq	t5,a0,8dd4 <ee_printf+0xea0>
    8d7c:	00200b13          	li	s6,2
    8d80:	056f0663          	beq	t5,s6,8dcc <ee_printf+0xe98>
    8d84:	00300313          	li	t1,3
    8d88:	026f0e63          	beq	t5,t1,8dc4 <ee_printf+0xe90>
    8d8c:	00400813          	li	a6,4
    8d90:	030f0663          	beq	t5,a6,8dbc <ee_printf+0xe88>
    8d94:	00500513          	li	a0,5
    8d98:	00af0e63          	beq	t5,a0,8db4 <ee_printf+0xe80>
    8d9c:	00600b13          	li	s6,6
    8da0:	016f0663          	beq	t5,s6,8dac <ee_printf+0xe78>
    8da4:	40bbdc0b          	th.srw	s8,s7,a1,0
    8da8:	00470713          	addi	a4,a4,4
    8dac:	01872023          	sw	s8,0(a4)
    8db0:	00470713          	addi	a4,a4,4
    8db4:	01872023          	sw	s8,0(a4)
    8db8:	00470713          	addi	a4,a4,4
    8dbc:	01872023          	sw	s8,0(a4)
    8dc0:	00470713          	addi	a4,a4,4
    8dc4:	01872023          	sw	s8,0(a4)
    8dc8:	00470713          	addi	a4,a4,4
    8dcc:	01872023          	sw	s8,0(a4)
    8dd0:	00470713          	addi	a4,a4,4
    8dd4:	01872023          	sw	s8,0(a4)
    8dd8:	00470713          	addi	a4,a4,4
    8ddc:	02ea0663          	beq	s4,a4,8e08 <ee_printf+0xed4>
    8de0:	01872023          	sw	s8,0(a4)
    8de4:	01872223          	sw	s8,4(a4)
    8de8:	01872423          	sw	s8,8(a4)
    8dec:	01872623          	sw	s8,12(a4)
    8df0:	01872823          	sw	s8,16(a4)
    8df4:	01872a23          	sw	s8,20(a4)
    8df8:	01872c23          	sw	s8,24(a4)
    8dfc:	01872e23          	sw	s8,28(a4)
    8e00:	02070713          	addi	a4,a4,32
    8e04:	fcea1ee3          	bne	s4,a4,8de0 <ee_printf+0xeac>
    8e08:	047e8463          	beq	t4,t2,8e50 <ee_printf+0xf1c>
    8e0c:	407e0e33          	sub	t3,t3,t2
    8e10:	00728bb3          	add	s7,t0,t2
    8e14:	011b8023          	sb	a7,0(s7)
    8e18:	03c05c63          	blez	t3,8e50 <ee_printf+0xf1c>
    8e1c:	011b80a3          	sb	a7,1(s7)
    8e20:	00100593          	li	a1,1
    8e24:	02be0663          	beq	t3,a1,8e50 <ee_printf+0xf1c>
    8e28:	011b8123          	sb	a7,2(s7)
    8e2c:	00200293          	li	t0,2
    8e30:	025e0063          	beq	t3,t0,8e50 <ee_printf+0xf1c>
    8e34:	011b81a3          	sb	a7,3(s7)
    8e38:	00300e93          	li	t4,3
    8e3c:	01de0a63          	beq	t3,t4,8e50 <ee_printf+0xf1c>
    8e40:	011b8223          	sb	a7,4(s7)
    8e44:	00400c13          	li	s8,4
    8e48:	018e0463          	beq	t3,s8,8e50 <ee_printf+0xf1c>
    8e4c:	011b82a3          	sb	a7,5(s7)
    8e50:	01f78bb3          	add	s7,a5,t6
    8e54:	fff00793          	li	a5,-1
    8e58:	199ad263          	bge	s5,s9,8fdc <ee_printf+0x10a8>
    8e5c:	fff60e93          	addi	t4,a2,-1
    8e60:	00caacb3          	slt	s9,s5,a2
    8e64:	415603b3          	sub	t2,a2,s5
    8e68:	000b8313          	mv	t1,s7
    8e6c:	fff38893          	addi	a7,t2,-1
    8e70:	12cad063          	bge	s5,a2,8f90 <ee_printf+0x105c>
    8e74:	0068bf93          	sltiu	t6,a7,6
    8e78:	100f9c63          	bnez	t6,8f90 <ee_printf+0x105c>
    8e7c:	00100a13          	li	s4,1
    8e80:	419a138b          	th.mveqz	t2,s4,s9
    8e84:	41700833          	neg	a6,s7
    8e88:	00387f13          	andi	t5,a6,3
    8e8c:	000f1463          	bnez	t5,8e94 <ee_printf+0xf60>
    8e90:	3e80206f          	j	b278 <ee_printf+0x3344>
    8e94:	03000b13          	li	s6,48
    8e98:	016b8023          	sb	s6,0(s7)
    8e9c:	00287513          	andi	a0,a6,2
    8ea0:	00051463          	bnez	a0,8ea8 <ee_printf+0xf74>
    8ea4:	3c80206f          	j	b26c <ee_printf+0x3338>
    8ea8:	016b80a3          	sb	s6,1(s7)
    8eac:	00300713          	li	a4,3
    8eb0:	00ef0463          	beq	t5,a4,8eb8 <ee_printf+0xf84>
    8eb4:	3f80206f          	j	b2ac <ee_printf+0x3378>
    8eb8:	003b8e13          	addi	t3,s7,3
    8ebc:	016b8123          	sb	s6,2(s7)
    8ec0:	ffc60e93          	addi	t4,a2,-4
    8ec4:	41e385b3          	sub	a1,t2,t5
    8ec8:	01eb8733          	add	a4,s7,t5
    8ecc:	ffc5f293          	andi	t0,a1,-4
    8ed0:	00570c33          	add	s8,a4,t0
    8ed4:	30303637          	lui	a2,0x30303
    8ed8:	03060393          	addi	t2,a2,48 # 30303030 <_stack_top+0x302ef030>
    8edc:	ffc28f93          	addi	t6,t0,-4
    8ee0:	002fda13          	srli	s4,t6,0x2
    8ee4:	001a0813          	addi	a6,s4,1
    8ee8:	00787b13          	andi	s6,a6,7
    8eec:	060b0863          	beqz	s6,8f5c <ee_printf+0x1028>
    8ef0:	00100513          	li	a0,1
    8ef4:	04ab0e63          	beq	s6,a0,8f50 <ee_printf+0x101c>
    8ef8:	00200613          	li	a2,2
    8efc:	04cb0663          	beq	s6,a2,8f48 <ee_printf+0x1014>
    8f00:	00300f93          	li	t6,3
    8f04:	03fb0e63          	beq	s6,t6,8f40 <ee_printf+0x100c>
    8f08:	00400a13          	li	s4,4
    8f0c:	034b0663          	beq	s6,s4,8f38 <ee_printf+0x1004>
    8f10:	00500813          	li	a6,5
    8f14:	010b0e63          	beq	s6,a6,8f30 <ee_printf+0xffc>
    8f18:	00600513          	li	a0,6
    8f1c:	00ab0663          	beq	s6,a0,8f28 <ee_printf+0xff4>
    8f20:	41ebd38b          	th.srw	t2,s7,t5,0
    8f24:	00470713          	addi	a4,a4,4
    8f28:	00772023          	sw	t2,0(a4)
    8f2c:	00470713          	addi	a4,a4,4
    8f30:	00772023          	sw	t2,0(a4)
    8f34:	00470713          	addi	a4,a4,4
    8f38:	00772023          	sw	t2,0(a4)
    8f3c:	00470713          	addi	a4,a4,4
    8f40:	00772023          	sw	t2,0(a4)
    8f44:	00470713          	addi	a4,a4,4
    8f48:	00772023          	sw	t2,0(a4)
    8f4c:	00470713          	addi	a4,a4,4
    8f50:	00772023          	sw	t2,0(a4)
    8f54:	00470713          	addi	a4,a4,4
    8f58:	03870663          	beq	a4,s8,8f84 <ee_printf+0x1050>
    8f5c:	00772023          	sw	t2,0(a4)
    8f60:	00772223          	sw	t2,4(a4)
    8f64:	00772423          	sw	t2,8(a4)
    8f68:	00772623          	sw	t2,12(a4)
    8f6c:	00772823          	sw	t2,16(a4)
    8f70:	00772a23          	sw	t2,20(a4)
    8f74:	00772c23          	sw	t2,24(a4)
    8f78:	00772e23          	sw	t2,28(a4)
    8f7c:	02070713          	addi	a4,a4,32
    8f80:	fd871ee3          	bne	a4,s8,8f5c <ee_printf+0x1028>
    8f84:	04558663          	beq	a1,t0,8fd0 <ee_printf+0x109c>
    8f88:	405e8eb3          	sub	t4,t4,t0
    8f8c:	005e0bb3          	add	s7,t3,t0
    8f90:	03000f13          	li	t5,48
    8f94:	01eb8023          	sb	t5,0(s7)
    8f98:	03dadc63          	bge	s5,t4,8fd0 <ee_printf+0x109c>
    8f9c:	01eb80a3          	sb	t5,1(s7)
    8fa0:	fffe8e13          	addi	t3,t4,-1
    8fa4:	03cad663          	bge	s5,t3,8fd0 <ee_printf+0x109c>
    8fa8:	01eb8123          	sb	t5,2(s7)
    8fac:	ffee8593          	addi	a1,t4,-2
    8fb0:	02bad063          	bge	s5,a1,8fd0 <ee_printf+0x109c>
    8fb4:	01eb81a3          	sb	t5,3(s7)
    8fb8:	ffde8293          	addi	t0,t4,-3
    8fbc:	005ada63          	bge	s5,t0,8fd0 <ee_printf+0x109c>
    8fc0:	01eb8223          	sb	t5,4(s7)
    8fc4:	ffce8c13          	addi	s8,t4,-4
    8fc8:	018ad463          	bge	s5,s8,8fd0 <ee_printf+0x109c>
    8fcc:	01eb82a3          	sb	t5,5(s7)
    8fd0:	4190188b          	th.mveqz	a7,zero,s9
    8fd4:	00188a93          	addi	s5,a7,1
    8fd8:	006a8bb3          	add	s7,s5,t1
    8fdc:	03c10c93          	addi	s9,sp,60
    8fe0:	00012383          	lw	t2,0(sp)
    8fe4:	007c8733          	add	a4,s9,t2
    8fe8:	000b8613          	mv	a2,s7
    8fec:	03b10b13          	addi	s6,sp,59
    8ff0:	41670333          	sub	t1,a4,s6
    8ff4:	00737f93          	andi	t6,t1,7
    8ff8:	0a0f8463          	beqz	t6,90a0 <ee_printf+0x116c>
    8ffc:	00100a13          	li	s4,1
    9000:	094f8663          	beq	t6,s4,908c <ee_printf+0x1158>
    9004:	00200813          	li	a6,2
    9008:	070f8a63          	beq	t6,a6,907c <ee_printf+0x1148>
    900c:	00300513          	li	a0,3
    9010:	04af8e63          	beq	t6,a0,906c <ee_printf+0x1138>
    9014:	00400e93          	li	t4,4
    9018:	05df8263          	beq	t6,t4,905c <ee_printf+0x1128>
    901c:	00500f13          	li	t5,5
    9020:	03ef8663          	beq	t6,t5,904c <ee_printf+0x1118>
    9024:	00600e13          	li	t3,6
    9028:	01cf8a63          	beq	t6,t3,903c <ee_printf+0x1108>
    902c:	001b8613          	addi	a2,s7,1
    9030:	807cc28b          	th.lrbu	t0,s9,t2,0
    9034:	005b8023          	sb	t0,0(s7)
    9038:	fff70713          	addi	a4,a4,-1
    903c:	00074c03          	lbu	s8,0(a4)
    9040:	01860023          	sb	s8,0(a2)
    9044:	00160613          	addi	a2,a2,1
    9048:	fff70713          	addi	a4,a4,-1
    904c:	00074883          	lbu	a7,0(a4)
    9050:	01160023          	sb	a7,0(a2)
    9054:	00160613          	addi	a2,a2,1
    9058:	fff70713          	addi	a4,a4,-1
    905c:	00074a83          	lbu	s5,0(a4)
    9060:	01560023          	sb	s5,0(a2)
    9064:	00160613          	addi	a2,a2,1
    9068:	fff70713          	addi	a4,a4,-1
    906c:	00074c83          	lbu	s9,0(a4)
    9070:	01960023          	sb	s9,0(a2)
    9074:	00160613          	addi	a2,a2,1
    9078:	fff70713          	addi	a4,a4,-1
    907c:	00074303          	lbu	t1,0(a4)
    9080:	00660023          	sb	t1,0(a2)
    9084:	00160613          	addi	a2,a2,1
    9088:	fff70713          	addi	a4,a4,-1
    908c:	00160613          	addi	a2,a2,1
    9090:	00074f83          	lbu	t6,0(a4)
    9094:	fff60fa3          	sb	t6,-1(a2)
    9098:	fff70713          	addi	a4,a4,-1
    909c:	04eb0863          	beq	s6,a4,90ec <ee_printf+0x11b8>
    90a0:	00074a03          	lbu	s4,0(a4)
    90a4:	01460023          	sb	s4,0(a2)
    90a8:	fff74803          	lbu	a6,-1(a4)
    90ac:	010600a3          	sb	a6,1(a2)
    90b0:	ffe74503          	lbu	a0,-2(a4)
    90b4:	00a60123          	sb	a0,2(a2)
    90b8:	ffd74e83          	lbu	t4,-3(a4)
    90bc:	01d601a3          	sb	t4,3(a2)
    90c0:	ffc74f03          	lbu	t5,-4(a4)
    90c4:	01e60223          	sb	t5,4(a2)
    90c8:	ffb74e03          	lbu	t3,-5(a4)
    90cc:	01c602a3          	sb	t3,5(a2)
    90d0:	ffa74583          	lbu	a1,-6(a4)
    90d4:	00b60323          	sb	a1,6(a2)
    90d8:	00860613          	addi	a2,a2,8
    90dc:	ff974283          	lbu	t0,-7(a4)
    90e0:	fe560fa3          	sb	t0,-1(a2)
    90e4:	ff870713          	addi	a4,a4,-8
    90e8:	faeb1ce3          	bne	s6,a4,90a0 <ee_printf+0x116c>
    90ec:	007b8bb3          	add	s7,s7,t2
    90f0:	001b8393          	addi	t2,s7,1
    90f4:	00038a13          	mv	s4,t2
    90f8:	16f05263          	blez	a5,925c <ee_printf+0x1328>
    90fc:	fff78313          	addi	t1,a5,-1
    9100:	00500b13          	li	s6,5
    9104:	106b5a63          	bge	s6,t1,9218 <ee_printf+0x12e4>
    9108:	00300c13          	li	s8,3
    910c:	417c78b3          	andn	a7,s8,s7
    9110:	02088c63          	beqz	a7,9148 <ee_printf+0x1214>
    9114:	02000a93          	li	s5,32
    9118:	015b80a3          	sb	s5,1(s7)
    911c:	00200c93          	li	s9,2
    9120:	417cf333          	andn	t1,s9,s7
    9124:	00031463          	bnez	t1,912c <ee_printf+0x11f8>
    9128:	1580206f          	j	b280 <ee_printf+0x334c>
    912c:	015380a3          	sb	s5,1(t2)
    9130:	003bf613          	andi	a2,s7,3
    9134:	00060463          	beqz	a2,913c <ee_printf+0x1208>
    9138:	1680206f          	j	b2a0 <ee_printf+0x336c>
    913c:	01538123          	sb	s5,2(t2)
    9140:	ffc78313          	addi	t1,a5,-4
    9144:	004b8a13          	addi	s4,s7,4
    9148:	41178fb3          	sub	t6,a5,a7
    914c:	011b8533          	add	a0,s7,a7
    9150:	00150713          	addi	a4,a0,1
    9154:	ffcff813          	andi	a6,t6,-4
    9158:	01070eb3          	add	t4,a4,a6
    915c:	20202f37          	lui	t5,0x20202
    9160:	020f0e13          	addi	t3,t5,32 # 20202020 <_stack_top+0x201ee020>
    9164:	ffc80593          	addi	a1,a6,-4
    9168:	0025d293          	srli	t0,a1,0x2
    916c:	00128b93          	addi	s7,t0,1
    9170:	007bfb13          	andi	s6,s7,7
    9174:	060b0863          	beqz	s6,91e4 <ee_printf+0x12b0>
    9178:	00100c13          	li	s8,1
    917c:	058b0e63          	beq	s6,s8,91d8 <ee_printf+0x12a4>
    9180:	00200893          	li	a7,2
    9184:	051b0663          	beq	s6,a7,91d0 <ee_printf+0x129c>
    9188:	00300a93          	li	s5,3
    918c:	035b0e63          	beq	s6,s5,91c8 <ee_printf+0x1294>
    9190:	00400c93          	li	s9,4
    9194:	039b0663          	beq	s6,s9,91c0 <ee_printf+0x128c>
    9198:	00500613          	li	a2,5
    919c:	00cb0e63          	beq	s6,a2,91b8 <ee_printf+0x1284>
    91a0:	00600f13          	li	t5,6
    91a4:	01eb0663          	beq	s6,t5,91b0 <ee_printf+0x127c>
    91a8:	01c520a3          	sw	t3,1(a0)
    91ac:	00550713          	addi	a4,a0,5
    91b0:	01c72023          	sw	t3,0(a4)
    91b4:	00470713          	addi	a4,a4,4
    91b8:	01c72023          	sw	t3,0(a4)
    91bc:	00470713          	addi	a4,a4,4
    91c0:	01c72023          	sw	t3,0(a4)
    91c4:	00470713          	addi	a4,a4,4
    91c8:	01c72023          	sw	t3,0(a4)
    91cc:	00470713          	addi	a4,a4,4
    91d0:	01c72023          	sw	t3,0(a4)
    91d4:	00470713          	addi	a4,a4,4
    91d8:	01c72023          	sw	t3,0(a4)
    91dc:	00470713          	addi	a4,a4,4
    91e0:	02ee8663          	beq	t4,a4,920c <ee_printf+0x12d8>
    91e4:	01c72023          	sw	t3,0(a4)
    91e8:	01c72223          	sw	t3,4(a4)
    91ec:	01c72423          	sw	t3,8(a4)
    91f0:	01c72623          	sw	t3,12(a4)
    91f4:	01c72823          	sw	t3,16(a4)
    91f8:	01c72a23          	sw	t3,20(a4)
    91fc:	01c72c23          	sw	t3,24(a4)
    9200:	01c72e23          	sw	t3,28(a4)
    9204:	02070713          	addi	a4,a4,32
    9208:	fcee9ee3          	bne	t4,a4,91e4 <ee_printf+0x12b0>
    920c:	050f8663          	beq	t6,a6,9258 <ee_printf+0x1324>
    9210:	41030333          	sub	t1,t1,a6
    9214:	010a0a33          	add	s4,s4,a6
    9218:	02000f93          	li	t6,32
    921c:	01fa0023          	sb	t6,0(s4)
    9220:	02605c63          	blez	t1,9258 <ee_printf+0x1324>
    9224:	01fa00a3          	sb	t6,1(s4)
    9228:	00100513          	li	a0,1
    922c:	02a30663          	beq	t1,a0,9258 <ee_printf+0x1324>
    9230:	01fa0123          	sb	t6,2(s4)
    9234:	00200813          	li	a6,2
    9238:	03030063          	beq	t1,a6,9258 <ee_printf+0x1324>
    923c:	01fa01a3          	sb	t6,3(s4)
    9240:	00300e93          	li	t4,3
    9244:	01d30a63          	beq	t1,t4,9258 <ee_printf+0x1324>
    9248:	01fa0223          	sb	t6,4(s4)
    924c:	00400e13          	li	t3,4
    9250:	01c30463          	beq	t1,t3,9258 <ee_printf+0x1324>
    9254:	01fa02a3          	sb	t6,5(s4)
    9258:	00f38a33          	add	s4,t2,a5
    925c:	0016c383          	lbu	t2,1(a3)
    9260:	00168513          	addi	a0,a3,1
    9264:	00038463          	beqz	t2,926c <ee_printf+0x1338>
    9268:	d55fe06f          	j	7fbc <ee_printf+0x88>
    926c:	d6dfe06f          	j	7fd8 <ee_printf+0xa4>
    9270:	00060693          	mv	a3,a2
    9274:	0004ae03          	lw	t3,0(s1)
    9278:	00448493          	addi	s1,s1,4
    927c:	000e0b13          	mv	s6,t3
    9280:	01077293          	andi	t0,a4,16
    9284:	1a028863          	beqz	t0,9434 <ee_printf+0x1500>
    9288:	02077313          	andi	t1,a4,32
    928c:	00030463          	beqz	t1,9294 <ee_printf+0x1360>
    9290:	2810106f          	j	ad10 <ee_printf+0x2ddc>
    9294:	000e0463          	beqz	t3,929c <ee_printf+0x1368>
    9298:	6990106f          	j	b130 <ee_printf+0x31fc>
    929c:	03000813          	li	a6,48
    92a0:	03010e23          	sb	a6,60(sp)
    92a4:	00100a93          	li	s5,1
    92a8:	0b5ce633          	max	a2,s9,s5
    92ac:	40c787b3          	sub	a5,a5,a2
    92b0:	00012023          	sw	zero,0(sp)
    92b4:	01000e13          	li	t3,16
    92b8:	00a00f13          	li	t5,10
    92bc:	02000893          	li	a7,32
    92c0:	a00312e3          	bnez	t1,8cc4 <ee_printf+0xd90>
    92c4:	a19ff06f          	j	8cdc <ee_printf+0xda8>
    92c8:	00000613          	li	a2,0
    92cc:	00150513          	addi	a0,a0,1
    92d0:	00050f13          	mv	t5,a0
    92d4:	20c64fb3          	sh2add	t6,a2,a2
    92d8:	20bfa6b3          	sh1add	a3,t6,a1
    92dc:	fd068613          	addi	a2,a3,-48
    92e0:	00054583          	lbu	a1,0(a0)
    92e4:	fd058293          	addi	t0,a1,-48
    92e8:	0ff2f313          	zext.b	t1,t0
    92ec:	0e6e6263          	bltu	t3,t1,93d0 <ee_printf+0x149c>
    92f0:	00150513          	addi	a0,a0,1
    92f4:	20c643b3          	sh2add	t2,a2,a2
    92f8:	20b3a633          	sh1add	a2,t2,a1
    92fc:	fd060613          	addi	a2,a2,-48
    9300:	00054583          	lbu	a1,0(a0)
    9304:	fd058813          	addi	a6,a1,-48
    9308:	0ff87893          	zext.b	a7,a6
    930c:	0d1e6263          	bltu	t3,a7,93d0 <ee_printf+0x149c>
    9310:	002f0513          	addi	a0,t5,2
    9314:	20c64ab3          	sh2add	s5,a2,a2
    9318:	20baa5b3          	sh1add	a1,s5,a1
    931c:	fd058613          	addi	a2,a1,-48
    9320:	002f4583          	lbu	a1,2(t5)
    9324:	fd058b93          	addi	s7,a1,-48
    9328:	0ffbfb13          	zext.b	s6,s7
    932c:	0b6e6263          	bltu	t3,s6,93d0 <ee_printf+0x149c>
    9330:	003f0513          	addi	a0,t5,3
    9334:	20c64c33          	sh2add	s8,a2,a2
    9338:	20bc2cb3          	sh1add	s9,s8,a1
    933c:	fd0c8613          	addi	a2,s9,-48
    9340:	003f4583          	lbu	a1,3(t5)
    9344:	fd058e93          	addi	t4,a1,-48
    9348:	0ffeff93          	zext.b	t6,t4
    934c:	09fe6263          	bltu	t3,t6,93d0 <ee_printf+0x149c>
    9350:	004f0513          	addi	a0,t5,4
    9354:	20c646b3          	sh2add	a3,a2,a2
    9358:	20b6a2b3          	sh1add	t0,a3,a1
    935c:	fd028613          	addi	a2,t0,-48
    9360:	004f4583          	lbu	a1,4(t5)
    9364:	fd058313          	addi	t1,a1,-48
    9368:	0ff37393          	zext.b	t2,t1
    936c:	067e6263          	bltu	t3,t2,93d0 <ee_printf+0x149c>
    9370:	005f0513          	addi	a0,t5,5
    9374:	20c64633          	sh2add	a2,a2,a2
    9378:	20b62833          	sh1add	a6,a2,a1
    937c:	fd080613          	addi	a2,a6,-48
    9380:	005f4583          	lbu	a1,5(t5)
    9384:	fd058893          	addi	a7,a1,-48
    9388:	0ff8fa93          	zext.b	s5,a7
    938c:	055e6263          	bltu	t3,s5,93d0 <ee_printf+0x149c>
    9390:	006f0513          	addi	a0,t5,6
    9394:	20c64bb3          	sh2add	s7,a2,a2
    9398:	20bba5b3          	sh1add	a1,s7,a1
    939c:	fd058613          	addi	a2,a1,-48
    93a0:	006f4583          	lbu	a1,6(t5)
    93a4:	fd058b13          	addi	s6,a1,-48
    93a8:	0ffb7c13          	zext.b	s8,s6
    93ac:	038e6263          	bltu	t3,s8,93d0 <ee_printf+0x149c>
    93b0:	007f0513          	addi	a0,t5,7
    93b4:	20c64cb3          	sh2add	s9,a2,a2
    93b8:	20bcaeb3          	sh1add	t4,s9,a1
    93bc:	fd0e8613          	addi	a2,t4,-48
    93c0:	007f4583          	lbu	a1,7(t5)
    93c4:	fd058f13          	addi	t5,a1,-48
    93c8:	0fff7f93          	zext.b	t6,t5
    93cc:	f1fe70e3          	bgeu	t3,t6,92cc <ee_printf+0x1398>
    93d0:	0a066cb3          	max	s9,a2,zero
    93d4:	00050613          	mv	a2,a0
    93d8:	d2dfe06f          	j	8104 <ee_printf+0x1d0>
    93dc:	0004ae83          	lw	t4,0(s1)
    93e0:	0a0eecb3          	max	s9,t4,zero
    93e4:	00264583          	lbu	a1,2(a2)
    93e8:	00448493          	addi	s1,s1,4
    93ec:	00260613          	addi	a2,a2,2
    93f0:	d15fe06f          	j	8104 <ee_printf+0x1d0>
    93f4:	02077313          	andi	t1,a4,32
    93f8:	00030463          	beqz	t1,9400 <ee_printf+0x14cc>
    93fc:	0950106f          	j	ac90 <ee_printf+0x2d5c>
    9400:	00080463          	beqz	a6,9408 <ee_printf+0x14d4>
    9404:	5090106f          	j	b10c <ee_printf+0x31d8>
    9408:	03000c13          	li	s8,48
    940c:	03810e23          	sb	s8,60(sp)
    9410:	00100a93          	li	s5,1
    9414:	0b5ce633          	max	a2,s9,s5
    9418:	40c787b3          	sub	a5,a5,a2
    941c:	00012023          	sw	zero,0(sp)
    9420:	01000e13          	li	t3,16
    9424:	00800f13          	li	t5,8
    9428:	02000893          	li	a7,32
    942c:	88031ce3          	bnez	t1,8cc4 <ee_printf+0xd90>
    9430:	8adff06f          	j	8cdc <ee_printf+0xda8>
    9434:	00a00c13          	li	s8,10
    9438:	000c0f13          	mv	t5,s8
    943c:	f51fe06f          	j	838c <ee_printf+0x458>
    9440:	01000c13          	li	s8,16
    9444:	000c0f13          	mv	t5,s8
    9448:	f45fe06f          	j	838c <ee_printf+0x458>
    944c:	001a0a13          	addi	s4,s4,1
    9450:	00ba0023          	sb	a1,0(s4)
    9454:	0016c383          	lbu	t2,1(a3)
    9458:	00168513          	addi	a0,a3,1
    945c:	001a0a13          	addi	s4,s4,1
    9460:	00038463          	beqz	t2,9468 <ee_printf+0x1534>
    9464:	b59fe06f          	j	7fbc <ee_printf+0x88>
    9468:	b71fe06f          	j	7fd8 <ee_printf+0xa4>
    946c:	00176713          	ori	a4,a4,1
    9470:	0004a503          	lw	a0,0(s1)
    9474:	00050613          	mv	a2,a0
    9478:	000b1463          	bnez	s6,9480 <ee_printf+0x154c>
    947c:	1610106f          	j	addc <ee_printf+0x2ea8>
    9480:	00800793          	li	a5,8
    9484:	ffe77713          	andi	a4,a4,-2
    9488:	01000b93          	li	s7,16
    948c:	02000e13          	li	t3,32
    9490:	02077f13          	andi	t5,a4,32
    9494:	b80f0063          	beqz	t5,8814 <ee_printf+0x8e0>
    9498:	ffe78793          	addi	a5,a5,-2
    949c:	00051463          	bnez	a0,94a4 <ee_printf+0x1570>
    94a0:	7c80106f          	j	ac68 <ee_printf+0x2d34>
    94a4:	b8061063          	bnez	a2,8824 <ee_printf+0x8f0>
    94a8:	0a0ce333          	max	t1,s9,zero
    94ac:	406787b3          	sub	a5,a5,t1
    94b0:	1e0b8a63          	beqz	s7,96a4 <ee_printf+0x1770>
    94b4:	00000513          	li	a0,0
    94b8:	fff00893          	li	a7,-1
    94bc:	3e90106f          	j	b0a4 <ee_printf+0x3170>
    94c0:	01077493          	andi	s1,a4,16
    94c4:	0000c537          	lui	a0,0xc
    94c8:	2c050b93          	addi	s7,a0,704 # c2c0 <__modsi3+0x6cc>
    94cc:	f21fe06f          	j	83ec <ee_printf+0x4b8>
    94d0:	00100a93          	li	s5,1
    94d4:	00fac463          	blt	s5,a5,94dc <ee_printf+0x15a8>
    94d8:	4f50106f          	j	b1cc <ee_printf+0x3298>
    94dc:	fff78893          	addi	a7,a5,-1
    94e0:	000a0b13          	mv	s6,s4
    94e4:	ffe78393          	addi	t2,a5,-2
    94e8:	00500713          	li	a4,5
    94ec:	10775a63          	bge	a4,t2,9600 <ee_printf+0x16cc>
    94f0:	414002b3          	neg	t0,s4
    94f4:	0032ff13          	andi	t5,t0,3
    94f8:	000f1463          	bnez	t5,9500 <ee_printf+0x15cc>
    94fc:	4500206f          	j	b94c <ee_printf+0x3a18>
    9500:	02000613          	li	a2,32
    9504:	00ca0023          	sb	a2,0(s4)
    9508:	0022f593          	andi	a1,t0,2
    950c:	00059463          	bnez	a1,9514 <ee_printf+0x15e0>
    9510:	4300206f          	j	b940 <ee_printf+0x3a0c>
    9514:	00ca00a3          	sb	a2,1(s4)
    9518:	00300893          	li	a7,3
    951c:	011f0463          	beq	t5,a7,9524 <ee_printf+0x15f0>
    9520:	4800206f          	j	b9a0 <ee_printf+0x3a6c>
    9524:	003a0813          	addi	a6,s4,3
    9528:	00ca0123          	sb	a2,2(s4)
    952c:	ffc78893          	addi	a7,a5,-4
    9530:	41e78333          	sub	t1,a5,t5
    9534:	fff30b93          	addi	s7,t1,-1
    9538:	01ea0733          	add	a4,s4,t5
    953c:	ffcbfc13          	andi	s8,s7,-4
    9540:	01870fb3          	add	t6,a4,s8
    9544:	20202e37          	lui	t3,0x20202
    9548:	020e0a93          	addi	s5,t3,32 # 20202020 <_stack_top+0x201ee020>
    954c:	ffcc0e93          	addi	t4,s8,-4
    9550:	002ed393          	srli	t2,t4,0x2
    9554:	00138293          	addi	t0,t2,1
    9558:	0072f613          	andi	a2,t0,7
    955c:	06060863          	beqz	a2,95cc <ee_printf+0x1698>
    9560:	00100593          	li	a1,1
    9564:	04b60e63          	beq	a2,a1,95c0 <ee_printf+0x168c>
    9568:	00200313          	li	t1,2
    956c:	04660663          	beq	a2,t1,95b8 <ee_printf+0x1684>
    9570:	00300e13          	li	t3,3
    9574:	03c60e63          	beq	a2,t3,95b0 <ee_printf+0x167c>
    9578:	00400e93          	li	t4,4
    957c:	03d60663          	beq	a2,t4,95a8 <ee_printf+0x1674>
    9580:	00500393          	li	t2,5
    9584:	00760e63          	beq	a2,t2,95a0 <ee_printf+0x166c>
    9588:	00600293          	li	t0,6
    958c:	00560663          	beq	a2,t0,9598 <ee_printf+0x1664>
    9590:	41ea5a8b          	th.srw	s5,s4,t5,0
    9594:	00470713          	addi	a4,a4,4
    9598:	01572023          	sw	s5,0(a4)
    959c:	00470713          	addi	a4,a4,4
    95a0:	01572023          	sw	s5,0(a4)
    95a4:	00470713          	addi	a4,a4,4
    95a8:	01572023          	sw	s5,0(a4)
    95ac:	00470713          	addi	a4,a4,4
    95b0:	01572023          	sw	s5,0(a4)
    95b4:	00470713          	addi	a4,a4,4
    95b8:	01572023          	sw	s5,0(a4)
    95bc:	00470713          	addi	a4,a4,4
    95c0:	01572023          	sw	s5,0(a4)
    95c4:	00470713          	addi	a4,a4,4
    95c8:	03f70663          	beq	a4,t6,95f4 <ee_printf+0x16c0>
    95cc:	01572023          	sw	s5,0(a4)
    95d0:	01572223          	sw	s5,4(a4)
    95d4:	01572423          	sw	s5,8(a4)
    95d8:	01572623          	sw	s5,12(a4)
    95dc:	01572823          	sw	s5,16(a4)
    95e0:	01572a23          	sw	s5,20(a4)
    95e4:	01572c23          	sw	s5,24(a4)
    95e8:	01572e23          	sw	s5,28(a4)
    95ec:	02070713          	addi	a4,a4,32
    95f0:	fdf71ee3          	bne	a4,t6,95cc <ee_printf+0x1698>
    95f4:	058b8863          	beq	s7,s8,9644 <ee_printf+0x1710>
    95f8:	418888b3          	sub	a7,a7,s8
    95fc:	01880a33          	add	s4,a6,s8
    9600:	02000f13          	li	t5,32
    9604:	01ea0023          	sb	t5,0(s4)
    9608:	00100813          	li	a6,1
    960c:	03185c63          	bge	a6,a7,9644 <ee_printf+0x1710>
    9610:	01ea00a3          	sb	t5,1(s4)
    9614:	00200b93          	li	s7,2
    9618:	03788663          	beq	a7,s7,9644 <ee_printf+0x1710>
    961c:	01ea0123          	sb	t5,2(s4)
    9620:	00300c13          	li	s8,3
    9624:	03888063          	beq	a7,s8,9644 <ee_printf+0x1710>
    9628:	01ea01a3          	sb	t5,3(s4)
    962c:	00400f93          	li	t6,4
    9630:	01f88a63          	beq	a7,t6,9644 <ee_printf+0x1710>
    9634:	01ea0223          	sb	t5,4(s4)
    9638:	00500a93          	li	s5,5
    963c:	01588463          	beq	a7,s5,9644 <ee_printf+0x1710>
    9640:	01ea02a3          	sb	t5,5(s4)
    9644:	fffb0593          	addi	a1,s6,-1
    9648:	00fb0a33          	add	s4,s6,a5
    964c:	0004a483          	lw	s1,0(s1)
    9650:	00f5d48b          	th.srb	s1,a1,a5,0
    9654:	0016c383          	lbu	t2,1(a3)
    9658:	000c8493          	mv	s1,s9
    965c:	00038463          	beqz	t2,9664 <ee_printf+0x1730>
    9660:	95dfe06f          	j	7fbc <ee_printf+0x88>
    9664:	975fe06f          	j	7fd8 <ee_printf+0xa4>
    9668:	00276393          	ori	t2,a4,2
    966c:	01077e13          	andi	t3,a4,16
    9670:	00448e93          	addi	t4,s1,4
    9674:	06c00b13          	li	s6,108
    9678:	01689463          	bne	a7,s6,9680 <ee_printf+0x174c>
    967c:	25c0106f          	j	a8d8 <ee_printf+0x29a4>
    9680:	0004ab03          	lw	s6,0(s1)
    9684:	000e0463          	beqz	t3,968c <ee_printf+0x1758>
    9688:	7c00106f          	j	ae48 <ee_printf+0x2f14>
    968c:	0013f893          	andi	a7,t2,1
    9690:	00089463          	bnez	a7,9698 <ee_printf+0x1764>
    9694:	3dc0206f          	j	ba70 <ee_printf+0x3b3c>
    9698:	000e8493          	mv	s1,t4
    969c:	03000893          	li	a7,48
    96a0:	2540106f          	j	a8f4 <ee_printf+0x29c0>
    96a4:	00000513          	li	a0,0
    96a8:	fff00893          	li	a7,-1
    96ac:	fff78e93          	addi	t4,a5,-1
    96b0:	00f04463          	bgtz	a5,96b8 <ee_printf+0x1784>
    96b4:	3410106f          	j	b1f4 <ee_printf+0x32c0>
    96b8:	000a0c13          	mv	s8,s4
    96bc:	00500593          	li	a1,5
    96c0:	11d5d863          	bge	a1,t4,97d0 <ee_printf+0x189c>
    96c4:	41400e33          	neg	t3,s4
    96c8:	003e7293          	andi	t0,t3,3
    96cc:	00029463          	bnez	t0,96d4 <ee_printf+0x17a0>
    96d0:	0500206f          	j	b720 <ee_printf+0x37ec>
    96d4:	02000a93          	li	s5,32
    96d8:	015a0023          	sb	s5,0(s4)
    96dc:	002e7613          	andi	a2,t3,2
    96e0:	00061463          	bnez	a2,96e8 <ee_printf+0x17b4>
    96e4:	2950106f          	j	b178 <ee_printf+0x3244>
    96e8:	015a00a3          	sb	s5,1(s4)
    96ec:	00300493          	li	s1,3
    96f0:	00928463          	beq	t0,s1,96f8 <ee_printf+0x17c4>
    96f4:	2000206f          	j	b8f4 <ee_printf+0x39c0>
    96f8:	003a0b13          	addi	s6,s4,3
    96fc:	015a0123          	sb	s5,2(s4)
    9700:	ffc78e93          	addi	t4,a5,-4
    9704:	405783b3          	sub	t2,a5,t0
    9708:	005a05b3          	add	a1,s4,t0
    970c:	ffc3ff93          	andi	t6,t2,-4
    9710:	00bf8ab3          	add	s5,t6,a1
    9714:	20202bb7          	lui	s7,0x20202
    9718:	020b8e13          	addi	t3,s7,32 # 20202020 <_stack_top+0x201ee020>
    971c:	ffcf8613          	addi	a2,t6,-4
    9720:	00265493          	srli	s1,a2,0x2
    9724:	00148b93          	addi	s7,s1,1
    9728:	007bf613          	andi	a2,s7,7
    972c:	06060863          	beqz	a2,979c <ee_printf+0x1868>
    9730:	00100493          	li	s1,1
    9734:	04960e63          	beq	a2,s1,9790 <ee_printf+0x185c>
    9738:	00200b93          	li	s7,2
    973c:	05760663          	beq	a2,s7,9788 <ee_printf+0x1854>
    9740:	00300493          	li	s1,3
    9744:	02960e63          	beq	a2,s1,9780 <ee_printf+0x184c>
    9748:	00400b93          	li	s7,4
    974c:	03760663          	beq	a2,s7,9778 <ee_printf+0x1844>
    9750:	00500493          	li	s1,5
    9754:	00960e63          	beq	a2,s1,9770 <ee_printf+0x183c>
    9758:	00600b93          	li	s7,6
    975c:	01760663          	beq	a2,s7,9768 <ee_printf+0x1834>
    9760:	405a5e0b          	th.srw	t3,s4,t0,0
    9764:	00458593          	addi	a1,a1,4
    9768:	01c5a023          	sw	t3,0(a1)
    976c:	00458593          	addi	a1,a1,4
    9770:	01c5a023          	sw	t3,0(a1)
    9774:	00458593          	addi	a1,a1,4
    9778:	01c5a023          	sw	t3,0(a1)
    977c:	00458593          	addi	a1,a1,4
    9780:	01c5a023          	sw	t3,0(a1)
    9784:	00458593          	addi	a1,a1,4
    9788:	01c5a023          	sw	t3,0(a1)
    978c:	00458593          	addi	a1,a1,4
    9790:	01c5a023          	sw	t3,0(a1)
    9794:	00458593          	addi	a1,a1,4
    9798:	02ba8663          	beq	s5,a1,97c4 <ee_printf+0x1890>
    979c:	01c5a023          	sw	t3,0(a1)
    97a0:	01c5a223          	sw	t3,4(a1)
    97a4:	01c5a423          	sw	t3,8(a1)
    97a8:	01c5a623          	sw	t3,12(a1)
    97ac:	01c5a823          	sw	t3,16(a1)
    97b0:	01c5aa23          	sw	t3,20(a1)
    97b4:	01c5ac23          	sw	t3,24(a1)
    97b8:	01c5ae23          	sw	t3,28(a1)
    97bc:	02058593          	addi	a1,a1,32
    97c0:	fcba9ee3          	bne	s5,a1,979c <ee_printf+0x1868>
    97c4:	05f38663          	beq	t2,t6,9810 <ee_printf+0x18dc>
    97c8:	41fe8eb3          	sub	t4,t4,t6
    97cc:	01fb0a33          	add	s4,s6,t6
    97d0:	02000293          	li	t0,32
    97d4:	005a0023          	sb	t0,0(s4)
    97d8:	03d05c63          	blez	t4,9810 <ee_printf+0x18dc>
    97dc:	005a00a3          	sb	t0,1(s4)
    97e0:	00100b13          	li	s6,1
    97e4:	036e8663          	beq	t4,s6,9810 <ee_printf+0x18dc>
    97e8:	005a0123          	sb	t0,2(s4)
    97ec:	00200393          	li	t2,2
    97f0:	027e8063          	beq	t4,t2,9810 <ee_printf+0x18dc>
    97f4:	005a01a3          	sb	t0,3(s4)
    97f8:	00300f93          	li	t6,3
    97fc:	01fe8a63          	beq	t4,t6,9810 <ee_printf+0x18dc>
    9800:	005a0223          	sb	t0,4(s4)
    9804:	00400a93          	li	s5,4
    9808:	015e8463          	beq	t4,s5,9810 <ee_printf+0x18dc>
    980c:	005a02a3          	sb	t0,5(s4)
    9810:	018785b3          	add	a1,a5,s8
    9814:	000f0463          	beqz	t5,981c <ee_printf+0x18e8>
    9818:	5800106f          	j	ad98 <ee_printf+0x2e64>
    981c:	01077793          	andi	a5,a4,16
    9820:	00078463          	beqz	a5,9828 <ee_printf+0x18f4>
    9824:	6d10106f          	j	b6f4 <ee_printf+0x37c0>
    9828:	01954463          	blt	a0,s9,9830 <ee_printf+0x18fc>
    982c:	21c0206f          	j	ba48 <ee_printf+0x3b14>
    9830:	ffe00793          	li	a5,-2
    9834:	fff30e13          	addi	t3,t1,-1
    9838:	00652cb3          	slt	s9,a0,t1
    983c:	40a30c33          	sub	s8,t1,a0
    9840:	00058e93          	mv	t4,a1
    9844:	fffc0b93          	addi	s7,s8,-1
    9848:	12655063          	bge	a0,t1,9968 <ee_printf+0x1a34>
    984c:	006bb613          	sltiu	a2,s7,6
    9850:	10061c63          	bnez	a2,9968 <ee_printf+0x1a34>
    9854:	00100493          	li	s1,1
    9858:	41949c0b          	th.mveqz	s8,s1,s9
    985c:	40b002b3          	neg	t0,a1
    9860:	0032ff93          	andi	t6,t0,3
    9864:	000f9463          	bnez	t6,986c <ee_printf+0x1938>
    9868:	5110106f          	j	b578 <ee_printf+0x3644>
    986c:	03000e13          	li	t3,48
    9870:	01c58023          	sb	t3,0(a1)
    9874:	0022fb13          	andi	s6,t0,2
    9878:	000b1463          	bnez	s6,9880 <ee_printf+0x194c>
    987c:	4d10106f          	j	b54c <ee_printf+0x3618>
    9880:	01c580a3          	sb	t3,1(a1)
    9884:	00300393          	li	t2,3
    9888:	007f8463          	beq	t6,t2,9890 <ee_printf+0x195c>
    988c:	5ed0106f          	j	b678 <ee_printf+0x3744>
    9890:	00358a13          	addi	s4,a1,3
    9894:	01c58123          	sb	t3,2(a1)
    9898:	ffc30e13          	addi	t3,t1,-4
    989c:	41fc0f33          	sub	t5,s8,t6
    98a0:	01f58733          	add	a4,a1,t6
    98a4:	ffcf7c13          	andi	s8,t5,-4
    98a8:	00ec0ab3          	add	s5,s8,a4
    98ac:	30303337          	lui	t1,0x30303
    98b0:	03030493          	addi	s1,t1,48 # 30303030 <_stack_top+0x302ef030>
    98b4:	ffcc0613          	addi	a2,s8,-4
    98b8:	00265293          	srli	t0,a2,0x2
    98bc:	00128b13          	addi	s6,t0,1
    98c0:	007b7393          	andi	t2,s6,7
    98c4:	06038863          	beqz	t2,9934 <ee_printf+0x1a00>
    98c8:	00100313          	li	t1,1
    98cc:	04638e63          	beq	t2,t1,9928 <ee_printf+0x19f4>
    98d0:	00200613          	li	a2,2
    98d4:	04c38663          	beq	t2,a2,9920 <ee_printf+0x19ec>
    98d8:	00300293          	li	t0,3
    98dc:	02538e63          	beq	t2,t0,9918 <ee_printf+0x19e4>
    98e0:	00400b13          	li	s6,4
    98e4:	03638663          	beq	t2,s6,9910 <ee_printf+0x19dc>
    98e8:	00500313          	li	t1,5
    98ec:	00638e63          	beq	t2,t1,9908 <ee_printf+0x19d4>
    98f0:	00600613          	li	a2,6
    98f4:	00c38663          	beq	t2,a2,9900 <ee_printf+0x19cc>
    98f8:	41f5d48b          	th.srw	s1,a1,t6,0
    98fc:	00470713          	addi	a4,a4,4
    9900:	00972023          	sw	s1,0(a4)
    9904:	00470713          	addi	a4,a4,4
    9908:	00972023          	sw	s1,0(a4)
    990c:	00470713          	addi	a4,a4,4
    9910:	00972023          	sw	s1,0(a4)
    9914:	00470713          	addi	a4,a4,4
    9918:	00972023          	sw	s1,0(a4)
    991c:	00470713          	addi	a4,a4,4
    9920:	00972023          	sw	s1,0(a4)
    9924:	00470713          	addi	a4,a4,4
    9928:	00972023          	sw	s1,0(a4)
    992c:	00470713          	addi	a4,a4,4
    9930:	02ea8663          	beq	s5,a4,995c <ee_printf+0x1a28>
    9934:	00972023          	sw	s1,0(a4)
    9938:	00972223          	sw	s1,4(a4)
    993c:	00972423          	sw	s1,8(a4)
    9940:	00972623          	sw	s1,12(a4)
    9944:	00972823          	sw	s1,16(a4)
    9948:	00972a23          	sw	s1,20(a4)
    994c:	00972c23          	sw	s1,24(a4)
    9950:	00972e23          	sw	s1,28(a4)
    9954:	02070713          	addi	a4,a4,32
    9958:	fcea9ee3          	bne	s5,a4,9934 <ee_printf+0x1a00>
    995c:	058f0663          	beq	t5,s8,99a8 <ee_printf+0x1a74>
    9960:	418e0e33          	sub	t3,t3,s8
    9964:	018a05b3          	add	a1,s4,s8
    9968:	03000f93          	li	t6,48
    996c:	01f58023          	sb	t6,0(a1)
    9970:	03c55c63          	bge	a0,t3,99a8 <ee_printf+0x1a74>
    9974:	01f580a3          	sb	t6,1(a1)
    9978:	fffe0a13          	addi	s4,t3,-1
    997c:	03455663          	bge	a0,s4,99a8 <ee_printf+0x1a74>
    9980:	01f58123          	sb	t6,2(a1)
    9984:	ffee0f13          	addi	t5,t3,-2
    9988:	03e55063          	bge	a0,t5,99a8 <ee_printf+0x1a74>
    998c:	01f581a3          	sb	t6,3(a1)
    9990:	ffde0c13          	addi	s8,t3,-3
    9994:	01855a63          	bge	a0,s8,99a8 <ee_printf+0x1a74>
    9998:	01f58223          	sb	t6,4(a1)
    999c:	ffce0a93          	addi	s5,t3,-4
    99a0:	01555463          	bge	a0,s5,99a8 <ee_printf+0x1a74>
    99a4:	01f582a3          	sb	t6,5(a1)
    99a8:	41901b8b          	th.mveqz	s7,zero,s9
    99ac:	001b8593          	addi	a1,s7,1
    99b0:	01d58a33          	add	s4,a1,t4
    99b4:	10050e63          	beqz	a0,9ad0 <ee_printf+0x1b9c>
    99b8:	03c10513          	addi	a0,sp,60
    99bc:	00088c93          	mv	s9,a7
    99c0:	01150733          	add	a4,a0,a7
    99c4:	000a0613          	mv	a2,s4
    99c8:	03b10b93          	addi	s7,sp,59
    99cc:	41770eb3          	sub	t4,a4,s7
    99d0:	007ef493          	andi	s1,t4,7
    99d4:	0a048463          	beqz	s1,9a7c <ee_printf+0x1b48>
    99d8:	00100393          	li	t2,1
    99dc:	08748663          	beq	s1,t2,9a68 <ee_printf+0x1b34>
    99e0:	00200293          	li	t0,2
    99e4:	06548a63          	beq	s1,t0,9a58 <ee_printf+0x1b24>
    99e8:	00300b13          	li	s6,3
    99ec:	05648e63          	beq	s1,s6,9a48 <ee_printf+0x1b14>
    99f0:	00400313          	li	t1,4
    99f4:	04648263          	beq	s1,t1,9a38 <ee_printf+0x1b04>
    99f8:	00500e13          	li	t3,5
    99fc:	03c48663          	beq	s1,t3,9a28 <ee_printf+0x1af4>
    9a00:	00600f93          	li	t6,6
    9a04:	01f48a63          	beq	s1,t6,9a18 <ee_printf+0x1ae4>
    9a08:	001a0613          	addi	a2,s4,1
    9a0c:	8115488b          	th.lrbu	a7,a0,a7,0
    9a10:	011a0023          	sb	a7,0(s4)
    9a14:	fff70713          	addi	a4,a4,-1
    9a18:	00074f03          	lbu	t5,0(a4)
    9a1c:	01e60023          	sb	t5,0(a2)
    9a20:	00160613          	addi	a2,a2,1
    9a24:	fff70713          	addi	a4,a4,-1
    9a28:	00074c03          	lbu	s8,0(a4)
    9a2c:	01860023          	sb	s8,0(a2)
    9a30:	00160613          	addi	a2,a2,1
    9a34:	fff70713          	addi	a4,a4,-1
    9a38:	00074a83          	lbu	s5,0(a4)
    9a3c:	01560023          	sb	s5,0(a2)
    9a40:	00160613          	addi	a2,a2,1
    9a44:	fff70713          	addi	a4,a4,-1
    9a48:	00074583          	lbu	a1,0(a4)
    9a4c:	00b60023          	sb	a1,0(a2)
    9a50:	00160613          	addi	a2,a2,1
    9a54:	fff70713          	addi	a4,a4,-1
    9a58:	00074503          	lbu	a0,0(a4)
    9a5c:	00a60023          	sb	a0,0(a2)
    9a60:	00160613          	addi	a2,a2,1
    9a64:	fff70713          	addi	a4,a4,-1
    9a68:	00160613          	addi	a2,a2,1
    9a6c:	00074e83          	lbu	t4,0(a4)
    9a70:	ffd60fa3          	sb	t4,-1(a2)
    9a74:	fff70713          	addi	a4,a4,-1
    9a78:	04eb8863          	beq	s7,a4,9ac8 <ee_printf+0x1b94>
    9a7c:	00074483          	lbu	s1,0(a4)
    9a80:	00960023          	sb	s1,0(a2)
    9a84:	fff74383          	lbu	t2,-1(a4)
    9a88:	007600a3          	sb	t2,1(a2)
    9a8c:	ffe74283          	lbu	t0,-2(a4)
    9a90:	00560123          	sb	t0,2(a2)
    9a94:	ffd74b03          	lbu	s6,-3(a4)
    9a98:	016601a3          	sb	s6,3(a2)
    9a9c:	ffc74303          	lbu	t1,-4(a4)
    9aa0:	00660223          	sb	t1,4(a2)
    9aa4:	ffb74e03          	lbu	t3,-5(a4)
    9aa8:	01c602a3          	sb	t3,5(a2)
    9aac:	ffa74f83          	lbu	t6,-6(a4)
    9ab0:	01f60323          	sb	t6,6(a2)
    9ab4:	00860613          	addi	a2,a2,8
    9ab8:	ff974883          	lbu	a7,-7(a4)
    9abc:	ff160fa3          	sb	a7,-1(a2)
    9ac0:	ff870713          	addi	a4,a4,-8
    9ac4:	faeb9ce3          	bne	s7,a4,9a7c <ee_printf+0x1b48>
    9ac8:	001c8c93          	addi	s9,s9,1
    9acc:	019a0a33          	add	s4,s4,s9
    9ad0:	16f05263          	blez	a5,9c34 <ee_printf+0x1d00>
    9ad4:	fff78893          	addi	a7,a5,-1
    9ad8:	000a0b93          	mv	s7,s4
    9adc:	00500f13          	li	t5,5
    9ae0:	111f5863          	bge	t5,a7,9bf0 <ee_printf+0x1cbc>
    9ae4:	41400c33          	neg	s8,s4
    9ae8:	003c7a93          	andi	s5,s8,3
    9aec:	000a9463          	bnez	s5,9af4 <ee_printf+0x1bc0>
    9af0:	29d0106f          	j	b58c <ee_printf+0x3658>
    9af4:	02000593          	li	a1,32
    9af8:	00ba0023          	sb	a1,0(s4)
    9afc:	002c7513          	andi	a0,s8,2
    9b00:	00051463          	bnez	a0,9b08 <ee_printf+0x1bd4>
    9b04:	27d0106f          	j	b580 <ee_printf+0x364c>
    9b08:	00ba00a3          	sb	a1,1(s4)
    9b0c:	00300613          	li	a2,3
    9b10:	00ca8463          	beq	s5,a2,9b18 <ee_printf+0x1be4>
    9b14:	3590106f          	j	b66c <ee_printf+0x3738>
    9b18:	003a0e93          	addi	t4,s4,3
    9b1c:	00ba0123          	sb	a1,2(s4)
    9b20:	ffc78893          	addi	a7,a5,-4
    9b24:	415784b3          	sub	s1,a5,s5
    9b28:	015a0733          	add	a4,s4,s5
    9b2c:	ffc4f393          	andi	t2,s1,-4
    9b30:	00e382b3          	add	t0,t2,a4
    9b34:	20202b37          	lui	s6,0x20202
    9b38:	020b0313          	addi	t1,s6,32 # 20202020 <_stack_top+0x201ee020>
    9b3c:	ffc38e13          	addi	t3,t2,-4
    9b40:	002e5f93          	srli	t6,t3,0x2
    9b44:	001f8c93          	addi	s9,t6,1
    9b48:	007cff13          	andi	t5,s9,7
    9b4c:	060f0863          	beqz	t5,9bbc <ee_printf+0x1c88>
    9b50:	00100c13          	li	s8,1
    9b54:	058f0e63          	beq	t5,s8,9bb0 <ee_printf+0x1c7c>
    9b58:	00200593          	li	a1,2
    9b5c:	04bf0663          	beq	t5,a1,9ba8 <ee_printf+0x1c74>
    9b60:	00300513          	li	a0,3
    9b64:	02af0e63          	beq	t5,a0,9ba0 <ee_printf+0x1c6c>
    9b68:	00400613          	li	a2,4
    9b6c:	02cf0663          	beq	t5,a2,9b98 <ee_printf+0x1c64>
    9b70:	00500b13          	li	s6,5
    9b74:	016f0e63          	beq	t5,s6,9b90 <ee_printf+0x1c5c>
    9b78:	00600e13          	li	t3,6
    9b7c:	01cf0663          	beq	t5,t3,9b88 <ee_printf+0x1c54>
    9b80:	415a530b          	th.srw	t1,s4,s5,0
    9b84:	00470713          	addi	a4,a4,4
    9b88:	00672023          	sw	t1,0(a4)
    9b8c:	00470713          	addi	a4,a4,4
    9b90:	00672023          	sw	t1,0(a4)
    9b94:	00470713          	addi	a4,a4,4
    9b98:	00672023          	sw	t1,0(a4)
    9b9c:	00470713          	addi	a4,a4,4
    9ba0:	00672023          	sw	t1,0(a4)
    9ba4:	00470713          	addi	a4,a4,4
    9ba8:	00672023          	sw	t1,0(a4)
    9bac:	00470713          	addi	a4,a4,4
    9bb0:	00672023          	sw	t1,0(a4)
    9bb4:	00470713          	addi	a4,a4,4
    9bb8:	02e28663          	beq	t0,a4,9be4 <ee_printf+0x1cb0>
    9bbc:	00672023          	sw	t1,0(a4)
    9bc0:	00672223          	sw	t1,4(a4)
    9bc4:	00672423          	sw	t1,8(a4)
    9bc8:	00672623          	sw	t1,12(a4)
    9bcc:	00672823          	sw	t1,16(a4)
    9bd0:	00672a23          	sw	t1,20(a4)
    9bd4:	00672c23          	sw	t1,24(a4)
    9bd8:	00672e23          	sw	t1,28(a4)
    9bdc:	02070713          	addi	a4,a4,32
    9be0:	fce29ee3          	bne	t0,a4,9bbc <ee_printf+0x1c88>
    9be4:	04748663          	beq	s1,t2,9c30 <ee_printf+0x1cfc>
    9be8:	407888b3          	sub	a7,a7,t2
    9bec:	007e8a33          	add	s4,t4,t2
    9bf0:	02000a93          	li	s5,32
    9bf4:	015a0023          	sb	s5,0(s4)
    9bf8:	03105c63          	blez	a7,9c30 <ee_printf+0x1cfc>
    9bfc:	015a00a3          	sb	s5,1(s4)
    9c00:	00100e93          	li	t4,1
    9c04:	03d88663          	beq	a7,t4,9c30 <ee_printf+0x1cfc>
    9c08:	015a0123          	sb	s5,2(s4)
    9c0c:	00200493          	li	s1,2
    9c10:	02988063          	beq	a7,s1,9c30 <ee_printf+0x1cfc>
    9c14:	015a01a3          	sb	s5,3(s4)
    9c18:	00300393          	li	t2,3
    9c1c:	00788a63          	beq	a7,t2,9c30 <ee_printf+0x1cfc>
    9c20:	015a0223          	sb	s5,4(s4)
    9c24:	00400293          	li	t0,4
    9c28:	00588463          	beq	a7,t0,9c30 <ee_printf+0x1cfc>
    9c2c:	015a02a3          	sb	s5,5(s4)
    9c30:	01778a33          	add	s4,a5,s7
    9c34:	0016c383          	lbu	t2,1(a3)
    9c38:	00168513          	addi	a0,a3,1
    9c3c:	00080493          	mv	s1,a6
    9c40:	00038463          	beqz	t2,9c48 <ee_printf+0x1d14>
    9c44:	b78fe06f          	j	7fbc <ee_printf+0x88>
    9c48:	b90fe06f          	j	7fd8 <ee_printf+0xa4>
    9c4c:	06c00513          	li	a0,108
    9c50:	66a884e3          	beq	a7,a0,aab8 <ee_printf+0x2b84>
    9c54:	00448b93          	addi	s7,s1,4
    9c58:	0004ab03          	lw	s6,0(s1)
    9c5c:	000b4883          	lbu	a7,0(s6)
    9c60:	400884e3          	beqz	a7,a868 <ee_printf+0x2934>
    9c64:	06300493          	li	s1,99
    9c68:	7914dee3          	bge	s1,a7,ac04 <ee_printf+0x2cd0>
    9c6c:	51eb8eb7          	lui	t4,0x51eb8
    9c70:	51fe8e13          	addi	t3,t4,1311 # 51eb851f <_stack_top+0x51ea451f>
    9c74:	03c8b3b3          	mulhu	t2,a7,t3
    9c78:	0053d593          	srli	a1,t2,0x5
    9c7c:	0000c4b7          	lui	s1,0xc
    9c80:	2c848293          	addi	t0,s1,712 # c2c8 <__modsi3+0x6d4>
    9c84:	80b2cc0b          	th.lrbu	s8,t0,a1,0
    9c88:	03810e23          	sb	s8,60(sp)
    9c8c:	20b5cab3          	sh2add	s5,a1,a1
    9c90:	215accb3          	sh2add	s9,s5,s5
    9c94:	002c9613          	slli	a2,s9,0x2
    9c98:	40c88f33          	sub	t5,a7,a2
    9c9c:	ccccd8b7          	lui	a7,0xccccd
    9ca0:	ccd88313          	addi	t1,a7,-819 # cccccccd <_stack_top+0xcccb8ccd>
    9ca4:	026f3fb3          	mulhu	t6,t5,t1
    9ca8:	003fd513          	srli	a0,t6,0x3
    9cac:	80a2c80b          	th.lrbu	a6,t0,a0,0
    9cb0:	03010ea3          	sb	a6,61(sp)
    9cb4:	20a54eb3          	sh2add	t4,a0,a0
    9cb8:	001e9e13          	slli	t3,t4,0x1
    9cbc:	41cf08b3          	sub	a7,t5,t3
    9cc0:	00900513          	li	a0,9
    9cc4:	00800613          	li	a2,8
    9cc8:	00700313          	li	t1,7
    9ccc:	00600f13          	li	t5,6
    9cd0:	00500e13          	li	t3,5
    9cd4:	00400493          	li	s1,4
    9cd8:	00300f93          	li	t6,3
    9cdc:	00200393          	li	t2,2
    9ce0:	00238c33          	add	s8,t2,sp
    9ce4:	0000cab7          	lui	s5,0xc
    9ce8:	2c8a8c93          	addi	s9,s5,712 # c2c8 <__modsi3+0x6d4>
    9cec:	811cc80b          	th.lrbu	a6,s9,a7,0
    9cf0:	030c0e23          	sb	a6,60(s8)
    9cf4:	02e00893          	li	a7,46
    9cf8:	002f85b3          	add	a1,t6,sp
    9cfc:	03158e23          	sb	a7,60(a1)
    9d00:	001b4383          	lbu	t2,1(s6)
    9d04:	34038ae3          	beqz	t2,a858 <ee_printf+0x2924>
    9d08:	06300293          	li	t0,99
    9d0c:	6a72d2e3          	bge	t0,t2,abb0 <ee_printf+0x2c7c>
    9d10:	00248eb3          	add	t4,s1,sp
    9d14:	51eb85b7          	lui	a1,0x51eb8
    9d18:	51f58293          	addi	t0,a1,1311 # 51eb851f <_stack_top+0x51ea451f>
    9d1c:	0253bc33          	mulhu	s8,t2,t0
    9d20:	005c5a93          	srli	s5,s8,0x5
    9d24:	0000ccb7          	lui	s9,0xc
    9d28:	2c8c8813          	addi	a6,s9,712 # c2c8 <__modsi3+0x6d4>
    9d2c:	8158448b          	th.lrbu	s1,a6,s5,0
    9d30:	029e8e23          	sb	s1,60(t4)
    9d34:	215ac8b3          	sh2add	a7,s5,s5
    9d38:	2118ceb3          	sh2add	t4,a7,a7
    9d3c:	002e9593          	slli	a1,t4,0x2
    9d40:	40b383b3          	sub	t2,t2,a1
    9d44:	002e0c33          	add	s8,t3,sp
    9d48:	ccccdab7          	lui	s5,0xccccd
    9d4c:	ccda8c93          	addi	s9,s5,-819 # cccccccd <_stack_top+0xcccb8ccd>
    9d50:	0393b4b3          	mulhu	s1,t2,s9
    9d54:	0034d893          	srli	a7,s1,0x3
    9d58:	8118480b          	th.lrbu	a6,a6,a7,0
    9d5c:	030c0e23          	sb	a6,60(s8)
    9d60:	2118ceb3          	sh2add	t4,a7,a7
    9d64:	001e9593          	slli	a1,t4,0x1
    9d68:	40b383b3          	sub	t2,t2,a1
    9d6c:	00030e13          	mv	t3,t1
    9d70:	00050313          	mv	t1,a0
    9d74:	008f8513          	addi	a0,t6,8
    9d78:	000f0493          	mv	s1,t5
    9d7c:	00060f13          	mv	t5,a2
    9d80:	007f8613          	addi	a2,t6,7
    9d84:	00248c33          	add	s8,s1,sp
    9d88:	0000cab7          	lui	s5,0xc
    9d8c:	2c8a8c93          	addi	s9,s5,712 # c2c8 <__modsi3+0x6d4>
    9d90:	807cc88b          	th.lrbu	a7,s9,t2,0
    9d94:	031c0e23          	sb	a7,60(s8)
    9d98:	02e00493          	li	s1,46
    9d9c:	002e0c33          	add	s8,t3,sp
    9da0:	029c0e23          	sb	s1,60(s8)
    9da4:	002b4e83          	lbu	t4,2(s6)
    9da8:	2a0e80e3          	beqz	t4,a848 <ee_printf+0x2914>
    9dac:	06300a93          	li	s5,99
    9db0:	5bdadae3          	bge	s5,t4,ab64 <ee_printf+0x2c30>
    9db4:	002f05b3          	add	a1,t5,sp
    9db8:	51eb83b7          	lui	t2,0x51eb8
    9dbc:	51f38493          	addi	s1,t2,1311 # 51eb851f <_stack_top+0x51ea451f>
    9dc0:	029ebfb3          	mulhu	t6,t4,s1
    9dc4:	005fdc13          	srli	s8,t6,0x5
    9dc8:	0000c2b7          	lui	t0,0xc
    9dcc:	2c828a93          	addi	s5,t0,712 # c2c8 <__modsi3+0x6d4>
    9dd0:	818acc8b          	th.lrbu	s9,s5,s8,0
    9dd4:	03958e23          	sb	s9,60(a1)
    9dd8:	218c48b3          	sh2add	a7,s8,s8
    9ddc:	2118c833          	sh2add	a6,a7,a7
    9de0:	00281f13          	slli	t5,a6,0x2
    9de4:	41ee85b3          	sub	a1,t4,t5
    9de8:	002303b3          	add	t2,t1,sp
    9dec:	ccccd4b7          	lui	s1,0xccccd
    9df0:	ccd48f93          	addi	t6,s1,-819 # cccccccd <_stack_top+0xcccb8ccd>
    9df4:	03f5bc33          	mulhu	s8,a1,t6
    9df8:	003c5293          	srli	t0,s8,0x3
    9dfc:	805aca8b          	th.lrbu	s5,s5,t0,0
    9e00:	03538e23          	sb	s5,60(t2)
    9e04:	2052ccb3          	sh2add	s9,t0,t0
    9e08:	001c9893          	slli	a7,s9,0x1
    9e0c:	41158eb3          	sub	t4,a1,a7
    9e10:	00050313          	mv	t1,a0
    9e14:	006e0513          	addi	a0,t3,6
    9e18:	00060f13          	mv	t5,a2
    9e1c:	005e0613          	addi	a2,t3,5
    9e20:	002f05b3          	add	a1,t5,sp
    9e24:	0000c3b7          	lui	t2,0xc
    9e28:	2c838493          	addi	s1,t2,712 # c2c8 <__modsi3+0x6d4>
    9e2c:	81d4cf8b          	th.lrbu	t6,s1,t4,0
    9e30:	03f58e23          	sb	t6,60(a1)
    9e34:	02e00f13          	li	t5,46
    9e38:	00230833          	add	a6,t1,sp
    9e3c:	03e80e23          	sb	t5,60(a6)
    9e40:	003b4883          	lbu	a7,3(s6)
    9e44:	1e088ae3          	beqz	a7,a838 <ee_printf+0x2904>
    9e48:	06300b13          	li	s6,99
    9e4c:	4d1b5ae3          	bge	s6,a7,ab20 <ee_printf+0x2bec>
    9e50:	00260633          	add	a2,a2,sp
    9e54:	51eb85b7          	lui	a1,0x51eb8
    9e58:	51f58393          	addi	t2,a1,1311 # 51eb851f <_stack_top+0x51ea451f>
    9e5c:	0278b4b3          	mulhu	s1,a7,t2
    9e60:	0054df93          	srli	t6,s1,0x5
    9e64:	0000cc37          	lui	s8,0xc
    9e68:	2c8c0293          	addi	t0,s8,712 # c2c8 <__modsi3+0x6d4>
    9e6c:	81f2ca8b          	th.lrbu	s5,t0,t6,0
    9e70:	03560e23          	sb	s5,60(a2)
    9e74:	21ffccb3          	sh2add	s9,t6,t6
    9e78:	219ccf33          	sh2add	t5,s9,s9
    9e7c:	002f1e93          	slli	t4,t5,0x2
    9e80:	41d88833          	sub	a6,a7,t4
    9e84:	00330613          	addi	a2,t1,3
    9e88:	00250b33          	add	s6,a0,sp
    9e8c:	ccccde37          	lui	t3,0xccccd
    9e90:	ccde0593          	addi	a1,t3,-819 # cccccccd <_stack_top+0xcccb8ccd>
    9e94:	02b833b3          	mulhu	t2,a6,a1
    9e98:	0033d493          	srli	s1,t2,0x3
    9e9c:	8092cf8b          	th.lrbu	t6,t0,s1,0
    9ea0:	03fb0e23          	sb	t6,60(s6)
    9ea4:	2094cc33          	sh2add	s8,s1,s1
    9ea8:	001c1293          	slli	t0,s8,0x1
    9eac:	405808b3          	sub	a7,a6,t0
    9eb0:	00430513          	addi	a0,t1,4
    9eb4:	00260cb3          	add	s9,a2,sp
    9eb8:	0000cf37          	lui	t5,0xc
    9ebc:	2c8f0e93          	addi	t4,t5,712 # c2c8 <__modsi3+0x6d4>
    9ec0:	811ec80b          	th.lrbu	a6,t4,a7,0
    9ec4:	030c8e23          	sb	a6,60(s9)
    9ec8:	01077713          	andi	a4,a4,16
    9ecc:	78071c63          	bnez	a4,a664 <ee_printf+0x2730>
    9ed0:	fff78893          	addi	a7,a5,-1
    9ed4:	00f54463          	blt	a0,a5,9edc <ee_printf+0x1fa8>
    9ed8:	1790106f          	j	b850 <ee_printf+0x391c>
    9edc:	00050c13          	mv	s8,a0
    9ee0:	40a78333          	sub	t1,a5,a0
    9ee4:	000a0a93          	mv	s5,s4
    9ee8:	fff30393          	addi	t2,t1,-1
    9eec:	00500493          	li	s1,5
    9ef0:	1074f863          	bgeu	s1,t2,a000 <ee_printf+0x20cc>
    9ef4:	41400fb3          	neg	t6,s4
    9ef8:	003ffc93          	andi	s9,t6,3
    9efc:	000c9463          	bnez	s9,9f04 <ee_printf+0x1fd0>
    9f00:	7a80106f          	j	b6a8 <ee_printf+0x3774>
    9f04:	02000293          	li	t0,32
    9f08:	005a0023          	sb	t0,0(s4)
    9f0c:	002ff893          	andi	a7,t6,2
    9f10:	00089463          	bnez	a7,9f18 <ee_printf+0x1fe4>
    9f14:	7880106f          	j	b69c <ee_printf+0x3768>
    9f18:	005a00a3          	sb	t0,1(s4)
    9f1c:	00300e93          	li	t4,3
    9f20:	01dc8463          	beq	s9,t4,9f28 <ee_printf+0x1ff4>
    9f24:	2900106f          	j	b1b4 <ee_printf+0x3280>
    9f28:	003a0f13          	addi	t5,s4,3
    9f2c:	005a0123          	sb	t0,2(s4)
    9f30:	ffc78893          	addi	a7,a5,-4
    9f34:	41930833          	sub	a6,t1,s9
    9f38:	019a07b3          	add	a5,s4,s9
    9f3c:	ffc87613          	andi	a2,a6,-4
    9f40:	00f60b33          	add	s6,a2,a5
    9f44:	20202e37          	lui	t3,0x20202
    9f48:	020e0593          	addi	a1,t3,32 # 20202020 <_stack_top+0x201ee020>
    9f4c:	ffc60713          	addi	a4,a2,-4
    9f50:	00275393          	srli	t2,a4,0x2
    9f54:	00138493          	addi	s1,t2,1
    9f58:	0074ff93          	andi	t6,s1,7
    9f5c:	060f8863          	beqz	t6,9fcc <ee_printf+0x2098>
    9f60:	00100293          	li	t0,1
    9f64:	045f8e63          	beq	t6,t0,9fc0 <ee_printf+0x208c>
    9f68:	00200e93          	li	t4,2
    9f6c:	05df8663          	beq	t6,t4,9fb8 <ee_printf+0x2084>
    9f70:	00300e13          	li	t3,3
    9f74:	03cf8e63          	beq	t6,t3,9fb0 <ee_printf+0x207c>
    9f78:	00400713          	li	a4,4
    9f7c:	02ef8663          	beq	t6,a4,9fa8 <ee_printf+0x2074>
    9f80:	00500393          	li	t2,5
    9f84:	007f8e63          	beq	t6,t2,9fa0 <ee_printf+0x206c>
    9f88:	00600493          	li	s1,6
    9f8c:	009f8663          	beq	t6,s1,9f98 <ee_printf+0x2064>
    9f90:	419a558b          	th.srw	a1,s4,s9,0
    9f94:	00478793          	addi	a5,a5,4
    9f98:	00b7a023          	sw	a1,0(a5)
    9f9c:	00478793          	addi	a5,a5,4
    9fa0:	00b7a023          	sw	a1,0(a5)
    9fa4:	00478793          	addi	a5,a5,4
    9fa8:	00b7a023          	sw	a1,0(a5)
    9fac:	00478793          	addi	a5,a5,4
    9fb0:	00b7a023          	sw	a1,0(a5)
    9fb4:	00478793          	addi	a5,a5,4
    9fb8:	00b7a023          	sw	a1,0(a5)
    9fbc:	00478793          	addi	a5,a5,4
    9fc0:	00b7a023          	sw	a1,0(a5)
    9fc4:	00478793          	addi	a5,a5,4
    9fc8:	02fb0663          	beq	s6,a5,9ff4 <ee_printf+0x20c0>
    9fcc:	00b7a023          	sw	a1,0(a5)
    9fd0:	00b7a223          	sw	a1,4(a5)
    9fd4:	00b7a423          	sw	a1,8(a5)
    9fd8:	00b7a623          	sw	a1,12(a5)
    9fdc:	00b7a823          	sw	a1,16(a5)
    9fe0:	00b7aa23          	sw	a1,20(a5)
    9fe4:	00b7ac23          	sw	a1,24(a5)
    9fe8:	00b7ae23          	sw	a1,28(a5)
    9fec:	02078793          	addi	a5,a5,32
    9ff0:	fcfb1ee3          	bne	s6,a5,9fcc <ee_printf+0x2098>
    9ff4:	04c80663          	beq	a6,a2,a040 <ee_printf+0x210c>
    9ff8:	40c888b3          	sub	a7,a7,a2
    9ffc:	00cf0a33          	add	s4,t5,a2
    a000:	02000c93          	li	s9,32
    a004:	019a0023          	sb	s9,0(s4)
    a008:	03155c63          	bge	a0,a7,a040 <ee_printf+0x210c>
    a00c:	019a00a3          	sb	s9,1(s4)
    a010:	fff88f13          	addi	t5,a7,-1
    a014:	03e55663          	bge	a0,t5,a040 <ee_printf+0x210c>
    a018:	019a0123          	sb	s9,2(s4)
    a01c:	ffe88813          	addi	a6,a7,-2
    a020:	03055063          	bge	a0,a6,a040 <ee_printf+0x210c>
    a024:	019a01a3          	sb	s9,3(s4)
    a028:	ffd88613          	addi	a2,a7,-3
    a02c:	00c55a63          	bge	a0,a2,a040 <ee_printf+0x210c>
    a030:	019a0223          	sb	s9,4(s4)
    a034:	ffc88b13          	addi	s6,a7,-4
    a038:	01655463          	bge	a0,s6,a040 <ee_printf+0x210c>
    a03c:	019a02a3          	sb	s9,5(s4)
    a040:	fffc0793          	addi	a5,s8,-1
    a044:	01530a33          	add	s4,t1,s5
    a048:	6200006f          	j	a668 <ee_printf+0x2734>
    a04c:	0004ab03          	lw	s6,0(s1)
    a050:	01077e13          	andi	t3,a4,16
    a054:	00448493          	addi	s1,s1,4
    a058:	06c00613          	li	a2,108
    a05c:	26c888e3          	beq	a7,a2,aacc <ee_printf+0x2b98>
    a060:	04076313          	ori	t1,a4,64
    a064:	5e0e1ee3          	bnez	t3,ae60 <ee_printf+0x2f2c>
    a068:	00137813          	andi	a6,t1,1
    a06c:	00081463          	bnez	a6,a074 <ee_printf+0x2140>
    a070:	2790106f          	j	bae8 <ee_printf+0x3bb4>
    a074:	02037293          	andi	t0,t1,32
    a078:	00029463          	bnez	t0,a080 <ee_printf+0x214c>
    a07c:	0150106f          	j	b890 <ee_printf+0x395c>
    a080:	01000c13          	li	s8,16
    a084:	03000893          	li	a7,48
    a088:	0000cf37          	lui	t5,0xc
    a08c:	2f0f0713          	addi	a4,t5,752 # c2f0 <__modsi3+0x6fc>
    a090:	4d10006f          	j	ad60 <ee_printf+0x2e2c>
    a094:	04076713          	ori	a4,a4,64
    a098:	06c00593          	li	a1,108
    a09c:	bab89ce3          	bne	a7,a1,9c54 <ee_printf+0x1d20>
    a0a0:	0004ac83          	lw	s9,0(s1)
    a0a4:	00448493          	addi	s1,s1,4
    a0a8:	0000c6b7          	lui	a3,0xc
    a0ac:	2f068b13          	addi	s6,a3,752 # c2f0 <__modsi3+0x6fc>
    a0b0:	000ccb83          	lbu	s7,0(s9)
    a0b4:	004bd513          	srli	a0,s7,0x4
    a0b8:	80ab488b          	th.lrbu	a7,s6,a0,0
    a0bc:	03110e23          	sb	a7,60(sp)
    a0c0:	00fbfa93          	andi	s5,s7,15
    a0c4:	815b480b          	th.lrbu	a6,s6,s5,0
    a0c8:	03010ea3          	sb	a6,61(sp)
    a0cc:	03a00c13          	li	s8,58
    a0d0:	03810f23          	sb	s8,62(sp)
    a0d4:	001ccf83          	lbu	t6,1(s9)
    a0d8:	004fd593          	srli	a1,t6,0x4
    a0dc:	80bb450b          	th.lrbu	a0,s6,a1,0
    a0e0:	02a10fa3          	sb	a0,63(sp)
    a0e4:	00fffe93          	andi	t4,t6,15
    a0e8:	81db430b          	th.lrbu	t1,s6,t4,0
    a0ec:	04610023          	sb	t1,64(sp)
    a0f0:	058100a3          	sb	s8,65(sp)
    a0f4:	002cc383          	lbu	t2,2(s9)
    a0f8:	0043df13          	srli	t5,t2,0x4
    a0fc:	81eb4e0b          	th.lrbu	t3,s6,t5,0
    a100:	05c10123          	sb	t3,66(sp)
    a104:	00f3f293          	andi	t0,t2,15
    a108:	805b4e8b          	th.lrbu	t4,s6,t0,0
    a10c:	05d101a3          	sb	t4,67(sp)
    a110:	05810223          	sb	s8,68(sp)
    a114:	003cc683          	lbu	a3,3(s9)
    a118:	0046db93          	srli	s7,a3,0x4
    a11c:	817b4f0b          	th.lrbu	t5,s6,s7,0
    a120:	05e102a3          	sb	t5,69(sp)
    a124:	00f6fa93          	andi	s5,a3,15
    a128:	815b4f8b          	th.lrbu	t6,s6,s5,0
    a12c:	05f10323          	sb	t6,70(sp)
    a130:	058103a3          	sb	s8,71(sp)
    a134:	004cc583          	lbu	a1,4(s9)
    a138:	0045d393          	srli	t2,a1,0x4
    a13c:	807b428b          	th.lrbu	t0,s6,t2,0
    a140:	04510423          	sb	t0,72(sp)
    a144:	00f5f693          	andi	a3,a1,15
    a148:	80db438b          	th.lrbu	t2,s6,a3,0
    a14c:	047104a3          	sb	t2,73(sp)
    a150:	05810523          	sb	s8,74(sp)
    a154:	005ccc83          	lbu	s9,5(s9)
    a158:	004cdc13          	srli	s8,s9,0x4
    a15c:	818b4a8b          	th.lrbu	s5,s6,s8,0
    a160:	055105a3          	sb	s5,75(sp)
    a164:	00fcfb93          	andi	s7,s9,15
    a168:	817b4b8b          	th.lrbu	s7,s6,s7,0
    a16c:	01077b13          	andi	s6,a4,16
    a170:	1a0b1a63          	bnez	s6,a324 <ee_printf+0x23f0>
    a174:	fff78593          	addi	a1,a5,-1
    a178:	01100713          	li	a4,17
    a17c:	00f74463          	blt	a4,a5,a184 <ee_printf+0x2250>
    a180:	0190106f          	j	b998 <ee_printf+0x3a64>
    a184:	00f12023          	sw	a5,0(sp)
    a188:	01412623          	sw	s4,12(sp)
    a18c:	fee78693          	addi	a3,a5,-18
    a190:	00500793          	li	a5,5
    a194:	12d7fc63          	bgeu	a5,a3,a2cc <ee_printf+0x2398>
    a198:	41400cb3          	neg	s9,s4
    a19c:	003cfc13          	andi	s8,s9,3
    a1a0:	000c1463          	bnez	s8,a1a8 <ee_printf+0x2274>
    a1a4:	01c0106f          	j	b1c0 <ee_printf+0x328c>
    a1a8:	02000593          	li	a1,32
    a1ac:	00ba0023          	sb	a1,0(s4)
    a1b0:	002cf713          	andi	a4,s9,2
    a1b4:	00071463          	bnez	a4,a1bc <ee_printf+0x2288>
    a1b8:	76c0106f          	j	b924 <ee_printf+0x39f0>
    a1bc:	00ba00a3          	sb	a1,1(s4)
    a1c0:	00300793          	li	a5,3
    a1c4:	00fc0463          	beq	s8,a5,a1cc <ee_printf+0x2298>
    a1c8:	7bc0106f          	j	b984 <ee_printf+0x3a50>
    a1cc:	003a0b13          	addi	s6,s4,3
    a1d0:	01612823          	sw	s6,16(sp)
    a1d4:	00ba0123          	sb	a1,2(s4)
    a1d8:	00012b03          	lw	s6,0(sp)
    a1dc:	ffcb0593          	addi	a1,s6,-4
    a1e0:	418b0733          	sub	a4,s6,s8
    a1e4:	fef70693          	addi	a3,a4,-17
    a1e8:	00d12223          	sw	a3,4(sp)
    a1ec:	018a07b3          	add	a5,s4,s8
    a1f0:	00412c83          	lw	s9,4(sp)
    a1f4:	ffccfb13          	andi	s6,s9,-4
    a1f8:	01678733          	add	a4,a5,s6
    a1fc:	00e12423          	sw	a4,8(sp)
    a200:	202026b7          	lui	a3,0x20202
    a204:	02068713          	addi	a4,a3,32 # 20202020 <_stack_top+0x201ee020>
    a208:	ffcb0c93          	addi	s9,s6,-4
    a20c:	002cd693          	srli	a3,s9,0x2
    a210:	00168c93          	addi	s9,a3,1
    a214:	007cf693          	andi	a3,s9,7
    a218:	00069463          	bnez	a3,a220 <ee_printf+0x22ec>
    a21c:	7ac0106f          	j	b9c8 <ee_printf+0x3a94>
    a220:	00100c93          	li	s9,1
    a224:	05968e63          	beq	a3,s9,a280 <ee_printf+0x234c>
    a228:	00200c93          	li	s9,2
    a22c:	05968663          	beq	a3,s9,a278 <ee_printf+0x2344>
    a230:	00300c93          	li	s9,3
    a234:	03968e63          	beq	a3,s9,a270 <ee_printf+0x233c>
    a238:	00400c93          	li	s9,4
    a23c:	03968663          	beq	a3,s9,a268 <ee_printf+0x2334>
    a240:	00500c93          	li	s9,5
    a244:	01968e63          	beq	a3,s9,a260 <ee_printf+0x232c>
    a248:	00600c93          	li	s9,6
    a24c:	01968663          	beq	a3,s9,a258 <ee_printf+0x2324>
    a250:	418a570b          	th.srw	a4,s4,s8,0
    a254:	00478793          	addi	a5,a5,4
    a258:	00e7a023          	sw	a4,0(a5)
    a25c:	00478793          	addi	a5,a5,4
    a260:	00e7a023          	sw	a4,0(a5)
    a264:	00478793          	addi	a5,a5,4
    a268:	00e7a023          	sw	a4,0(a5)
    a26c:	00478793          	addi	a5,a5,4
    a270:	00e7a023          	sw	a4,0(a5)
    a274:	00478793          	addi	a5,a5,4
    a278:	00e7a023          	sw	a4,0(a5)
    a27c:	00478793          	addi	a5,a5,4
    a280:	00e7a023          	sw	a4,0(a5)
    a284:	00478793          	addi	a5,a5,4
    a288:	00812a03          	lw	s4,8(sp)
    a28c:	03478663          	beq	a5,s4,a2b8 <ee_printf+0x2384>
    a290:	00e7a023          	sw	a4,0(a5)
    a294:	00e7a223          	sw	a4,4(a5)
    a298:	00e7a423          	sw	a4,8(a5)
    a29c:	00e7a623          	sw	a4,12(a5)
    a2a0:	00e7a823          	sw	a4,16(a5)
    a2a4:	00e7aa23          	sw	a4,20(a5)
    a2a8:	00e7ac23          	sw	a4,24(a5)
    a2ac:	00e7ae23          	sw	a4,28(a5)
    a2b0:	02078793          	addi	a5,a5,32
    a2b4:	fd479ee3          	bne	a5,s4,a290 <ee_printf+0x235c>
    a2b8:	00412c03          	lw	s8,4(sp)
    a2bc:	056c0a63          	beq	s8,s6,a310 <ee_printf+0x23dc>
    a2c0:	416585b3          	sub	a1,a1,s6
    a2c4:	01012703          	lw	a4,16(sp)
    a2c8:	01670a33          	add	s4,a4,s6
    a2cc:	02000b13          	li	s6,32
    a2d0:	016a0023          	sb	s6,0(s4)
    a2d4:	01100693          	li	a3,17
    a2d8:	02b6dc63          	bge	a3,a1,a310 <ee_printf+0x23dc>
    a2dc:	016a00a3          	sb	s6,1(s4)
    a2e0:	01200c93          	li	s9,18
    a2e4:	03958663          	beq	a1,s9,a310 <ee_printf+0x23dc>
    a2e8:	016a0123          	sb	s6,2(s4)
    a2ec:	01300793          	li	a5,19
    a2f0:	02f58063          	beq	a1,a5,a310 <ee_printf+0x23dc>
    a2f4:	016a01a3          	sb	s6,3(s4)
    a2f8:	01400c13          	li	s8,20
    a2fc:	01858a63          	beq	a1,s8,a310 <ee_printf+0x23dc>
    a300:	016a0223          	sb	s6,4(s4)
    a304:	01500713          	li	a4,21
    a308:	00e58463          	beq	a1,a4,a310 <ee_printf+0x23dc>
    a30c:	016a02a3          	sb	s6,5(s4)
    a310:	00c12a03          	lw	s4,12(sp)
    a314:	fefa0593          	addi	a1,s4,-17
    a318:	00012b03          	lw	s6,0(sp)
    a31c:	01658a33          	add	s4,a1,s6
    a320:	01000793          	li	a5,16
    a324:	003a7693          	andi	a3,s4,3
    a328:	00068463          	beqz	a3,a330 <ee_printf+0x23fc>
    a32c:	2ec0106f          	j	b618 <ee_printf+0x36e4>
    a330:	03c12883          	lw	a7,60(sp)
    a334:	011a2023          	sw	a7,0(s4)
    a338:	04012803          	lw	a6,64(sp)
    a33c:	010a2223          	sw	a6,4(s4)
    a340:	04412503          	lw	a0,68(sp)
    a344:	00aa2423          	sw	a0,8(s4)
    a348:	04812303          	lw	t1,72(sp)
    a34c:	006a2623          	sw	t1,12(s4)
    a350:	017a0823          	sb	s7,16(s4)
    a354:	011a0513          	addi	a0,s4,17
    a358:	01100e13          	li	t3,17
    a35c:	00fe4463          	blt	t3,a5,a364 <ee_printf+0x2430>
    a360:	4e80106f          	j	b848 <ee_printf+0x3914>
    a364:	fff78313          	addi	t1,a5,-1
    a368:	fef78293          	addi	t0,a5,-17
    a36c:	00050393          	mv	t2,a0
    a370:	fee78e93          	addi	t4,a5,-18
    a374:	00500f13          	li	t5,5
    a378:	11df7663          	bgeu	t5,t4,a484 <ee_printf+0x2550>
    a37c:	40a00fb3          	neg	t6,a0
    a380:	003ffa93          	andi	s5,t6,3
    a384:	020a8863          	beqz	s5,a3b4 <ee_printf+0x2480>
    a388:	02000b93          	li	s7,32
    a38c:	017a08a3          	sb	s7,17(s4)
    a390:	002ffc13          	andi	s8,t6,2
    a394:	000c1463          	bnez	s8,a39c <ee_printf+0x2468>
    a398:	2c80106f          	j	b660 <ee_printf+0x372c>
    a39c:	017a0923          	sb	s7,18(s4)
    a3a0:	00300713          	li	a4,3
    a3a4:	5eea90e3          	bne	s5,a4,b184 <ee_printf+0x3250>
    a3a8:	014a0513          	addi	a0,s4,20
    a3ac:	017a09a3          	sb	s7,19(s4)
    a3b0:	ffc78313          	addi	t1,a5,-4
    a3b4:	41528b33          	sub	s6,t0,s5
    a3b8:	011a8593          	addi	a1,s5,17
    a3bc:	00ba07b3          	add	a5,s4,a1
    a3c0:	ffcb7893          	andi	a7,s6,-4
    a3c4:	00f88833          	add	a6,a7,a5
    a3c8:	202026b7          	lui	a3,0x20202
    a3cc:	02068c93          	addi	s9,a3,32 # 20202020 <_stack_top+0x201ee020>
    a3d0:	ffc88e13          	addi	t3,a7,-4
    a3d4:	002e5e93          	srli	t4,t3,0x2
    a3d8:	001e8f13          	addi	t5,t4,1
    a3dc:	007f7a93          	andi	s5,t5,7
    a3e0:	060a8863          	beqz	s5,a450 <ee_printf+0x251c>
    a3e4:	00100f93          	li	t6,1
    a3e8:	05fa8e63          	beq	s5,t6,a444 <ee_printf+0x2510>
    a3ec:	00200b93          	li	s7,2
    a3f0:	057a8663          	beq	s5,s7,a43c <ee_printf+0x2508>
    a3f4:	00300c13          	li	s8,3
    a3f8:	038a8e63          	beq	s5,s8,a434 <ee_printf+0x2500>
    a3fc:	00400713          	li	a4,4
    a400:	02ea8663          	beq	s5,a4,a42c <ee_printf+0x24f8>
    a404:	00500693          	li	a3,5
    a408:	00da8e63          	beq	s5,a3,a424 <ee_printf+0x24f0>
    a40c:	00600e13          	li	t3,6
    a410:	01ca8663          	beq	s5,t3,a41c <ee_printf+0x24e8>
    a414:	40ba5c8b          	th.srw	s9,s4,a1,0
    a418:	00478793          	addi	a5,a5,4
    a41c:	0197a023          	sw	s9,0(a5)
    a420:	00478793          	addi	a5,a5,4
    a424:	0197a023          	sw	s9,0(a5)
    a428:	00478793          	addi	a5,a5,4
    a42c:	0197a023          	sw	s9,0(a5)
    a430:	00478793          	addi	a5,a5,4
    a434:	0197a023          	sw	s9,0(a5)
    a438:	00478793          	addi	a5,a5,4
    a43c:	0197a023          	sw	s9,0(a5)
    a440:	00478793          	addi	a5,a5,4
    a444:	0197a023          	sw	s9,0(a5)
    a448:	00478793          	addi	a5,a5,4
    a44c:	02f80663          	beq	a6,a5,a478 <ee_printf+0x2544>
    a450:	0197a023          	sw	s9,0(a5)
    a454:	0197a223          	sw	s9,4(a5)
    a458:	0197a423          	sw	s9,8(a5)
    a45c:	0197a623          	sw	s9,12(a5)
    a460:	0197a823          	sw	s9,16(a5)
    a464:	0197aa23          	sw	s9,20(a5)
    a468:	0197ac23          	sw	s9,24(a5)
    a46c:	0197ae23          	sw	s9,28(a5)
    a470:	02078793          	addi	a5,a5,32
    a474:	fcf81ee3          	bne	a6,a5,a450 <ee_printf+0x251c>
    a478:	051b0863          	beq	s6,a7,a4c8 <ee_printf+0x2594>
    a47c:	41130333          	sub	t1,t1,a7
    a480:	01150533          	add	a0,a0,a7
    a484:	02000a13          	li	s4,32
    a488:	01450023          	sb	s4,0(a0)
    a48c:	01100b13          	li	s6,17
    a490:	026b5c63          	bge	s6,t1,a4c8 <ee_printf+0x2594>
    a494:	014500a3          	sb	s4,1(a0)
    a498:	01200593          	li	a1,18
    a49c:	02b30663          	beq	t1,a1,a4c8 <ee_printf+0x2594>
    a4a0:	01450123          	sb	s4,2(a0)
    a4a4:	01300893          	li	a7,19
    a4a8:	03130063          	beq	t1,a7,a4c8 <ee_printf+0x2594>
    a4ac:	014501a3          	sb	s4,3(a0)
    a4b0:	01400813          	li	a6,20
    a4b4:	01030a63          	beq	t1,a6,a4c8 <ee_printf+0x2594>
    a4b8:	01450223          	sb	s4,4(a0)
    a4bc:	01500c93          	li	s9,21
    a4c0:	01930463          	beq	t1,s9,a4c8 <ee_printf+0x2594>
    a4c4:	014502a3          	sb	s4,5(a0)
    a4c8:	00538a33          	add	s4,t2,t0
    a4cc:	00264383          	lbu	t2,2(a2)
    a4d0:	00260513          	addi	a0,a2,2
    a4d4:	00038463          	beqz	t2,a4dc <ee_printf+0x25a8>
    a4d8:	ae5fd06f          	j	7fbc <ee_printf+0x88>
    a4dc:	afdfd06f          	j	7fd8 <ee_printf+0xa4>
    a4e0:	04076713          	ori	a4,a4,64
    a4e4:	00060693          	mv	a3,a2
    a4e8:	f6cff06f          	j	9c54 <ee_printf+0x1d20>
    a4ec:	fff78c93          	addi	s9,a5,-1
    a4f0:	4efc5ee3          	bge	s8,a5,b1ec <ee_printf+0x32b8>
    a4f4:	000c0593          	mv	a1,s8
    a4f8:	41878533          	sub	a0,a5,s8
    a4fc:	000a0e13          	mv	t3,s4
    a500:	fff50493          	addi	s1,a0,-1
    a504:	00500713          	li	a4,5
    a508:	10977863          	bgeu	a4,s1,a618 <ee_printf+0x26e4>
    a50c:	41400ab3          	neg	s5,s4
    a510:	003afe93          	andi	t4,s5,3
    a514:	000e9463          	bnez	t4,a51c <ee_printf+0x25e8>
    a518:	4540106f          	j	b96c <ee_printf+0x3a38>
    a51c:	02000c93          	li	s9,32
    a520:	019a0023          	sb	s9,0(s4)
    a524:	002aff13          	andi	t5,s5,2
    a528:	000f1463          	bnez	t5,a530 <ee_printf+0x25fc>
    a52c:	4340106f          	j	b960 <ee_printf+0x3a2c>
    a530:	019a00a3          	sb	s9,1(s4)
    a534:	00300293          	li	t0,3
    a538:	005e8463          	beq	t4,t0,a540 <ee_printf+0x260c>
    a53c:	4700106f          	j	b9ac <ee_printf+0x3a78>
    a540:	003a0f93          	addi	t6,s4,3
    a544:	019a0123          	sb	s9,2(s4)
    a548:	ffc78c93          	addi	s9,a5,-4
    a54c:	41d503b3          	sub	t2,a0,t4
    a550:	01da07b3          	add	a5,s4,t4
    a554:	ffc3f813          	andi	a6,t2,-4
    a558:	00f80333          	add	t1,a6,a5
    a55c:	20202637          	lui	a2,0x20202
    a560:	02060893          	addi	a7,a2,32 # 20202020 <_stack_top+0x201ee020>
    a564:	ffc80493          	addi	s1,a6,-4
    a568:	0024d713          	srli	a4,s1,0x2
    a56c:	00170a93          	addi	s5,a4,1
    a570:	007aff13          	andi	t5,s5,7
    a574:	060f0863          	beqz	t5,a5e4 <ee_printf+0x26b0>
    a578:	00100293          	li	t0,1
    a57c:	045f0e63          	beq	t5,t0,a5d8 <ee_printf+0x26a4>
    a580:	00200613          	li	a2,2
    a584:	04cf0663          	beq	t5,a2,a5d0 <ee_printf+0x269c>
    a588:	00300493          	li	s1,3
    a58c:	029f0e63          	beq	t5,s1,a5c8 <ee_printf+0x2694>
    a590:	00400713          	li	a4,4
    a594:	02ef0663          	beq	t5,a4,a5c0 <ee_printf+0x268c>
    a598:	00500a93          	li	s5,5
    a59c:	015f0e63          	beq	t5,s5,a5b8 <ee_printf+0x2684>
    a5a0:	00600293          	li	t0,6
    a5a4:	005f0663          	beq	t5,t0,a5b0 <ee_printf+0x267c>
    a5a8:	41da588b          	th.srw	a7,s4,t4,0
    a5ac:	00478793          	addi	a5,a5,4
    a5b0:	0117a023          	sw	a7,0(a5)
    a5b4:	00478793          	addi	a5,a5,4
    a5b8:	0117a023          	sw	a7,0(a5)
    a5bc:	00478793          	addi	a5,a5,4
    a5c0:	0117a023          	sw	a7,0(a5)
    a5c4:	00478793          	addi	a5,a5,4
    a5c8:	0117a023          	sw	a7,0(a5)
    a5cc:	00478793          	addi	a5,a5,4
    a5d0:	0117a023          	sw	a7,0(a5)
    a5d4:	00478793          	addi	a5,a5,4
    a5d8:	0117a023          	sw	a7,0(a5)
    a5dc:	00478793          	addi	a5,a5,4
    a5e0:	02678663          	beq	a5,t1,a60c <ee_printf+0x26d8>
    a5e4:	0117a023          	sw	a7,0(a5)
    a5e8:	0117a223          	sw	a7,4(a5)
    a5ec:	0117a423          	sw	a7,8(a5)
    a5f0:	0117a623          	sw	a7,12(a5)
    a5f4:	0117a823          	sw	a7,16(a5)
    a5f8:	0117aa23          	sw	a7,20(a5)
    a5fc:	0117ac23          	sw	a7,24(a5)
    a600:	0117ae23          	sw	a7,28(a5)
    a604:	02078793          	addi	a5,a5,32
    a608:	fc679ee3          	bne	a5,t1,a5e4 <ee_printf+0x26b0>
    a60c:	04780663          	beq	a6,t2,a658 <ee_printf+0x2724>
    a610:	410c8cb3          	sub	s9,s9,a6
    a614:	010f8a33          	add	s4,t6,a6
    a618:	02000f93          	li	t6,32
    a61c:	01fa0023          	sb	t6,0(s4)
    a620:	039c5c63          	bge	s8,s9,a658 <ee_printf+0x2724>
    a624:	01fa00a3          	sb	t6,1(s4)
    a628:	fffc8e93          	addi	t4,s9,-1
    a62c:	03dc5663          	bge	s8,t4,a658 <ee_printf+0x2724>
    a630:	01fa0123          	sb	t6,2(s4)
    a634:	ffec8393          	addi	t2,s9,-2
    a638:	027c5063          	bge	s8,t2,a658 <ee_printf+0x2724>
    a63c:	01fa01a3          	sb	t6,3(s4)
    a640:	ffdc8813          	addi	a6,s9,-3
    a644:	010c5a63          	bge	s8,a6,a658 <ee_printf+0x2724>
    a648:	01fa0223          	sb	t6,4(s4)
    a64c:	ffcc8c93          	addi	s9,s9,-4
    a650:	019c5463          	bge	s8,s9,a658 <ee_printf+0x2724>
    a654:	01fa02a3          	sb	t6,5(s4)
    a658:	01c50a33          	add	s4,a0,t3
    a65c:	fff58793          	addi	a5,a1,-1
    a660:	e99fd06f          	j	84f8 <ee_printf+0x5c4>
    a664:	00050c13          	mv	s8,a0
    a668:	003a7313          	andi	t1,s4,3
    a66c:	5e0314e3          	bnez	t1,b454 <ee_printf+0x3520>
    a670:	002c5a93          	srli	s5,s8,0x2
    a674:	03c12583          	lw	a1,60(sp)
    a678:	00ba2023          	sw	a1,0(s4)
    a67c:	00100f93          	li	t6,1
    a680:	21fa8c63          	beq	s5,t6,a898 <ee_printf+0x2964>
    a684:	04012483          	lw	s1,64(sp)
    a688:	009a2223          	sw	s1,4(s4)
    a68c:	00300893          	li	a7,3
    a690:	011a9663          	bne	s5,a7,a69c <ee_printf+0x2768>
    a694:	04412c83          	lw	s9,68(sp)
    a698:	019a2423          	sw	s9,8(s4)
    a69c:	003c7f13          	andi	t5,s8,3
    a6a0:	020f0063          	beqz	t5,a6c0 <ee_printf+0x278c>
    a6a4:	ffcc7713          	andi	a4,s8,-4
    a6a8:	00ea02b3          	add	t0,s4,a4
    a6ac:	00270b33          	add	s6,a4,sp
    a6b0:	03cb4303          	lbu	t1,60(s6)
    a6b4:	00ea530b          	th.srb	t1,s4,a4,0
    a6b8:	00170393          	addi	t2,a4,1
    a6bc:	6ca3cce3          	blt	t2,a0,b594 <ee_printf+0x3660>
    a6c0:	000a0a93          	mv	s5,s4
    a6c4:	018a0a33          	add	s4,s4,s8
    a6c8:	000a0313          	mv	t1,s4
    a6cc:	14f55a63          	bge	a0,a5,a820 <ee_printf+0x28ec>
    a6d0:	fff78e13          	addi	t3,a5,-1
    a6d4:	41878c33          	sub	s8,a5,s8
    a6d8:	fffc0f93          	addi	t6,s8,-1
    a6dc:	00500593          	li	a1,5
    a6e0:	0ff5fe63          	bgeu	a1,t6,a7dc <ee_printf+0x28a8>
    a6e4:	41400eb3          	neg	t4,s4
    a6e8:	003ef493          	andi	s1,t4,3
    a6ec:	02048663          	beqz	s1,a718 <ee_printf+0x27e4>
    a6f0:	02000e13          	li	t3,32
    a6f4:	01ca0023          	sb	t3,0(s4)
    a6f8:	002ef713          	andi	a4,t4,2
    a6fc:	56070063          	beqz	a4,ac5c <ee_printf+0x2d28>
    a700:	01ca00a3          	sb	t3,1(s4)
    a704:	00300393          	li	t2,3
    a708:	6c7494e3          	bne	s1,t2,b5d0 <ee_printf+0x369c>
    a70c:	01ca0123          	sb	t3,2(s4)
    a710:	ffc78e13          	addi	t3,a5,-4
    a714:	003a0a13          	addi	s4,s4,3
    a718:	409c08b3          	sub	a7,s8,s1
    a71c:	00648733          	add	a4,s1,t1
    a720:	ffc8f293          	andi	t0,a7,-4
    a724:	00570cb3          	add	s9,a4,t0
    a728:	20202f37          	lui	t5,0x20202
    a72c:	020f0813          	addi	a6,t5,32 # 20202020 <_stack_top+0x201ee020>
    a730:	ffc28613          	addi	a2,t0,-4
    a734:	00265b13          	srli	s6,a2,0x2
    a738:	001b0c13          	addi	s8,s6,1
    a73c:	007c7f93          	andi	t6,s8,7
    a740:	060f8463          	beqz	t6,a7a8 <ee_printf+0x2874>
    a744:	00100593          	li	a1,1
    a748:	04bf8a63          	beq	t6,a1,a79c <ee_printf+0x2868>
    a74c:	00200e93          	li	t4,2
    a750:	05df8263          	beq	t6,t4,a794 <ee_printf+0x2860>
    a754:	00300393          	li	t2,3
    a758:	027f8a63          	beq	t6,t2,a78c <ee_printf+0x2858>
    a75c:	00400f13          	li	t5,4
    a760:	03ef8263          	beq	t6,t5,a784 <ee_printf+0x2850>
    a764:	00500613          	li	a2,5
    a768:	00cf8a63          	beq	t6,a2,a77c <ee_printf+0x2848>
    a76c:	00600b13          	li	s6,6
    a770:	116f9ae3          	bne	t6,s6,b084 <ee_printf+0x3150>
    a774:	01072023          	sw	a6,0(a4)
    a778:	00470713          	addi	a4,a4,4
    a77c:	01072023          	sw	a6,0(a4)
    a780:	00470713          	addi	a4,a4,4
    a784:	01072023          	sw	a6,0(a4)
    a788:	00470713          	addi	a4,a4,4
    a78c:	01072023          	sw	a6,0(a4)
    a790:	00470713          	addi	a4,a4,4
    a794:	01072023          	sw	a6,0(a4)
    a798:	00470713          	addi	a4,a4,4
    a79c:	01072023          	sw	a6,0(a4)
    a7a0:	00470713          	addi	a4,a4,4
    a7a4:	02ec8663          	beq	s9,a4,a7d0 <ee_printf+0x289c>
    a7a8:	01072023          	sw	a6,0(a4)
    a7ac:	01072223          	sw	a6,4(a4)
    a7b0:	01072423          	sw	a6,8(a4)
    a7b4:	01072623          	sw	a6,12(a4)
    a7b8:	01072823          	sw	a6,16(a4)
    a7bc:	01072a23          	sw	a6,20(a4)
    a7c0:	01072c23          	sw	a6,24(a4)
    a7c4:	01072e23          	sw	a6,28(a4)
    a7c8:	02070713          	addi	a4,a4,32
    a7cc:	fcec9ee3          	bne	s9,a4,a7a8 <ee_printf+0x2874>
    a7d0:	04588663          	beq	a7,t0,a81c <ee_printf+0x28e8>
    a7d4:	405e0e33          	sub	t3,t3,t0
    a7d8:	005a0a33          	add	s4,s4,t0
    a7dc:	02000313          	li	t1,32
    a7e0:	006a0023          	sb	t1,0(s4)
    a7e4:	03c55c63          	bge	a0,t3,a81c <ee_printf+0x28e8>
    a7e8:	006a00a3          	sb	t1,1(s4)
    a7ec:	fffe0493          	addi	s1,t3,-1
    a7f0:	02955663          	bge	a0,s1,a81c <ee_printf+0x28e8>
    a7f4:	006a0123          	sb	t1,2(s4)
    a7f8:	ffee0893          	addi	a7,t3,-2
    a7fc:	03155063          	bge	a0,a7,a81c <ee_printf+0x28e8>
    a800:	006a01a3          	sb	t1,3(s4)
    a804:	ffde0293          	addi	t0,t3,-3
    a808:	00555a63          	bge	a0,t0,a81c <ee_printf+0x28e8>
    a80c:	006a0223          	sb	t1,4(s4)
    a810:	ffce0c93          	addi	s9,t3,-4
    a814:	01955463          	bge	a0,s9,a81c <ee_printf+0x28e8>
    a818:	006a02a3          	sb	t1,5(s4)
    a81c:	01578a33          	add	s4,a5,s5
    a820:	0016c383          	lbu	t2,1(a3)
    a824:	00168513          	addi	a0,a3,1
    a828:	000b8493          	mv	s1,s7
    a82c:	00038463          	beqz	t2,a834 <ee_printf+0x2900>
    a830:	f8cfd06f          	j	7fbc <ee_printf+0x88>
    a834:	fa4fd06f          	j	7fd8 <ee_printf+0xa4>
    a838:	00260e33          	add	t3,a2,sp
    a83c:	03000593          	li	a1,48
    a840:	02be0e23          	sb	a1,60(t3)
    a844:	e84ff06f          	j	9ec8 <ee_printf+0x1f94>
    a848:	002f0ab3          	add	s5,t5,sp
    a84c:	03000c93          	li	s9,48
    a850:	039a8e23          	sb	s9,60(s5)
    a854:	de0ff06f          	j	9e34 <ee_printf+0x1f00>
    a858:	002485b3          	add	a1,s1,sp
    a85c:	03000393          	li	t2,48
    a860:	02758e23          	sb	t2,60(a1)
    a864:	d34ff06f          	j	9d98 <ee_printf+0x1e64>
    a868:	03000493          	li	s1,48
    a86c:	02910e23          	sb	s1,60(sp)
    a870:	00700513          	li	a0,7
    a874:	00600613          	li	a2,6
    a878:	00500313          	li	t1,5
    a87c:	00400f13          	li	t5,4
    a880:	00300e13          	li	t3,3
    a884:	00200493          	li	s1,2
    a888:	00100f93          	li	t6,1
    a88c:	c68ff06f          	j	9cf4 <ee_printf+0x1dc0>
    a890:	08010293          	addi	t0,sp,128
    a894:	f78fd06f          	j	800c <ee_printf+0xd8>
    a898:	004a0293          	addi	t0,s4,4
    a89c:	005a0e93          	addi	t4,s4,5
    a8a0:	04014e03          	lbu	t3,64(sp)
    a8a4:	01ca0223          	sb	t3,4(s4)
    a8a8:	00400713          	li	a4,4
    a8ac:	00500393          	li	t2,5
    a8b0:	03010f93          	addi	t6,sp,48
    a8b4:	01f385b3          	add	a1,t2,t6
    a8b8:	00c5ce03          	lbu	t3,12(a1)
    a8bc:	01ce8023          	sb	t3,0(t4)
    a8c0:	00270e93          	addi	t4,a4,2
    a8c4:	deaedee3          	bge	t4,a0,a6c0 <ee_printf+0x278c>
    a8c8:	01fe83b3          	add	t2,t4,t6
    a8cc:	00c3c483          	lbu	s1,12(t2)
    a8d0:	00928123          	sb	s1,2(t0)
    a8d4:	dedff06f          	j	a6c0 <ee_printf+0x278c>
    a8d8:	0004ab03          	lw	s6,0(s1)
    a8dc:	4e0e0663          	beqz	t3,adc8 <ee_printf+0x2e94>
    a8e0:	ffe77813          	andi	a6,a4,-2
    a8e4:	00286393          	ori	t2,a6,2
    a8e8:	000e8493          	mv	s1,t4
    a8ec:	01000e13          	li	t3,16
    a8f0:	02000893          	li	a7,32
    a8f4:	0113f813          	andi	a6,t2,17
    a8f8:	140b48e3          	bltz	s6,b248 <ee_printf+0x3314>
    a8fc:	0043fb93          	andi	s7,t2,4
    a900:	180b86e3          	beqz	s7,b28c <ee_printf+0x3358>
    a904:	fff78793          	addi	a5,a5,-1
    a908:	02b00e93          	li	t4,43
    a90c:	0203f313          	andi	t1,t2,32
    a910:	00a00c13          	li	s8,10
    a914:	000c0f13          	mv	t5,s8
    a918:	1a0b18e3          	bnez	s6,b2c8 <ee_printf+0x3394>
    a91c:	03000513          	li	a0,48
    a920:	02a10e23          	sb	a0,60(sp)
    a924:	00012023          	sw	zero,0(sp)
    a928:	00100a93          	li	s5,1
    a92c:	0b5ce633          	max	a2,s9,s5
    a930:	40c787b3          	sub	a5,a5,a2
    a934:	38081863          	bnez	a6,acc4 <ee_printf+0x2d90>
    a938:	fff78f93          	addi	t6,a5,-1
    a93c:	3cf05ae3          	blez	a5,b510 <ee_printf+0x35dc>
    a940:	000a0813          	mv	a6,s4
    a944:	00500c13          	li	s8,5
    a948:	11fc7663          	bgeu	s8,t6,aa54 <ee_printf+0x2b20>
    a94c:	41400bb3          	neg	s7,s4
    a950:	003bf393          	andi	t2,s7,3
    a954:	1c0384e3          	beqz	t2,b31c <ee_printf+0x33e8>
    a958:	02000293          	li	t0,32
    a95c:	005a0023          	sb	t0,0(s4)
    a960:	002bf713          	andi	a4,s7,2
    a964:	18070ae3          	beqz	a4,b2f8 <ee_printf+0x33c4>
    a968:	005a00a3          	sb	t0,1(s4)
    a96c:	00300513          	li	a0,3
    a970:	24a39ce3          	bne	t2,a0,b3c8 <ee_printf+0x3494>
    a974:	003a0b13          	addi	s6,s4,3
    a978:	01612223          	sw	s6,4(sp)
    a97c:	005a0123          	sb	t0,2(s4)
    a980:	ffc78f93          	addi	t6,a5,-4
    a984:	40778b33          	sub	s6,a5,t2
    a988:	007a0733          	add	a4,s4,t2
    a98c:	ffcb7293          	andi	t0,s6,-4
    a990:	00570bb3          	add	s7,a4,t0
    a994:	20202c37          	lui	s8,0x20202
    a998:	020c0593          	addi	a1,s8,32 # 20202020 <_stack_top+0x201ee020>
    a99c:	ffc28513          	addi	a0,t0,-4
    a9a0:	00255c13          	srli	s8,a0,0x2
    a9a4:	001c0513          	addi	a0,s8,1
    a9a8:	00757513          	andi	a0,a0,7
    a9ac:	06050863          	beqz	a0,aa1c <ee_printf+0x2ae8>
    a9b0:	00100c13          	li	s8,1
    a9b4:	05850e63          	beq	a0,s8,aa10 <ee_printf+0x2adc>
    a9b8:	00200c13          	li	s8,2
    a9bc:	05850663          	beq	a0,s8,aa08 <ee_printf+0x2ad4>
    a9c0:	00300c13          	li	s8,3
    a9c4:	03850e63          	beq	a0,s8,aa00 <ee_printf+0x2acc>
    a9c8:	00400c13          	li	s8,4
    a9cc:	03850663          	beq	a0,s8,a9f8 <ee_printf+0x2ac4>
    a9d0:	00500c13          	li	s8,5
    a9d4:	01850e63          	beq	a0,s8,a9f0 <ee_printf+0x2abc>
    a9d8:	00600c13          	li	s8,6
    a9dc:	01850663          	beq	a0,s8,a9e8 <ee_printf+0x2ab4>
    a9e0:	407a558b          	th.srw	a1,s4,t2,0
    a9e4:	00470713          	addi	a4,a4,4
    a9e8:	00b72023          	sw	a1,0(a4)
    a9ec:	00470713          	addi	a4,a4,4
    a9f0:	00b72023          	sw	a1,0(a4)
    a9f4:	00470713          	addi	a4,a4,4
    a9f8:	00b72023          	sw	a1,0(a4)
    a9fc:	00470713          	addi	a4,a4,4
    aa00:	00b72023          	sw	a1,0(a4)
    aa04:	00470713          	addi	a4,a4,4
    aa08:	00b72023          	sw	a1,0(a4)
    aa0c:	00470713          	addi	a4,a4,4
    aa10:	00b72023          	sw	a1,0(a4)
    aa14:	00470713          	addi	a4,a4,4
    aa18:	03770663          	beq	a4,s7,aa44 <ee_printf+0x2b10>
    aa1c:	00b72023          	sw	a1,0(a4)
    aa20:	00b72223          	sw	a1,4(a4)
    aa24:	00b72423          	sw	a1,8(a4)
    aa28:	00b72623          	sw	a1,12(a4)
    aa2c:	00b72823          	sw	a1,16(a4)
    aa30:	00b72a23          	sw	a1,20(a4)
    aa34:	00b72c23          	sw	a1,24(a4)
    aa38:	00b72e23          	sw	a1,28(a4)
    aa3c:	02070713          	addi	a4,a4,32
    aa40:	fd771ee3          	bne	a4,s7,aa1c <ee_printf+0x2ae8>
    aa44:	045b0863          	beq	s6,t0,aa94 <ee_printf+0x2b60>
    aa48:	405f8fb3          	sub	t6,t6,t0
    aa4c:	00412a03          	lw	s4,4(sp)
    aa50:	005a0a33          	add	s4,s4,t0
    aa54:	02000393          	li	t2,32
    aa58:	007a0023          	sb	t2,0(s4)
    aa5c:	03f05c63          	blez	t6,aa94 <ee_printf+0x2b60>
    aa60:	007a00a3          	sb	t2,1(s4)
    aa64:	00100b13          	li	s6,1
    aa68:	036f8663          	beq	t6,s6,aa94 <ee_printf+0x2b60>
    aa6c:	007a0123          	sb	t2,2(s4)
    aa70:	00200293          	li	t0,2
    aa74:	025f8063          	beq	t6,t0,aa94 <ee_printf+0x2b60>
    aa78:	007a01a3          	sb	t2,3(s4)
    aa7c:	00300b93          	li	s7,3
    aa80:	017f8a63          	beq	t6,s7,aa94 <ee_printf+0x2b60>
    aa84:	007a0223          	sb	t2,4(s4)
    aa88:	00400593          	li	a1,4
    aa8c:	00bf8463          	beq	t6,a1,aa94 <ee_printf+0x2b60>
    aa90:	007a02a3          	sb	t2,5(s4)
    aa94:	01078bb3          	add	s7,a5,a6
    aa98:	7a0e8063          	beqz	t4,b238 <ee_printf+0x3304>
    aa9c:	001b8a13          	addi	s4,s7,1
    aaa0:	00f85e8b          	th.srb	t4,a6,a5,0
    aaa4:	020318e3          	bnez	t1,b2d4 <ee_printf+0x33a0>
    aaa8:	400e1ee3          	bnez	t3,b6c4 <ee_printf+0x3790>
    aaac:	000a0b93          	mv	s7,s4
    aab0:	ffe00793          	li	a5,-2
    aab4:	ba4fe06f          	j	8e58 <ee_printf+0xf24>
    aab8:	0004ac83          	lw	s9,0(s1)
    aabc:	00448493          	addi	s1,s1,4
    aac0:	0000c6b7          	lui	a3,0xc
    aac4:	2c868b13          	addi	s6,a3,712 # c2c8 <__modsi3+0x6d4>
    aac8:	de8ff06f          	j	a0b0 <ee_printf+0x217c>
    aacc:	320e0a63          	beqz	t3,ae00 <ee_printf+0x2ecc>
    aad0:	ffe77593          	andi	a1,a4,-2
    aad4:	0405e813          	ori	a6,a1,64
    aad8:	02087313          	andi	t1,a6,32
    aadc:	300300e3          	beqz	t1,b5dc <ee_printf+0x36a8>
    aae0:	ffe78793          	addi	a5,a5,-2
    aae4:	560b1ce3          	bnez	s6,b85c <ee_printf+0x3928>
    aae8:	03000613          	li	a2,48
    aaec:	02c10e23          	sb	a2,60(sp)
    aaf0:	00100a93          	li	s5,1
    aaf4:	0b5ce633          	max	a2,s9,s5
    aaf8:	40c787b3          	sub	a5,a5,a2
    aafc:	00012023          	sw	zero,0(sp)
    ab00:	01000e13          	li	t3,16
    ab04:	02000893          	li	a7,32
    ab08:	03000513          	li	a0,48
    ab0c:	00aa0023          	sb	a0,0(s4)
    ab10:	002a0b93          	addi	s7,s4,2
    ab14:	07800c13          	li	s8,120
    ab18:	018a00a3          	sb	s8,1(s4)
    ab1c:	9c4fe06f          	j	8ce0 <ee_printf+0xdac>
    ab20:	00900e13          	li	t3,9
    ab24:	b91e5863          	bge	t3,a7,9eb4 <ee_printf+0x1f80>
    ab28:	002603b3          	add	t2,a2,sp
    ab2c:	ccccd4b7          	lui	s1,0xccccd
    ab30:	ccd48f93          	addi	t6,s1,-819 # cccccccd <_stack_top+0xcccb8ccd>
    ab34:	03f8bc33          	mulhu	s8,a7,t6
    ab38:	003c5293          	srli	t0,s8,0x3
    ab3c:	0000cab7          	lui	s5,0xc
    ab40:	2c8a8c93          	addi	s9,s5,712 # c2c8 <__modsi3+0x6d4>
    ab44:	805ccf0b          	th.lrbu	t5,s9,t0,0
    ab48:	03e38e23          	sb	t5,60(t2)
    ab4c:	2052ceb3          	sh2add	t4,t0,t0
    ab50:	001e9813          	slli	a6,t4,0x1
    ab54:	410888b3          	sub	a7,a7,a6
    ab58:	00050613          	mv	a2,a0
    ab5c:	00330513          	addi	a0,t1,3
    ab60:	b54ff06f          	j	9eb4 <ee_printf+0x1f80>
    ab64:	00900c93          	li	s9,9
    ab68:	abdcdc63          	bge	s9,t4,9e20 <ee_printf+0x1eec>
    ab6c:	002f0833          	add	a6,t5,sp
    ab70:	ccccd5b7          	lui	a1,0xccccd
    ab74:	ccd58393          	addi	t2,a1,-819 # cccccccd <_stack_top+0xcccb8ccd>
    ab78:	027eb4b3          	mulhu	s1,t4,t2
    ab7c:	0034df93          	srli	t6,s1,0x3
    ab80:	0000c2b7          	lui	t0,0xc
    ab84:	2c828c13          	addi	s8,t0,712 # c2c8 <__modsi3+0x6d4>
    ab88:	81fc4a8b          	th.lrbu	s5,s8,t6,0
    ab8c:	03580e23          	sb	s5,60(a6)
    ab90:	21ffccb3          	sh2add	s9,t6,t6
    ab94:	001c9893          	slli	a7,s9,0x1
    ab98:	411e8eb3          	sub	t4,t4,a7
    ab9c:	00030f13          	mv	t5,t1
    aba0:	00060313          	mv	t1,a2
    aba4:	00050613          	mv	a2,a0
    aba8:	005e0513          	addi	a0,t3,5
    abac:	a74ff06f          	j	9e20 <ee_printf+0x1eec>
    abb0:	00900c13          	li	s8,9
    abb4:	9c7c5863          	bge	s8,t2,9d84 <ee_printf+0x1e50>
    abb8:	00248833          	add	a6,s1,sp
    abbc:	ccccd4b7          	lui	s1,0xccccd
    abc0:	ccd48893          	addi	a7,s1,-819 # cccccccd <_stack_top+0xcccb8ccd>
    abc4:	0313beb3          	mulhu	t4,t2,a7
    abc8:	003ed593          	srli	a1,t4,0x3
    abcc:	0000c2b7          	lui	t0,0xc
    abd0:	2c828c13          	addi	s8,t0,712 # c2c8 <__modsi3+0x6d4>
    abd4:	80bc4a8b          	th.lrbu	s5,s8,a1,0
    abd8:	03580e23          	sb	s5,60(a6)
    abdc:	20b5ccb3          	sh2add	s9,a1,a1
    abe0:	001c9813          	slli	a6,s9,0x1
    abe4:	410383b3          	sub	t2,t2,a6
    abe8:	000e0493          	mv	s1,t3
    abec:	000f0e13          	mv	t3,t5
    abf0:	00030f13          	mv	t5,t1
    abf4:	00060313          	mv	t1,a2
    abf8:	00050613          	mv	a2,a0
    abfc:	007f8513          	addi	a0,t6,7
    ac00:	984ff06f          	j	9d84 <ee_printf+0x1e50>
    ac04:	00900293          	li	t0,9
    ac08:	2112de63          	bge	t0,a7,ae24 <ee_printf+0x2ef0>
    ac0c:	ccccdc37          	lui	s8,0xccccd
    ac10:	ccdc0a93          	addi	s5,s8,-819 # cccccccd <_stack_top+0xcccb8ccd>
    ac14:	0358bcb3          	mulhu	s9,a7,s5
    ac18:	003cd613          	srli	a2,s9,0x3
    ac1c:	0000cf37          	lui	t5,0xc
    ac20:	2c8f0313          	addi	t1,t5,712 # c2c8 <__modsi3+0x6d4>
    ac24:	80c34f8b          	th.lrbu	t6,t1,a2,0
    ac28:	03f10e23          	sb	t6,60(sp)
    ac2c:	20c64533          	sh2add	a0,a2,a2
    ac30:	00151813          	slli	a6,a0,0x1
    ac34:	410888b3          	sub	a7,a7,a6
    ac38:	00800513          	li	a0,8
    ac3c:	00700613          	li	a2,7
    ac40:	00600313          	li	t1,6
    ac44:	00500f13          	li	t5,5
    ac48:	00400e13          	li	t3,4
    ac4c:	00300493          	li	s1,3
    ac50:	00200f93          	li	t6,2
    ac54:	00100393          	li	t2,1
    ac58:	888ff06f          	j	9ce0 <ee_printf+0x1dac>
    ac5c:	001a0a13          	addi	s4,s4,1
    ac60:	ffe78e13          	addi	t3,a5,-2
    ac64:	ab5ff06f          	j	a718 <ee_printf+0x27e4>
    ac68:	03000493          	li	s1,48
    ac6c:	02910e23          	sb	s1,60(sp)
    ac70:	00100513          	li	a0,1
    ac74:	0aace333          	max	t1,s9,a0
    ac78:	406787b3          	sub	a5,a5,t1
    ac7c:	420b9263          	bnez	s7,b0a0 <ee_printf+0x316c>
    ac80:	fff78e93          	addi	t4,a5,-1
    ac84:	5af056e3          	blez	a5,ba30 <ee_printf+0x3afc>
    ac88:	00000893          	li	a7,0
    ac8c:	a2dfe06f          	j	96b8 <ee_printf+0x1784>
    ac90:	fff78793          	addi	a5,a5,-1
    ac94:	42081463          	bnez	a6,b0bc <ee_printf+0x3188>
    ac98:	03000593          	li	a1,48
    ac9c:	02b10e23          	sb	a1,60(sp)
    aca0:	00100a93          	li	s5,1
    aca4:	0b5ce633          	max	a2,s9,s5
    aca8:	40c787b3          	sub	a5,a5,a2
    acac:	00012023          	sw	zero,0(sp)
    acb0:	01000e13          	li	t3,16
    acb4:	02000313          	li	t1,32
    acb8:	00800f13          	li	t5,8
    acbc:	00030893          	mv	a7,t1
    acc0:	00000e93          	li	t4,0
    acc4:	000e9463          	bnez	t4,accc <ee_printf+0x2d98>
    acc8:	ff9fd06f          	j	8cc0 <ee_printf+0xd8c>
    accc:	01da0023          	sb	t4,0(s4)
    acd0:	001a0a13          	addi	s4,s4,1
    acd4:	00030463          	beqz	t1,acdc <ee_printf+0x2da8>
    acd8:	fedfd06f          	j	8cc4 <ee_printf+0xd90>
    acdc:	800fe06f          	j	8cdc <ee_printf+0xda8>
    ace0:	03000313          	li	t1,48
    ace4:	02610e23          	sb	t1,60(sp)
    ace8:	00100513          	li	a0,1
    acec:	0aace333          	max	t1,s9,a0
    acf0:	406787b3          	sub	a5,a5,t1
    acf4:	380b8e63          	beqz	s7,b090 <ee_printf+0x315c>
    acf8:	01077893          	andi	a7,a4,16
    acfc:	42088ee3          	beqz	a7,b938 <ee_printf+0x3a04>
    ad00:	55955ce3          	bge	a0,s9,ba58 <ee_printf+0x3b24>
    ad04:	00000893          	li	a7,0
    ad08:	000a0593          	mv	a1,s4
    ad0c:	b29fe06f          	j	9834 <ee_printf+0x1900>
    ad10:	3c0e1a63          	bnez	t3,b0e4 <ee_printf+0x31b0>
    ad14:	03000893          	li	a7,48
    ad18:	03110e23          	sb	a7,60(sp)
    ad1c:	00100a93          	li	s5,1
    ad20:	0b5ce633          	max	a2,s9,s5
    ad24:	40c787b3          	sub	a5,a5,a2
    ad28:	00012023          	sw	zero,0(sp)
    ad2c:	01000e13          	li	t3,16
    ad30:	02000313          	li	t1,32
    ad34:	00a00f13          	li	t5,10
    ad38:	00030893          	mv	a7,t1
    ad3c:	00030463          	beqz	t1,ad44 <ee_printf+0x2e10>
    ad40:	f85fd06f          	j	8cc4 <ee_printf+0xd90>
    ad44:	f99fd06f          	j	8cdc <ee_printf+0xda8>
    ad48:	01000e13          	li	t3,16
    ad4c:	000e0813          	mv	a6,t3
    ad50:	000e0c13          	mv	s8,t3
    ad54:	02000893          	li	a7,32
    ad58:	0000cfb7          	lui	t6,0xc
    ad5c:	2c8f8713          	addi	a4,t6,712 # c2c8 <__modsi3+0x6d4>
    ad60:	ffe78793          	addi	a5,a5,-2
    ad64:	100b1463          	bnez	s6,ae6c <ee_printf+0x2f38>
    ad68:	03000313          	li	t1,48
    ad6c:	02610e23          	sb	t1,60(sp)
    ad70:	00100a93          	li	s5,1
    ad74:	0b5ce633          	max	a2,s9,s5
    ad78:	40c787b3          	sub	a5,a5,a2
    ad7c:	12080ae3          	beqz	a6,b6b0 <ee_printf+0x377c>
    ad80:	00012023          	sw	zero,0(sp)
    ad84:	02000313          	li	t1,32
    ad88:	01000f13          	li	t5,16
    ad8c:	00030463          	beqz	t1,ad94 <ee_printf+0x2e60>
    ad90:	f35fd06f          	j	8cc4 <ee_printf+0xd90>
    ad94:	f49fd06f          	j	8cdc <ee_printf+0xda8>
    ad98:	03000a13          	li	s4,48
    ad9c:	00fc5a0b          	th.srb	s4,s8,a5,0
    ada0:	07800f13          	li	t5,120
    ada4:	01e580a3          	sb	t5,1(a1)
    ada8:	01077713          	andi	a4,a4,16
    adac:	120712e3          	bnez	a4,b6d0 <ee_printf+0x379c>
    adb0:	00258593          	addi	a1,a1,2
    adb4:	ffe00793          	li	a5,-2
    adb8:	01955463          	bge	a0,s9,adc0 <ee_printf+0x2e8c>
    adbc:	a79fe06f          	j	9834 <ee_printf+0x1900>
    adc0:	00058a13          	mv	s4,a1
    adc4:	bf1fe06f          	j	99b4 <ee_printf+0x1a80>
    adc8:	00177293          	andi	t0,a4,1
    adcc:	4e028ce3          	beqz	t0,bac4 <ee_printf+0x3b90>
    add0:	000e8493          	mv	s1,t4
    add4:	03000893          	li	a7,48
    add8:	b1dff06f          	j	a8f4 <ee_printf+0x29c0>
    addc:	00100b93          	li	s7,1
    ade0:	00800793          	li	a5,8
    ade4:	03000e13          	li	t3,48
    ade8:	a25fd06f          	j	880c <ee_printf+0x8d8>
    adec:	00276393          	ori	t2,a4,2
    adf0:	01077e13          	andi	t3,a4,16
    adf4:	00448e93          	addi	t4,s1,4
    adf8:	00060693          	mv	a3,a2
    adfc:	885fe06f          	j	9680 <ee_printf+0x174c>
    ae00:	00177813          	andi	a6,a4,1
    ae04:	46080ce3          	beqz	a6,ba7c <ee_printf+0x3b48>
    ae08:	02077c13          	andi	s8,a4,32
    ae0c:	2c0c08e3          	beqz	s8,b8dc <ee_printf+0x39a8>
    ae10:	01000c13          	li	s8,16
    ae14:	03000893          	li	a7,48
    ae18:	0000c637          	lui	a2,0xc
    ae1c:	2f060713          	addi	a4,a2,752 # c2f0 <__modsi3+0x6fc>
    ae20:	f41ff06f          	j	ad60 <ee_printf+0x2e2c>
    ae24:	00700513          	li	a0,7
    ae28:	00600613          	li	a2,6
    ae2c:	00500313          	li	t1,5
    ae30:	00400f13          	li	t5,4
    ae34:	00300e13          	li	t3,3
    ae38:	00200493          	li	s1,2
    ae3c:	00100f93          	li	t6,1
    ae40:	00000393          	li	t2,0
    ae44:	e9dfe06f          	j	9ce0 <ee_printf+0x1dac>
    ae48:	ffe77493          	andi	s1,a4,-2
    ae4c:	0024e393          	ori	t2,s1,2
    ae50:	000e8493          	mv	s1,t4
    ae54:	01000e13          	li	t3,16
    ae58:	02000893          	li	a7,32
    ae5c:	a99ff06f          	j	a8f4 <ee_printf+0x29c0>
    ae60:	ffe77893          	andi	a7,a4,-2
    ae64:	0408e813          	ori	a6,a7,64
    ae68:	c71ff06f          	j	aad8 <ee_printf+0x2ba4>
    ae6c:	01000f13          	li	t5,16
    ae70:	00000e93          	li	t4,0
    ae74:	02000313          	li	t1,32
    ae78:	00000a93          	li	s5,0
    ae7c:	03c10b93          	addi	s7,sp,60
    ae80:	00f12223          	sw	a5,4(sp)
    ae84:	01912423          	sw	s9,8(sp)
    ae88:	01112623          	sw	a7,12(sp)
    ae8c:	01412823          	sw	s4,16(sp)
    ae90:	01d12a23          	sw	t4,20(sp)
    ae94:	00912c23          	sw	s1,24(sp)
    ae98:	00d12e23          	sw	a3,28(sp)
    ae9c:	00070493          	mv	s1,a4
    aea0:	03e12023          	sw	t5,32(sp)
    aea4:	02612223          	sw	t1,36(sp)
    aea8:	03012423          	sw	a6,40(sp)
    aeac:	03c12623          	sw	t3,44(sp)
    aeb0:	000a8c93          	mv	s9,s5
    aeb4:	001a8a93          	addi	s5,s5,1
    aeb8:	01512023          	sw	s5,0(sp)
    aebc:	017a8a33          	add	s4,s5,s7
    aec0:	000c0593          	mv	a1,s8
    aec4:	000b0513          	mv	a0,s6
    aec8:	4f9000ef          	jal	bbc0 <__umodsi3>
    aecc:	80a4c78b          	th.lrbu	a5,s1,a0,0
    aed0:	fefa0fa3          	sb	a5,-1(s4)
    aed4:	000c0593          	mv	a1,s8
    aed8:	000b0513          	mv	a0,s6
    aedc:	49d000ef          	jal	bb78 <__hidden___udivsi3>
    aee0:	00050a13          	mv	s4,a0
    aee4:	458b6063          	bltu	s6,s8,b324 <ee_printf+0x33f0>
    aee8:	000a8c93          	mv	s9,s5
    aeec:	001a8a93          	addi	s5,s5,1
    aef0:	017a8b33          	add	s6,s5,s7
    aef4:	000c0593          	mv	a1,s8
    aef8:	4c9000ef          	jal	bbc0 <__umodsi3>
    aefc:	80a4c68b          	th.lrbu	a3,s1,a0,0
    af00:	fedb0fa3          	sb	a3,-1(s6)
    af04:	000c0593          	mv	a1,s8
    af08:	000a0513          	mv	a0,s4
    af0c:	46d000ef          	jal	bb78 <__hidden___udivsi3>
    af10:	00050b13          	mv	s6,a0
    af14:	458a6263          	bltu	s4,s8,b358 <ee_printf+0x3424>
    af18:	000a8c93          	mv	s9,s5
    af1c:	00012283          	lw	t0,0(sp)
    af20:	00228a93          	addi	s5,t0,2
    af24:	017a8a33          	add	s4,s5,s7
    af28:	000c0593          	mv	a1,s8
    af2c:	495000ef          	jal	bbc0 <__umodsi3>
    af30:	80a4c70b          	th.lrbu	a4,s1,a0,0
    af34:	feea0fa3          	sb	a4,-1(s4)
    af38:	000c0593          	mv	a1,s8
    af3c:	000b0513          	mv	a0,s6
    af40:	439000ef          	jal	bb78 <__hidden___udivsi3>
    af44:	00050a13          	mv	s4,a0
    af48:	458b6263          	bltu	s6,s8,b38c <ee_printf+0x3458>
    af4c:	000a8c93          	mv	s9,s5
    af50:	00012f03          	lw	t5,0(sp)
    af54:	003f0a93          	addi	s5,t5,3
    af58:	017a8b33          	add	s6,s5,s7
    af5c:	000c0593          	mv	a1,s8
    af60:	461000ef          	jal	bbc0 <__umodsi3>
    af64:	80a4c88b          	th.lrbu	a7,s1,a0,0
    af68:	ff1b0fa3          	sb	a7,-1(s6)
    af6c:	000c0593          	mv	a1,s8
    af70:	000a0513          	mv	a0,s4
    af74:	405000ef          	jal	bb78 <__hidden___udivsi3>
    af78:	00050b13          	mv	s6,a0
    af7c:	478a6463          	bltu	s4,s8,b3e4 <ee_printf+0x34b0>
    af80:	000a8c93          	mv	s9,s5
    af84:	00012803          	lw	a6,0(sp)
    af88:	00480a93          	addi	s5,a6,4
    af8c:	017a8a33          	add	s4,s5,s7
    af90:	000c0593          	mv	a1,s8
    af94:	42d000ef          	jal	bbc0 <__umodsi3>
    af98:	80a4cf8b          	th.lrbu	t6,s1,a0,0
    af9c:	fffa0fa3          	sb	t6,-1(s4)
    afa0:	000c0593          	mv	a1,s8
    afa4:	000b0513          	mv	a0,s6
    afa8:	3d1000ef          	jal	bb78 <__hidden___udivsi3>
    afac:	00050a13          	mv	s4,a0
    afb0:	478b6463          	bltu	s6,s8,b418 <ee_printf+0x34e4>
    afb4:	000a8c93          	mv	s9,s5
    afb8:	00012a83          	lw	s5,0(sp)
    afbc:	005a8a93          	addi	s5,s5,5
    afc0:	017a8b33          	add	s6,s5,s7
    afc4:	000c0593          	mv	a1,s8
    afc8:	3f9000ef          	jal	bbc0 <__umodsi3>
    afcc:	80a4c50b          	th.lrbu	a0,s1,a0,0
    afd0:	feab0fa3          	sb	a0,-1(s6)
    afd4:	000c0593          	mv	a1,s8
    afd8:	000a0513          	mv	a0,s4
    afdc:	39d000ef          	jal	bb78 <__hidden___udivsi3>
    afe0:	00050b13          	mv	s6,a0
    afe4:	538a6a63          	bltu	s4,s8,b518 <ee_printf+0x35e4>
    afe8:	000a8c93          	mv	s9,s5
    afec:	00012603          	lw	a2,0(sp)
    aff0:	00660a93          	addi	s5,a2,6
    aff4:	017a8a33          	add	s4,s5,s7
    aff8:	000c0593          	mv	a1,s8
    affc:	3c5000ef          	jal	bbc0 <__umodsi3>
    b000:	80a4c30b          	th.lrbu	t1,s1,a0,0
    b004:	fe6a0fa3          	sb	t1,-1(s4)
    b008:	000c0593          	mv	a1,s8
    b00c:	000b0513          	mv	a0,s6
    b010:	369000ef          	jal	bb78 <__hidden___udivsi3>
    b014:	00050a13          	mv	s4,a0
    b018:	598b6263          	bltu	s6,s8,b59c <ee_printf+0x3668>
    b01c:	000a8c93          	mv	s9,s5
    b020:	00012583          	lw	a1,0(sp)
    b024:	00758a93          	addi	s5,a1,7
    b028:	017a8b33          	add	s6,s5,s7
    b02c:	000c0593          	mv	a1,s8
    b030:	391000ef          	jal	bbc0 <__umodsi3>
    b034:	80a4ce8b          	th.lrbu	t4,s1,a0,0
    b038:	ffdb0fa3          	sb	t4,-1(s6)
    b03c:	000c0593          	mv	a1,s8
    b040:	000a0513          	mv	a0,s4
    b044:	335000ef          	jal	bb78 <__hidden___udivsi3>
    b048:	00050b13          	mv	s6,a0
    b04c:	e78a72e3          	bgeu	s4,s8,aeb0 <ee_printf+0x2f7c>
    b050:	00412783          	lw	a5,4(sp)
    b054:	00c12883          	lw	a7,12(sp)
    b058:	01012a03          	lw	s4,16(sp)
    b05c:	01412e83          	lw	t4,20(sp)
    b060:	01812483          	lw	s1,24(sp)
    b064:	01c12683          	lw	a3,28(sp)
    b068:	01912023          	sw	s9,0(sp)
    b06c:	00812c83          	lw	s9,8(sp)
    b070:	02012f03          	lw	t5,32(sp)
    b074:	02412303          	lw	t1,36(sp)
    b078:	02812803          	lw	a6,40(sp)
    b07c:	02c12e03          	lw	t3,44(sp)
    b080:	8adff06f          	j	a92c <ee_printf+0x29f8>
    b084:	4093580b          	th.srw	a6,t1,s1,0
    b088:	00470713          	addi	a4,a4,4
    b08c:	ee8ff06f          	j	a774 <ee_printf+0x2840>
    b090:	18f056e3          	blez	a5,ba1c <ee_printf+0x3ae8>
    b094:	fff78e93          	addi	t4,a5,-1
    b098:	00000893          	li	a7,0
    b09c:	e1cfe06f          	j	96b8 <ee_printf+0x1784>
    b0a0:	00000893          	li	a7,0
    b0a4:	03000f13          	li	t5,48
    b0a8:	01ea0023          	sb	t5,0(s4)
    b0ac:	002a0593          	addi	a1,s4,2
    b0b0:	07800a93          	li	s5,120
    b0b4:	015a00a3          	sb	s5,1(s4)
    b0b8:	889fd06f          	j	8940 <ee_printf+0xa0c>
    b0bc:	01000e13          	li	t3,16
    b0c0:	000e0813          	mv	a6,t3
    b0c4:	00800c13          	li	s8,8
    b0c8:	000c0f13          	mv	t5,s8
    b0cc:	02000893          	li	a7,32
    b0d0:	0000cab7          	lui	s5,0xc
    b0d4:	2c8a8713          	addi	a4,s5,712 # c2c8 <__modsi3+0x6d4>
    b0d8:	00000e93          	li	t4,0
    b0dc:	00088313          	mv	t1,a7
    b0e0:	d99ff06f          	j	ae78 <ee_printf+0x2f44>
    b0e4:	01000e13          	li	t3,16
    b0e8:	000e0813          	mv	a6,t3
    b0ec:	00a00c13          	li	s8,10
    b0f0:	000c0f13          	mv	t5,s8
    b0f4:	02000893          	li	a7,32
    b0f8:	0000c337          	lui	t1,0xc
    b0fc:	2c830713          	addi	a4,t1,712 # c2c8 <__modsi3+0x6d4>
    b100:	00000e93          	li	t4,0
    b104:	00088313          	mv	t1,a7
    b108:	d71ff06f          	j	ae78 <ee_printf+0x2f44>
    b10c:	01000e13          	li	t3,16
    b110:	000e0813          	mv	a6,t3
    b114:	00800c13          	li	s8,8
    b118:	000c0f13          	mv	t5,s8
    b11c:	02000893          	li	a7,32
    b120:	0000c737          	lui	a4,0xc
    b124:	2c870713          	addi	a4,a4,712 # c2c8 <__modsi3+0x6d4>
    b128:	00000e93          	li	t4,0
    b12c:	d4dff06f          	j	ae78 <ee_printf+0x2f44>
    b130:	01000e13          	li	t3,16
    b134:	000e0813          	mv	a6,t3
    b138:	00a00c13          	li	s8,10
    b13c:	000c0f13          	mv	t5,s8
    b140:	02000893          	li	a7,32
    b144:	0000c3b7          	lui	t2,0xc
    b148:	2c838713          	addi	a4,t2,712 # c2c8 <__modsi3+0x6d4>
    b14c:	00000e93          	li	t4,0
    b150:	d29ff06f          	j	ae78 <ee_printf+0x2f44>
    b154:	01000e13          	li	t3,16
    b158:	000e0813          	mv	a6,t3
    b15c:	000e0c13          	mv	s8,t3
    b160:	000e0f13          	mv	t5,t3
    b164:	02000893          	li	a7,32
    b168:	0000c637          	lui	a2,0xc
    b16c:	2c860713          	addi	a4,a2,712 # c2c8 <__modsi3+0x6d4>
    b170:	00000e93          	li	t4,0
    b174:	d05ff06f          	j	ae78 <ee_printf+0x2f44>
    b178:	001a0b13          	addi	s6,s4,1
    b17c:	ffe78e93          	addi	t4,a5,-2
    b180:	d84fe06f          	j	9704 <ee_printf+0x17d0>
    b184:	013a0513          	addi	a0,s4,19
    b188:	ffd78313          	addi	t1,a5,-3
    b18c:	a28ff06f          	j	a3b4 <ee_printf+0x2480>
    b190:	00060693          	mv	a3,a2
    b194:	ac1fe06f          	j	9c54 <ee_printf+0x1d20>
    b198:	04076313          	ori	t1,a4,64
    b19c:	0004ab03          	lw	s6,0(s1)
    b1a0:	01077e13          	andi	t3,a4,16
    b1a4:	00448493          	addi	s1,s1,4
    b1a8:	00060693          	mv	a3,a2
    b1ac:	ca0e1ae3          	bnez	t3,ae60 <ee_printf+0x2f2c>
    b1b0:	eb9fe06f          	j	a068 <ee_printf+0x2134>
    b1b4:	002a0f13          	addi	t5,s4,2
    b1b8:	ffd78893          	addi	a7,a5,-3
    b1bc:	d79fe06f          	j	9f34 <ee_printf+0x2000>
    b1c0:	01412823          	sw	s4,16(sp)
    b1c4:	00012b03          	lw	s6,0(sp)
    b1c8:	818ff06f          	j	a1e0 <ee_printf+0x22ac>
    b1cc:	0004ae83          	lw	t4,0(s1)
    b1d0:	01da0023          	sb	t4,0(s4)
    b1d4:	0016c383          	lbu	t2,1(a3)
    b1d8:	000c8493          	mv	s1,s9
    b1dc:	001a0a13          	addi	s4,s4,1
    b1e0:	00038463          	beqz	t2,b1e8 <ee_printf+0x32b4>
    b1e4:	dd9fc06f          	j	7fbc <ee_printf+0x88>
    b1e8:	df1fc06f          	j	7fd8 <ee_printf+0xa4>
    b1ec:	000c8793          	mv	a5,s9
    b1f0:	b08fd06f          	j	84f8 <ee_printf+0x5c4>
    b1f4:	000f00e3          	beqz	t5,b9f4 <ee_printf+0x3ac0>
    b1f8:	03000b93          	li	s7,48
    b1fc:	017a0023          	sb	s7,0(s4)
    b200:	002a0593          	addi	a1,s4,2
    b204:	07800e13          	li	t3,120
    b208:	01ca00a3          	sb	t3,1(s4)
    b20c:	01077a13          	andi	s4,a4,16
    b210:	040a18e3          	bnez	s4,ba60 <ee_printf+0x3b2c>
    b214:	ffe78793          	addi	a5,a5,-2
    b218:	ba1ff06f          	j	adb8 <ee_printf+0x2e84>
    b21c:	0a0ce333          	max	t1,s9,zero
    b220:	406787b3          	sub	a5,a5,t1
    b224:	000b8ce3          	beqz	s7,ba3c <ee_printf+0x3b08>
    b228:	00000513          	li	a0,0
    b22c:	000a0593          	mv	a1,s4
    b230:	fff00893          	li	a7,-1
    b234:	f0cfd06f          	j	8940 <ee_printf+0xa0c>
    b238:	0a031263          	bnez	t1,b2dc <ee_printf+0x33a8>
    b23c:	200e1863          	bnez	t3,b44c <ee_printf+0x3518>
    b240:	ffe00793          	li	a5,-2
    b244:	c15fd06f          	j	8e58 <ee_printf+0xf24>
    b248:	41600b33          	neg	s6,s6
    b24c:	fff78793          	addi	a5,a5,-1
    b250:	0203f313          	andi	t1,t2,32
    b254:	00a00c13          	li	s8,10
    b258:	000c0f13          	mv	t5,s8
    b25c:	0000c637          	lui	a2,0xc
    b260:	2c860713          	addi	a4,a2,712 # c2c8 <__modsi3+0x6d4>
    b264:	02d00e93          	li	t4,45
    b268:	c11ff06f          	j	ae78 <ee_printf+0x2f44>
    b26c:	001b8e13          	addi	t3,s7,1
    b270:	ffe60e93          	addi	t4,a2,-2
    b274:	c51fd06f          	j	8ec4 <ee_printf+0xf90>
    b278:	000b8e13          	mv	t3,s7
    b27c:	c49fd06f          	j	8ec4 <ee_printf+0xf90>
    b280:	002b8a13          	addi	s4,s7,2
    b284:	ffe78313          	addi	t1,a5,-2
    b288:	ec1fd06f          	j	9148 <ee_printf+0x1214>
    b28c:	0083f313          	andi	t1,t2,8
    b290:	12030863          	beqz	t1,b3c0 <ee_printf+0x348c>
    b294:	fff78793          	addi	a5,a5,-1
    b298:	02000e93          	li	t4,32
    b29c:	e70ff06f          	j	a90c <ee_printf+0x29d8>
    b2a0:	003b8a13          	addi	s4,s7,3
    b2a4:	ffd78313          	addi	t1,a5,-3
    b2a8:	ea1fd06f          	j	9148 <ee_printf+0x1214>
    b2ac:	002b8e13          	addi	t3,s7,2
    b2b0:	ffd60e93          	addi	t4,a2,-3
    b2b4:	c11fd06f          	j	8ec4 <ee_printf+0xf90>
    b2b8:	001a0b93          	addi	s7,s4,1
    b2bc:	03000f13          	li	t5,48
    b2c0:	01ea0023          	sb	t5,0(s4)
    b2c4:	a1dfd06f          	j	8ce0 <ee_printf+0xdac>
    b2c8:	0000cfb7          	lui	t6,0xc
    b2cc:	2c8f8713          	addi	a4,t6,712 # c2c8 <__modsi3+0x6d4>
    b2d0:	ba9ff06f          	j	ae78 <ee_printf+0x2f44>
    b2d4:	fff00793          	li	a5,-1
    b2d8:	9edfd06f          	j	8cc4 <ee_printf+0xd90>
    b2dc:	00800e93          	li	t4,8
    b2e0:	33df0063          	beq	t5,t4,b600 <ee_printf+0x36cc>
    b2e4:	01000793          	li	a5,16
    b2e8:	40ff0c63          	beq	t5,a5,b700 <ee_printf+0x37cc>
    b2ec:	420e1e63          	bnez	t3,b728 <ee_printf+0x37f4>
    b2f0:	ffe00793          	li	a5,-2
    b2f4:	b65fd06f          	j	8e58 <ee_printf+0xf24>
    b2f8:	001a0f93          	addi	t6,s4,1
    b2fc:	01f12223          	sw	t6,4(sp)
    b300:	ffe78f93          	addi	t6,a5,-2
    b304:	e80ff06f          	j	a984 <ee_printf+0x2a50>
    b308:	000b8293          	mv	t0,s7
    b30c:	a2dfd06f          	j	8d38 <ee_printf+0xe04>
    b310:	001b8293          	addi	t0,s7,1
    b314:	ffe78e13          	addi	t3,a5,-2
    b318:	a21fd06f          	j	8d38 <ee_printf+0xe04>
    b31c:	01412223          	sw	s4,4(sp)
    b320:	e64ff06f          	j	a984 <ee_printf+0x2a50>
    b324:	00412783          	lw	a5,4(sp)
    b328:	00c12883          	lw	a7,12(sp)
    b32c:	01012a03          	lw	s4,16(sp)
    b330:	01412e83          	lw	t4,20(sp)
    b334:	01812483          	lw	s1,24(sp)
    b338:	01c12683          	lw	a3,28(sp)
    b33c:	01912023          	sw	s9,0(sp)
    b340:	00812c83          	lw	s9,8(sp)
    b344:	02012f03          	lw	t5,32(sp)
    b348:	02412303          	lw	t1,36(sp)
    b34c:	02812803          	lw	a6,40(sp)
    b350:	02c12e03          	lw	t3,44(sp)
    b354:	dd8ff06f          	j	a92c <ee_printf+0x29f8>
    b358:	00412783          	lw	a5,4(sp)
    b35c:	00c12883          	lw	a7,12(sp)
    b360:	01012a03          	lw	s4,16(sp)
    b364:	01412e83          	lw	t4,20(sp)
    b368:	01812483          	lw	s1,24(sp)
    b36c:	01c12683          	lw	a3,28(sp)
    b370:	01912023          	sw	s9,0(sp)
    b374:	00812c83          	lw	s9,8(sp)
    b378:	02012f03          	lw	t5,32(sp)
    b37c:	02412303          	lw	t1,36(sp)
    b380:	02812803          	lw	a6,40(sp)
    b384:	02c12e03          	lw	t3,44(sp)
    b388:	da4ff06f          	j	a92c <ee_printf+0x29f8>
    b38c:	00412783          	lw	a5,4(sp)
    b390:	00c12883          	lw	a7,12(sp)
    b394:	01012a03          	lw	s4,16(sp)
    b398:	01412e83          	lw	t4,20(sp)
    b39c:	01812483          	lw	s1,24(sp)
    b3a0:	01c12683          	lw	a3,28(sp)
    b3a4:	01912023          	sw	s9,0(sp)
    b3a8:	00812c83          	lw	s9,8(sp)
    b3ac:	02012f03          	lw	t5,32(sp)
    b3b0:	02412303          	lw	t1,36(sp)
    b3b4:	02812803          	lw	a6,40(sp)
    b3b8:	02c12e03          	lw	t3,44(sp)
    b3bc:	d70ff06f          	j	a92c <ee_printf+0x29f8>
    b3c0:	00000e93          	li	t4,0
    b3c4:	d48ff06f          	j	a90c <ee_printf+0x29d8>
    b3c8:	002a0593          	addi	a1,s4,2
    b3cc:	00b12223          	sw	a1,4(sp)
    b3d0:	ffd78f93          	addi	t6,a5,-3
    b3d4:	db0ff06f          	j	a984 <ee_printf+0x2a50>
    b3d8:	002b8293          	addi	t0,s7,2
    b3dc:	ffd78e13          	addi	t3,a5,-3
    b3e0:	959fd06f          	j	8d38 <ee_printf+0xe04>
    b3e4:	00412783          	lw	a5,4(sp)
    b3e8:	00c12883          	lw	a7,12(sp)
    b3ec:	01012a03          	lw	s4,16(sp)
    b3f0:	01412e83          	lw	t4,20(sp)
    b3f4:	01812483          	lw	s1,24(sp)
    b3f8:	01c12683          	lw	a3,28(sp)
    b3fc:	01912023          	sw	s9,0(sp)
    b400:	00812c83          	lw	s9,8(sp)
    b404:	02012f03          	lw	t5,32(sp)
    b408:	02412303          	lw	t1,36(sp)
    b40c:	02812803          	lw	a6,40(sp)
    b410:	02c12e03          	lw	t3,44(sp)
    b414:	d18ff06f          	j	a92c <ee_printf+0x29f8>
    b418:	00412783          	lw	a5,4(sp)
    b41c:	00c12883          	lw	a7,12(sp)
    b420:	01012a03          	lw	s4,16(sp)
    b424:	01412e83          	lw	t4,20(sp)
    b428:	01812483          	lw	s1,24(sp)
    b42c:	01c12683          	lw	a3,28(sp)
    b430:	01912023          	sw	s9,0(sp)
    b434:	00812c83          	lw	s9,8(sp)
    b438:	02012f03          	lw	t5,32(sp)
    b43c:	02412303          	lw	t1,36(sp)
    b440:	02812803          	lw	a6,40(sp)
    b444:	02c12e03          	lw	t3,44(sp)
    b448:	ce4ff06f          	j	a92c <ee_printf+0x29f8>
    b44c:	fff00793          	li	a5,-1
    b450:	a09fd06f          	j	8e58 <ee_printf+0xf24>
    b454:	03c14283          	lbu	t0,60(sp)
    b458:	005a0023          	sb	t0,0(s4)
    b45c:	03d14883          	lbu	a7,61(sp)
    b460:	011a00a3          	sb	a7,1(s4)
    b464:	03e14c83          	lbu	s9,62(sp)
    b468:	019a0123          	sb	s9,2(s4)
    b46c:	03f14f03          	lbu	t5,63(sp)
    b470:	01ea01a3          	sb	t5,3(s4)
    b474:	04014803          	lbu	a6,64(sp)
    b478:	010a0223          	sb	a6,4(s4)
    b47c:	04114603          	lbu	a2,65(sp)
    b480:	00ca02a3          	sb	a2,5(s4)
    b484:	04214b03          	lbu	s6,66(sp)
    b488:	016a0323          	sb	s6,6(s4)
    b48c:	00700313          	li	t1,7
    b490:	a2650863          	beq	a0,t1,a6c0 <ee_printf+0x278c>
    b494:	04314a83          	lbu	s5,67(sp)
    b498:	015a03a3          	sb	s5,7(s4)
    b49c:	00800f93          	li	t6,8
    b4a0:	a3f50063          	beq	a0,t6,a6c0 <ee_printf+0x278c>
    b4a4:	04414583          	lbu	a1,68(sp)
    b4a8:	00ba0423          	sb	a1,8(s4)
    b4ac:	00900e13          	li	t3,9
    b4b0:	a1c50863          	beq	a0,t3,a6c0 <ee_printf+0x278c>
    b4b4:	04514e83          	lbu	t4,69(sp)
    b4b8:	01da04a3          	sb	t4,9(s4)
    b4bc:	00a00713          	li	a4,10
    b4c0:	a0e50063          	beq	a0,a4,a6c0 <ee_printf+0x278c>
    b4c4:	04614383          	lbu	t2,70(sp)
    b4c8:	007a0523          	sb	t2,10(s4)
    b4cc:	00b00493          	li	s1,11
    b4d0:	9e950863          	beq	a0,s1,a6c0 <ee_printf+0x278c>
    b4d4:	04714283          	lbu	t0,71(sp)
    b4d8:	005a05a3          	sb	t0,11(s4)
    b4dc:	00c00893          	li	a7,12
    b4e0:	9f150063          	beq	a0,a7,a6c0 <ee_printf+0x278c>
    b4e4:	04814c83          	lbu	s9,72(sp)
    b4e8:	019a0623          	sb	s9,12(s4)
    b4ec:	00d00f13          	li	t5,13
    b4f0:	9de50863          	beq	a0,t5,a6c0 <ee_printf+0x278c>
    b4f4:	04914803          	lbu	a6,73(sp)
    b4f8:	010a06a3          	sb	a6,13(s4)
    b4fc:	00f00613          	li	a2,15
    b500:	9cc51063          	bne	a0,a2,a6c0 <ee_printf+0x278c>
    b504:	04a14b03          	lbu	s6,74(sp)
    b508:	016a0723          	sb	s6,14(s4)
    b50c:	9b4ff06f          	j	a6c0 <ee_printf+0x278c>
    b510:	000f8793          	mv	a5,t6
    b514:	fb0ff06f          	j	acc4 <ee_printf+0x2d90>
    b518:	00412783          	lw	a5,4(sp)
    b51c:	00c12883          	lw	a7,12(sp)
    b520:	01012a03          	lw	s4,16(sp)
    b524:	01412e83          	lw	t4,20(sp)
    b528:	01812483          	lw	s1,24(sp)
    b52c:	01c12683          	lw	a3,28(sp)
    b530:	01912023          	sw	s9,0(sp)
    b534:	00812c83          	lw	s9,8(sp)
    b538:	02012f03          	lw	t5,32(sp)
    b53c:	02412303          	lw	t1,36(sp)
    b540:	02812803          	lw	a6,40(sp)
    b544:	02c12e03          	lw	t3,44(sp)
    b548:	be4ff06f          	j	a92c <ee_printf+0x29f8>
    b54c:	00158a13          	addi	s4,a1,1
    b550:	ffe30e13          	addi	t3,t1,-2
    b554:	b48fe06f          	j	989c <ee_printf+0x1968>
    b558:	001a0a93          	addi	s5,s4,1
    b55c:	ffe78e93          	addi	t4,a5,-2
    b560:	95cfd06f          	j	86bc <ee_printf+0x788>
    b564:	000a0a93          	mv	s5,s4
    b568:	954fd06f          	j	86bc <ee_printf+0x788>
    b56c:	002a0313          	addi	t1,s4,2
    b570:	00058893          	mv	a7,a1
    b574:	dd4fd06f          	j	8b48 <ee_printf+0xc14>
    b578:	00058a13          	mv	s4,a1
    b57c:	b20fe06f          	j	989c <ee_printf+0x1968>
    b580:	001a0e93          	addi	t4,s4,1
    b584:	ffe78893          	addi	a7,a5,-2
    b588:	d9cfe06f          	j	9b24 <ee_printf+0x1bf0>
    b58c:	000a0e93          	mv	t4,s4
    b590:	d94fe06f          	j	9b24 <ee_printf+0x1bf0>
    b594:	00128e93          	addi	t4,t0,1
    b598:	b18ff06f          	j	a8b0 <ee_printf+0x297c>
    b59c:	00412783          	lw	a5,4(sp)
    b5a0:	00c12883          	lw	a7,12(sp)
    b5a4:	01012a03          	lw	s4,16(sp)
    b5a8:	01412e83          	lw	t4,20(sp)
    b5ac:	01812483          	lw	s1,24(sp)
    b5b0:	01c12683          	lw	a3,28(sp)
    b5b4:	01912023          	sw	s9,0(sp)
    b5b8:	00812c83          	lw	s9,8(sp)
    b5bc:	02012f03          	lw	t5,32(sp)
    b5c0:	02412303          	lw	t1,36(sp)
    b5c4:	02812803          	lw	a6,40(sp)
    b5c8:	02c12e03          	lw	t3,44(sp)
    b5cc:	b60ff06f          	j	a92c <ee_printf+0x29f8>
    b5d0:	002a0a13          	addi	s4,s4,2
    b5d4:	ffd78e13          	addi	t3,a5,-3
    b5d8:	940ff06f          	j	a718 <ee_printf+0x27e4>
    b5dc:	320b1263          	bnez	s6,b900 <ee_printf+0x39cc>
    b5e0:	03000e13          	li	t3,48
    b5e4:	03c10e23          	sb	t3,60(sp)
    b5e8:	00100a93          	li	s5,1
    b5ec:	0b5ce633          	max	a2,s9,s5
    b5f0:	40c787b3          	sub	a5,a5,a2
    b5f4:	00012023          	sw	zero,0(sp)
    b5f8:	000a0b93          	mv	s7,s4
    b5fc:	85dfd06f          	j	8e58 <ee_printf+0xf24>
    b600:	03000893          	li	a7,48
    b604:	00f8588b          	th.srb	a7,a6,a5,0
    b608:	220e1a63          	bnez	t3,b83c <ee_printf+0x3908>
    b60c:	001b8b93          	addi	s7,s7,1
    b610:	ffe00793          	li	a5,-2
    b614:	845fd06f          	j	8e58 <ee_printf+0xf24>
    b618:	011a0023          	sb	a7,0(s4)
    b61c:	010a00a3          	sb	a6,1(s4)
    b620:	03a00c93          	li	s9,58
    b624:	019a0123          	sb	s9,2(s4)
    b628:	00aa01a3          	sb	a0,3(s4)
    b62c:	006a0223          	sb	t1,4(s4)
    b630:	019a02a3          	sb	s9,5(s4)
    b634:	01ca0323          	sb	t3,6(s4)
    b638:	01da03a3          	sb	t4,7(s4)
    b63c:	019a0423          	sb	s9,8(s4)
    b640:	01ea04a3          	sb	t5,9(s4)
    b644:	01fa0523          	sb	t6,10(s4)
    b648:	019a05a3          	sb	s9,11(s4)
    b64c:	005a0623          	sb	t0,12(s4)
    b650:	007a06a3          	sb	t2,13(s4)
    b654:	019a0723          	sb	s9,14(s4)
    b658:	015a07a3          	sb	s5,15(s4)
    b65c:	cf5fe06f          	j	a350 <ee_printf+0x241c>
    b660:	012a0513          	addi	a0,s4,18
    b664:	ffe78313          	addi	t1,a5,-2
    b668:	d4dfe06f          	j	a3b4 <ee_printf+0x2480>
    b66c:	002a0e93          	addi	t4,s4,2
    b670:	ffd78893          	addi	a7,a5,-3
    b674:	cb0fe06f          	j	9b24 <ee_printf+0x1bf0>
    b678:	00258a13          	addi	s4,a1,2
    b67c:	ffd30e13          	addi	t3,t1,-3
    b680:	a1cfe06f          	j	989c <ee_printf+0x1968>
    b684:	002a0a93          	addi	s5,s4,2
    b688:	ffd78e93          	addi	t4,a5,-3
    b68c:	830fd06f          	j	86bc <ee_printf+0x788>
    b690:	005a0333          	add	t1,s4,t0
    b694:	ffd78893          	addi	a7,a5,-3
    b698:	cb0fd06f          	j	8b48 <ee_printf+0xc14>
    b69c:	001a0f13          	addi	t5,s4,1
    b6a0:	ffe78893          	addi	a7,a5,-2
    b6a4:	891fe06f          	j	9f34 <ee_printf+0x2000>
    b6a8:	000a0f13          	mv	t5,s4
    b6ac:	889fe06f          	j	9f34 <ee_printf+0x2000>
    b6b0:	00012023          	sw	zero,0(sp)
    b6b4:	02000313          	li	t1,32
    b6b8:	01000f13          	li	t5,16
    b6bc:	00000e93          	li	t4,0
    b6c0:	a78ff06f          	j	a938 <ee_printf+0x2a04>
    b6c4:	000a0b93          	mv	s7,s4
    b6c8:	fff00793          	li	a5,-1
    b6cc:	f8cfd06f          	j	8e58 <ee_printf+0xf24>
    b6d0:	00258593          	addi	a1,a1,2
    b6d4:	fff00793          	li	a5,-1
    b6d8:	ee0ff06f          	j	adb8 <ee_printf+0x2e84>
    b6dc:	00168513          	addi	a0,a3,1
    b6e0:	0016c383          	lbu	t2,1(a3)
    b6e4:	000b0493          	mv	s1,s6
    b6e8:	00038463          	beqz	t2,b6f0 <ee_printf+0x37bc>
    b6ec:	8d1fc06f          	j	7fbc <ee_printf+0x88>
    b6f0:	8e9fc06f          	j	7fd8 <ee_printf+0xa4>
    b6f4:	2f955863          	bge	a0,s9,b9e4 <ee_printf+0x3ab0>
    b6f8:	fff00793          	li	a5,-1
    b6fc:	938fe06f          	j	9834 <ee_printf+0x1900>
    b700:	000b8a13          	mv	s4,s7
    b704:	fff00793          	li	a5,-1
    b708:	c00ff06f          	j	ab08 <ee_printf+0x2bd4>
    b70c:	00158b93          	addi	s7,a1,1
    b710:	ffe78e93          	addi	t4,a5,-2
    b714:	a8cfd06f          	j	89a0 <ee_printf+0xa6c>
    b718:	00058b93          	mv	s7,a1
    b71c:	a84fd06f          	j	89a0 <ee_printf+0xa6c>
    b720:	000a0b13          	mv	s6,s4
    b724:	fe1fd06f          	j	9704 <ee_printf+0x17d0>
    b728:	fff00793          	li	a5,-1
    b72c:	f2cfd06f          	j	8e58 <ee_printf+0xf24>
    b730:	00000713          	li	a4,0
    b734:	40ec0cb3          	sub	s9,s8,a4
    b738:	007cf593          	andi	a1,s9,7
    b73c:	08058863          	beqz	a1,b7cc <ee_printf+0x3898>
    b740:	00100313          	li	t1,1
    b744:	06658a63          	beq	a1,t1,b7b8 <ee_printf+0x3884>
    b748:	00200e13          	li	t3,2
    b74c:	07c58063          	beq	a1,t3,b7ac <ee_printf+0x3878>
    b750:	00300f13          	li	t5,3
    b754:	05e58663          	beq	a1,t5,b7a0 <ee_printf+0x386c>
    b758:	00400613          	li	a2,4
    b75c:	02c58c63          	beq	a1,a2,b794 <ee_printf+0x3860>
    b760:	00500493          	li	s1,5
    b764:	02958263          	beq	a1,s1,b788 <ee_printf+0x3854>
    b768:	00600a93          	li	s5,6
    b76c:	01558863          	beq	a1,s5,b77c <ee_printf+0x3848>
    b770:	80ebc28b          	th.lrbu	t0,s7,a4,0
    b774:	00ea528b          	th.srb	t0,s4,a4,0
    b778:	00170713          	addi	a4,a4,1
    b77c:	80ebcf8b          	th.lrbu	t6,s7,a4,0
    b780:	00ea5f8b          	th.srb	t6,s4,a4,0
    b784:	00170713          	addi	a4,a4,1
    b788:	80ebce8b          	th.lrbu	t4,s7,a4,0
    b78c:	00ea5e8b          	th.srb	t4,s4,a4,0
    b790:	00170713          	addi	a4,a4,1
    b794:	80ebc38b          	th.lrbu	t2,s7,a4,0
    b798:	00ea538b          	th.srb	t2,s4,a4,0
    b79c:	00170713          	addi	a4,a4,1
    b7a0:	80ebc88b          	th.lrbu	a7,s7,a4,0
    b7a4:	00ea588b          	th.srb	a7,s4,a4,0
    b7a8:	00170713          	addi	a4,a4,1
    b7ac:	80ebc80b          	th.lrbu	a6,s7,a4,0
    b7b0:	00ea580b          	th.srb	a6,s4,a4,0
    b7b4:	00170713          	addi	a4,a4,1
    b7b8:	80ebcc8b          	th.lrbu	s9,s7,a4,0
    b7bc:	00ea5c8b          	th.srb	s9,s4,a4,0
    b7c0:	00170713          	addi	a4,a4,1
    b7c4:	00ec1463          	bne	s8,a4,b7cc <ee_printf+0x3898>
    b7c8:	e8dfc06f          	j	8654 <ee_printf+0x720>
    b7cc:	80ebc58b          	th.lrbu	a1,s7,a4,0
    b7d0:	00ea558b          	th.srb	a1,s4,a4,0
    b7d4:	00170e13          	addi	t3,a4,1
    b7d8:	81cbc30b          	th.lrbu	t1,s7,t3,0
    b7dc:	01ca530b          	th.srb	t1,s4,t3,0
    b7e0:	00270f13          	addi	t5,a4,2
    b7e4:	81ebc60b          	th.lrbu	a2,s7,t5,0
    b7e8:	01ea560b          	th.srb	a2,s4,t5,0
    b7ec:	00370493          	addi	s1,a4,3
    b7f0:	809bca8b          	th.lrbu	s5,s7,s1,0
    b7f4:	009a5a8b          	th.srb	s5,s4,s1,0
    b7f8:	00470293          	addi	t0,a4,4
    b7fc:	805bcf8b          	th.lrbu	t6,s7,t0,0
    b800:	005a5f8b          	th.srb	t6,s4,t0,0
    b804:	00570e93          	addi	t4,a4,5
    b808:	81dbc38b          	th.lrbu	t2,s7,t4,0
    b80c:	01da538b          	th.srb	t2,s4,t4,0
    b810:	00670893          	addi	a7,a4,6
    b814:	811bc80b          	th.lrbu	a6,s7,a7,0
    b818:	011a580b          	th.srb	a6,s4,a7,0
    b81c:	00770c93          	addi	s9,a4,7
    b820:	819bc58b          	th.lrbu	a1,s7,s9,0
    b824:	019a558b          	th.srb	a1,s4,s9,0
    b828:	00870713          	addi	a4,a4,8
    b82c:	faec10e3          	bne	s8,a4,b7cc <ee_printf+0x3898>
    b830:	e25fc06f          	j	8654 <ee_printf+0x720>
    b834:	00000713          	li	a4,0
    b838:	efdff06f          	j	b734 <ee_printf+0x3800>
    b83c:	001b8b93          	addi	s7,s7,1
    b840:	fff00793          	li	a5,-1
    b844:	e14fd06f          	j	8e58 <ee_printf+0xf24>
    b848:	00050a13          	mv	s4,a0
    b84c:	c81fe06f          	j	a4cc <ee_printf+0x2598>
    b850:	00050c13          	mv	s8,a0
    b854:	00088793          	mv	a5,a7
    b858:	e11fe06f          	j	a668 <ee_printf+0x2734>
    b85c:	01000e13          	li	t3,16
    b860:	000e0813          	mv	a6,t3
    b864:	000e0c13          	mv	s8,t3
    b868:	000e0f13          	mv	t5,t3
    b86c:	02000893          	li	a7,32
    b870:	0000c3b7          	lui	t2,0xc
    b874:	2f038713          	addi	a4,t2,752 # c2f0 <__modsi3+0x6fc>
    b878:	00000e93          	li	t4,0
    b87c:	00088313          	mv	t1,a7
    b880:	df8ff06f          	j	ae78 <ee_printf+0x2f44>
    b884:	00258b93          	addi	s7,a1,2
    b888:	ffd78e93          	addi	t4,a5,-3
    b88c:	914fd06f          	j	89a0 <ee_printf+0xa6c>
    b890:	01000c13          	li	s8,16
    b894:	000c0f13          	mv	t5,s8
    b898:	03000893          	li	a7,48
    b89c:	0000c737          	lui	a4,0xc
    b8a0:	2f070713          	addi	a4,a4,752 # c2f0 <__modsi3+0x6fc>
    b8a4:	100b1a63          	bnez	s6,b9b8 <ee_printf+0x3a84>
    b8a8:	03000b13          	li	s6,48
    b8ac:	03610e23          	sb	s6,60(sp)
    b8b0:	00100a93          	li	s5,1
    b8b4:	0b5ce633          	max	a2,s9,s5
    b8b8:	40c787b3          	sub	a5,a5,a2
    b8bc:	10080a63          	beqz	a6,b9d0 <ee_printf+0x3a9c>
    b8c0:	00000e13          	li	t3,0
    b8c4:	00012023          	sw	zero,0(sp)
    b8c8:	00000313          	li	t1,0
    b8cc:	00080a93          	mv	s5,a6
    b8d0:	00030463          	beqz	t1,b8d8 <ee_printf+0x39a4>
    b8d4:	bf0fd06f          	j	8cc4 <ee_printf+0xd90>
    b8d8:	c04fd06f          	j	8cdc <ee_printf+0xda8>
    b8dc:	01000c13          	li	s8,16
    b8e0:	000c0f13          	mv	t5,s8
    b8e4:	03000893          	li	a7,48
    b8e8:	0000c537          	lui	a0,0xc
    b8ec:	2f050713          	addi	a4,a0,752 # c2f0 <__modsi3+0x6fc>
    b8f0:	fb5ff06f          	j	b8a4 <ee_printf+0x3970>
    b8f4:	002a0b13          	addi	s6,s4,2
    b8f8:	ffd78e93          	addi	t4,a5,-3
    b8fc:	e09fd06f          	j	9704 <ee_printf+0x17d0>
    b900:	01000e13          	li	t3,16
    b904:	000e0813          	mv	a6,t3
    b908:	000e0c13          	mv	s8,t3
    b90c:	000e0f13          	mv	t5,t3
    b910:	02000893          	li	a7,32
    b914:	0000ceb7          	lui	t4,0xc
    b918:	2f0e8713          	addi	a4,t4,752 # c2f0 <__modsi3+0x6fc>
    b91c:	00000e93          	li	t4,0
    b920:	d58ff06f          	j	ae78 <ee_printf+0x2f44>
    b924:	001a0693          	addi	a3,s4,1
    b928:	00d12823          	sw	a3,16(sp)
    b92c:	00012b03          	lw	s6,0(sp)
    b930:	ffeb0593          	addi	a1,s6,-2
    b934:	8adfe06f          	j	a1e0 <ee_printf+0x22ac>
    b938:	000a0593          	mv	a1,s4
    b93c:	810fd06f          	j	894c <ee_printf+0xa18>
    b940:	001a0813          	addi	a6,s4,1
    b944:	00038893          	mv	a7,t2
    b948:	be9fd06f          	j	9530 <ee_printf+0x15fc>
    b94c:	000a0813          	mv	a6,s4
    b950:	be1fd06f          	j	9530 <ee_printf+0x15fc>
    b954:	0a048863          	beqz	s1,ba04 <ee_printf+0x3ad0>
    b958:	00000c13          	li	s8,0
    b95c:	cfdfc06f          	j	8658 <ee_printf+0x724>
    b960:	001a0f93          	addi	t6,s4,1
    b964:	ffe78c93          	addi	s9,a5,-2
    b968:	be5fe06f          	j	a54c <ee_printf+0x2618>
    b96c:	000a0f93          	mv	t6,s4
    b970:	bddfe06f          	j	a54c <ee_printf+0x2618>
    b974:	0e050a63          	beqz	a0,ba68 <ee_printf+0x3b34>
    b978:	00058a13          	mv	s4,a1
    b97c:	fff00793          	li	a5,-1
    b980:	838fe06f          	j	99b8 <ee_printf+0x1a84>
    b984:	002a0c93          	addi	s9,s4,2
    b988:	01912823          	sw	s9,16(sp)
    b98c:	00012b03          	lw	s6,0(sp)
    b990:	ffdb0593          	addi	a1,s6,-3
    b994:	84dfe06f          	j	a1e0 <ee_printf+0x22ac>
    b998:	00058793          	mv	a5,a1
    b99c:	989fe06f          	j	a324 <ee_printf+0x23f0>
    b9a0:	002a0813          	addi	a6,s4,2
    b9a4:	ffd78893          	addi	a7,a5,-3
    b9a8:	b89fd06f          	j	9530 <ee_printf+0x15fc>
    b9ac:	002a0f93          	addi	t6,s4,2
    b9b0:	ffd78c93          	addi	s9,a5,-3
    b9b4:	b99fe06f          	j	a54c <ee_printf+0x2618>
    b9b8:	00000e13          	li	t3,0
    b9bc:	00000e93          	li	t4,0
    b9c0:	00000313          	li	t1,0
    b9c4:	cb4ff06f          	j	ae78 <ee_printf+0x2f44>
    b9c8:	00812a03          	lw	s4,8(sp)
    b9cc:	8c5fe06f          	j	a290 <ee_printf+0x235c>
    b9d0:	00000e13          	li	t3,0
    b9d4:	00012023          	sw	zero,0(sp)
    b9d8:	00000313          	li	t1,0
    b9dc:	00000e93          	li	t4,0
    b9e0:	f59fe06f          	j	a938 <ee_printf+0x2a04>
    b9e4:	0e050a63          	beqz	a0,bad8 <ee_printf+0x3ba4>
    b9e8:	00058a13          	mv	s4,a1
    b9ec:	fff00793          	li	a5,-1
    b9f0:	fc9fd06f          	j	99b8 <ee_printf+0x1a84>
    b9f4:	ffe78793          	addi	a5,a5,-2
    b9f8:	0b955063          	bge	a0,s9,ba98 <ee_printf+0x3b64>
    b9fc:	000a0593          	mv	a1,s4
    ba00:	e35fd06f          	j	9834 <ee_printf+0x1900>
    ba04:	ccf05ce3          	blez	a5,b6dc <ee_printf+0x37a8>
    ba08:	fff78c93          	addi	s9,a5,-1
    ba0c:	00000c13          	li	s8,0
    ba10:	ae5fe06f          	j	a4f4 <ee_printf+0x25c0>
    ba14:	00030a13          	mv	s4,t1
    ba18:	c3dfd06f          	j	9654 <ee_printf+0x1720>
    ba1c:	ffe78793          	addi	a5,a5,-2
    ba20:	09955e63          	bge	a0,s9,babc <ee_printf+0x3b88>
    ba24:	00000893          	li	a7,0
    ba28:	000a0593          	mv	a1,s4
    ba2c:	e09fd06f          	j	9834 <ee_printf+0x1900>
    ba30:	00000893          	li	a7,0
    ba34:	000e8793          	mv	a5,t4
    ba38:	e6cff06f          	j	b0a4 <ee_printf+0x3170>
    ba3c:	00000513          	li	a0,0
    ba40:	fff00893          	li	a7,-1
    ba44:	c69fd06f          	j	96ac <ee_printf+0x1778>
    ba48:	12050063          	beqz	a0,bb68 <ee_printf+0x3c34>
    ba4c:	00058a13          	mv	s4,a1
    ba50:	ffe00793          	li	a5,-2
    ba54:	f65fd06f          	j	99b8 <ee_printf+0x1a84>
    ba58:	00000893          	li	a7,0
    ba5c:	f5dfd06f          	j	99b8 <ee_printf+0x1a84>
    ba60:	000e8793          	mv	a5,t4
    ba64:	b54ff06f          	j	adb8 <ee_printf+0x2e84>
    ba68:	00058a13          	mv	s4,a1
    ba6c:	9c8fe06f          	j	9c34 <ee_printf+0x1d00>
    ba70:	000e8493          	mv	s1,t4
    ba74:	02000893          	li	a7,32
    ba78:	e7dfe06f          	j	a8f4 <ee_printf+0x29c0>
    ba7c:	02077b93          	andi	s7,a4,32
    ba80:	020b8263          	beqz	s7,baa4 <ee_printf+0x3b70>
    ba84:	01000c13          	li	s8,16
    ba88:	02000893          	li	a7,32
    ba8c:	0000cab7          	lui	s5,0xc
    ba90:	2f0a8713          	addi	a4,s5,752 # c2f0 <__modsi3+0x6fc>
    ba94:	accff06f          	j	ad60 <ee_printf+0x2e2c>
    ba98:	00050463          	beqz	a0,baa0 <ee_printf+0x3b6c>
    ba9c:	f1dfd06f          	j	99b8 <ee_printf+0x1a84>
    baa0:	994fe06f          	j	9c34 <ee_printf+0x1d00>
    baa4:	01000c13          	li	s8,16
    baa8:	000c0f13          	mv	t5,s8
    baac:	02000893          	li	a7,32
    bab0:	0000cfb7          	lui	t6,0xc
    bab4:	2f0f8713          	addi	a4,t6,752 # c2f0 <__modsi3+0x6fc>
    bab8:	dedff06f          	j	b8a4 <ee_printf+0x3970>
    babc:	00000893          	li	a7,0
    bac0:	ef9fd06f          	j	99b8 <ee_printf+0x1a84>
    bac4:	000e8493          	mv	s1,t4
    bac8:	02000893          	li	a7,32
    bacc:	e29fe06f          	j	a8f4 <ee_printf+0x29c0>
    bad0:	02000e13          	li	t3,32
    bad4:	d39fc06f          	j	880c <ee_printf+0x8d8>
    bad8:	00058a13          	mv	s4,a1
    badc:	958fe06f          	j	9c34 <ee_printf+0x1d00>
    bae0:	000e8793          	mv	a5,t4
    bae4:	ad4ff06f          	j	adb8 <ee_printf+0x2e84>
    bae8:	02037e93          	andi	t4,t1,32
    baec:	020e8263          	beqz	t4,bb10 <ee_printf+0x3bdc>
    baf0:	01000c13          	li	s8,16
    baf4:	02000893          	li	a7,32
    baf8:	0000c3b7          	lui	t2,0xc
    bafc:	2f038713          	addi	a4,t2,752 # c2f0 <__modsi3+0x6fc>
    bb00:	a60ff06f          	j	ad60 <ee_printf+0x2e2c>
    bb04:	0000c537          	lui	a0,0xc
    bb08:	2c850713          	addi	a4,a0,712 # c2c8 <__modsi3+0x6d4>
    bb0c:	d99ff06f          	j	b8a4 <ee_printf+0x3970>
    bb10:	01000c13          	li	s8,16
    bb14:	000c0f13          	mv	t5,s8
    bb18:	02000893          	li	a7,32
    bb1c:	0000ce37          	lui	t3,0xc
    bb20:	2f0e0713          	addi	a4,t3,752 # c2f0 <__modsi3+0x6fc>
    bb24:	d81ff06f          	j	b8a4 <ee_printf+0x3970>
    bb28:	02000893          	li	a7,32
    bb2c:	871fc06f          	j	839c <ee_printf+0x468>
    bb30:	00800e13          	li	t3,8
    bb34:	01cf0c63          	beq	t5,t3,bb4c <ee_printf+0x3c18>
    bb38:	00000e13          	li	t3,0
    bb3c:	00a00f13          	li	t5,10
    bb40:	00000e93          	li	t4,0
    bb44:	02000313          	li	t1,32
    bb48:	dd1fe06f          	j	a918 <ee_printf+0x29e4>
    bb4c:	fff78793          	addi	a5,a5,-1
    bb50:	00000e13          	li	t3,0
    bb54:	00000e93          	li	t4,0
    bb58:	02000313          	li	t1,32
    bb5c:	dbdfe06f          	j	a918 <ee_printf+0x29e4>
    bb60:	000e0793          	mv	a5,t3
    bb64:	af4fd06f          	j	8e58 <ee_printf+0xf24>
    bb68:	00058a13          	mv	s4,a1
    bb6c:	8c8fe06f          	j	9c34 <ee_printf+0x1d00>

0000bb70 <__divsi3>:
    bb70:	06054063          	bltz	a0,bbd0 <__umodsi3+0x10>
    bb74:	0605c663          	bltz	a1,bbe0 <__umodsi3+0x20>

0000bb78 <__hidden___udivsi3>:
    bb78:	00058613          	mv	a2,a1
    bb7c:	00050593          	mv	a1,a0
    bb80:	fff00513          	li	a0,-1
    bb84:	02060c63          	beqz	a2,bbbc <__hidden___udivsi3+0x44>
    bb88:	00100693          	li	a3,1
    bb8c:	00b67a63          	bgeu	a2,a1,bba0 <__hidden___udivsi3+0x28>
    bb90:	00c05863          	blez	a2,bba0 <__hidden___udivsi3+0x28>
    bb94:	00161613          	slli	a2,a2,0x1
    bb98:	00169693          	slli	a3,a3,0x1
    bb9c:	feb66ae3          	bltu	a2,a1,bb90 <__hidden___udivsi3+0x18>
    bba0:	00000513          	li	a0,0
    bba4:	00c5e663          	bltu	a1,a2,bbb0 <__hidden___udivsi3+0x38>
    bba8:	40c585b3          	sub	a1,a1,a2
    bbac:	00d56533          	or	a0,a0,a3
    bbb0:	0016d693          	srli	a3,a3,0x1
    bbb4:	00165613          	srli	a2,a2,0x1
    bbb8:	fe0696e3          	bnez	a3,bba4 <__hidden___udivsi3+0x2c>
    bbbc:	00008067          	ret

0000bbc0 <__umodsi3>:
    bbc0:	00008293          	mv	t0,ra
    bbc4:	fb5ff0ef          	jal	bb78 <__hidden___udivsi3>
    bbc8:	00058513          	mv	a0,a1
    bbcc:	00028067          	jr	t0
    bbd0:	40a00533          	neg	a0,a0
    bbd4:	00b04863          	bgtz	a1,bbe4 <__umodsi3+0x24>
    bbd8:	40b005b3          	neg	a1,a1
    bbdc:	f9dff06f          	j	bb78 <__hidden___udivsi3>
    bbe0:	40b005b3          	neg	a1,a1
    bbe4:	00008293          	mv	t0,ra
    bbe8:	f91ff0ef          	jal	bb78 <__hidden___udivsi3>
    bbec:	40a00533          	neg	a0,a0
    bbf0:	00028067          	jr	t0

0000bbf4 <__modsi3>:
    bbf4:	00008293          	mv	t0,ra
    bbf8:	0005ca63          	bltz	a1,bc0c <__modsi3+0x18>
    bbfc:	00054c63          	bltz	a0,bc14 <__modsi3+0x20>
    bc00:	f79ff0ef          	jal	bb78 <__hidden___udivsi3>
    bc04:	00058513          	mv	a0,a1
    bc08:	00028067          	jr	t0
    bc0c:	40b005b3          	neg	a1,a1
    bc10:	fe0558e3          	bgez	a0,bc00 <__modsi3+0xc>
    bc14:	40a00533          	neg	a0,a0
    bc18:	f61ff0ef          	jal	bb78 <__hidden___udivsi3>
    bc1c:	40b00533          	neg	a0,a1
    bc20:	00028067          	jr	t0
    bc24:	6b36                	.insn	2, 0x6b36
    bc26:	7020                	.insn	2, 0x7020
    bc28:	7265                	.insn	2, 0x7265
    bc2a:	6f66                	.insn	2, 0x6f66
    bc2c:	6d72                	.insn	2, 0x6d72
    bc2e:	6e61                	.insn	2, 0x6e61
    bc30:	72206563          	bltu	zero,sp,c35a <intpat+0x12>
    bc34:	6e75                	.insn	2, 0x6e75
    bc36:	7020                	.insn	2, 0x7020
    bc38:	7261                	.insn	2, 0x7261
    bc3a:	6d61                	.insn	2, 0x6d61
    bc3c:	7465                	.insn	2, 0x7465
    bc3e:	7265                	.insn	2, 0x7265
    bc40:	6f662073          	.insn	4, 0x6f662073
    bc44:	2072                	.insn	2, 0x2072
    bc46:	65726f63          	bltu	tp,s7,c2a4 <__modsi3+0x6b0>
    bc4a:	616d                	.insn	2, 0x616d
    bc4c:	6b72                	.insn	2, 0x6b72
    bc4e:	0a2e                	.insn	2, 0x0a2e
    bc50:	0000                	.insn	2, 0x0000
    bc52:	0000                	.insn	2, 0x0000
    bc54:	6b36                	.insn	2, 0x6b36
    bc56:	7620                	.insn	2, 0x7620
    bc58:	6c61                	.insn	2, 0x6c61
    bc5a:	6469                	.insn	2, 0x6469
    bc5c:	7461                	.insn	2, 0x7461
    bc5e:	6f69                	.insn	2, 0x6f69
    bc60:	206e                	.insn	2, 0x206e
    bc62:	7572                	.insn	2, 0x7572
    bc64:	206e                	.insn	2, 0x206e
    bc66:	6170                	.insn	2, 0x6170
    bc68:	6172                	.insn	2, 0x6172
    bc6a:	656d                	.insn	2, 0x656d
    bc6c:	6574                	.insn	2, 0x6574
    bc6e:	7372                	.insn	2, 0x7372
    bc70:	6620                	.insn	2, 0x6620
    bc72:	6320726f          	jal	tp,132a4 <_bss_end+0x2a60>
    bc76:	6d65726f          	jal	tp,6334c <_stack_top+0x4f34c>
    bc7a:	7261                	.insn	2, 0x7261
    bc7c:	000a2e6b          	.insn	4, 0x000a2e6b
    bc80:	7250                	.insn	2, 0x7250
    bc82:	6c69666f          	jal	a2,a2348 <_stack_top+0x8e348>
    bc86:	2065                	.insn	2, 0x2065
    bc88:	656e6567          	.insn	4, 0x656e6567
    bc8c:	6172                	.insn	2, 0x6172
    bc8e:	6974                	.insn	2, 0x6974
    bc90:	72206e6f          	jal	t3,123b2 <_bss_end+0x1b6e>
    bc94:	6e75                	.insn	2, 0x6e75
    bc96:	7020                	.insn	2, 0x7020
    bc98:	7261                	.insn	2, 0x7261
    bc9a:	6d61                	.insn	2, 0x6d61
    bc9c:	7465                	.insn	2, 0x7465
    bc9e:	7265                	.insn	2, 0x7265
    bca0:	6f662073          	.insn	4, 0x6f662073
    bca4:	2072                	.insn	2, 0x2072
    bca6:	65726f63          	bltu	tp,s7,c304 <__modsi3+0x710>
    bcaa:	616d                	.insn	2, 0x616d
    bcac:	6b72                	.insn	2, 0x6b72
    bcae:	0a2e                	.insn	2, 0x0a2e
    bcb0:	0000                	.insn	2, 0x0000
    bcb2:	0000                	.insn	2, 0x0000
    bcb4:	4b32                	.insn	2, 0x4b32
    bcb6:	7020                	.insn	2, 0x7020
    bcb8:	7265                	.insn	2, 0x7265
    bcba:	6f66                	.insn	2, 0x6f66
    bcbc:	6d72                	.insn	2, 0x6d72
    bcbe:	6e61                	.insn	2, 0x6e61
    bcc0:	72206563          	bltu	zero,sp,c3ea <intpat+0xa2>
    bcc4:	6e75                	.insn	2, 0x6e75
    bcc6:	7020                	.insn	2, 0x7020
    bcc8:	7261                	.insn	2, 0x7261
    bcca:	6d61                	.insn	2, 0x6d61
    bccc:	7465                	.insn	2, 0x7465
    bcce:	7265                	.insn	2, 0x7265
    bcd0:	6f662073          	.insn	4, 0x6f662073
    bcd4:	2072                	.insn	2, 0x2072
    bcd6:	65726f63          	bltu	tp,s7,c334 <scipat+0xc>
    bcda:	616d                	.insn	2, 0x616d
    bcdc:	6b72                	.insn	2, 0x6b72
    bcde:	0a2e                	.insn	2, 0x0a2e
    bce0:	0000                	.insn	2, 0x0000
    bce2:	0000                	.insn	2, 0x0000
    bce4:	4b32                	.insn	2, 0x4b32
    bce6:	7620                	.insn	2, 0x7620
    bce8:	6c61                	.insn	2, 0x6c61
    bcea:	6469                	.insn	2, 0x6469
    bcec:	7461                	.insn	2, 0x7461
    bcee:	6f69                	.insn	2, 0x6f69
    bcf0:	206e                	.insn	2, 0x206e
    bcf2:	7572                	.insn	2, 0x7572
    bcf4:	206e                	.insn	2, 0x206e
    bcf6:	6170                	.insn	2, 0x6170
    bcf8:	6172                	.insn	2, 0x6172
    bcfa:	656d                	.insn	2, 0x656d
    bcfc:	6574                	.insn	2, 0x6574
    bcfe:	7372                	.insn	2, 0x7372
    bd00:	6620                	.insn	2, 0x6620
    bd02:	6320726f          	jal	tp,13334 <_bss_end+0x2af0>
    bd06:	6d65726f          	jal	tp,633dc <_stack_top+0x4f3dc>
    bd0a:	7261                	.insn	2, 0x7261
    bd0c:	000a2e6b          	.insn	4, 0x000a2e6b
    bd10:	5d75255b          	.insn	4, 0x5d75255b
    bd14:	5245                	.insn	2, 0x5245
    bd16:	4f52                	.insn	2, 0x4f52
    bd18:	2152                	.insn	2, 0x2152
    bd1a:	6c20                	.insn	2, 0x6c20
    bd1c:	7369                	.insn	2, 0x7369
    bd1e:	2074                	.insn	2, 0x2074
    bd20:	20637263          	bgeu	t1,t1,bf24 <__modsi3+0x330>
    bd24:	7830                	.insn	2, 0x7830
    bd26:	3025                	.insn	2, 0x3025
    bd28:	7834                	.insn	2, 0x7834
    bd2a:	2d20                	.insn	2, 0x2d20
    bd2c:	7320                	.insn	2, 0x7320
    bd2e:	6f68                	.insn	2, 0x6f68
    bd30:	6c75                	.insn	2, 0x6c75
    bd32:	2064                	.insn	2, 0x2064
    bd34:	6562                	.insn	2, 0x6562
    bd36:	3020                	.insn	2, 0x3020
    bd38:	2578                	.insn	2, 0x2578
    bd3a:	3430                	.insn	2, 0x3430
    bd3c:	0a78                	.insn	2, 0x0a78
    bd3e:	0000                	.insn	2, 0x0000
    bd40:	5d75255b          	.insn	4, 0x5d75255b
    bd44:	5245                	.insn	2, 0x5245
    bd46:	4f52                	.insn	2, 0x4f52
    bd48:	2152                	.insn	2, 0x2152
    bd4a:	6d20                	.insn	2, 0x6d20
    bd4c:	7461                	.insn	2, 0x7461
    bd4e:	6972                	.insn	2, 0x6972
    bd50:	2078                	.insn	2, 0x2078
    bd52:	20637263          	bgeu	t1,t1,bf56 <__modsi3+0x362>
    bd56:	7830                	.insn	2, 0x7830
    bd58:	3025                	.insn	2, 0x3025
    bd5a:	7834                	.insn	2, 0x7834
    bd5c:	2d20                	.insn	2, 0x2d20
    bd5e:	7320                	.insn	2, 0x7320
    bd60:	6f68                	.insn	2, 0x6f68
    bd62:	6c75                	.insn	2, 0x6c75
    bd64:	2064                	.insn	2, 0x2064
    bd66:	6562                	.insn	2, 0x6562
    bd68:	3020                	.insn	2, 0x3020
    bd6a:	2578                	.insn	2, 0x2578
    bd6c:	3430                	.insn	2, 0x3430
    bd6e:	0a78                	.insn	2, 0x0a78
    bd70:	0000                	.insn	2, 0x0000
    bd72:	0000                	.insn	2, 0x0000
    bd74:	5d75255b          	.insn	4, 0x5d75255b
    bd78:	5245                	.insn	2, 0x5245
    bd7a:	4f52                	.insn	2, 0x4f52
    bd7c:	2152                	.insn	2, 0x2152
    bd7e:	7320                	.insn	2, 0x7320
    bd80:	6174                	.insn	2, 0x6174
    bd82:	6574                	.insn	2, 0x6574
    bd84:	6320                	.insn	2, 0x6320
    bd86:	6372                	.insn	2, 0x6372
    bd88:	3020                	.insn	2, 0x3020
    bd8a:	2578                	.insn	2, 0x2578
    bd8c:	3430                	.insn	2, 0x3430
    bd8e:	2078                	.insn	2, 0x2078
    bd90:	202d                	.insn	2, 0x202d
    bd92:	756f6873          	.insn	4, 0x756f6873
    bd96:	646c                	.insn	2, 0x646c
    bd98:	6220                	.insn	2, 0x6220
    bd9a:	2065                	.insn	2, 0x2065
    bd9c:	7830                	.insn	2, 0x7830
    bd9e:	3025                	.insn	2, 0x3025
    bda0:	7834                	.insn	2, 0x7834
    bda2:	000a                	.insn	2, 0x000a
    bda4:	65726f43          	.insn	4, 0x65726f43
    bda8:	614d                	.insn	2, 0x614d
    bdaa:	6b72                	.insn	2, 0x6b72
    bdac:	5320                	.insn	2, 0x5320
    bdae:	7a69                	.insn	2, 0x7a69
    bdb0:	2065                	.insn	2, 0x2065
    bdb2:	2020                	.insn	2, 0x2020
    bdb4:	3a20                	.insn	2, 0x3a20
    bdb6:	2520                	.insn	2, 0x2520
    bdb8:	756c                	.insn	2, 0x756c
    bdba:	000a                	.insn	2, 0x000a
    bdbc:	6f54                	.insn	2, 0x6f54
    bdbe:	6174                	.insn	2, 0x6174
    bdc0:	206c                	.insn	2, 0x206c
    bdc2:	6974                	.insn	2, 0x6974
    bdc4:	20736b63          	bltu	t1,t2,bfda <__modsi3+0x3e6>
    bdc8:	2020                	.insn	2, 0x2020
    bdca:	2020                	.insn	2, 0x2020
    bdcc:	3a20                	.insn	2, 0x3a20
    bdce:	2520                	.insn	2, 0x2520
    bdd0:	756c                	.insn	2, 0x756c
    bdd2:	000a                	.insn	2, 0x000a
    bdd4:	6f54                	.insn	2, 0x6f54
    bdd6:	6174                	.insn	2, 0x6174
    bdd8:	206c                	.insn	2, 0x206c
    bdda:	6974                	.insn	2, 0x6974
    bddc:	656d                	.insn	2, 0x656d
    bdde:	2820                	.insn	2, 0x2820
    bde0:	73636573          	.insn	4, 0x73636573
    bde4:	3a29                	.insn	2, 0x3a29
    bde6:	2520                	.insn	2, 0x2520
    bde8:	0a64                	.insn	2, 0x0a64
    bdea:	0000                	.insn	2, 0x0000
    bdec:	7449                	.insn	2, 0x7449
    bdee:	7265                	.insn	2, 0x7265
    bdf0:	7461                	.insn	2, 0x7461
    bdf2:	6f69                	.insn	2, 0x6f69
    bdf4:	736e                	.insn	2, 0x736e
    bdf6:	6365532f          	.insn	4, 0x6365532f
    bdfa:	2020                	.insn	2, 0x2020
    bdfc:	3a20                	.insn	2, 0x3a20
    bdfe:	2520                	.insn	2, 0x2520
    be00:	0a64                	.insn	2, 0x0a64
    be02:	0000                	.insn	2, 0x0000
    be04:	5245                	.insn	2, 0x5245
    be06:	4f52                	.insn	2, 0x4f52
    be08:	2152                	.insn	2, 0x2152
    be0a:	4d20                	.insn	2, 0x4d20
    be0c:	7375                	.insn	2, 0x7375
    be0e:	2074                	.insn	2, 0x2074
    be10:	7865                	.insn	2, 0x7865
    be12:	6365                	.insn	2, 0x6365
    be14:	7475                	.insn	2, 0x7475
    be16:	2065                	.insn	2, 0x2065
    be18:	6f66                	.insn	2, 0x6f66
    be1a:	2072                	.insn	2, 0x2072
    be1c:	7461                	.insn	2, 0x7461
    be1e:	6c20                	.insn	2, 0x6c20
    be20:	6165                	.insn	2, 0x6165
    be22:	31207473          	.insn	4, 0x31207473
    be26:	2030                	.insn	2, 0x2030
    be28:	73636573          	.insn	4, 0x73636573
    be2c:	6620                	.insn	2, 0x6620
    be2e:	6120726f          	jal	tp,13440 <_bss_end+0x2bfc>
    be32:	7620                	.insn	2, 0x7620
    be34:	6c61                	.insn	2, 0x6c61
    be36:	6469                	.insn	2, 0x6469
    be38:	7220                	.insn	2, 0x7220
    be3a:	7365                	.insn	2, 0x7365
    be3c:	6c75                	.insn	2, 0x6c75
    be3e:	2174                	.insn	2, 0x2174
    be40:	000a                	.insn	2, 0x000a
    be42:	0000                	.insn	2, 0x0000
    be44:	7449                	.insn	2, 0x7449
    be46:	7265                	.insn	2, 0x7265
    be48:	7461                	.insn	2, 0x7461
    be4a:	6f69                	.insn	2, 0x6f69
    be4c:	736e                	.insn	2, 0x736e
    be4e:	2020                	.insn	2, 0x2020
    be50:	2020                	.insn	2, 0x2020
    be52:	2020                	.insn	2, 0x2020
    be54:	3a20                	.insn	2, 0x3a20
    be56:	2520                	.insn	2, 0x2520
    be58:	756c                	.insn	2, 0x756c
    be5a:	000a                	.insn	2, 0x000a
    be5c:	20434347          	.insn	4, 0x20434347
    be60:	3531                	.insn	2, 0x3531
    be62:	322e                	.insn	2, 0x322e
    be64:	302e                	.insn	2, 0x302e
    be66:	0000                	.insn	2, 0x0000
    be68:	706d6f43          	.insn	4, 0x706d6f43
    be6c:	6c69                	.insn	2, 0x6c69
    be6e:	7265                	.insn	2, 0x7265
    be70:	7620                	.insn	2, 0x7620
    be72:	7265                	.insn	2, 0x7265
    be74:	6e6f6973          	.insn	4, 0x6e6f6973
    be78:	3a20                	.insn	2, 0x3a20
    be7a:	2520                	.insn	2, 0x2520
    be7c:	00000a73          	.insn	4, 0x0a73
    be80:	4f2d                	.insn	2, 0x4f2d
    be82:	662d2033          	.insn	4, 0x662d2033
    be86:	6e75                	.insn	2, 0x6e75
    be88:	6f72                	.insn	2, 0x6f72
    be8a:	6c6c                	.insn	2, 0x6c6c
    be8c:	6c2d                	.insn	2, 0x6c2d
    be8e:	73706f6f          	jal	t5,12dc4 <_bss_end+0x2580>
    be92:	2d20                	.insn	2, 0x2d20
    be94:	626d                	.insn	2, 0x626d
    be96:	6172                	.insn	2, 0x6172
    be98:	636e                	.insn	2, 0x636e
    be9a:	2d68                	.insn	2, 0x2d68
    be9c:	74736f63          	bltu	t1,t2,c5fa <intpat+0x2b2>
    bea0:	313d                	.insn	2, 0x313d
    bea2:	2d20                	.insn	2, 0x2d20
    bea4:	6e66                	.insn	2, 0x6e66
    bea6:	63732d6f          	jal	s10,3ecdc <_stack_top+0x2acdc>
    beaa:	6568                	.insn	2, 0x6568
    beac:	7564                	.insn	2, 0x7564
    beae:	656c                	.insn	2, 0x656c
    beb0:	692d                	.insn	2, 0x692d
    beb2:	736e                	.insn	2, 0x736e
    beb4:	736e                	.insn	2, 0x736e
    beb6:	2d20                	.insn	2, 0x2d20
    beb8:	6e66                	.insn	2, 0x6e66
    beba:	63732d6f          	jal	s10,3ecf0 <_stack_top+0x2acf0>
    bebe:	6568                	.insn	2, 0x6568
    bec0:	7564                	.insn	2, 0x7564
    bec2:	656c                	.insn	2, 0x656c
    bec4:	692d                	.insn	2, 0x692d
    bec6:	736e                	.insn	2, 0x736e
    bec8:	736e                	.insn	2, 0x736e
    beca:	2032                	.insn	2, 0x2032
    becc:	662d                	.insn	2, 0x662d
    bece:	6e75                	.insn	2, 0x6e75
    bed0:	6f72                	.insn	2, 0x6f72
    bed2:	6c6c                	.insn	2, 0x6c6c
    bed4:	612d                	.insn	2, 0x612d
    bed6:	6c6c                	.insn	2, 0x6c6c
    bed8:	6c2d                	.insn	2, 0x6c2d
    beda:	73706f6f          	jal	t5,12e10 <_bss_end+0x25cc>
    bede:	2d20                	.insn	2, 0x2d20
    bee0:	702d                	.insn	2, 0x702d
    bee2:	7261                	.insn	2, 0x7261
    bee4:	6d61                	.insn	2, 0x6d61
    bee6:	6d20                	.insn	2, 0x6d20
    bee8:	7861                	.insn	2, 0x7861
    beea:	752d                	.insn	2, 0x752d
    beec:	726e                	.insn	2, 0x726e
    beee:	656c6c6f          	jal	s8,d2544 <_stack_top+0xbe544>
    bef2:	2d64                	.insn	2, 0x2d64
    bef4:	6e69                	.insn	2, 0x6e69
    bef6:	3d736e73          	.insn	4, 0x3d736e73
    befa:	3038                	.insn	2, 0x3038
    befc:	2030                	.insn	2, 0x2030
    befe:	2d2d                	.insn	2, 0x2d2d
    bf00:	6170                	.insn	2, 0x6170
    bf02:	6172                	.insn	2, 0x6172
    bf04:	206d                	.insn	2, 0x206d
    bf06:	616d                	.insn	2, 0x616d
    bf08:	2d78                	.insn	2, 0x2d78
    bf0a:	7661                	.insn	2, 0x7661
    bf0c:	7265                	.insn	2, 0x7265
    bf0e:	6761                	.insn	2, 0x6761
    bf10:	2d65                	.insn	2, 0x2d65
    bf12:	6e75                	.insn	2, 0x6e75
    bf14:	6f72                	.insn	2, 0x6f72
    bf16:	6c6c                	.insn	2, 0x6c6c
    bf18:	6465                	.insn	2, 0x6465
    bf1a:	692d                	.insn	2, 0x692d
    bf1c:	736e                	.insn	2, 0x736e
    bf1e:	736e                	.insn	2, 0x736e
    bf20:	333d                	.insn	2, 0x333d
    bf22:	3032                	.insn	2, 0x3032
    bf24:	2d20                	.insn	2, 0x2d20
    bf26:	6966                	.insn	2, 0x6966
    bf28:	6c6e                	.insn	2, 0x6c6e
    bf2a:	6e69                	.insn	2, 0x6e69
    bf2c:	2d65                	.insn	2, 0x2d65
    bf2e:	7566                	.insn	2, 0x7566
    bf30:	636e                	.insn	2, 0x636e
    bf32:	6974                	.insn	2, 0x6974
    bf34:	20736e6f          	jal	t3,4293a <_stack_top+0x2e93a>
    bf38:	2d2d                	.insn	2, 0x2d2d
    bf3a:	6170                	.insn	2, 0x6170
    bf3c:	6172                	.insn	2, 0x6172
    bf3e:	206d                	.insn	2, 0x206d
    bf40:	616d                	.insn	2, 0x616d
    bf42:	2d78                	.insn	2, 0x2d78
    bf44:	6e69                	.insn	2, 0x6e69
    bf46:	696c                	.insn	2, 0x696c
    bf48:	656e                	.insn	2, 0x656e
    bf4a:	692d                	.insn	2, 0x692d
    bf4c:	736e                	.insn	2, 0x736e
    bf4e:	736e                	.insn	2, 0x736e
    bf50:	732d                	.insn	2, 0x732d
    bf52:	6e69                	.insn	2, 0x6e69
    bf54:	3d656c67          	.insn	4, 0x3d656c67
    bf58:	3031                	.insn	2, 0x3031
    bf5a:	3030                	.insn	2, 0x3030
    bf5c:	2d20                	.insn	2, 0x2d20
    bf5e:	702d                	.insn	2, 0x702d
    bf60:	7261                	.insn	2, 0x7261
    bf62:	6d61                	.insn	2, 0x6d61
    bf64:	6d20                	.insn	2, 0x6d20
    bf66:	7861                	.insn	2, 0x7861
    bf68:	692d                	.insn	2, 0x692d
    bf6a:	6c6e                	.insn	2, 0x6c6e
    bf6c:	6e69                	.insn	2, 0x6e69
    bf6e:	2d65                	.insn	2, 0x2d65
    bf70:	6e69                	.insn	2, 0x6e69
    bf72:	2d736e73          	.insn	4, 0x2d736e73
    bf76:	7561                	.insn	2, 0x7561
    bf78:	6f74                	.insn	2, 0x6f74
    bf7a:	313d                	.insn	2, 0x313d
    bf7c:	3030                	.insn	2, 0x3030
    bf7e:	2030                	.insn	2, 0x2030
    bf80:	2d2d                	.insn	2, 0x2d2d
    bf82:	6170                	.insn	2, 0x6170
    bf84:	6172                	.insn	2, 0x6172
    bf86:	206d                	.insn	2, 0x206d
    bf88:	6e69                	.insn	2, 0x6e69
    bf8a:	696c                	.insn	2, 0x696c
    bf8c:	656e                	.insn	2, 0x656e
    bf8e:	752d                	.insn	2, 0x752d
    bf90:	696e                	.insn	2, 0x696e
    bf92:	2d74                	.insn	2, 0x2d74
    bf94:	776f7267          	.insn	4, 0x776f7267
    bf98:	6874                	.insn	2, 0x6874
    bf9a:	353d                	.insn	2, 0x353d
    bf9c:	3030                	.insn	2, 0x3030
    bf9e:	2d20                	.insn	2, 0x2d20
    bfa0:	6e66                	.insn	2, 0x6e66
    bfa2:	72632d6f          	jal	s10,3e6c8 <_stack_top+0x2a6c8>
    bfa6:	6a73736f          	jal	t1,43e4c <_stack_top+0x2fe4c>
    bfaa:	6d75                	.insn	2, 0x6d75
    bfac:	6970                	.insn	2, 0x6970
    bfae:	676e                	.insn	2, 0x676e
    bfb0:	2d20                	.insn	2, 0x2d20
    bfb2:	2d20324f          	.insn	4, 0x2d20324f
    bfb6:	7366                	.insn	2, 0x7366
    bfb8:	64656863          	bltu	a0,t1,c608 <intpat+0x2c0>
    bfbc:	6c75                	.insn	2, 0x6c75
    bfbe:	2d65                	.insn	2, 0x2d65
    bfc0:	6e69                	.insn	2, 0x6e69
    bfc2:	20736e73          	.insn	4, 0x20736e73
    bfc6:	662d                	.insn	2, 0x662d
    bfc8:	65686373          	.insn	4, 0x65686373
    bfcc:	7564                	.insn	2, 0x7564
    bfce:	656c                	.insn	2, 0x656c
    bfd0:	692d                	.insn	2, 0x692d
    bfd2:	736e                	.insn	2, 0x736e
    bfd4:	736e                	.insn	2, 0x736e
    bfd6:	2032                	.insn	2, 0x2032
    bfd8:	662d                	.insn	2, 0x662d
    bfda:	6f6e                	.insn	2, 0x6f6e
    bfdc:	632d                	.insn	2, 0x632d
    bfde:	6c61                	.insn	2, 0x6c61
    bfe0:	656c                	.insn	2, 0x656c
    bfe2:	2d72                	.insn	2, 0x2d72
    bfe4:	65766173          	.insn	4, 0x65766173
    bfe8:	662d2073          	.insn	4, 0x662d2073
    bfec:	6f6e                	.insn	2, 0x6f6e
    bfee:	612d                	.insn	2, 0x612d
    bff0:	7475                	.insn	2, 0x7475
    bff2:	6e692d6f          	jal	s10,9e6d8 <_stack_top+0x8a6d8>
    bff6:	65642d63          	.insn	4, 0x65642d63
    bffa:	6d2d2063          	.insn	4, 0x6d2d2063
    bffe:	7261                	.insn	2, 0x7261
    c000:	723d6863          	bltu	s10,gp,c730 <intpat+0x3e8>
    c004:	3376                	.insn	2, 0x3376
    c006:	6932                	.insn	2, 0x6932
    c008:	7a5f 6d6d 6c75      	.insn	6, 0x6c756d6d7a5f
    c00e:	7a5f 6162 7a5f      	.insn	6, 0x7a5f61627a5f
    c014:	6262                	.insn	2, 0x6262
    c016:	7a5f 7362 7a5f      	.insn	6, 0x7a5f73627a5f
    c01c:	6369                	.insn	2, 0x6369
    c01e:	5f646e6f          	jal	t3,52614 <_stack_top+0x3e614>
    c022:	7478                	.insn	2, 0x7478
    c024:	6568                	.insn	2, 0x6568
    c026:	6461                	.insn	2, 0x6461
    c028:	6162                	.insn	2, 0x6162
    c02a:	785f 6874 6165      	.insn	6, 0x61656874785f
    c030:	6264                	.insn	2, 0x6264
    c032:	5f62                	.insn	2, 0x5f62
    c034:	7478                	.insn	2, 0x7478
    c036:	6568                	.insn	2, 0x6568
    c038:	6461                	.insn	2, 0x6461
    c03a:	7362                	.insn	2, 0x7362
    c03c:	785f 6874 6165      	.insn	6, 0x61656874785f
    c042:	6364                	.insn	2, 0x6364
    c044:	6d646e6f          	jal	t3,5271a <_stack_top+0x3e71a>
    c048:	785f766f          	jal	a2,103fcc <_stack_top+0xeffcc>
    c04c:	6874                	.insn	2, 0x6874
    c04e:	6165                	.insn	2, 0x6165
    c050:	6d64                	.insn	2, 0x6d64
    c052:	6d65                	.insn	2, 0x6d65
    c054:	6469                	.insn	2, 0x6469
    c056:	5f78                	.insn	2, 0x5f78
    c058:	697a                	.insn	2, 0x697a
    c05a:	20727363          	bgeu	tp,t2,c260 <__modsi3+0x66c>
    c05e:	6d2d                	.insn	2, 0x6d2d
    c060:	6261                	.insn	2, 0x6261
    c062:	3d69                	.insn	2, 0x3d69
    c064:	6c69                	.insn	2, 0x6c69
    c066:	3370                	.insn	2, 0x3370
    c068:	0032                	.insn	2, 0x0032
    c06a:	0000                	.insn	2, 0x0000
    c06c:	706d6f43          	.insn	4, 0x706d6f43
    c070:	6c69                	.insn	2, 0x6c69
    c072:	7265                	.insn	2, 0x7265
    c074:	6620                	.insn	2, 0x6620
    c076:	616c                	.insn	2, 0x616c
    c078:	20207367          	.insn	4, 0x20207367
    c07c:	3a20                	.insn	2, 0x3a20
    c07e:	2520                	.insn	2, 0x2520
    c080:	00000a73          	.insn	4, 0x0a73
    c084:	20436f53          	.insn	4, 0x20436f53
    c088:	4f52                	.insn	2, 0x4f52
    c08a:	2f4d                	.insn	2, 0x2f4d
    c08c:	4152                	.insn	2, 0x4152
    c08e:	004d                	.insn	2, 0x004d
    c090:	654d                	.insn	2, 0x654d
    c092:	6f6d                	.insn	2, 0x6f6d
    c094:	7972                	.insn	2, 0x7972
    c096:	6c20                	.insn	2, 0x6c20
    c098:	7461636f          	jal	t1,227de <_stack_top+0xe7de>
    c09c:	6f69                	.insn	2, 0x6f69
    c09e:	206e                	.insn	2, 0x206e
    c0a0:	3a20                	.insn	2, 0x3a20
    c0a2:	2520                	.insn	2, 0x2520
    c0a4:	00000a73          	.insn	4, 0x0a73
    c0a8:	64656573          	.insn	4, 0x64656573
    c0ac:	20637263          	bgeu	t1,t1,c2b0 <__modsi3+0x6bc>
    c0b0:	2020                	.insn	2, 0x2020
    c0b2:	2020                	.insn	2, 0x2020
    c0b4:	2020                	.insn	2, 0x2020
    c0b6:	2020                	.insn	2, 0x2020
    c0b8:	3a20                	.insn	2, 0x3a20
    c0ba:	3020                	.insn	2, 0x3020
    c0bc:	2578                	.insn	2, 0x2578
    c0be:	3430                	.insn	2, 0x3430
    c0c0:	0a78                	.insn	2, 0x0a78
    c0c2:	0000                	.insn	2, 0x0000
    c0c4:	5d64255b          	.insn	4, 0x5d64255b
    c0c8:	6c637263          	bgeu	t1,t1,c78c <_data_load_start+0x18>
    c0cc:	7369                	.insn	2, 0x7369
    c0ce:	2074                	.insn	2, 0x2074
    c0d0:	2020                	.insn	2, 0x2020
    c0d2:	2020                	.insn	2, 0x2020
    c0d4:	2020                	.insn	2, 0x2020
    c0d6:	203a                	.insn	2, 0x203a
    c0d8:	7830                	.insn	2, 0x7830
    c0da:	3025                	.insn	2, 0x3025
    c0dc:	7834                	.insn	2, 0x7834
    c0de:	000a                	.insn	2, 0x000a
    c0e0:	5d64255b          	.insn	4, 0x5d64255b
    c0e4:	6d637263          	bgeu	t1,s6,c7a8 <_data_load_start+0x34>
    c0e8:	7461                	.insn	2, 0x7461
    c0ea:	6972                	.insn	2, 0x6972
    c0ec:	2078                	.insn	2, 0x2078
    c0ee:	2020                	.insn	2, 0x2020
    c0f0:	2020                	.insn	2, 0x2020
    c0f2:	203a                	.insn	2, 0x203a
    c0f4:	7830                	.insn	2, 0x7830
    c0f6:	3025                	.insn	2, 0x3025
    c0f8:	7834                	.insn	2, 0x7834
    c0fa:	000a                	.insn	2, 0x000a
    c0fc:	5d64255b          	.insn	4, 0x5d64255b
    c100:	73637263          	bgeu	t1,s6,c824 <_data_load_start+0xb0>
    c104:	6174                	.insn	2, 0x6174
    c106:	6574                	.insn	2, 0x6574
    c108:	2020                	.insn	2, 0x2020
    c10a:	2020                	.insn	2, 0x2020
    c10c:	2020                	.insn	2, 0x2020
    c10e:	203a                	.insn	2, 0x203a
    c110:	7830                	.insn	2, 0x7830
    c112:	3025                	.insn	2, 0x3025
    c114:	7834                	.insn	2, 0x7834
    c116:	000a                	.insn	2, 0x000a
    c118:	5d64255b          	.insn	4, 0x5d64255b
    c11c:	66637263          	bgeu	t1,t1,c780 <_data_load_start+0xc>
    c120:	6e69                	.insn	2, 0x6e69
    c122:	6c61                	.insn	2, 0x6c61
    c124:	2020                	.insn	2, 0x2020
    c126:	2020                	.insn	2, 0x2020
    c128:	2020                	.insn	2, 0x2020
    c12a:	203a                	.insn	2, 0x203a
    c12c:	7830                	.insn	2, 0x7830
    c12e:	3025                	.insn	2, 0x3025
    c130:	7834                	.insn	2, 0x7834
    c132:	000a                	.insn	2, 0x000a
    c134:	72726f43          	.insn	4, 0x72726f43
    c138:	6365                	.insn	2, 0x6365
    c13a:	2074                	.insn	2, 0x2074
    c13c:	7265706f          	j	63862 <_stack_top+0x4f862>
    c140:	7461                	.insn	2, 0x7461
    c142:	6f69                	.insn	2, 0x6f69
    c144:	206e                	.insn	2, 0x206e
    c146:	6176                	.insn	2, 0x6176
    c148:	696c                	.insn	2, 0x696c
    c14a:	6164                	.insn	2, 0x6164
    c14c:	6574                	.insn	2, 0x6574
    c14e:	2e64                	.insn	2, 0x2e64
    c150:	5320                	.insn	2, 0x5320
    c152:	6565                	.insn	2, 0x6565
    c154:	5220                	.insn	2, 0x5220
    c156:	4145                	.insn	2, 0x4145
    c158:	4d44                	.insn	2, 0x4d44
    c15a:	2e45                	.insn	2, 0x2e45
    c15c:	646d                	.insn	2, 0x646d
    c15e:	6620                	.insn	2, 0x6620
    c160:	7220726f          	jal	tp,13882 <_bss_end+0x303e>
    c164:	6e75                	.insn	2, 0x6e75
    c166:	6120                	.insn	2, 0x6120
    c168:	646e                	.insn	2, 0x646e
    c16a:	7220                	.insn	2, 0x7220
    c16c:	7065                	.insn	2, 0x7065
    c16e:	6974726f          	jal	tp,54004 <_stack_top+0x40004>
    c172:	676e                	.insn	2, 0x676e
    c174:	7220                	.insn	2, 0x7220
    c176:	6c75                	.insn	2, 0x6c75
    c178:	7365                	.insn	2, 0x7365
    c17a:	0a2e                	.insn	2, 0x0a2e
    c17c:	0000                	.insn	2, 0x0000
    c17e:	0000                	.insn	2, 0x0000
    c180:	6e6e6143          	.insn	4, 0x6e6e6143
    c184:	7620746f          	jal	s0,138e6 <_bss_end+0x30a2>
    c188:	6c61                	.insn	2, 0x6c61
    c18a:	6469                	.insn	2, 0x6469
    c18c:	7461                	.insn	2, 0x7461
    c18e:	2065                	.insn	2, 0x2065
    c190:	7265706f          	j	638b6 <_stack_top+0x4f8b6>
    c194:	7461                	.insn	2, 0x7461
    c196:	6f69                	.insn	2, 0x6f69
    c198:	206e                	.insn	2, 0x206e
    c19a:	6f66                	.insn	2, 0x6f66
    c19c:	2072                	.insn	2, 0x2072
    c19e:	6874                	.insn	2, 0x6874
    c1a0:	7365                	.insn	2, 0x7365
    c1a2:	2065                	.insn	2, 0x2065
    c1a4:	64656573          	.insn	4, 0x64656573
    c1a8:	7620                	.insn	2, 0x7620
    c1aa:	6c61                	.insn	2, 0x6c61
    c1ac:	6575                	.insn	2, 0x6575
    c1ae:	70202c73          	.insn	4, 0x70202c73
    c1b2:	656c                	.insn	2, 0x656c
    c1b4:	7361                	.insn	2, 0x7361
    c1b6:	2065                	.insn	2, 0x2065
    c1b8:	706d6f63          	bltu	s10,t1,c8d6 <_data_load_start+0x162>
    c1bc:	7261                	.insn	2, 0x7261
    c1be:	2065                	.insn	2, 0x2065
    c1c0:	68746977          	.insn	4, 0x68746977
    c1c4:	7220                	.insn	2, 0x7220
    c1c6:	7365                	.insn	2, 0x7365
    c1c8:	6c75                	.insn	2, 0x6c75
    c1ca:	7374                	.insn	2, 0x7374
    c1cc:	6f20                	.insn	2, 0x6f20
    c1ce:	206e                	.insn	2, 0x206e
    c1d0:	2061                	.insn	2, 0x2061
    c1d2:	776f6e6b          	.insn	4, 0x776f6e6b
    c1d6:	206e                	.insn	2, 0x206e
    c1d8:	6c70                	.insn	2, 0x6c70
    c1da:	7461                	.insn	2, 0x7461
    c1dc:	6f66                	.insn	2, 0x6f66
    c1de:	6d72                	.insn	2, 0x6d72
    c1e0:	0a2e                	.insn	2, 0x0a2e
    c1e2:	0000                	.insn	2, 0x0000
    c1e4:	7245                	.insn	2, 0x7245
    c1e6:	6f72                	.insn	2, 0x6f72
    c1e8:	7372                	.insn	2, 0x7372
    c1ea:	6420                	.insn	2, 0x6420
    c1ec:	7465                	.insn	2, 0x7465
    c1ee:	6365                	.insn	2, 0x6365
    c1f0:	6574                	.insn	2, 0x6574
    c1f2:	0a64                	.insn	2, 0x0a64
    c1f4:	0000                	.insn	2, 0x0000
    c1f6:	0000                	.insn	2, 0x0000
    c1f8:	74617453          	.insn	4, 0x74617453
    c1fc:	6369                	.insn	2, 0x6369
    c1fe:	0000                	.insn	2, 0x0000
    c200:	6548                	.insn	2, 0x6548
    c202:	7061                	.insn	2, 0x7061
    c204:	0000                	.insn	2, 0x0000
    c206:	0000                	.insn	2, 0x0000
    c208:	63617453          	.insn	4, 0x63617453
    c20c:	0000006b          	.insn	4, 0x006b
    c210:	3054                	.insn	2, 0x3054
    c212:	332e                	.insn	2, 0x332e
    c214:	2d65                	.insn	2, 0x2d65
    c216:	4631                	.insn	2, 0x4631
    c218:	0000                	.insn	2, 0x0000
    c21a:	0000                	.insn	2, 0x0000
    c21c:	542d                	.insn	2, 0x542d
    c21e:	542e                	.insn	2, 0x542e
    c220:	71542b2b          	.insn	4, 0x71542b2b
    c224:	0000                	.insn	2, 0x0000
    c226:	0000                	.insn	2, 0x0000
    c228:	5431                	.insn	2, 0x5431
    c22a:	65342e33          	.insn	4, 0x65342e33
    c22e:	7a34                	.insn	2, 0x7a34
    c230:	0000                	.insn	2, 0x0000
    c232:	0000                	.insn	2, 0x0000
    c234:	302e3433          	.insn	4, 0x302e3433
    c238:	2d65                	.insn	2, 0x2d65
    c23a:	5e54                	.insn	2, 0x5e54
    c23c:	0000                	.insn	2, 0x0000
    c23e:	0000                	.insn	2, 0x0000
    c240:	2e35                	.insn	2, 0x2e35
    c242:	3035                	.insn	2, 0x3035
    c244:	6530                	.insn	2, 0x6530
    c246:	0000332b          	.insn	4, 0x332b
    c24a:	0000                	.insn	2, 0x0000
    c24c:	2e2d                	.insn	2, 0x2e2d
    c24e:	3231                	.insn	2, 0x3231
    c250:	322d6533          	.insn	4, 0x322d6533
    c254:	0000                	.insn	2, 0x0000
    c256:	0000                	.insn	2, 0x0000
    c258:	382d                	.insn	2, 0x382d
    c25a:	382b6537          	lui	a0,0x382b6
    c25e:	00003233          	snez	tp,zero
    c262:	0000                	.insn	2, 0x0000
    c264:	362e302b          	.insn	4, 0x362e302b
    c268:	2d65                	.insn	2, 0x2d65
    c26a:	3231                	.insn	2, 0x3231
    c26c:	0000                	.insn	2, 0x0000
    c26e:	0000                	.insn	2, 0x0000
    c270:	352e3533          	.insn	4, 0x352e3533
    c274:	3434                	.insn	2, 0x3434
    c276:	3030                	.insn	2, 0x3030
    c278:	0000                	.insn	2, 0x0000
    c27a:	0000                	.insn	2, 0x0000
    c27c:	312e                	.insn	2, 0x312e
    c27e:	3332                	.insn	2, 0x3332
    c280:	3534                	.insn	2, 0x3534
    c282:	3030                	.insn	2, 0x3030
    c284:	0000                	.insn	2, 0x0000
    c286:	0000                	.insn	2, 0x0000
    c288:	312d                	.insn	2, 0x312d
    c28a:	3031                	.insn	2, 0x3031
    c28c:	372e                	.insn	2, 0x372e
    c28e:	3030                	.insn	2, 0x3030
    c290:	0000                	.insn	2, 0x0000
    c292:	0000                	.insn	2, 0x0000
    c294:	362e302b          	.insn	4, 0x362e302b
    c298:	3434                	.insn	2, 0x3434
    c29a:	3030                	.insn	2, 0x3030
    c29c:	0000                	.insn	2, 0x0000
    c29e:	0000                	.insn	2, 0x0000
    c2a0:	3035                	.insn	2, 0x3035
    c2a2:	3231                	.insn	2, 0x3231
    c2a4:	0000                	.insn	2, 0x0000
    c2a6:	0000                	.insn	2, 0x0000
    c2a8:	3231                	.insn	2, 0x3231
    c2aa:	00003433          	snez	s0,zero
    c2ae:	0000                	.insn	2, 0x0000
    c2b0:	382d                	.insn	2, 0x382d
    c2b2:	00003437          	lui	s0,0x3
    c2b6:	0000                	.insn	2, 0x0000
    c2b8:	3232312b          	.insn	4, 0x3232312b
    c2bc:	0000                	.insn	2, 0x0000
    c2be:	0000                	.insn	2, 0x0000
    c2c0:	4e3c                	.insn	2, 0x4e3c
    c2c2:	4c55                	.insn	2, 0x4c55
    c2c4:	3e4c                	.insn	2, 0x3e4c
    c2c6:	0000                	.insn	2, 0x0000
    c2c8:	3130                	.insn	2, 0x3130
    c2ca:	3332                	.insn	2, 0x3332
    c2cc:	3534                	.insn	2, 0x3534
    c2ce:	3736                	.insn	2, 0x3736
    c2d0:	3938                	.insn	2, 0x3938
    c2d2:	6261                	.insn	2, 0x6261
    c2d4:	66656463          	bltu	a0,t1,c93c <_data_load_start+0x1c8>
    c2d8:	6a696867          	.insn	4, 0x6a696867
    c2dc:	6e6d6c6b          	.insn	4, 0x6e6d6c6b
    c2e0:	7271706f          	j	24206 <_stack_top+0x10206>
    c2e4:	76757473          	.insn	4, 0x76757473
    c2e8:	7a797877          	.insn	4, 0x7a797877
    c2ec:	0000                	.insn	2, 0x0000
    c2ee:	0000                	.insn	2, 0x0000
    c2f0:	3130                	.insn	2, 0x3130
    c2f2:	3332                	.insn	2, 0x3332
    c2f4:	3534                	.insn	2, 0x3534
    c2f6:	3736                	.insn	2, 0x3736
    c2f8:	3938                	.insn	2, 0x3938
    c2fa:	4241                	.insn	2, 0x4241
    c2fc:	46454443          	.insn	4, 0x46454443
    c300:	4a494847          	.insn	4, 0x4a494847
    c304:	4e4d4c4b          	.insn	4, 0x4e4d4c4b
    c308:	5251504f          	.insn	4, 0x5251504f
    c30c:	56555453          	.insn	4, 0x56555453
    c310:	5a595857          	.insn	4, 0x5a595857
    c314:	0000                	.insn	2, 0x0000
	...

0000c318 <floatpat>:
    c318:	c270 0000 c27c 0000 c288 0000 c294 0000     p...|...........

0000c328 <scipat>:
    c328:	c240 0000 c24c 0000 c258 0000 c264 0000     @...L...X...d...

0000c338 <errpat>:
    c338:	c210 0000 c21c 0000 c228 0000 c234 0000     ........(...4...

0000c348 <intpat>:
    c348:	c2a0 0000 c2a8 0000 c2b0 0000 c2b8 0000     ................
    c358:	7b98 0000 7b68 0000 7b74 0000 7b80 0000     .{..h{..t{...{..
    c368:	7b8c 0000 7b5c 0000 0000 8005 800f 000a     .{..\{..........
    c378:	801b 001e 0014 8011 8033 0036 003c 8039     ........3.6.<.9.
    c388:	0028 802d 8027 0022 8063 0066 006c 8069     (.-.'.".c.f.l.i.
    c398:	0078 807d 8077 0072 0050 8055 805f 005a     x.}.w.r.P.U._.Z.
    c3a8:	804b 004e 0044 8041 80c3 00c6 00cc 80c9     K.N.D.A.........
    c3b8:	00d8 80dd 80d7 00d2 00f0 80f5 80ff 00fa     ................
    c3c8:	80eb 00ee 00e4 80e1 00a0 80a5 80af 00aa     ................
    c3d8:	80bb 00be 00b4 80b1 8093 0096 009c 8099     ................
    c3e8:	0088 808d 8087 0082 8183 0186 018c 8189     ................
    c3f8:	0198 819d 8197 0192 01b0 81b5 81bf 01ba     ................
    c408:	81ab 01ae 01a4 81a1 01e0 81e5 81ef 01ea     ................
    c418:	81fb 01fe 01f4 81f1 81d3 01d6 01dc 81d9     ................
    c428:	01c8 81cd 81c7 01c2 0140 8145 814f 014a     ........@.E.O.J.
    c438:	815b 015e 0154 8151 8173 0176 017c 8179     [.^.T.Q.s.v.|.y.
    c448:	0168 816d 8167 0162 8123 0126 012c 8129     h.m.g.b.#.&.,.).
    c458:	0138 813d 8137 0132 0110 8115 811f 011a     8.=.7.2.........
    c468:	810b 010e 0104 8101 8303 0306 030c 8309     ................
    c478:	0318 831d 8317 0312 0330 8335 833f 033a     ........0.5.?.:.
    c488:	832b 032e 0324 8321 0360 8365 836f 036a     +...$.!.`.e.o.j.
    c498:	837b 037e 0374 8371 8353 0356 035c 8359     {.~.t.q.S.V.\.Y.
    c4a8:	0348 834d 8347 0342 03c0 83c5 83cf 03ca     H.M.G.B.........
    c4b8:	83db 03de 03d4 83d1 83f3 03f6 03fc 83f9     ................
    c4c8:	03e8 83ed 83e7 03e2 83a3 03a6 03ac 83a9     ................
    c4d8:	03b8 83bd 83b7 03b2 0390 8395 839f 039a     ................
    c4e8:	838b 038e 0384 8381 0280 8285 828f 028a     ................
    c4f8:	829b 029e 0294 8291 82b3 02b6 02bc 82b9     ................
    c508:	02a8 82ad 82a7 02a2 82e3 02e6 02ec 82e9     ................
    c518:	02f8 82fd 82f7 02f2 02d0 82d5 82df 02da     ................
    c528:	82cb 02ce 02c4 82c1 8243 0246 024c 8249     ........C.F.L.I.
    c538:	0258 825d 8257 0252 0270 8275 827f 027a     X.].W.R.p.u...z.
    c548:	826b 026e 0264 8261 0220 8225 822f 022a     k.n.d.a. .%./.*.
    c558:	823b 023e 0234 8231 8213 0216 021c 8219     ;.>.4.1.........
    c568:	0208 820d 8207 0202 8158 0000 80dc 0000     ........X.......
    c578:	80dc 0000 814c 0000 80dc 0000 80dc 0000     ....L...........
    c588:	80dc 0000 80dc 0000 80dc 0000 80dc 0000     ................
    c598:	80dc 0000 8140 0000 80dc 0000 8134 0000     ....@.......4...
    c5a8:	80dc 0000 80dc 0000 8128 0000 a4e0 0000     ........(.......
    c5b8:	8164 0000 8164 0000 8164 0000 8164 0000     d...d...d...d...
    c5c8:	8164 0000 8164 0000 8164 0000 8164 0000     d...d...d...d...
    c5d8:	8164 0000 8164 0000 8164 0000 8164 0000     d...d...d...d...
    c5e8:	8164 0000 8164 0000 8164 0000 8164 0000     d...d...d...d...
    c5f8:	8164 0000 8164 0000 8164 0000 8164 0000     d...d...d...d...
    c608:	8164 0000 8164 0000 b198 0000 8164 0000     d...d.......d...
    c618:	8164 0000 8164 0000 8164 0000 8164 0000     d...d...d...d...
    c628:	8164 0000 8164 0000 8164 0000 b190 0000     d...d...d.......
    c638:	8164 0000 8acc 0000 adec 0000 8164 0000     d...........d...
    c648:	8164 0000 8164 0000 8164 0000 adec 0000     d...d...d.......
    c658:	8164 0000 8164 0000 8164 0000 8164 0000     d...d...d...d...
    c668:	8164 0000 8368 0000 87dc 0000 8164 0000     d...h.......d...
    c678:	8164 0000 83c8 0000 8164 0000 9270 0000     d.......d...p...
    c688:	8164 0000 8164 0000 8c70 0000 a094 0000     d...d...p.......
    c698:	8168 0000 8168 0000 8168 0000 8168 0000     h...h...h...h...
    c6a8:	8168 0000 8168 0000 8168 0000 8168 0000     h...h...h...h...
    c6b8:	8168 0000 8168 0000 8168 0000 8168 0000     h...h...h...h...
    c6c8:	8168 0000 8168 0000 8168 0000 8168 0000     h...h...h...h...
    c6d8:	8168 0000 8168 0000 8168 0000 8168 0000     h...h...h...h...
    c6e8:	8168 0000 8168 0000 a04c 0000 8168 0000     h...h...L...h...
    c6f8:	8168 0000 8168 0000 8168 0000 8168 0000     h...h...h...h...
    c708:	8168 0000 8168 0000 8168 0000 9c4c 0000     h...h...h...L...
    c718:	8168 0000 8ad0 0000 9668 0000 8168 0000     h.......h...h...
    c728:	8168 0000 8168 0000 8168 0000 9668 0000     h...h...h...h...
    c738:	8168 0000 8168 0000 8168 0000 8168 0000     h...h...h...h...
    c748:	8168 0000 836c 0000 87e0 0000 8168 0000     h...l.......h...
    c758:	8168 0000 83cc 0000 8168 0000 9274 0000     h.......h...t...
    c768:	8168 0000 8168 0000 8c74 0000               h...h...t...
